                                                                      Page 1
                                                              C:\Users\nhuliyap\AppData\Local\Temp\gh_00009f01.s
Command Line: C:\GHS\comp_201517\ease850.exe -w -stderr=err/actBigNum.err -elf -b0 -I../source/_common -I../source/common -I../source/ecuabcanif -I../source/ecuabcantrcv -I../source/ecuabcryif -I../source/ecuabfee -I../source/ecuabmemif -I../source/libautosar -I../source/mcalcan -I../source/mcalcry -I../source/mcaldio -I../source/mcaleep -I../source/mcalfls -I../source/mcalmcu -I../source/projectara -I../source/projectcfg -I../source/projectcompiler -I../source/swcservicebswm -I../source/swcservicecantp -I../source/swcservicecomm -I../source/swcservicecsm -I../source/swcservicedcm -I../source/swcservicedem -I../source/swcservicedet -I../source/swcserviceecum -I../source/swcservicenvm -I../source/swcserviceos -I../source/swcservicepdur -I../source/swcserviceschm -I../source/swcservicestartup -I../source/wrappers/swcservicesecm -I../source/wrappers/vsecprim -I../source/wrappers/vstdlib -Ic:/ghs/comp_201517/ansi -Ic:/ghs/comp_201517/include/v800 -Igendata -IC:\GHS\comp_201517\lib\rh850 -cg_underscore -cpu=rh850g3k -nofpu -no_v850_simd -rh850_fpsimd=none -nomacro -patch_dbo=C:\_ECU2\ECU_Rivian_A1\Target\repo_projects\pFOTA\cL_R2023.09.01\make\obj\actBigNum.dbo -source=actBigNum.c -o obj\gh_00009f01.o -list=lst/actBigNum.lst C:\Users\nhuliyap\AppData\Local\Temp\gh_00009f01.s 
Original File: C:\Users\nhuliyap\AppData\Local\Temp\gh_00009f01.s
Source File: actBigNum.c
Directory: C:\_ECU2\ECU_Rivian_A1\Target\repo_projects\pFOTA\cL_R2023.09.01\make
Host OS: Windows
EASE: Copyright (C) 1983-2015 Green Hills Software.  All Rights Reserved.
Release: Compiler v2015.1.7
Build Directory: [Directory] BTOWORKER6:c:/build_2015_1_bto/2015-10-21.2100-2015_1_bto/win32-comp-ecom
Revision: [VCInfo] http://toolsvc/branches/release-branch-70-bto/src@544153 (built by build)
Revision Date: Thu Oct 22 07:50:13 2015

Release Date: Thu Oct 22 09:32:32 2015

                           1 --Driver Command: ccrh850 -DBRS_DERIVATIVE_701018 -DBRS_OSC_CLK=16
                           2 --		-DBRS_TIMEBASE_CLOCK=80 -DBRS_EVA_BOARD_
                           3 --		-DBRS_DERIVATIVE_GROUP_F1L -DBRS_OS_USECASE_BRS
                           4 --		-DBRS_PLATFORM_RH850 -DBRS_COMP_GHS
                           5 --		-DBRS_CPU_LOCAL_RAM_SIZE_CORE0=32
                           6 --		-DBRS_CPU_RAM_START_CORE0=0xFEDF8000 -list=lst/actBigNum.lst
                           7 --		-object_dir=obj -stderr=err/actBigNum.err -c -cpu=rh850 -sda=all
                           8 --		-large_sda -prepare_dispose -pragma_asm_inline -no_callt
                           9 --		-inline_prologue -notda -reserve_r2 -fsoft
                          10 --		--unknown_pragma_warnings -list -g -Ogeneral -shortenum
                          11 --		-registermode=32 -I../source/_common -I../source/common
                          12 --		-I../source/ecuabcanif -I../source/ecuabcantrcv
                          13 --		-I../source/ecuabcryif -I../source/ecuabfee
                          14 --		-I../source/ecuabmemif -I../source/libautosar -I../source/mcalcan
                          15 --		-I../source/mcalcry -I../source/mcaldio -I../source/mcaleep
                          16 --		-I../source/mcalfls -I../source/mcalmcu -I../source/projectara
                          17 --		-I../source/projectcfg -I../source/projectcompiler
                          18 --		-I../source/swcservicebswm -I../source/swcservicecantp
                          19 --		-I../source/swcservicecomm -I../source/swcservicecsm
                          20 --		-I../source/swcservicedcm -I../source/swcservicedem
                          21 --		-I../source/swcservicedet -I../source/swcserviceecum
                          22 --		-I../source/swcservicenvm -I../source/swcserviceos
                          23 --		-I../source/swcservicepdur -I../source/swcserviceschm
                          24 --		-I../source/swcservicestartup -I../source/wrappers/swcservicesecm
                          25 --		-I../source/wrappers/vsecprim -I../source/wrappers/vstdlib
                          26 --		-Ic:/ghs/comp_201517/ansi -Ic:/ghs/comp_201517/include/v800
                          27 --		-Igendata ../source/wrappers/vSecPrim/actBigNum.c
                          28 --Source File:   ../source/wrappers/vSecPrim/actBigNum.c
                          29 --Directory:     
                          30 --		C:\_ECU2\ECU_Rivian_A1\Target\repo_projects\pFOTA\cL_R2023.09.01\make
                          31 --Compile Date:  Wed Sep 06 13:35:55 2023
                          32 --Host OS:       Win32
                          33 --Version:       C-RH850 2015.1.7 RELEASE VERSION
                          34 --Release:       Compiler v2015.1.7
                          35 --Revision Date: Thu Oct 22 08:06:12 2015
                          36 --Release Date:  Thu Oct 22 09:34:32 2015
                          37 -- ecom  -g -w -OM
                          38 	.section ".MSR_CODE","ax"
                          39 	.align	2
                          40 ..bof.C.3A.5C_ECU2.5CECU_Rivian_A1.5CTarget.5Crepo_projects.5CpFOTA.5CcL_R2023.2E09.2E01.5Cmake.5Cobj.5CactBigNum...43.3A.5C_ECU2.5CECU_Rivian_A1.5CTarget.5Crepo_projects.5CpFOTA.5CcL_R2023.2E09.2E01.5Cmake..64F8641B..0::
                          41 	.align	2
                          42 ..gh.f.f.1.e.0:
                          43 	.type	..gh.f.f.1.e.0,@object
                          44 	.size	..gh.f.f.1.e.0,0
                          45 	.global	_actBNLoadLE
                          46 _actBNLoadLE:
00000000 0678             47 	mov	r6,r15
00000002 0770             48 	mov	r7,r14
                          49 --	    .bf
                          50 .LDW01:

                                                                      Page 2
                                                              C:\Users\nhuliyap\AppData\Local\Temp\gh_00009f01.s
00000004 8242             51 	shr	2,r8
00000006 003a             52 	mov	0,r7
00000008 0888             53 	mov	r8,r17
0000000a c515*            54 	br	.L7
                          55 .L6:
                          56 --	    .bs
                          57 .LDW11:
                          58 --line24
                          59 ..lin.C.3A.5C_ECU2.5CECU_Rivian_A1.5CTarget.5Crepo_projects.5CpFOTA.5CcL_R2023.2E09.2E01.5Cmake.5Cobj.5CactBigNum.1::
                          60 .LDWlin1:
0000000c 07f0             61 	mov	r7,ep
0000000e cef1             62 	add	r14,ep
00000010 6130             63 	sld.bu	1[ep],r6
00000012 6090             64 	sld.bu	0[ep],r18
00000014 6298             65 	sld.bu	2[ep],r19
00000016 6380             66 	sld.bu	3[ep],r16
00000018 c832             67 	shl	8,r6
0000001a 08f0             68 	mov	r8,ep
0000001c c691             69 	add	r6,r18
0000001e d09a             70 	shl	16,r19
00000020 b1f1             71 	sub	r17,ep
00000022 d391             72 	add	r19,r18
00000024 d882             73 	shl	24,r16
00000026 c2f2             74 	shl	2,ep
00000028 d091             75 	add	r16,r18
0000002a cff1             76 	add	r15,ep
0000002c 443a             77 	add	4,r7
0000002e 0195             78 	sst.w	r18,0[ep]
                          79 --	    .es
                          80 .LDW21:
00000030 5f8a             81 	add	-1,r17
                          82 .L7:
00000032 e089             83 	cmp	zero,r17
00000034 caed*            84 	bne	.L6
                          85 --	    .ef
                          86 .LDW31:
                          87 --line43
                          88 ..lin.C.3A.5C_ECU2.5CECU_Rivian_A1.5CTarget.5Crepo_projects.5CpFOTA.5CcL_R2023.2E09.2E01.5Cmake.5Cobj.5CactBigNum.2::
                          89 .LDWlin2:
00000036 7f00             90 	jmp	[lp]
                          91 	.type	_actBNLoadLE,@function
                          92 	.size	_actBNLoadLE,.-_actBNLoadLE
                          93 	.align	2
                          94 .LDW41:
                          95 --_b	r17	local
                          96 --_offset	r7	local
                          97 --_tmp	r18	local
                          98 
                          99 --_bigNum	r15	param
                         100 --_bytes	r14	param
                         101 --_byteLength	r8	param
                         102 
                         103 	.section ".bss","awb"
                         104 .L43:
                         105 	.type	.L43,@object
                         106 	.size	.L43,0
                         107 	.data
                         108 	.section ".MSR_CODE","ax"
                         109 	.align	2
                         110 	.align	2
                         111 ..gh.f.f.1.e.1:

                                                                      Page 3
                                                              C:\Users\nhuliyap\AppData\Local\Temp\gh_00009f01.s
                         112 	.type	..gh.f.f.1.e.1,@object
                         113 	.size	..gh.f.f.1.e.1,0
                         114 	.global	_actBNStoreLE
                         115 _actBNStoreLE:
                         116 --	    .bf
                         117 .LDW51:
00000038 06f0            118 	mov	r6,ep
0000003a 0880            119 	mov	r8,r16
0000003c a515*           120 	br	.L90
                         121 .L89:
                         122 --	    .bs
                         123 .LDW61:
                         124 --line53
                         125 ..lin.C.3A.5C_ECU2.5CECU_Rivian_A1.5CTarget.5Crepo_projects.5CpFOTA.5CcL_R2023.2E09.2E01.5Cmake.5Cobj.5CactBigNum.3::
                         126 .LDWlin3:
0000003e 0890            127 	mov	r8,r18
00000040 b091            128 	sub	r16,r18
00000042 c292            129 	shl	2,r18
00000044 c791            130 	add	r7,r18
00000046 328f0100        131 	ld.w	0[r18],r17
0000004a 808b            132 	sst.b	r17,0[ep]
0000004c 1178            133 	mov	r17,r15
0000004e 1170            134 	mov	r17,r14
00000050 887a            135 	shr	8,r15
00000052 9072            136 	shr	16,r14
00000054 988a            137 	shr	24,r17
00000056 817b            138 	sst.b	r15,1[ep]
00000058 8273            139 	sst.b	r14,2[ep]
0000005a 838b            140 	sst.b	r17,3[ep]
0000005c 44f2            141 	add	4,ep
                         142 --	    .es
                         143 .LDW71:
0000005e 5f82            144 	add	-1,r16
                         145 .L90:
00000060 e081            146 	cmp	zero,r16
00000062 eaed*           147 	bne	.L89
                         148 --	    .ef
                         149 .LDW81:
                         150 --line71
                         151 ..lin.C.3A.5C_ECU2.5CECU_Rivian_A1.5CTarget.5Crepo_projects.5CpFOTA.5CcL_R2023.2E09.2E01.5Cmake.5Cobj.5CactBigNum.4::
                         152 .LDWlin4:
00000064 7f00            153 	jmp	[lp]
                         154 	.type	_actBNStoreLE,@function
                         155 	.size	_actBNStoreLE,.-_actBNStoreLE
                         156 	.align	2
                         157 .LDW91:
                         158 --_b	r16	local
                         159 --_bytesPtr	ep	local
                         160 --_tmp	r17	local
                         161 
                         162 --_bytes	r6	param
                         163 --_bigNum	r7	param
                         164 --_bnLength	r8	param
                         165 
                         166 	.section ".bss","awb"
                         167 .L123:
                         168 	.type	.L123,@object
                         169 	.size	.L123,0
                         170 	.data
                         171 	.section ".MSR_CODE","ax"
                         172 	.align	2

                                                                      Page 4
                                                              C:\Users\nhuliyap\AppData\Local\Temp\gh_00009f01.s
                         173 	.align	2
                         174 ..gh.f.f.1.e.2:
                         175 	.type	..gh.f.f.1.e.2,@object
                         176 	.size	..gh.f.f.1.e.2,0
                         177 	.global	_actBNCopy
                         178 _actBNCopy:
                         179 --	    .bf
                         180 .LDW02:
00000066 008a            181 	mov	0,r17
00000068 a50d*           182 	br	.L170
                         183 .L169:
                         184 --line77
                         185 ..lin.C.3A.5C_ECU2.5CECU_Rivian_A1.5CTarget.5Crepo_projects.5CpFOTA.5CcL_R2023.2E09.2E01.5Cmake.5Cobj.5CactBigNum.5::
                         186 .LDWlin5:
0000006a 1190            187 	mov	r17,r18
0000006c c292            188 	shl	2,r18
0000006e 12f0            189 	mov	r18,ep
00000070 c791            190 	add	r7,r18
00000072 329f0100        191 	ld.w	0[r18],r19
00000076 c6f1            192 	add	r6,ep
00000078 418a            193 	add	1,r17
0000007a 019d            194 	sst.w	r19,0[ep]
                         195 .L170:
0000007c e889            196 	cmp	r8,r17
0000007e e1f5*           197 	bl	.L169
                         198 --	    .ef
                         199 .LDW12:
                         200 --line79
                         201 ..lin.C.3A.5C_ECU2.5CECU_Rivian_A1.5CTarget.5Crepo_projects.5CpFOTA.5CcL_R2023.2E09.2E01.5Cmake.5Cobj.5CactBigNum.6::
                         202 .LDWlin6:
00000080 7f00            203 	jmp	[lp]
                         204 	.type	_actBNCopy,@function
                         205 	.size	_actBNCopy,.-_actBNCopy
                         206 	.align	2
                         207 .LDW22:
                         208 --_i	r17	local
                         209 
                         210 --_a	r6	param
                         211 --_b	r7	param
                         212 --_length	r8	param
                         213 
                         214 	.section ".bss","awb"
                         215 .L203:
                         216 	.type	.L203,@object
                         217 	.size	.L203,0
                         218 	.data
                         219 	.section ".MSR_CODE","ax"
                         220 	.align	2
                         221 	.align	2
                         222 ..gh.f.f.1.e.3:
                         223 	.type	..gh.f.f.1.e.3,@object
                         224 	.size	..gh.f.f.1.e.3,0
                         225 	.global	_actBNGetBitLength
                         226 _actBNGetBitLength:
                         227 --	    .bf
                         228 .LDW32:
00000082 0052            229 	mov	0,r10
00000084 e039            230 	cmp	zero,r7
00000086 b215*           231 	be	.L247
                         232 --	    .bs
                         233 .LDW42:

                                                                      Page 5
                                                              C:\Users\nhuliyap\AppData\Local\Temp\gh_00009f01.s
                         234 --line88
                         235 ..lin.C.3A.5C_ECU2.5CECU_Rivian_A1.5CTarget.5Crepo_projects.5CpFOTA.5CcL_R2023.2E09.2E01.5Cmake.5Cobj.5CactBigNum.7::
                         236 .LDWlin7:
00000088 0756ffff        237 	addi	-1,r7,r10
0000008c a505*           238 	br	.L249
                         239 .L251:
                         240 --line90
                         241 ..lin.C.3A.5C_ECU2.5CECU_Rivian_A1.5CTarget.5Crepo_projects.5CpFOTA.5CcL_R2023.2E09.2E01.5Cmake.5Cobj.5CactBigNum.8::
                         242 .LDWlin8:
0000008e 5f52            243 	add	-1,r10
                         244 .L249:
00000090 0af0            245 	mov	r10,ep
00000092 c2f2            246 	shl	2,ep
00000094 c6f1            247 	add	r6,ep
00000096 004d            248 	sld.w	0[ep],r9
00000098 e049            249 	cmp	zero,r9
0000009a ba05*           250 	bne	.L250
0000009c e051            251 	cmp	zero,r10
0000009e 8afd*           252 	bne	.L251
                         253 .L250:
                         254 --line93
                         255 ..lin.C.3A.5C_ECU2.5CECU_Rivian_A1.5CTarget.5Crepo_projects.5CpFOTA.5CcL_R2023.2E09.2E01.5Cmake.5Cobj.5CactBigNum.9::
                         256 .LDWlin9:
000000a0 c552            257 	shl	5,r10
000000a2 b505*           258 	br	.L253
                         259 .L255:
                         260 --line95
                         261 ..lin.C.3A.5C_ECU2.5CECU_Rivian_A1.5CTarget.5Crepo_projects.5CpFOTA.5CcL_R2023.2E09.2E01.5Cmake.5Cobj.5CactBigNum.10::
                         262 .LDWlin10:
000000a4 4152            263 	add	1,r10
000000a6 814a            264 	shr	1,r9
                         265 .L253:
000000a8 e049            266 	cmp	zero,r9
000000aa dafd*           267 	bne	.L255
                         268 .L247:
                         269 --	    .es
                         270 .LDW52:
                         271 --	    .ef
                         272 .LDW62:
                         273 --line100
                         274 ..lin.C.3A.5C_ECU2.5CECU_Rivian_A1.5CTarget.5Crepo_projects.5CpFOTA.5CcL_R2023.2E09.2E01.5Cmake.5Cobj.5CactBigNum.11::
                         275 .LDWlin11:
000000ac 7f00            276 	jmp	[lp]
                         277 	.type	_actBNGetBitLength,@function
                         278 	.size	_actBNGetBitLength,.-_actBNGetBitLength
                         279 	.align	2
                         280 .LDW72:
                         281 --_bits	r10	local
                         282 --_high_digit	r9	local
                         283 --_i	r10	local
                         284 
                         285 --_a	r6	param
                         286 --_length	r7	param
                         287 
                         288 	.section ".bss","awb"
                         289 .L326:
                         290 	.type	.L326,@object
                         291 	.size	.L326,0
                         292 	.data
                         293 	.section ".MSR_CODE","ax"
                         294 	.align	2

                                                                      Page 6
                                                              C:\Users\nhuliyap\AppData\Local\Temp\gh_00009f01.s
                         295 	.align	2
                         296 ..gh.f.f.1.e.4:
                         297 	.type	..gh.f.f.1.e.4,@object
                         298 	.size	..gh.f.f.1.e.4,0
                         299 	.global	_actBNSetBit
                         300 _actBNSetBit:
                         301 --	    .bf
                         302 .LDW82:
000000ae c53a            303 	shl	5,r7
000000b0 0152            304 	mov	1,r10
000000b2 e741            305 	cmp	r7,r8
000000b4 c90d*           306 	bnl	.L416
                         307 --line111
                         308 ..lin.C.3A.5C_ECU2.5CECU_Rivian_A1.5CTarget.5Crepo_projects.5CpFOTA.5CcL_R2023.2E09.2E01.5Cmake.5Cobj.5CactBigNum.12::
                         309 .LDWlin12:
000000b6 08f0            310 	mov	r8,ep
000000b8 85f2            311 	shr	5,ep
000000ba c2f2            312 	shl	2,ep
000000bc c6f1            313 	add	r6,ep
000000be 003d            314 	sld.w	0[ep],r7
000000c0 e857c290        315 	shl	r8,r10,r18
000000c4 0052            316 	mov	0,r10
000000c6 1239            317 	or	r18,r7
000000c8 013d            318 	sst.w	r7,0[ep]
000000ca 7f00            319 	jmp	[lp]
                         320 .L416:
                         321 --	    .ef
                         322 .LDW92:
                         323 --line115
                         324 ..lin.C.3A.5C_ECU2.5CECU_Rivian_A1.5CTarget.5Crepo_projects.5CpFOTA.5CcL_R2023.2E09.2E01.5Cmake.5Cobj.5CactBigNum.13::
                         325 .LDWlin13:
000000cc 7f00            326 	jmp	[lp]
                         327 	.type	_actBNSetBit,@function
                         328 	.size	_actBNSetBit,.-_actBNSetBit
                         329 	.align	2
                         330 .LDW03:
                         331 --_retVal	r10	local
                         332 
                         333 --_a	r6	param
                         334 --_length	r7	param
                         335 --_bit_pos	r8	param
                         336 
                         337 	.section ".bss","awb"
                         338 .L459:
                         339 	.type	.L459,@object
                         340 	.size	.L459,0
                         341 	.data
                         342 	.section ".MSR_CODE","ax"
                         343 	.align	2
                         344 	.align	2
                         345 ..gh.f.f.1.e.5:
                         346 	.type	..gh.f.f.1.e.5,@object
                         347 	.size	..gh.f.f.1.e.5,0
                         348 	.global	_actBNSet
                         349 _actBNSet:
                         350 --	    .bf
                         351 .LDW13:
000000ce 66470100        352 	st.w	r8,0[r6]
000000d2 0192            353 	mov	1,r18
000000d4 e505*           354 	br	.L505
                         355 .L504:

                                                                      Page 7
                                                              C:\Users\nhuliyap\AppData\Local\Temp\gh_00009f01.s
                         356 --line126
                         357 ..lin.C.3A.5C_ECU2.5CECU_Rivian_A1.5CTarget.5Crepo_projects.5CpFOTA.5CcL_R2023.2E09.2E01.5Cmake.5Cobj.5CactBigNum.14::
                         358 .LDWlin14:
000000d6 12f0            359 	mov	r18,ep
000000d8 c2f2            360 	shl	2,ep
000000da c6f1            361 	add	r6,ep
000000dc 0105            362 	sst.w	zero,0[ep]
000000de 4192            363 	add	1,r18
                         364 .L505:
000000e0 e791            365 	cmp	r7,r18
000000e2 a1fd*           366 	bl	.L504
                         367 --	    .ef
                         368 .LDW23:
                         369 --line128
                         370 ..lin.C.3A.5C_ECU2.5CECU_Rivian_A1.5CTarget.5Crepo_projects.5CpFOTA.5CcL_R2023.2E09.2E01.5Cmake.5Cobj.5CactBigNum.15::
                         371 .LDWlin15:
000000e4 7f00            372 	jmp	[lp]
                         373 	.type	_actBNSet,@function
                         374 	.size	_actBNSet,.-_actBNSet
                         375 	.align	2
                         376 .LDW33:
                         377 --_i	r18	local
                         378 
                         379 --_a	r6	param
                         380 --_length	r7	param
                         381 --_value	r8	param
                         382 
                         383 	.section ".bss","awb"
                         384 .L539:
                         385 	.type	.L539,@object
                         386 	.size	.L539,0
                         387 	.data
                         388 	.section ".MSR_CODE","ax"
                         389 	.align	2
                         390 	.align	2
                         391 ..gh.f.f.1.e.6:
                         392 	.type	..gh.f.f.1.e.6,@object
                         393 	.size	..gh.f.f.1.e.6,0
                         394 	.global	_actBNIsZero
                         395 _actBNIsZero:
                         396 --	    .bf
                         397 .LDW43:
000000e6 0152            398 	mov	1,r10
000000e8 0092            399 	mov	0,r18
000000ea a50d*           400 	br	.L586
                         401 .L585:
                         402 --line137
                         403 ..lin.C.3A.5C_ECU2.5CECU_Rivian_A1.5CTarget.5Crepo_projects.5CpFOTA.5CcL_R2023.2E09.2E01.5Cmake.5Cobj.5CactBigNum.16::
                         404 .LDWlin16:
000000ec 12f0            405 	mov	r18,ep
000000ee c2f2            406 	shl	2,ep
000000f0 c6f1            407 	add	r6,ep
000000f2 009d            408 	sld.w	0[ep],r19
000000f4 e099            409 	cmp	zero,r19
000000f6 b205*           410 	be	.L584
000000f8 0052            411 	mov	0,r10
000000fa 7f00            412 	jmp	[lp]
                         413 .L584:
                         414 --line136
                         415 ..lin.C.3A.5C_ECU2.5CECU_Rivian_A1.5CTarget.5Crepo_projects.5CpFOTA.5CcL_R2023.2E09.2E01.5Cmake.5Cobj.5CactBigNum.17::
                         416 .LDWlin17:

                                                                      Page 8
                                                              C:\Users\nhuliyap\AppData\Local\Temp\gh_00009f01.s
000000fc 4192            417 	add	1,r18
                         418 .L586:
000000fe e791            419 	cmp	r7,r18
00000100 e1f5*           420 	bl	.L585
                         421 --	    .ef
                         422 .LDW53:
                         423 --line136
                         424 ..lin.C.3A.5C_ECU2.5CECU_Rivian_A1.5CTarget.5Crepo_projects.5CpFOTA.5CcL_R2023.2E09.2E01.5Cmake.5Cobj.5CactBigNum.18::
                         425 .LDWlin18:
00000102 7f00            426 	jmp	[lp]
                         427 	.type	_actBNIsZero,@function
                         428 	.size	_actBNIsZero,.-_actBNIsZero
                         429 	.align	2
                         430 .LDW63:
                         431 --_retVal	r10	local
                         432 --_i	r18	local
                         433 
                         434 --_a	r6	param
                         435 --_length	r7	param
                         436 
                         437 	.section ".bss","awb"
                         438 .L642:
                         439 	.type	.L642,@object
                         440 	.size	.L642,0
                         441 	.data
                         442 	.section ".MSR_CODE","ax"
                         443 	.align	2
                         444 	.align	2
                         445 ..gh.f.f.1.e.7:
                         446 	.type	..gh.f.f.1.e.7,@object
                         447 	.size	..gh.f.f.1.e.7,0
                         448 	.global	_actBNCompare
                         449 _actBNCompare:
00000104 0698            450 	mov	r6,r19
00000106 0778            451 	mov	r7,r15
                         452 --	    .bf
                         453 .LDW73:
00000108 20561100        454 	movea	17,zero,r10
0000010c 008a            455 	mov	0,r17
0000010e c515*           456 	br	.L708
                         457 .L707:
                         458 --line153
                         459 ..lin.C.3A.5C_ECU2.5CECU_Rivian_A1.5CTarget.5Crepo_projects.5CpFOTA.5CcL_R2023.2E09.2E01.5Cmake.5Cobj.5CactBigNum.19::
                         460 .LDWlin19:
00000110 0880            461 	mov	r8,r16
00000112 b181            462 	sub	r17,r16
00000114 1096ffff        463 	addi	-1,r16,r18
00000118 c292            464 	shl	2,r18
0000011a 12f0            465 	mov	r18,ep
0000011c d3f1            466 	add	r19,ep
0000011e cf91            467 	add	r15,r18
00000120 0035            468 	sld.w	0[ep],r6
00000122 323f0100        469 	ld.w	0[r18],r7
00000126 e639            470 	cmp	r6,r7
00000128 c105*           471 	bl	.L715
0000012a d305*           472 	bnh	.L706
                         473 --line154
                         474 ..lin.C.3A.5C_ECU2.5CECU_Rivian_A1.5CTarget.5Crepo_projects.5CpFOTA.5CcL_R2023.2E09.2E01.5Cmake.5Cobj.5CactBigNum.20::
                         475 .LDWlin20:
0000012c 5f52            476 	add	-1,r10
0000012e 7f00            477 	jmp	[lp]

                                                                      Page 9
                                                              C:\Users\nhuliyap\AppData\Local\Temp\gh_00009f01.s
                         478 .L715:
                         479 --line158
                         480 ..lin.C.3A.5C_ECU2.5CECU_Rivian_A1.5CTarget.5Crepo_projects.5CpFOTA.5CcL_R2023.2E09.2E01.5Cmake.5Cobj.5CactBigNum.21::
                         481 .LDWlin21:
00000130 4152            482 	add	1,r10
00000132 7f00            483 	jmp	[lp]
                         484 .L706:
                         485 --line152
                         486 ..lin.C.3A.5C_ECU2.5CECU_Rivian_A1.5CTarget.5Crepo_projects.5CpFOTA.5CcL_R2023.2E09.2E01.5Cmake.5Cobj.5CactBigNum.22::
                         487 .LDWlin22:
00000134 418a            488 	add	1,r17
                         489 .L708:
00000136 e889            490 	cmp	r8,r17
00000138 c1ed*           491 	bl	.L707
                         492 --	    .ef
                         493 .LDW83:
                         494 --line152
                         495 ..lin.C.3A.5C_ECU2.5CECU_Rivian_A1.5CTarget.5Crepo_projects.5CpFOTA.5CcL_R2023.2E09.2E01.5Cmake.5Cobj.5CactBigNum.23::
                         496 .LDWlin23:
0000013a 7f00            497 	jmp	[lp]
                         498 	.type	_actBNCompare,@function
                         499 	.size	_actBNCompare,.-_actBNCompare
                         500 	.align	2
                         501 .LDW93:
                         502 --_retVal	r10	local
                         503 --_i	r17	local
                         504 
                         505 --_a	r19	param
                         506 --_b	r15	param
                         507 --_length	r8	param
                         508 
                         509 	.section ".bss","awb"
                         510 .L772:
                         511 	.type	.L772,@object
                         512 	.size	.L772,0
                         513 	.data
                         514 	.section ".MSR_CODE","ax"
                         515 	.align	2
                         516 	.align	2
                         517 ..gh.f.f.1.e.8:
                         518 	.type	..gh.f.f.1.e.8,@object
                         519 	.size	..gh.f.f.1.e.8,0
                         520 	.global	_actBNSetOctetString
                         521 _actBNSetOctetString:
0000013c 8007e1a0        522 	prepare	{r24,r26,r28,r29,r31},0
00000140 07e0            523 	mov	r7,r28
00000142 08c0            524 	mov	r8,r24
                         525 --	    .bf
                         526 .LDW04:
00000144 09e8            527 	mov	r9,r29
00000146 82ea            528 	shr	2,r29
00000148 09d6ffff        529 	addi	-1,r9,r26
0000014c 0042            530 	mov	0,r8
                         531 	jarl	_actBNSet,lp
                         531 <EXPANSION BEGIN>
                         531 jarl22 _actBNSet , lp 
0000014e bfff80ff*       531 <EXPANSION END>
                         532 --line177
                         533 ..lin.C.3A.5C_ECU2.5CECU_Rivian_A1.5CTarget.5Crepo_projects.5CpFOTA.5CcL_R2023.2E09.2E01.5Cmake.5Cobj.5CactBigNum.24::
                         534 .LDWlin24:
00000152 e7e9            535 	cmp	r7,r29

                                                                      Page 10
                                                              C:\Users\nhuliyap\AppData\Local\Temp\gh_00009f01.s
00000154 e7ef32eb        536 	cmovnl	r7,r29,r29
00000158 0890            537 	mov	r8,r18
0000015a f515*           538 	br	.L851
                         539 .L850:
                         540 --line186
                         541 ..lin.C.3A.5C_ECU2.5CECU_Rivian_A1.5CTarget.5Crepo_projects.5CpFOTA.5CcL_R2023.2E09.2E01.5Cmake.5Cobj.5CactBigNum.25::
                         542 .LDWlin25:
0000015c 1af0            543 	mov	r26,ep
0000015e d8f1            544 	add	r24,ep
00000160 be67fdff        545 	ld.bu	-3[ep],r12
00000164 9e87ffff        546 	ld.bu	-2[ep],r16
00000168 be7fffff        547 	ld.bu	-1[ep],r15
0000016c 6058            548 	sld.bu	0[ep],r11
0000016e d862            549 	shl	24,r12
00000170 d082            550 	shl	16,r16
00000172 1288            551 	mov	r18,r17
00000174 0c81            552 	or	r12,r16
00000176 c87a            553 	shl	8,r15
00000178 c28a            554 	shl	2,r17
0000017a 1079            555 	or	r16,r15
0000017c c689            556 	add	r6,r17
0000017e 0f59            557 	or	r15,r11
00000180 715f0100        558 	st.w	r11,0[r17]
00000184 5cd2            559 	add	-4,r26
00000186 4192            560 	add	1,r18
                         561 .L851:
00000188 fd91            562 	cmp	r29,r18
0000018a 91ed*           563 	bl	.L850
                         564 --line194
                         565 ..lin.C.3A.5C_ECU2.5CECU_Rivian_A1.5CTarget.5Crepo_projects.5CpFOTA.5CcL_R2023.2E09.2E01.5Cmake.5Cobj.5CactBigNum.26::
                         566 .LDWlin26:
0000018c c2e2            567 	shl	2,r28
0000018e fc49            568 	cmp	r28,r9
00000190 cb15*           569 	bh	.L846
                         570 --line195
                         571 ..lin.C.3A.5C_ECU2.5CECU_Rivian_A1.5CTarget.5Crepo_projects.5CpFOTA.5CcL_R2023.2E09.2E01.5Cmake.5Cobj.5CactBigNum.27::
                         572 .LDWlin27:
00000192 c9960300        573 	andi	3,r9,r18
00000196 f50d*           574 	br	.L857
                         575 .L856:
                         576 --line196
                         577 ..lin.C.3A.5C_ECU2.5CECU_Rivian_A1.5CTarget.5Crepo_projects.5CpFOTA.5CcL_R2023.2E09.2E01.5Cmake.5Cobj.5CactBigNum.28::
                         578 .LDWlin28:
00000198 1df0            579 	mov	r29,ep
0000019a c2f2            580 	shl	2,ep
0000019c c6f1            581 	add	r6,ep
0000019e 006d            582 	sld.w	0[ep],r13
000001a0 1a70            583 	mov	r26,r14
000001a2 b271            584 	sub	r18,r14
000001a4 d871            585 	add	r24,r14
000001a6 c86a            586 	shl	8,r13
000001a8 016d            587 	sst.w	r13,0[ep]
000001aa ae570100        588 	ld.bu	1[r14],r10
000001ae 5f92            589 	add	-1,r18
000001b0 0d51            590 	or	r13,r10
000001b2 0155            591 	sst.w	r10,0[ep]
                         592 .L857:
000001b4 e091            593 	cmp	zero,r18
000001b6 9af5*           594 	bne	.L856
                         595 .L846:
                         596 --	    .ef

                                                                      Page 11
                                                              C:\Users\nhuliyap\AppData\Local\Temp\gh_00009f01.s
                         597 .LDW14:
                         598 --line201
                         599 ..lin.C.3A.5C_ECU2.5CECU_Rivian_A1.5CTarget.5Crepo_projects.5CpFOTA.5CcL_R2023.2E09.2E01.5Cmake.5Cobj.5CactBigNum.29::
                         600 .LDWlin29:
000001b8 4006ffa0        601 	dispose	0,{r24,r26,r28,r29,r31},[lp]
                         602 	.type	_actBNSetOctetString,@function
                         603 	.size	_actBNSetOctetString,.-_actBNSetOctetString
                         604 	.align	2
                         605 .LDW24:
                         606 --_i	r18	local
                         607 --_digits	r29	local
                         608 --_offset	r26	local
                         609 
                         610 --_a	r25	param
                         611 --_length	r28	param
                         612 --_in	r24	param
                         613 --_in_len	r27	param
                         614 
                         615 	.section ".bss","awb"
                         616 .L920:
                         617 	.type	.L920,@object
                         618 	.size	.L920,0
                         619 	.data
                         620 	.section ".MSR_CODE","ax"
                         621 	.align	2
                         622 	.align	2
                         623 ..gh.f.f.1.e.9:
                         624 	.type	..gh.f.f.1.e.9,@object
                         625 	.size	..gh.f.f.1.e.9,0
                         626 	.global	_actBNSetOctetStringROM
                         627 _actBNSetOctetStringROM:
000001bc 8007e1a0        628 	prepare	{r24,r26,r28,r29,r31},0
000001c0 07e0            629 	mov	r7,r28
000001c2 08c0            630 	mov	r8,r24
                         631 --	    .bf
                         632 .LDW34:
000001c4 09e8            633 	mov	r9,r29
000001c6 82ea            634 	shr	2,r29
000001c8 09d6ffff        635 	addi	-1,r9,r26
000001cc 0042            636 	mov	0,r8
                         637 	jarl	_actBNSet,lp
                         637 <EXPANSION BEGIN>
                         637 jarl22 _actBNSet , lp 
000001ce bfff00ff*       637 <EXPANSION END>
                         638 --line210
                         639 ..lin.C.3A.5C_ECU2.5CECU_Rivian_A1.5CTarget.5Crepo_projects.5CpFOTA.5CcL_R2023.2E09.2E01.5Cmake.5Cobj.5CactBigNum.30::
                         640 .LDWlin30:
000001d2 e7e9            641 	cmp	r7,r29
000001d4 e7ef32eb        642 	cmovnl	r7,r29,r29
000001d8 0890            643 	mov	r8,r18
000001da f515*           644 	br	.L1003
                         645 .L1002:
                         646 --line219
                         647 ..lin.C.3A.5C_ECU2.5CECU_Rivian_A1.5CTarget.5Crepo_projects.5CpFOTA.5CcL_R2023.2E09.2E01.5Cmake.5Cobj.5CactBigNum.31::
                         648 .LDWlin31:
000001dc 1af0            649 	mov	r26,ep
000001de d8f1            650 	add	r24,ep
000001e0 be67fdff        651 	ld.bu	-3[ep],r12
000001e4 9e87ffff        652 	ld.bu	-2[ep],r16
000001e8 be7fffff        653 	ld.bu	-1[ep],r15
000001ec 6058            654 	sld.bu	0[ep],r11

                                                                      Page 12
                                                              C:\Users\nhuliyap\AppData\Local\Temp\gh_00009f01.s
000001ee d862            655 	shl	24,r12
000001f0 d082            656 	shl	16,r16
000001f2 1288            657 	mov	r18,r17
000001f4 0c81            658 	or	r12,r16
000001f6 c87a            659 	shl	8,r15
000001f8 c28a            660 	shl	2,r17
000001fa 1079            661 	or	r16,r15
000001fc c689            662 	add	r6,r17
000001fe 0f59            663 	or	r15,r11
00000200 715f0100        664 	st.w	r11,0[r17]
00000204 5cd2            665 	add	-4,r26
00000206 4192            666 	add	1,r18
                         667 .L1003:
00000208 fd91            668 	cmp	r29,r18
0000020a 91ed*           669 	bl	.L1002
                         670 --line227
                         671 ..lin.C.3A.5C_ECU2.5CECU_Rivian_A1.5CTarget.5Crepo_projects.5CpFOTA.5CcL_R2023.2E09.2E01.5Cmake.5Cobj.5CactBigNum.32::
                         672 .LDWlin32:
0000020c c2e2            673 	shl	2,r28
0000020e fc49            674 	cmp	r28,r9
00000210 cb15*           675 	bh	.L998
                         676 --line228
                         677 ..lin.C.3A.5C_ECU2.5CECU_Rivian_A1.5CTarget.5Crepo_projects.5CpFOTA.5CcL_R2023.2E09.2E01.5Cmake.5Cobj.5CactBigNum.33::
                         678 .LDWlin33:
00000212 c9960300        679 	andi	3,r9,r18
00000216 f50d*           680 	br	.L1009
                         681 .L1008:
                         682 --line229
                         683 ..lin.C.3A.5C_ECU2.5CECU_Rivian_A1.5CTarget.5Crepo_projects.5CpFOTA.5CcL_R2023.2E09.2E01.5Cmake.5Cobj.5CactBigNum.34::
                         684 .LDWlin34:
00000218 1df0            685 	mov	r29,ep
0000021a c2f2            686 	shl	2,ep
0000021c c6f1            687 	add	r6,ep
0000021e 006d            688 	sld.w	0[ep],r13
00000220 1a70            689 	mov	r26,r14
00000222 b271            690 	sub	r18,r14
00000224 d871            691 	add	r24,r14
00000226 c86a            692 	shl	8,r13
00000228 016d            693 	sst.w	r13,0[ep]
0000022a ae570100        694 	ld.bu	1[r14],r10
0000022e 5f92            695 	add	-1,r18
00000230 0d51            696 	or	r13,r10
00000232 0155            697 	sst.w	r10,0[ep]
                         698 .L1009:
00000234 e091            699 	cmp	zero,r18
00000236 9af5*           700 	bne	.L1008
                         701 .L998:
                         702 --	    .ef
                         703 .LDW44:
                         704 --line234
                         705 ..lin.C.3A.5C_ECU2.5CECU_Rivian_A1.5CTarget.5Crepo_projects.5CpFOTA.5CcL_R2023.2E09.2E01.5Cmake.5Cobj.5CactBigNum.35::
                         706 .LDWlin35:
00000238 4006ffa0        707 	dispose	0,{r24,r26,r28,r29,r31},[lp]
                         708 	.type	_actBNSetOctetStringROM,@function
                         709 	.size	_actBNSetOctetStringROM,.-_actBNSetOctetStringROM
                         710 	.align	2
                         711 .LDW54:
                         712 --_i	r18	local
                         713 --_digits	r29	local
                         714 --_offset	r26	local
                         715 

                                                                      Page 13
                                                              C:\Users\nhuliyap\AppData\Local\Temp\gh_00009f01.s
                         716 --_a	r25	param
                         717 --_length	r28	param
                         718 --_in	r24	param
                         719 --_in_len	r27	param
                         720 
                         721 	.section ".bss","awb"
                         722 .L1080:
                         723 	.type	.L1080,@object
                         724 	.size	.L1080,0
                         725 	.data
                         726 	.section ".MSR_CODE","ax"
                         727 	.align	2
                         728 	.align	2
                         729 ..gh.f.f.1.e.10:
                         730 	.type	..gh.f.f.1.e.10,@object
                         731 	.size	..gh.f.f.1.e.10,0
                         732 	.global	_actBNOctetString
                         733 _actBNOctetString:
0000023c 8007e1f0        734 	prepare	{r24,r25,r26,r27,r28,r29,r31},0
00000240 06d8            735 	mov	r6,r27
00000242 07d0            736 	mov	r7,r26
00000244 08c0            737 	mov	r8,r24
00000246 09c8            738 	mov	r9,r25
                         739 --	    .bf
                         740 .LDW64:
00000248 07e0            741 	mov	r7,r28
0000024a 07e8            742 	mov	r7,r29
0000024c 0740            743 	mov	r7,r8
0000024e 82e2            744 	shr	2,r28
00000250 003a            745 	mov	0,r7
                         746 	jarl	_VStdLib_MemSet,lp
                         746 <EXPANSION BEGIN>
                         746 jarl22 _VStdLib_MemSet , lp 
00000252 80ff0000*       746 <EXPANSION END>
                         747 --line246
                         748 ..lin.C.3A.5C_ECU2.5CECU_Rivian_A1.5CTarget.5Crepo_projects.5CpFOTA.5CcL_R2023.2E09.2E01.5Cmake.5Cobj.5CactBigNum.36::
                         749 .LDWlin36:
00000256 f9e1            750 	cmp	r25,r28
00000258 f9e732e3        751 	cmovnl	r25,r28,r28
0000025c 008a            752 	mov	0,r17
0000025e 951d*           753 	br	.L1163
                         754 .L1162:
                         755 --line260
                         756 ..lin.C.3A.5C_ECU2.5CECU_Rivian_A1.5CTarget.5Crepo_projects.5CpFOTA.5CcL_R2023.2E09.2E01.5Cmake.5Cobj.5CactBigNum.37::
                         757 .LDWlin37:
00000260 11f0            758 	mov	r17,ep
00000262 c2f2            759 	shl	2,ep
00000264 d8f1            760 	add	r24,ep
00000266 0095            761 	sld.w	0[ep],r18
00000268 5fea            762 	add	-1,r29
0000026a 1df0            763 	mov	r29,ep
0000026c dbf1            764 	add	r27,ep
0000026e 8093            765 	sst.b	r18,0[ep]
00000270 5fea            766 	add	-1,r29
00000272 1df0            767 	mov	r29,ep
00000274 8892            768 	shr	8,r18
00000276 dbf1            769 	add	r27,ep
00000278 8093            770 	sst.b	r18,0[ep]
0000027a 5fea            771 	add	-1,r29
0000027c 1df0            772 	mov	r29,ep
0000027e 8892            773 	shr	8,r18

                                                                      Page 14
                                                              C:\Users\nhuliyap\AppData\Local\Temp\gh_00009f01.s
00000280 dbf1            774 	add	r27,ep
00000282 8093            775 	sst.b	r18,0[ep]
00000284 5fea            776 	add	-1,r29
00000286 1df0            777 	mov	r29,ep
00000288 8892            778 	shr	8,r18
0000028a dbf1            779 	add	r27,ep
0000028c 8093            780 	sst.b	r18,0[ep]
0000028e 418a            781 	add	1,r17
                         782 .L1163:
00000290 fc89            783 	cmp	r28,r17
00000292 f1e5*           784 	bl	.L1162
                         785 --line278
                         786 ..lin.C.3A.5C_ECU2.5CECU_Rivian_A1.5CTarget.5Crepo_projects.5CpFOTA.5CcL_R2023.2E09.2E01.5Cmake.5Cobj.5CactBigNum.38::
                         787 .LDWlin38:
00000294 c2ca            788 	shl	2,r25
00000296 f9d1            789 	cmp	r25,r26
00000298 ab15*           790 	bh	.L1158
                         791 --line279
                         792 ..lin.C.3A.5C_ECU2.5CECU_Rivian_A1.5CTarget.5Crepo_projects.5CpFOTA.5CcL_R2023.2E09.2E01.5Cmake.5Cobj.5CactBigNum.39::
                         793 .LDWlin39:
0000029a da860300        794 	andi	3,r26,r16
0000029e f20d*           795 	be	.L1158
                         796 --line280
                         797 ..lin.C.3A.5C_ECU2.5CECU_Rivian_A1.5CTarget.5Crepo_projects.5CpFOTA.5CcL_R2023.2E09.2E01.5Cmake.5Cobj.5CactBigNum.40::
                         798 .LDWlin40:
000002a0 11f0            799 	mov	r17,ep
000002a2 c2f2            800 	shl	2,ep
000002a4 d8f1            801 	add	r24,ep
000002a6 0095            802 	sld.w	0[ep],r18
000002a8 1088            803 	mov	r16,r17
000002aa f505*           804 	br	.L1171
                         805 .L1170:
                         806 --line284
                         807 ..lin.C.3A.5C_ECU2.5CECU_Rivian_A1.5CTarget.5Crepo_projects.5CpFOTA.5CcL_R2023.2E09.2E01.5Cmake.5Cobj.5CactBigNum.41::
                         808 .LDWlin41:
000002ac 5fea            809 	add	-1,r29
000002ae 1df0            810 	mov	r29,ep
000002b0 dbf1            811 	add	r27,ep
000002b2 8093            812 	sst.b	r18,0[ep]
000002b4 8892            813 	shr	8,r18
000002b6 5f8a            814 	add	-1,r17
                         815 .L1171:
000002b8 e089            816 	cmp	zero,r17
000002ba 9afd*           817 	bne	.L1170
                         818 .L1158:
                         819 --	    .ef
                         820 .LDW74:
                         821 --line291
                         822 ..lin.C.3A.5C_ECU2.5CECU_Rivian_A1.5CTarget.5Crepo_projects.5CpFOTA.5CcL_R2023.2E09.2E01.5Cmake.5Cobj.5CactBigNum.42::
                         823 .LDWlin42:
000002bc 4006fff0        824 	dispose	0,{r24,r25,r26,r27,r28,r29,r31},[lp]
                         825 	.type	_actBNOctetString,@function
                         826 	.size	_actBNOctetString,.-_actBNOctetString
                         827 	.align	2
                         828 .LDW84:
                         829 --_i	r17	local
                         830 --_digits	r28	local
                         831 --_tmp	r18	local
                         832 --_offset	r29	local
                         833 
                         834 --_out	r27	param

                                                                      Page 15
                                                              C:\Users\nhuliyap\AppData\Local\Temp\gh_00009f01.s
                         835 --_out_len	r26	param
                         836 --_a	r24	param
                         837 --_length	r25	param
                         838 
                         839 	.section ".bss","awb"
                         840 .L1236:
                         841 	.type	.L1236,@object
                         842 	.size	.L1236,0
                         843 	.data
                         844 	.section ".MSR_CODE","ax"
                         845 	.align	2
                         846 
                         847 	.data
                         848 	.ghsnote version,17
                         849 	.ghsnote tools,3
                         850 	.ghsnote options,144
                         851 	.section ".MSR_CODE","ax"
                         852 	.align	2
                         853 ..eof.C.3A.5C_ECU2.5CECU_Rivian_A1.5CTarget.5Crepo_projects.5CpFOTA.5CcL_R2023.2E09.2E01.5Cmake.5Cobj.5CactBigNum...43.3A.5C_ECU2.5CECU_Rivian_A1.5CTarget.5Crepo_projects.5CpFOTA.5CcL_R2023.2E09.2E01.5Cmake..64F8641B..0::
                         854 .rh850_flags REGMODE32,DATA_ALIGN8,GP_FIX,EP_NONFIX,TP_FIX,REG2_RESERVE,G3K,SDA_EXTRA_REGS_0
