                                                                      Page 1
                                                              C:\Users\nhuliyap\AppData\Local\Temp\gh_0000dng1.s
Command Line: C:\GHS\comp_201517\ease850.exe -w -stderr=err/actIRSAPrivateCRT.err -elf -b0 -I../source/_common -I../source/common -I../source/ecuabcanif -I../source/ecuabcantrcv -I../source/ecuabcryif -I../source/ecuabfee -I../source/ecuabmemif -I../source/libautosar -I../source/mcalcan -I../source/mcalcry -I../source/mcaldio -I../source/mcaleep -I../source/mcalfls -I../source/mcalmcu -I../source/projectara -I../source/projectcfg -I../source/projectcompiler -I../source/swcservicebswm -I../source/swcservicecantp -I../source/swcservicecomm -I../source/swcservicecsm -I../source/swcservicedcm -I../source/swcservicedem -I../source/swcservicedet -I../source/swcserviceecum -I../source/swcservicenvm -I../source/swcserviceos -I../source/swcservicepdur -I../source/swcserviceschm -I../source/swcservicestartup -I../source/wrappers/swcservicesecm -I../source/wrappers/vsecprim -I../source/wrappers/vstdlib -Ic:/ghs/comp_201517/ansi -Ic:/ghs/comp_201517/include/v800 -Igendata -IC:\GHS\comp_201517\lib\rh850 -cg_underscore -cpu=rh850g3k -nofpu -no_v850_simd -rh850_fpsimd=none -nomacro -patch_dbo=C:\_ECU2\ECU_Rivian_A1\Target\repo_projects\pFOTA\cL_R2023.09.01\make\obj\actIRSAPrivateCRT.dbo -source=actIRSAPrivateCRT.c -o obj\gh_0000dng1.o -list=lst/actIRSAPrivateCRT.lst C:\Users\nhuliyap\AppData\Local\Temp\gh_0000dng1.s 
Original File: C:\Users\nhuliyap\AppData\Local\Temp\gh_0000dng1.s
Source File: actIRSAPrivateCRT.c
Directory: C:\_ECU2\ECU_Rivian_A1\Target\repo_projects\pFOTA\cL_R2023.09.01\make
Host OS: Windows
EASE: Copyright (C) 1983-2015 Green Hills Software.  All Rights Reserved.
Release: Compiler v2015.1.7
Build Directory: [Directory] BTOWORKER6:c:/build_2015_1_bto/2015-10-21.2100-2015_1_bto/win32-comp-ecom
Revision: [VCInfo] http://toolsvc/branches/release-branch-70-bto/src@544153 (built by build)
Revision Date: Thu Oct 22 07:50:13 2015

Release Date: Thu Oct 22 09:32:32 2015

                           1 --Driver Command: ccrh850 -DBRS_DERIVATIVE_701018 -DBRS_OSC_CLK=16
                           2 --		-DBRS_TIMEBASE_CLOCK=80 -DBRS_EVA_BOARD_
                           3 --		-DBRS_DERIVATIVE_GROUP_F1L -DBRS_OS_USECASE_BRS
                           4 --		-DBRS_PLATFORM_RH850 -DBRS_COMP_GHS
                           5 --		-DBRS_CPU_LOCAL_RAM_SIZE_CORE0=32
                           6 --		-DBRS_CPU_RAM_START_CORE0=0xFEDF8000
                           7 --		-list=lst/actIRSAPrivateCRT.lst -object_dir=obj
                           8 --		-stderr=err/actIRSAPrivateCRT.err -c -cpu=rh850 -sda=all
                           9 --		-large_sda -prepare_dispose -pragma_asm_inline -no_callt
                          10 --		-inline_prologue -notda -reserve_r2 -fsoft
                          11 --		--unknown_pragma_warnings -list -g -Ogeneral -shortenum
                          12 --		-registermode=32 -I../source/_common -I../source/common
                          13 --		-I../source/ecuabcanif -I../source/ecuabcantrcv
                          14 --		-I../source/ecuabcryif -I../source/ecuabfee
                          15 --		-I../source/ecuabmemif -I../source/libautosar -I../source/mcalcan
                          16 --		-I../source/mcalcry -I../source/mcaldio -I../source/mcaleep
                          17 --		-I../source/mcalfls -I../source/mcalmcu -I../source/projectara
                          18 --		-I../source/projectcfg -I../source/projectcompiler
                          19 --		-I../source/swcservicebswm -I../source/swcservicecantp
                          20 --		-I../source/swcservicecomm -I../source/swcservicecsm
                          21 --		-I../source/swcservicedcm -I../source/swcservicedem
                          22 --		-I../source/swcservicedet -I../source/swcserviceecum
                          23 --		-I../source/swcservicenvm -I../source/swcserviceos
                          24 --		-I../source/swcservicepdur -I../source/swcserviceschm
                          25 --		-I../source/swcservicestartup -I../source/wrappers/swcservicesecm
                          26 --		-I../source/wrappers/vsecprim -I../source/wrappers/vstdlib
                          27 --		-Ic:/ghs/comp_201517/ansi -Ic:/ghs/comp_201517/include/v800
                          28 --		-Igendata ../source/wrappers/vSecPrim/actIRSAPrivateCRT.c
                          29 --Source File:   ../source/wrappers/vSecPrim/actIRSAPrivateCRT.c
                          30 --Directory:     
                          31 --		C:\_ECU2\ECU_Rivian_A1\Target\repo_projects\pFOTA\cL_R2023.09.01\make
                          32 --Compile Date:  Wed Sep 06 13:36:39 2023
                          33 --Host OS:       Win32
                          34 --Version:       C-RH850 2015.1.7 RELEASE VERSION
                          35 --Release:       Compiler v2015.1.7
                          36 --Revision Date: Thu Oct 22 08:06:12 2015
                          37 --Release Date:  Thu Oct 22 09:34:32 2015
                          38 -- ecom  -g -w -OM
                          39 	.section ".MSR_CODE","ax"
                          40 	.align	2
                          41 ..bof.C.3A.5C_ECU2.5CECU_Rivian_A1.5CTarget.5Crepo_projects.5CpFOTA.5CcL_R2023.2E09.2E01.5Cmake.5Cobj.5CactIRSAPrivateCRT...43.3A.5C_ECU2.5CECU_Rivian_A1.5CTarget.5Crepo_projects.5CpFOTA.5CcL_R2023.2E09.2E01.5Cmake..64F86447..0::
                          42 	.align	2
                          43 ..gh.f.f.1.e.0:
                          44 	.type	..gh.f.f.1.e.0,@object
                          45 	.size	..gh.f.f.1.e.0,0
                          46 	.global	_actRSAInitPrivateKeyOperationCRT
                          47 _actRSAInitPrivateKeyOperationCRT:
00000000 8a07e3ff         48 	prepare	{r20,r21,r22,r23,r24,r25,r26,r27,r28,r29,r31},5,sp
00000004 0735             49 	sst.w	r6,12[ep]
00000006 07d0             50 	mov	r7,r26

                                                                      Page 2
                                                              C:\Users\nhuliyap\AppData\Local\Temp\gh_0000dng1.s
00000008 0945             51 	sst.w	r8,16[ep]
0000000a 09c0             52 	mov	r9,r24
0000000c 2ced             53 	sld.w	88[ep],r29
                          54 --	    .bf
                          55 .LDW01:
0000000e 2e35             56 	sld.w	92[ep],r6
00000010 07e60300         57 	addi	3,r7,r28
00000014 09de0300         58 	addi	3,r9,r27
00000018 1d5e4c09         59 	addi	2380,r29,r11
0000001c 82e2             60 	shr	2,r28
0000001e 82da             61 	shr	2,r27
00000020 1dce8400         62 	addi	132,r29,r25
00000024 1db60801         63 	addi	264,r29,r22
00000028 1dae8c01         64 	addi	396,r29,r21
0000002c 1da61002         65 	addi	528,r29,r20
00000030 1dbe9402         66 	addi	660,r29,r23
00000034 055d             67 	sst.w	r11,8[ep]
                          68 	jarl	_actWatchdogTriggerFunction,lp
                          68 <EXPANSION BEGIN>
                          68 jarl22 _actWatchdogTriggerFunction , lp 
00000036 80ff0000*        68 <EXPANSION END>
                          69 --line43
                          70 ..lin.C.3A.5C_ECU2.5CECU_Rivian_A1.5CTarget.5Crepo_projects.5CpFOTA.5CcL_R2023.2E09.2E01.5Cmake.5Cobj.5CactIRSAPrivateCRT.1::
                          71 .LDWlin1:
0000003a 23674500         72 	ld.w	68[sp],r12
0000003e fa61             73 	cmp	r26,r12
00000040 eb073501*        74 	bh	.L30
00000044 235f4d00         75 	ld.w	76[sp],r11
00000048 f859             76 	cmp	r24,r11
0000004a eb072b01*        77 	bh	.L30
0000004e 235f5500         78 	ld.w	84[sp],r11
00000052 fa59             79 	cmp	r26,r11
00000054 eb072101*        80 	bh	.L30
                          81 --line47
                          82 ..lin.C.3A.5C_ECU2.5CECU_Rivian_A1.5CTarget.5Crepo_projects.5CpFOTA.5CcL_R2023.2E09.2E01.5Cmake.5Cobj.5CactIRSAPrivateCRT.2::
                          83 .LDWlin2:
00000058 1c06deff         84 	addi	-34,r28,zero
0000005c 910d*            85 	bl	.L10
0000005e 1b06deff         86 	addi	-34,r27,zero
00000062 e105*            87 	bl	.L10
00000064 1b90             88 	mov	r27,r18
00000066 dc91             89 	add	r28,r18
00000068 1206beff         90 	addi	-66,r18,zero
0000006c d905*            91 	bnl	.L9
                          92 .L10:
                          93 --line48
                          94 ..lin.C.3A.5C_ECU2.5CECU_Rivian_A1.5CTarget.5Crepo_projects.5CpFOTA.5CcL_R2023.2E09.2E01.5Cmake.5Cobj.5CactIRSAPrivateCRT.3::
                          95 .LDWlin3:
0000006e 20eef400         96 	movea	244,zero,r29
00000072 80074401*        97 	br	.L8
                          98 .L9:
                          99 --line51
                         100 ..lin.C.3A.5C_ECU2.5CECU_Rivian_A1.5CTarget.5Crepo_projects.5CpFOTA.5CcL_R2023.2E09.2E01.5Cmake.5Cobj.5CactIRSAPrivateCRT.4::
                         101 .LDWlin4:
00000076 23470d00        102 	ld.w	12[sp],r8
0000007a 1d30            103 	mov	r29,r6
0000007c 1c38            104 	mov	r28,r7
0000007e 1a48            105 	mov	r26,r9
                         106 	jarl	_actBNSetOctetStringROM,lp
                         106 <EXPANSION BEGIN>
                         106 jarl22 _actBNSetOctetStringROM , lp 

                                                                      Page 3
                                                              C:\Users\nhuliyap\AppData\Local\Temp\gh_0000dng1.s
00000080 80ff0000*       106 <EXPANSION END>
                         107 --line52
                         108 ..lin.C.3A.5C_ECU2.5CECU_Rivian_A1.5CTarget.5Crepo_projects.5CpFOTA.5CcL_R2023.2E09.2E01.5Cmake.5Cobj.5CactIRSAPrivateCRT.5::
                         109 .LDWlin5:
00000084 23471100        110 	ld.w	16[sp],r8
00000088 1930            111 	mov	r25,r6
0000008a 1b38            112 	mov	r27,r7
0000008c 1848            113 	mov	r24,r9
                         114 	jarl	_actBNSetOctetStringROM,lp
                         114 <EXPANSION BEGIN>
                         114 jarl22 _actBNSetOctetStringROM , lp 
0000008e 80ff0000*       114 <EXPANSION END>
                         115 --line53
                         116 ..lin.C.3A.5C_ECU2.5CECU_Rivian_A1.5CTarget.5Crepo_projects.5CpFOTA.5CcL_R2023.2E09.2E01.5Cmake.5Cobj.5CactIRSAPrivateCRT.6::
                         117 .LDWlin6:
00000092 03f0            118 	mov	sp,ep
00000094 2045            119 	sld.w	64[ep],r8
00000096 224d            120 	sld.w	68[ep],r9
00000098 1630            121 	mov	r22,r6
0000009a 1c38            122 	mov	r28,r7
                         123 	jarl	_actBNSetOctetStringROM,lp
                         123 <EXPANSION BEGIN>
                         123 jarl22 _actBNSetOctetStringROM , lp 
0000009c 80ff0000*       123 <EXPANSION END>
                         124 --line54
                         125 ..lin.C.3A.5C_ECU2.5CECU_Rivian_A1.5CTarget.5Crepo_projects.5CpFOTA.5CcL_R2023.2E09.2E01.5Cmake.5Cobj.5CactIRSAPrivateCRT.7::
                         126 .LDWlin7:
000000a0 03f0            127 	mov	sp,ep
000000a2 2445            128 	sld.w	72[ep],r8
000000a4 264d            129 	sld.w	76[ep],r9
000000a6 1530            130 	mov	r21,r6
000000a8 1b38            131 	mov	r27,r7
                         132 	jarl	_actBNSetOctetStringROM,lp
                         132 <EXPANSION BEGIN>
                         132 jarl22 _actBNSetOctetStringROM , lp 
000000aa 80ff0000*       132 <EXPANSION END>
                         133 --line55
                         134 ..lin.C.3A.5C_ECU2.5CECU_Rivian_A1.5CTarget.5Crepo_projects.5CpFOTA.5CcL_R2023.2E09.2E01.5Cmake.5Cobj.5CactIRSAPrivateCRT.8::
                         135 .LDWlin8:
000000ae 03f0            136 	mov	sp,ep
000000b0 2845            137 	sld.w	80[ep],r8
000000b2 2a4d            138 	sld.w	84[ep],r9
000000b4 1430            139 	mov	r20,r6
000000b6 1c38            140 	mov	r28,r7
                         141 	jarl	_actBNSetOctetStringROM,lp
                         141 <EXPANSION BEGIN>
                         141 jarl22 _actBNSetOctetStringROM , lp 
000000b8 80ff0000*       141 <EXPANSION END>
                         142 --line57
                         143 ..lin.C.3A.5C_ECU2.5CECU_Rivian_A1.5CTarget.5Crepo_projects.5CpFOTA.5CcL_R2023.2E09.2E01.5Cmake.5Cobj.5CactIRSAPrivateCRT.9::
                         144 .LDWlin9:
000000bc 23375d00        145 	ld.w	92[sp],r6
                         146 	jarl	_actWatchdogTriggerFunction,lp
                         146 <EXPANSION BEGIN>
                         146 jarl22 _actWatchdogTriggerFunction , lp 
000000c0 80ff0000*       146 <EXPANSION END>
                         147 --line59
                         148 ..lin.C.3A.5C_ECU2.5CECU_Rivian_A1.5CTarget.5Crepo_projects.5CpFOTA.5CcL_R2023.2E09.2E01.5Cmake.5Cobj.5CactIRSAPrivateCRT.10::
                         149 .LDWlin10:
000000c4 03f0            150 	mov	sp,ep
000000c6 045d            151 	sld.w	8[ep],r11

                                                                      Page 4
                                                              C:\Users\nhuliyap\AppData\Local\Temp\gh_0000dng1.s
000000c8 300600000000*   152 	mov	_FblLookForWatchdogVoid,r16
000000ce 1d30            153 	mov	r29,r6
000000d0 1c38            154 	mov	r28,r7
000000d2 1940            155 	mov	r25,r8
000000d4 1b48            156 	mov	r27,r9
000000d6 015d            157 	sst.w	r11,0[ep]
000000d8 0385            158 	sst.w	r16,4[ep]
                         159 	jarl	_actBNMult,lp
                         159 <EXPANSION BEGIN>
                         159 jarl22 _actBNMult , lp 
000000da 80ff0000*       159 <EXPANSION END>
                         160 --line61
                         161 ..lin.C.3A.5C_ECU2.5CECU_Rivian_A1.5CTarget.5Crepo_projects.5CpFOTA.5CcL_R2023.2E09.2E01.5Cmake.5Cobj.5CactIRSAPrivateCRT.11::
                         162 .LDWlin11:
000000de 23370900        163 	ld.w	8[sp],r6
000000e2 1b38            164 	mov	r27,r7
000000e4 dc39            165 	add	r28,r7
                         166 	jarl	_actBNGetBitLength,lp
                         166 <EXPANSION BEGIN>
                         166 jarl22 _actBNGetBitLength , lp 
000000e6 80ff0000*       166 <EXPANSION END>
000000ea 0a8e0700        167 	addi	7,r10,r17
000000ee 838a            168 	shr	3,r17
000000f0 7d8f6d0a        169 	st.w	r17,2668[r29]
                         170 --line63
                         171 ..lin.C.3A.5C_ECU2.5CECU_Rivian_A1.5CTarget.5Crepo_projects.5CpFOTA.5CcL_R2023.2E09.2E01.5Cmake.5Cobj.5CactIRSAPrivateCRT.12::
                         172 .LDWlin12:
000000f4 1430            173 	mov	r20,r6
000000f6 1c38            174 	mov	r28,r7
                         175 	jarl	_actBNIsZero,lp
                         175 <EXPANSION BEGIN>
                         175 jarl22 _actBNIsZero , lp 
000000f8 80ff0000*       175 <EXPANSION END>
000000fc 6152            176 	cmp	1,r10
000000fe b23d*           177 	be	.L30
                         178 --line66
                         179 ..lin.C.3A.5C_ECU2.5CECU_Rivian_A1.5CTarget.5Crepo_projects.5CpFOTA.5CcL_R2023.2E09.2E01.5Cmake.5Cobj.5CactIRSAPrivateCRT.13::
                         180 .LDWlin13:
00000100 1430            181 	mov	r20,r6
00000102 1d38            182 	mov	r29,r7
00000104 1c40            183 	mov	r28,r8
                         184 	jarl	_actBNCompare,lp
                         184 <EXPANSION BEGIN>
                         184 jarl22 _actBNCompare , lp 
00000106 80ff0000*       184 <EXPANSION END>
0000010a 0a06efff        185 	addi	-17,r10,zero
0000010e b135*           186 	bl	.L30
                         187 --line70
                         188 ..lin.C.3A.5C_ECU2.5CECU_Rivian_A1.5CTarget.5Crepo_projects.5CpFOTA.5CcL_R2023.2E09.2E01.5Cmake.5Cobj.5CactIRSAPrivateCRT.14::
                         189 .LDWlin14:
00000110 fcd9            190 	cmp	r28,r27
00000112 1730            191 	mov	r23,r6
00000114 fcdf263b        192 	cmovnh	r28,r27,r7
00000118 0042            193 	mov	0,r8
                         194 	jarl	_actBNSet,lp
                         194 <EXPANSION BEGIN>
                         194 jarl22 _actBNSet , lp 
0000011a 80ff0000*       194 <EXPANSION END>
                         195 --line71
                         196 ..lin.C.3A.5C_ECU2.5CECU_Rivian_A1.5CTarget.5Crepo_projects.5CpFOTA.5CcL_R2023.2E09.2E01.5Cmake.5Cobj.5CactIRSAPrivateCRT.15::
                         197 .LDWlin15:

                                                                      Page 5
                                                              C:\Users\nhuliyap\AppData\Local\Temp\gh_0000dng1.s
0000011e 014a            198 	mov	1,r9
00000120 774f0100        199 	st.w	r9,0[r23]
00000124 1d30            200 	mov	r29,r6
00000126 1738            201 	mov	r23,r7
00000128 1d40            202 	mov	r29,r8
0000012a 1c48            203 	mov	r28,r9
                         204 	jarl	_actBNSub,lp
                         204 <EXPANSION BEGIN>
                         204 jarl22 _actBNSub , lp 
0000012c 80ff0000*       204 <EXPANSION END>
                         205 --line74
                         206 ..lin.C.3A.5C_ECU2.5CECU_Rivian_A1.5CTarget.5Crepo_projects.5CpFOTA.5CcL_R2023.2E09.2E01.5Cmake.5Cobj.5CactIRSAPrivateCRT.16::
                         207 .LDWlin16:
00000130 1930            208 	mov	r25,r6
00000132 1738            209 	mov	r23,r7
00000134 1940            210 	mov	r25,r8
00000136 1b48            211 	mov	r27,r9
                         212 	jarl	_actBNSub,lp
                         212 <EXPANSION BEGIN>
                         212 jarl22 _actBNSub , lp 
00000138 80ff0000*       212 <EXPANSION END>
                         213 --line76
                         214 ..lin.C.3A.5C_ECU2.5CECU_Rivian_A1.5CTarget.5Crepo_projects.5CpFOTA.5CcL_R2023.2E09.2E01.5Cmake.5Cobj.5CactIRSAPrivateCRT.17::
                         215 .LDWlin17:
0000013c 1630            216 	mov	r22,r6
0000013e 1c38            217 	mov	r28,r7
                         218 	jarl	_actBNIsZero,lp
                         218 <EXPANSION BEGIN>
                         218 jarl22 _actBNIsZero , lp 
00000140 80ff0000*       218 <EXPANSION END>
00000144 6152            219 	cmp	1,r10
00000146 f215*           220 	be	.L30
                         221 --line80
                         222 ..lin.C.3A.5C_ECU2.5CECU_Rivian_A1.5CTarget.5Crepo_projects.5CpFOTA.5CcL_R2023.2E09.2E01.5Cmake.5Cobj.5CactIRSAPrivateCRT.18::
                         223 .LDWlin18:
00000148 1630            224 	mov	r22,r6
0000014a 1d38            225 	mov	r29,r7
0000014c 1c40            226 	mov	r28,r8
                         227 	jarl	_actBNCompare,lp
                         227 <EXPANSION BEGIN>
                         227 jarl22 _actBNCompare , lp 
0000014e 80ff0000*       227 <EXPANSION END>
00000152 0a06efff        228 	addi	-17,r10,zero
00000156 f10d*           229 	bl	.L30
                         230 --line84
                         231 ..lin.C.3A.5C_ECU2.5CECU_Rivian_A1.5CTarget.5Crepo_projects.5CpFOTA.5CcL_R2023.2E09.2E01.5Cmake.5Cobj.5CactIRSAPrivateCRT.19::
                         232 .LDWlin19:
00000158 1530            233 	mov	r21,r6
0000015a 1b38            234 	mov	r27,r7
                         235 	jarl	_actBNIsZero,lp
                         235 <EXPANSION BEGIN>
                         235 jarl22 _actBNIsZero , lp 
0000015c 80ff0000*       235 <EXPANSION END>
00000160 6152            236 	cmp	1,r10
00000162 920d*           237 	be	.L30
                         238 --line88
                         239 ..lin.C.3A.5C_ECU2.5CECU_Rivian_A1.5CTarget.5Crepo_projects.5CpFOTA.5CcL_R2023.2E09.2E01.5Cmake.5Cobj.5CactIRSAPrivateCRT.20::
                         240 .LDWlin20:
00000164 1530            241 	mov	r21,r6
00000166 1938            242 	mov	r25,r7
00000168 1b40            243 	mov	r27,r8

                                                                      Page 6
                                                              C:\Users\nhuliyap\AppData\Local\Temp\gh_0000dng1.s
                         244 	jarl	_actBNCompare,lp
                         244 <EXPANSION BEGIN>
                         244 jarl22 _actBNCompare , lp 
0000016a 80ff0000*       244 <EXPANSION END>
0000016e 0a06efff        245 	addi	-17,r10,zero
00000172 c905*           246 	bnl	.L29
                         247 .L30:
                         248 --line90
                         249 ..lin.C.3A.5C_ECU2.5CECU_Rivian_A1.5CTarget.5Crepo_projects.5CpFOTA.5CcL_R2023.2E09.2E01.5Cmake.5Cobj.5CactIRSAPrivateCRT.21::
                         250 .LDWlin21:
00000174 20eefb00        251 	movea	251,zero,r29
00000178 f51d*           252 	br	.L8
                         253 .L29:
                         254 --line94
                         255 ..lin.C.3A.5C_ECU2.5CECU_Rivian_A1.5CTarget.5Crepo_projects.5CpFOTA.5CcL_R2023.2E09.2E01.5Cmake.5Cobj.5CactIRSAPrivateCRT.22::
                         256 .LDWlin22:
0000017a 03f0            257 	mov	sp,ep
0000017c 065d            258 	sld.w	12[ep],r11
0000017e 0865            259 	sld.w	16[ep],r12
00000180 206d            260 	sld.w	64[ep],r13
00000182 2275            261 	sld.w	68[ep],r14
00000184 247d            262 	sld.w	72[ep],r15
00000186 2685            263 	sld.w	76[ep],r16
00000188 288d            264 	sld.w	80[ep],r17
0000018a 2a95            265 	sld.w	84[ep],r18
0000018c 7d5f710a        266 	st.w	r11,2672[r29]
00000190 7dd7590a        267 	st.w	r26,2648[r29]
00000194 7d67750a        268 	st.w	r12,2676[r29]
00000198 7dc75d0a        269 	st.w	r24,2652[r29]
0000019c 7d6f790a        270 	st.w	r13,2680[r29]
000001a0 7d77610a        271 	st.w	r14,2656[r29]
000001a4 7d7f7d0a        272 	st.w	r15,2684[r29]
000001a8 7d87650a        273 	st.w	r16,2660[r29]
000001ac 7d8f810a        274 	st.w	r17,2688[r29]
000001b0 7d97690a        275 	st.w	r18,2664[r29]
000001b4 00ea            276 	mov	0,r29
                         277 .L8:
000001b6 23375d00        278 	ld.w	92[sp],r6
                         279 	jarl	_actWatchdogTriggerFunction,lp
                         279 <EXPANSION BEGIN>
                         279 jarl22 _actWatchdogTriggerFunction , lp 
000001ba 80ff0000*       279 <EXPANSION END>
                         280 --line111
                         281 ..lin.C.3A.5C_ECU2.5CECU_Rivian_A1.5CTarget.5Crepo_projects.5CpFOTA.5CcL_R2023.2E09.2E01.5Cmake.5Cobj.5CactIRSAPrivateCRT.23::
                         282 .LDWlin23:
000001be 1d50            283 	mov	r29,r10
                         284 --	    .ef
                         285 .LDW11:
000001c0 4a06ffff        286 	dispose	5,{r20,r21,r22,r23,r24,r25,r26,r27,r28,r29,r31},[lp]
                         287 	.type	_actRSAInitPrivateKeyOperationCRT,@function
                         288 	.size	_actRSAInitPrivateKeyOperationCRT,.-_actRSAInitPrivateKeyOperationCRT
                         289 	.align	2
                         290 .LDW21:
                         291 --_retVal	r29	local
                         292 --_p_length	r28	local
                         293 --_q_length	r27	local
                         294 --_p	r29	local
                         295 --_q	r25	local
                         296 --_dp	r22	local
                         297 --_dq	r21	local
                         298 --_qInv	r20	local

                                                                      Page 7
                                                              C:\Users\nhuliyap\AppData\Local\Temp\gh_0000dng1.s
                         299 --_one	r23	local
                         300 --_t6	8[sp]	local
                         301 
                         302 --_prime_p	12[sp]	param
                         303 --_prime_p_len	r26	param
                         304 --_prime_q	16[sp]	param
                         305 --_prime_q_len	r24	param
                         306 --_private_exponent_dp	64[sp]	param
                         307 --_private_exponent_dp_len	68[sp]	param
                         308 --_private_exponent_dq	72[sp]	param
                         309 --_private_exponent_dq_len	76[sp]	param
                         310 --_q_inverse_mod_p	80[sp]	param
                         311 --_q_inverse_mod_p_len	84[sp]	param
                         312 --_wsCRT	r29	param
                         313 --_watchdog	92[sp]	param
                         314 
                         315 	.section ".bss","awb"
                         316 .L154:
                         317 	.type	.L154,@object
                         318 	.size	.L154,0
                         319 	.data
                         320 	.section ".MSR_CODE","ax"
                         321 	.align	2
                         322 	.align	2
                         323 ..gh.f.f.1.e.1:
                         324 	.type	..gh.f.f.1.e.1,@object
                         325 	.size	..gh.f.f.1.e.1,0
                         326 	.global	_actRSAPrivateKeyOperationCRT
                         327 _actRSAPrivateKeyOperationCRT:
000001c4 9607e3ff        328 	prepare	{r20,r21,r22,r23,r24,r25,r26,r27,r28,r29,r31},11,sp
000001c8 0f35            329 	sst.w	r6,28[ep]
000001ca 0b3d            330 	sst.w	r7,20[ep]
000001cc 1545            331 	sst.w	r8,40[ep]
000001ce 114d            332 	sst.w	r9,32[ep]
000001d0 2ced            333 	sld.w	88[ep],r29
000001d2 2ee5            334 	sld.w	92[ep],r28
                         335 --	    .bf
                         336 .LDW31:
000001d4 3df6580a        337 	movea	2648,r29,ep
000001d8 00b5            338 	sld.w	0[ep],r22
000001da 02ad            339 	sld.w	4[ep],r21
000001dc 0abd            340 	sld.w	20[ep],r23
000001de 1c30            341 	mov	r28,r6
000001e0 16ce0300        342 	addi	3,r22,r25
000001e4 15de0300        343 	addi	3,r21,r27
000001e8 17d60300        344 	addi	3,r23,r26
000001ec 82ca            345 	shr	2,r25
000001ee 82da            346 	shr	2,r27
000001f0 82d2            347 	shr	2,r26
                         348 	jarl	_actWatchdogTriggerFunction,lp
                         348 <EXPANSION BEGIN>
                         348 jarl22 _actWatchdogTriggerFunction , lp 
000001f2 80ff0000*       348 <EXPANSION END>
                         349 --line154
                         350 ..lin.C.3A.5C_ECU2.5CECU_Rivian_A1.5CTarget.5Crepo_projects.5CpFOTA.5CcL_R2023.2E09.2E01.5Cmake.5Cobj.5CactIRSAPrivateCRT.24::
                         351 .LDWlin24:
000001f6 235f1500        352 	ld.w	20[sp],r11
000001fa f759            353 	cmp	r23,r11
000001fc bb2d*           354 	bh	.L319
                         355 --line158
                         356 ..lin.C.3A.5C_ECU2.5CECU_Rivian_A1.5CTarget.5Crepo_projects.5CpFOTA.5CcL_R2023.2E09.2E01.5Cmake.5Cobj.5CactIRSAPrivateCRT.25::

                                                                      Page 8
                                                              C:\Users\nhuliyap\AppData\Local\Temp\gh_0000dng1.s
                         357 .LDWlin25:
000001fe 234f2100        358 	ld.w	32[sp],r9
00000202 294f0100        359 	ld.w	0[r9],r9
00000206 f749            360 	cmp	r23,r9
00000208 d905*           361 	bnl	.L312
                         362 --line159
                         363 ..lin.C.3A.5C_ECU2.5CECU_Rivian_A1.5CTarget.5Crepo_projects.5CpFOTA.5CcL_R2023.2E09.2E01.5Cmake.5Cobj.5CactIRSAPrivateCRT.26::
                         364 .LDWlin26:
0000020a 2056f400        365 	movea	244,zero,r10
0000020e 5606ffff        366 	dispose	11,{r20,r21,r22,r23,r24,r25,r26,r27,r28,r29,r31},[lp]
                         367 .L312:
                         368 --line162
                         369 ..lin.C.3A.5C_ECU2.5CECU_Rivian_A1.5CTarget.5Crepo_projects.5CpFOTA.5CcL_R2023.2E09.2E01.5Cmake.5Cobj.5CactIRSAPrivateCRT.27::
                         370 .LDWlin27:
00000212 03f0            371 	mov	sp,ep
00000214 0e45            372 	sld.w	28[ep],r8
00000216 0a4d            373 	sld.w	20[ep],r9
00000218 1d5e4c09        374 	addi	2380,r29,r11
0000021c 1dc62406        375 	addi	1572,r29,r24
00000220 1d662807        376 	addi	1832,r29,r12
00000224 135d            377 	sst.w	r11,36[ep]
00000226 0765            378 	sst.w	r12,12[ep]
00000228 1da6ac07        379 	addi	1964,r29,r20
0000022c 1830            380 	mov	r24,r6
0000022e 1a38            381 	mov	r26,r7
                         382 	jarl	_actBNSetOctetString,lp
                         382 <EXPANSION BEGIN>
                         382 jarl22 _actBNSetOctetString , lp 
00000230 80ff0000*       382 <EXPANSION END>
                         383 --line169
                         384 ..lin.C.3A.5C_ECU2.5CECU_Rivian_A1.5CTarget.5Crepo_projects.5CpFOTA.5CcL_R2023.2E09.2E01.5Cmake.5Cobj.5CactIRSAPrivateCRT.28::
                         385 .LDWlin28:
00000234 1830            386 	mov	r24,r6
00000236 1a38            387 	mov	r26,r7
                         388 	jarl	_actBNIsZero,lp
                         388 <EXPANSION BEGIN>
                         388 jarl22 _actBNIsZero , lp 
00000238 80ff0000*       388 <EXPANSION END>
0000023c 6152            389 	cmp	1,r10
0000023e a20d*           390 	be	.L319
                         391 --line173
                         392 ..lin.C.3A.5C_ECU2.5CECU_Rivian_A1.5CTarget.5Crepo_projects.5CpFOTA.5CcL_R2023.2E09.2E01.5Cmake.5Cobj.5CactIRSAPrivateCRT.29::
                         393 .LDWlin29:
00000240 233f2500        394 	ld.w	36[sp],r7
00000244 1830            395 	mov	r24,r6
00000246 1a40            396 	mov	r26,r8
                         397 	jarl	_actBNCompare,lp
                         397 <EXPANSION BEGIN>
                         397 jarl22 _actBNCompare , lp 
00000248 80ff0000*       397 <EXPANSION END>
0000024c 0a06efff        398 	addi	-17,r10,zero
00000250 d905*           399 	bnl	.L318
                         400 .L319:
                         401 --line174
                         402 ..lin.C.3A.5C_ECU2.5CECU_Rivian_A1.5CTarget.5Crepo_projects.5CpFOTA.5CcL_R2023.2E09.2E01.5Cmake.5Cobj.5CactIRSAPrivateCRT.30::
                         403 .LDWlin30:
00000252 20569000        404 	movea	144,zero,r10
00000256 5606ffff        405 	dispose	11,{r20,r21,r22,r23,r24,r25,r26,r27,r28,r29,r31},[lp]
                         406 .L318:
                         407 --line182
                         408 ..lin.C.3A.5C_ECU2.5CECU_Rivian_A1.5CTarget.5Crepo_projects.5CpFOTA.5CcL_R2023.2E09.2E01.5Cmake.5Cobj.5CactIRSAPrivateCRT.31::

                                                                      Page 9
                                                              C:\Users\nhuliyap\AppData\Local\Temp\gh_0000dng1.s
                         409 .LDWlin31:
0000025a 3d37750a        410 	ld.w	2676[r29],r6
0000025e 3d477d0a        411 	ld.w	2684[r29],r8
00000262 3d4f650a        412 	ld.w	2660[r29],r9
00000266 1d5e4c09        413 	addi	2380,r29,r11
0000026a 03f0            414 	mov	sp,ep
0000026c 1d66d009        415 	addi	2512,r29,r12
00000270 019a            416 	mov	1,r19
00000272 0d5d            417 	sst.w	r11,24[ep]
00000274 0965            418 	sst.w	r12,16[ep]
00000276 1538            419 	mov	r21,r7
00000278 01ed            420 	sst.w	r29,0[ep]
0000027a 039d            421 	sst.w	r19,4[ep]
0000027c 05e5            422 	sst.w	r28,8[ep]
                         423 	jarl	_actRSAInitExponentiation,lp
                         423 <EXPANSION BEGIN>
                         423 jarl22 _actRSAInitExponentiation , lp 
0000027e 80ff0000*       423 <EXPANSION END>
                         424 --line184
                         425 ..lin.C.3A.5C_ECU2.5CECU_Rivian_A1.5CTarget.5Crepo_projects.5CpFOTA.5CcL_R2023.2E09.2E01.5Cmake.5Cobj.5CactIRSAPrivateCRT.32::
                         426 .LDWlin32:
00000282 e051            427 	cmp	zero,r10
00000284 ea07ad01*       428 	bne	.L307
                         429 --line188
                         430 ..lin.C.3A.5C_ECU2.5CECU_Rivian_A1.5CTarget.5Crepo_projects.5CpFOTA.5CcL_R2023.2E09.2E01.5Cmake.5Cobj.5CactIRSAPrivateCRT.33::
                         431 .LDWlin33:
00000288 3d470100        432 	ld.w	0[r29],r8
0000028c 03f0            433 	mov	sp,ep
0000028e 1830            434 	mov	r24,r6
00000290 1a38            435 	mov	r26,r7
00000292 1b48            436 	mov	r27,r9
00000294 01a5            437 	sst.w	r20,0[ep]
00000296 03e5            438 	sst.w	r28,4[ep]
                         439 	jarl	_actBNReduce,lp
                         439 <EXPANSION BEGIN>
                         439 jarl22 _actBNReduce , lp 
00000298 80ff0000*       439 <EXPANSION END>
                         440 --line190
                         441 ..lin.C.3A.5C_ECU2.5CECU_Rivian_A1.5CTarget.5Crepo_projects.5CpFOTA.5CcL_R2023.2E09.2E01.5Cmake.5Cobj.5CactIRSAPrivateCRT.34::
                         442 .LDWlin34:
0000029c 23370d00        443 	ld.w	12[sp],r6
000002a0 1538            444 	mov	r21,r7
000002a2 1440            445 	mov	r20,r8
000002a4 1b48            446 	mov	r27,r9
                         447 	jarl	_actBNOctetString,lp
                         447 <EXPANSION BEGIN>
                         447 jarl22 _actBNOctetString , lp 
000002a6 80ff0000*       447 <EXPANSION END>
                         448 --line192
                         449 ..lin.C.3A.5C_ECU2.5CECU_Rivian_A1.5CTarget.5Crepo_projects.5CpFOTA.5CcL_R2023.2E09.2E01.5Cmake.5Cobj.5CactIRSAPrivateCRT.35::
                         450 .LDWlin35:
000002aa 03f0            451 	mov	sp,ep
000002ac 0635            452 	sld.w	12[ep],r6
000002ae 0042            453 	mov	0,r8
000002b0 1538            454 	mov	r21,r7
000002b2 01ed            455 	sst.w	r29,0[ep]
000002b4 03e5            456 	sst.w	r28,4[ep]
000002b6 0848            457 	mov	r8,r9
                         458 	jarl	_actRSAExponentiation,lp
                         458 <EXPANSION BEGIN>
                         458 jarl22 _actRSAExponentiation , lp 

                                                                      Page 10
                                                              C:\Users\nhuliyap\AppData\Local\Temp\gh_0000dng1.s
000002b8 80ff0000*       458 <EXPANSION END>
                         459 --line195
                         460 ..lin.C.3A.5C_ECU2.5CECU_Rivian_A1.5CTarget.5Crepo_projects.5CpFOTA.5CcL_R2023.2E09.2E01.5Cmake.5Cobj.5CactIRSAPrivateCRT.36::
                         461 .LDWlin36:
000002bc 23371100        462 	ld.w	16[sp],r6
000002c0 1d3e1401        463 	addi	276,r29,r7
000002c4 1b40            464 	mov	r27,r8
                         465 	jarl	_actBNCopy,lp
                         465 <EXPANSION BEGIN>
                         465 jarl22 _actBNCopy , lp 
000002c6 80ff0000*       465 <EXPANSION END>
                         466 --line197
                         467 ..lin.C.3A.5C_ECU2.5CECU_Rivian_A1.5CTarget.5Crepo_projects.5CpFOTA.5CcL_R2023.2E09.2E01.5Cmake.5Cobj.5CactIRSAPrivateCRT.37::
                         468 .LDWlin37:
000002ca 3df6600a        469 	movea	2656,r29,ep
000002ce 0835            470 	sld.w	16[ep],r6
000002d0 0c45            471 	sld.w	24[ep],r8
000002d2 004d            472 	sld.w	0[ep],r9
000002d4 03f0            473 	mov	sp,ep
000002d6 0192            474 	mov	1,r18
000002d8 1638            475 	mov	r22,r7
000002da 01ed            476 	sst.w	r29,0[ep]
000002dc 0395            477 	sst.w	r18,4[ep]
000002de 05e5            478 	sst.w	r28,8[ep]
                         479 	jarl	_actRSAInitExponentiation,lp
                         479 <EXPANSION BEGIN>
                         479 jarl22 _actRSAInitExponentiation , lp 
000002e0 80ff0000*       479 <EXPANSION END>
                         480 --line199
                         481 ..lin.C.3A.5C_ECU2.5CECU_Rivian_A1.5CTarget.5Crepo_projects.5CpFOTA.5CcL_R2023.2E09.2E01.5Cmake.5Cobj.5CactIRSAPrivateCRT.38::
                         482 .LDWlin38:
000002e4 e051            483 	cmp	zero,r10
000002e6 ea074b01*       484 	bne	.L307
                         485 --line203
                         486 ..lin.C.3A.5C_ECU2.5CECU_Rivian_A1.5CTarget.5Crepo_projects.5CpFOTA.5CcL_R2023.2E09.2E01.5Cmake.5Cobj.5CactIRSAPrivateCRT.39::
                         487 .LDWlin39:
000002ea 03f0            488 	mov	sp,ep
000002ec 0e45            489 	sld.w	28[ep],r8
000002ee 0a4d            490 	sld.w	20[ep],r9
000002f0 1830            491 	mov	r24,r6
000002f2 1a38            492 	mov	r26,r7
                         493 	jarl	_actBNSetOctetString,lp
                         493 <EXPANSION BEGIN>
                         493 jarl22 _actBNSetOctetString , lp 
000002f4 80ff0000*       493 <EXPANSION END>
                         494 --line205
                         495 ..lin.C.3A.5C_ECU2.5CECU_Rivian_A1.5CTarget.5Crepo_projects.5CpFOTA.5CcL_R2023.2E09.2E01.5Cmake.5Cobj.5CactIRSAPrivateCRT.40::
                         496 .LDWlin40:
000002f8 3d470100        497 	ld.w	0[r29],r8
000002fc 03f0            498 	mov	sp,ep
000002fe 1830            499 	mov	r24,r6
00000300 1a38            500 	mov	r26,r7
00000302 1948            501 	mov	r25,r9
00000304 01a5            502 	sst.w	r20,0[ep]
00000306 03e5            503 	sst.w	r28,4[ep]
                         504 	jarl	_actBNReduce,lp
                         504 <EXPANSION BEGIN>
                         504 jarl22 _actBNReduce , lp 
00000308 80ff0000*       504 <EXPANSION END>
                         505 --line207
                         506 ..lin.C.3A.5C_ECU2.5CECU_Rivian_A1.5CTarget.5Crepo_projects.5CpFOTA.5CcL_R2023.2E09.2E01.5Cmake.5Cobj.5CactIRSAPrivateCRT.41::

                                                                      Page 11
                                                              C:\Users\nhuliyap\AppData\Local\Temp\gh_0000dng1.s
                         507 .LDWlin41:
0000030c 23370d00        508 	ld.w	12[sp],r6
00000310 1638            509 	mov	r22,r7
00000312 1440            510 	mov	r20,r8
00000314 1948            511 	mov	r25,r9
                         512 	jarl	_actBNOctetString,lp
                         512 <EXPANSION BEGIN>
                         512 jarl22 _actBNOctetString , lp 
00000316 80ff0000*       512 <EXPANSION END>
                         513 --line209
                         514 ..lin.C.3A.5C_ECU2.5CECU_Rivian_A1.5CTarget.5Crepo_projects.5CpFOTA.5CcL_R2023.2E09.2E01.5Cmake.5Cobj.5CactIRSAPrivateCRT.42::
                         515 .LDWlin42:
0000031a 03f0            516 	mov	sp,ep
0000031c 0635            517 	sld.w	12[ep],r6
0000031e 0042            518 	mov	0,r8
00000320 1638            519 	mov	r22,r7
00000322 01ed            520 	sst.w	r29,0[ep]
00000324 03e5            521 	sst.w	r28,4[ep]
00000326 0848            522 	mov	r8,r9
                         523 	jarl	_actRSAExponentiation,lp
                         523 <EXPANSION BEGIN>
                         523 jarl22 _actRSAExponentiation , lp 
00000328 80ff0000*       523 <EXPANSION END>
                         524 --line212
                         525 ..lin.C.3A.5C_ECU2.5CECU_Rivian_A1.5CTarget.5Crepo_projects.5CpFOTA.5CcL_R2023.2E09.2E01.5Cmake.5Cobj.5CactIRSAPrivateCRT.43::
                         526 .LDWlin43:
0000032c 23371900        527 	ld.w	24[sp],r6
00000330 1d3e1401        528 	addi	276,r29,r7
00000334 1940            529 	mov	r25,r8
                         530 	jarl	_actBNCopy,lp
                         530 <EXPANSION BEGIN>
                         530 jarl22 _actBNCopy , lp 
00000336 80ff0000*       530 <EXPANSION END>
                         531 --line214
                         532 ..lin.C.3A.5C_ECU2.5CECU_Rivian_A1.5CTarget.5Crepo_projects.5CpFOTA.5CcL_R2023.2E09.2E01.5Cmake.5Cobj.5CactIRSAPrivateCRT.44::
                         533 .LDWlin44:
0000033a 1c30            534 	mov	r28,r6
                         535 	jarl	_actWatchdogTriggerFunction,lp
                         535 <EXPANSION BEGIN>
                         535 jarl22 _actWatchdogTriggerFunction , lp 
0000033c 80ff0000*       535 <EXPANSION END>
                         536 --line220
                         537 ..lin.C.3A.5C_ECU2.5CECU_Rivian_A1.5CTarget.5Crepo_projects.5CpFOTA.5CcL_R2023.2E09.2E01.5Cmake.5Cobj.5CactIRSAPrivateCRT.45::
                         538 .LDWlin45:
00000340 03f0            539 	mov	sp,ep
00000342 083d            540 	sld.w	16[ep],r7
00000344 1d5e3c08        541 	addi	2108,r29,r11
00000348 1d66c408        542 	addi	2244,r29,r12
0000034c 1db6ac06        543 	addi	1708,r29,r22
00000350 1dae3407        544 	addi	1844,r29,r21
00000354 1da6b807        545 	addi	1976,r29,r20
00000358 0f5d            546 	sst.w	r11,28[ep]
0000035a 1365            547 	sst.w	r12,36[ep]
0000035c 1830            548 	mov	r24,r6
0000035e 1b40            549 	mov	r27,r8
                         550 	jarl	_actBNCopy,lp
                         550 <EXPANSION BEGIN>
                         550 jarl22 _actBNCopy , lp 
00000360 80ff0000*       550 <EXPANSION END>
                         551 --line225
                         552 ..lin.C.3A.5C_ECU2.5CECU_Rivian_A1.5CTarget.5Crepo_projects.5CpFOTA.5CcL_R2023.2E09.2E01.5Cmake.5Cobj.5CactIRSAPrivateCRT.46::

                                                                      Page 12
                                                              C:\Users\nhuliyap\AppData\Local\Temp\gh_0000dng1.s
                         553 .LDWlin46:
00000364 03f0            554 	mov	sp,ep
00000366 3d470100        555 	ld.w	0[r29],r8
0000036a 0835            556 	sld.w	16[ep],r6
0000036c 1b38            557 	mov	r27,r7
0000036e 1948            558 	mov	r25,r9
00000370 01b5            559 	sst.w	r22,0[ep]
00000372 03e5            560 	sst.w	r28,4[ep]
                         561 	jarl	_actBNReduce,lp
                         561 <EXPANSION BEGIN>
                         561 jarl22 _actBNReduce , lp 
00000374 80ff0000*       561 <EXPANSION END>
                         562 --line227
                         563 ..lin.C.3A.5C_ECU2.5CECU_Rivian_A1.5CTarget.5Crepo_projects.5CpFOTA.5CcL_R2023.2E09.2E01.5Cmake.5Cobj.5CactIRSAPrivateCRT.47::
                         564 .LDWlin47:
00000378 03f0            565 	mov	sp,ep
0000037a 0c35            566 	sld.w	24[ep],r6
0000037c 1638            567 	mov	r22,r7
0000037e 1540            568 	mov	r21,r8
00000380 1d48            569 	mov	r29,r9
00000382 01e5            570 	sst.w	r28,0[ep]
                         571 	jarl	_actBNModSub,lp
                         571 <EXPANSION BEGIN>
                         571 jarl22 _actBNModSub , lp 
00000384 80ff0000*       571 <EXPANSION END>
                         572 --line229
                         573 ..lin.C.3A.5C_ECU2.5CECU_Rivian_A1.5CTarget.5Crepo_projects.5CpFOTA.5CcL_R2023.2E09.2E01.5Cmake.5Cobj.5CactIRSAPrivateCRT.48::
                         574 .LDWlin48:
00000388 3df6680a        575 	movea	2664,r29,ep
0000038c 0c45            576 	sld.w	24[ep],r8
0000038e 004d            577 	sld.w	0[ep],r9
00000390 1430            578 	mov	r20,r6
00000392 1938            579 	mov	r25,r7
                         580 	jarl	_actBNSetOctetStringROM,lp
                         580 <EXPANSION BEGIN>
                         580 jarl22 _actBNSetOctetStringROM , lp 
00000394 80ff0000*       580 <EXPANSION END>
                         581 --line231
                         582 ..lin.C.3A.5C_ECU2.5CECU_Rivian_A1.5CTarget.5Crepo_projects.5CpFOTA.5CcL_R2023.2E09.2E01.5Cmake.5Cobj.5CactIRSAPrivateCRT.49::
                         583 .LDWlin49:
00000398 03f0            584 	mov	sp,ep
0000039a 0e45            585 	sld.w	28[ep],r8
0000039c 1530            586 	mov	r21,r6
0000039e 1438            587 	mov	r20,r7
000003a0 1d48            588 	mov	r29,r9
000003a2 01e5            589 	sst.w	r28,0[ep]
                         590 	jarl	_actBNMontMul,lp
                         590 <EXPANSION BEGIN>
                         590 jarl22 _actBNMontMul , lp 
000003a4 80ff0000*       590 <EXPANSION END>
                         591 --line233
                         592 ..lin.C.3A.5C_ECU2.5CECU_Rivian_A1.5CTarget.5Crepo_projects.5CpFOTA.5CcL_R2023.2E09.2E01.5Cmake.5Cobj.5CactIRSAPrivateCRT.50::
                         593 .LDWlin50:
000003a8 03f0            594 	mov	sp,ep
000003aa 3d3f0d00        595 	ld.w	12[r29],r7
000003ae 0e35            596 	sld.w	28[ep],r6
000003b0 1245            597 	sld.w	36[ep],r8
000003b2 1d48            598 	mov	r29,r9
000003b4 01e5            599 	sst.w	r28,0[ep]
                         600 	jarl	_actBNMontMul,lp
                         600 <EXPANSION BEGIN>

                                                                      Page 13
                                                              C:\Users\nhuliyap\AppData\Local\Temp\gh_0000dng1.s
                         600 jarl22 _actBNMontMul , lp 
000003b6 80ff0000*       600 <EXPANSION END>
                         601 --line240
                         602 ..lin.C.3A.5C_ECU2.5CECU_Rivian_A1.5CTarget.5Crepo_projects.5CpFOTA.5CcL_R2023.2E09.2E01.5Cmake.5Cobj.5CactIRSAPrivateCRT.51::
                         603 .LDWlin51:
000003ba 3df65c0a        604 	movea	2652,r29,ep
000003be 0c45            605 	sld.w	24[ep],r8
000003c0 004d            606 	sld.w	0[ep],r9
000003c2 1db60001        607 	addi	256,r29,r22
000003c6 1dae8401        608 	addi	388,r29,r21
000003ca 1da68c02        609 	addi	652,r29,r20
000003ce 1630            610 	mov	r22,r6
000003d0 1b38            611 	mov	r27,r7
                         612 	jarl	_actBNSetOctetStringROM,lp
                         612 <EXPANSION BEGIN>
                         612 jarl22 _actBNSetOctetStringROM , lp 
000003d2 80ff0000*       612 <EXPANSION END>
                         613 --line242
                         614 ..lin.C.3A.5C_ECU2.5CECU_Rivian_A1.5CTarget.5Crepo_projects.5CpFOTA.5CcL_R2023.2E09.2E01.5Cmake.5Cobj.5CactIRSAPrivateCRT.52::
                         615 .LDWlin52:
000003d6 03f0            616 	mov	sp,ep
000003d8 1245            617 	sld.w	36[ep],r8
000003da 1630            618 	mov	r22,r6
000003dc 1b38            619 	mov	r27,r7
000003de 1948            620 	mov	r25,r9
000003e0 01ad            621 	sst.w	r21,0[ep]
000003e2 03e5            622 	sst.w	r28,4[ep]
                         623 	jarl	_actBNMult,lp
                         623 <EXPANSION BEGIN>
                         623 jarl22 _actBNMult , lp 
000003e4 80ff0000*       623 <EXPANSION END>
                         624 --line244
                         625 ..lin.C.3A.5C_ECU2.5CECU_Rivian_A1.5CTarget.5Crepo_projects.5CpFOTA.5CcL_R2023.2E09.2E01.5Cmake.5Cobj.5CactIRSAPrivateCRT.53::
                         626 .LDWlin53:
000003e8 1d30            627 	mov	r29,r6
000003ea 1838            628 	mov	r24,r7
000003ec 1b40            629 	mov	r27,r8
                         630 	jarl	_actBNCopy,lp
                         630 <EXPANSION BEGIN>
                         630 jarl22 _actBNCopy , lp 
000003ee 80ff0000*       630 <EXPANSION END>
                         631 --line245
                         632 ..lin.C.3A.5C_ECU2.5CECU_Rivian_A1.5CTarget.5Crepo_projects.5CpFOTA.5CcL_R2023.2E09.2E01.5Cmake.5Cobj.5CactIRSAPrivateCRT.54::
                         633 .LDWlin54:
000003f2 1b30            634 	mov	r27,r6
000003f4 c232            635 	shl	2,r6
000003f6 1a38            636 	mov	r26,r7
000003f8 dd31            637 	add	r29,r6
000003fa bb39            638 	sub	r27,r7
000003fc 0042            639 	mov	0,r8
                         640 	jarl	_actBNSet,lp
                         640 <EXPANSION BEGIN>
                         640 jarl22 _actBNSet , lp 
000003fe 80ff0000*       640 <EXPANSION END>
                         641 --line247
                         642 ..lin.C.3A.5C_ECU2.5CECU_Rivian_A1.5CTarget.5Crepo_projects.5CpFOTA.5CcL_R2023.2E09.2E01.5Cmake.5Cobj.5CactIRSAPrivateCRT.55::
                         643 .LDWlin55:
00000402 1530            644 	mov	r21,r6
00000404 1d38            645 	mov	r29,r7
00000406 1440            646 	mov	r20,r8
00000408 1a48            647 	mov	r26,r9

                                                                      Page 14
                                                              C:\Users\nhuliyap\AppData\Local\Temp\gh_0000dng1.s
                         648 	jarl	_actBNAdd,lp
                         648 <EXPANSION BEGIN>
                         648 jarl22 _actBNAdd , lp 
0000040a 80ff0000*       648 <EXPANSION END>
                         649 --line249
                         650 ..lin.C.3A.5C_ECU2.5CECU_Rivian_A1.5CTarget.5Crepo_projects.5CpFOTA.5CcL_R2023.2E09.2E01.5Cmake.5Cobj.5CactIRSAPrivateCRT.56::
                         651 .LDWlin56:
0000040e 23372900        652 	ld.w	40[sp],r6
00000412 1738            653 	mov	r23,r7
00000414 1440            654 	mov	r20,r8
00000416 1a48            655 	mov	r26,r9
                         656 	jarl	_actBNOctetString,lp
                         656 <EXPANSION BEGIN>
                         656 jarl22 _actBNOctetString , lp 
00000418 80ff0000*       656 <EXPANSION END>
                         657 --line250
                         658 ..lin.C.3A.5C_ECU2.5CECU_Rivian_A1.5CTarget.5Crepo_projects.5CpFOTA.5CcL_R2023.2E09.2E01.5Cmake.5Cobj.5CactIRSAPrivateCRT.57::
                         659 .LDWlin57:
0000041c 236f2100        660 	ld.w	32[sp],r13
00000420 1c30            661 	mov	r28,r6
00000422 6dbf0100        662 	st.w	r23,0[r13]
                         663 	jarl	_actWatchdogTriggerFunction,lp
                         663 <EXPANSION BEGIN>
                         663 jarl22 _actWatchdogTriggerFunction , lp 
00000426 80ff0000*       663 <EXPANSION END>
                         664 --line254
                         665 ..lin.C.3A.5C_ECU2.5CECU_Rivian_A1.5CTarget.5Crepo_projects.5CpFOTA.5CcL_R2023.2E09.2E01.5Cmake.5Cobj.5CactIRSAPrivateCRT.58::
                         666 .LDWlin58:
0000042a 0052            667 	mov	0,r10
0000042c 5606ffff        668 	dispose	11,{r20,r21,r22,r23,r24,r25,r26,r27,r28,r29,r31},[lp]
                         669 .L307:
                         670 --	    .ef
                         671 .LDW41:
                         672 --line200
                         673 ..lin.C.3A.5C_ECU2.5CECU_Rivian_A1.5CTarget.5Crepo_projects.5CpFOTA.5CcL_R2023.2E09.2E01.5Cmake.5Cobj.5CactIRSAPrivateCRT.59::
                         674 .LDWlin59:
00000430 5606ffff        675 	dispose	11,{r20,r21,r22,r23,r24,r25,r26,r27,r28,r29,r31},[lp]
                         676 	.type	_actRSAPrivateKeyOperationCRT,@function
                         677 	.size	_actRSAPrivateKeyOperationCRT,.-_actRSAPrivateKeyOperationCRT
                         678 	.align	2
                         679 .LDW51:
                         680 --_rc	r10	local
                         681 --_ring	r29	local
                         682 --_m1	24[sp]	local
                         683 --_m2	16[sp]	local
                         684 --_fullModulus	36[sp]	local
                         685 --_origCipherBeforeReduction	r24	local
                         686 --_reducedCipherInDigits	r20	local
                         687 --_reducedCipherInBytes	12[sp]	local
                         688 --_m2Copy	r24	local
                         689 --_m2ModP	r22	local
                         690 --_m1m2	r21	local
                         691 --_qInv	r20	local
                         692 --_qInvM1M2R	28[sp]	local
                         693 --_qInvM1M2	36[sp]	local
                         694 --_primeQ	r22	local
                         695 --_qInvM1M2q	r21	local
                         696 --_msg	r20	local
                         697 --_p_bytes	r22	local
                         698 --_q_bytes	r21	local
                         699 --_n_bytes	r23	local

                                                                      Page 15
                                                              C:\Users\nhuliyap\AppData\Local\Temp\gh_0000dng1.s
                         700 --_p_length	r25	local
                         701 --_q_length	r27	local
                         702 --_n_length	r26	local
                         703 
                         704 --_cipher	28[sp]	param
                         705 --_cipher_len	20[sp]	param
                         706 --_message	40[sp]	param
                         707 --_message_len	32[sp]	param
                         708 --_wsCRT	r29	param
                         709 --_watchdog	r28	param
                         710 
                         711 	.section ".bss","awb"
                         712 .L416:
                         713 	.type	.L416,@object
                         714 	.size	.L416,0
                         715 	.data
                         716 	.section ".MSR_CODE","ax"
                         717 	.align	2
                         718 
                         719 	.data
                         720 	.ghsnote version,17
                         721 	.ghsnote tools,3
                         722 	.ghsnote options,144
                         723 	.section ".MSR_CODE","ax"
                         724 	.align	2
                         725 ..eof.C.3A.5C_ECU2.5CECU_Rivian_A1.5CTarget.5Crepo_projects.5CpFOTA.5CcL_R2023.2E09.2E01.5Cmake.5Cobj.5CactIRSAPrivateCRT...43.3A.5C_ECU2.5CECU_Rivian_A1.5CTarget.5Crepo_projects.5CpFOTA.5CcL_R2023.2E09.2E01.5Cmake..64F86447..0::
                         726 .rh850_flags REGMODE32,DATA_ALIGN8,GP_FIX,EP_NONFIX,TP_FIX,REG2_RESERVE,G3K,SDA_EXTRA_REGS_0
