                                                                      Page 1
                                                              C:\Users\nhuliyap\AppData\Local\Temp\gh_00005lg1.s
Command Line: C:\GHS\comp_201517\ease850.exe -w -stderr=err/actSHA2_32.err -elf -b0 -I../source/_common -I../source/common -I../source/ecuabcanif -I../source/ecuabcantrcv -I../source/ecuabcryif -I../source/ecuabfee -I../source/ecuabmemif -I../source/libautosar -I../source/mcalcan -I../source/mcalcry -I../source/mcaldio -I../source/mcaleep -I../source/mcalfls -I../source/mcalmcu -I../source/projectara -I../source/projectcfg -I../source/projectcompiler -I../source/swcservicebswm -I../source/swcservicecantp -I../source/swcservicecomm -I../source/swcservicecsm -I../source/swcservicedcm -I../source/swcservicedem -I../source/swcservicedet -I../source/swcserviceecum -I../source/swcservicenvm -I../source/swcserviceos -I../source/swcservicepdur -I../source/swcserviceschm -I../source/swcservicestartup -I../source/wrappers/swcservicesecm -I../source/wrappers/vsecprim -I../source/wrappers/vstdlib -Ic:/ghs/comp_201517/ansi -Ic:/ghs/comp_201517/include/v800 -Igendata -IC:\GHS\comp_201517\lib\rh850 -cg_underscore -cpu=rh850g3k -nofpu -no_v850_simd -rh850_fpsimd=none -nomacro -patch_dbo=C:\_ECU2\ECU_Rivian_A1\Target\repo_projects\pFOTA\cL_R2023.09.01\make\obj\actSHA2_32.dbo -source=actSHA2_32.c -o obj\gh_00005lg1.o -list=lst/actSHA2_32.lst C:\Users\nhuliyap\AppData\Local\Temp\gh_00005lg1.s 
Original File: C:\Users\nhuliyap\AppData\Local\Temp\gh_00005lg1.s
Source File: actSHA2_32.c
Directory: C:\_ECU2\ECU_Rivian_A1\Target\repo_projects\pFOTA\cL_R2023.09.01\make
Host OS: Windows
EASE: Copyright (C) 1983-2015 Green Hills Software.  All Rights Reserved.
Release: Compiler v2015.1.7
Build Directory: [Directory] BTOWORKER6:c:/build_2015_1_bto/2015-10-21.2100-2015_1_bto/win32-comp-ecom
Revision: [VCInfo] http://toolsvc/branches/release-branch-70-bto/src@544153 (built by build)
Revision Date: Thu Oct 22 07:50:13 2015

Release Date: Thu Oct 22 09:32:32 2015

                           1 --Driver Command: ccrh850 -DBRS_DERIVATIVE_701018 -DBRS_OSC_CLK=16
                           2 --		-DBRS_TIMEBASE_CLOCK=80 -DBRS_EVA_BOARD_
                           3 --		-DBRS_DERIVATIVE_GROUP_F1L -DBRS_OS_USECASE_BRS
                           4 --		-DBRS_PLATFORM_RH850 -DBRS_COMP_GHS
                           5 --		-DBRS_CPU_LOCAL_RAM_SIZE_CORE0=32
                           6 --		-DBRS_CPU_RAM_START_CORE0=0xFEDF8000 -list=lst/actSHA2_32.lst
                           7 --		-object_dir=obj -stderr=err/actSHA2_32.err -c -cpu=rh850 -sda=all
                           8 --		-large_sda -prepare_dispose -pragma_asm_inline -no_callt
                           9 --		-inline_prologue -notda -reserve_r2 -fsoft
                          10 --		--unknown_pragma_warnings -list -g -Ogeneral -shortenum
                          11 --		-registermode=32 -I../source/_common -I../source/common
                          12 --		-I../source/ecuabcanif -I../source/ecuabcantrcv
                          13 --		-I../source/ecuabcryif -I../source/ecuabfee
                          14 --		-I../source/ecuabmemif -I../source/libautosar -I../source/mcalcan
                          15 --		-I../source/mcalcry -I../source/mcaldio -I../source/mcaleep
                          16 --		-I../source/mcalfls -I../source/mcalmcu -I../source/projectara
                          17 --		-I../source/projectcfg -I../source/projectcompiler
                          18 --		-I../source/swcservicebswm -I../source/swcservicecantp
                          19 --		-I../source/swcservicecomm -I../source/swcservicecsm
                          20 --		-I../source/swcservicedcm -I../source/swcservicedem
                          21 --		-I../source/swcservicedet -I../source/swcserviceecum
                          22 --		-I../source/swcservicenvm -I../source/swcserviceos
                          23 --		-I../source/swcservicepdur -I../source/swcserviceschm
                          24 --		-I../source/swcservicestartup -I../source/wrappers/swcservicesecm
                          25 --		-I../source/wrappers/vsecprim -I../source/wrappers/vstdlib
                          26 --		-Ic:/ghs/comp_201517/ansi -Ic:/ghs/comp_201517/include/v800
                          27 --		-Igendata ../source/wrappers/vSecPrim/actSHA2_32.c
                          28 --Source File:   ../source/wrappers/vSecPrim/actSHA2_32.c
                          29 --Directory:     
                          30 --		C:\_ECU2\ECU_Rivian_A1\Target\repo_projects\pFOTA\cL_R2023.09.01\make
                          31 --Compile Date:  Wed Sep 06 13:36:57 2023
                          32 --Host OS:       Win32
                          33 --Version:       C-RH850 2015.1.7 RELEASE VERSION
                          34 --Release:       Compiler v2015.1.7
                          35 --Revision Date: Thu Oct 22 08:06:12 2015
                          36 --Release Date:  Thu Oct 22 09:34:32 2015
                          37 -- ecom  -g -w -OM
                          38 	.section ".MSR_CODE","ax"
                          39 	.align	2
                          40 	.align	2
                          41 ..bof.C.3A.5C_ECU2.5CECU_Rivian_A1.5CTarget.5Crepo_projects.5CpFOTA.5CcL_R2023.2E09.2E01.5Cmake.5Cobj.5CactSHA2_32...43.3A.5C_ECU2.5CECU_Rivian_A1.5CTarget.5Crepo_projects.5CpFOTA.5CcL_R2023.2E09.2E01.5Cmake..64F86459..0::
                          42 	.align	2
                          43 ..gh.f.f.1.e.0:
                          44 	.type	..gh.f.f.1.e.0,@object
                          45 	.size	..gh.f.f.1.e.0,0
                          46 	.global	_actSHA2_32_Transform..C.3A.5C_ECU2.5CECU_Rivian_A1.5CTarget.5Crepo_projects.5CpFOTA.5CcL_R2023.2E09.2E01.5Cmake.5Cobj.5CactSHA2_32.
                          47 _actSHA2_32_Transform..C.3A.5C_ECU2.5CECU_Rivian_A1.5CTarget.5Crepo_projects.5CpFOTA.5CcL_R2023.2E09.2E01.5Cmake.5Cobj.5CactSHA2_32.:
                          48 _actSHA2_32_Transform:
00000000 b007e110         49 	prepare	{r27,r28,r29,r31},24
00000004 0698             50 	mov	r6,r19

                                                                      Page 2
                                                              C:\Users\nhuliyap\AppData\Local\Temp\gh_00005lg1.s
00000006 07d8             51 	mov	r7,r27
00000008 08e0             52 	mov	r8,r28
                          53 --	    .bf
                          54 .LDW01:
0000000a 0092             55 	mov	0,r18
                          56 .L6:
0000000c 1230             57 	mov	r18,r6
0000000e c232             58 	shl	2,r6
00000010 03f0             59 	mov	sp,ep
00000012 c6f1             60 	add	r6,ep
00000014 c731             61 	add	r7,r6
00000016 268f0100         62 	ld.w	0[r6],r17
0000001a 4192             63 	add	1,r18
0000001c 6892             64 	cmp	8,r18
0000001e 018d             65 	sst.w	r17,0[ep]
00000020 e1f5*            66 	bl	.L6
                          67 --line88
                          68 ..lin.C.3A.5C_ECU2.5CECU_Rivian_A1.5CTarget.5Crepo_projects.5CpFOTA.5CcL_R2023.2E09.2E01.5Cmake.5Cobj.5CactSHA2_32.1::
                          69 .LDWlin1:
00000022 1338             70 	mov	r19,r7
00000024 23362000         71 	movea	32,sp,r6
00000028 20464000         72 	movea	64,zero,r8
                          73 	jarl	_actCpyBEtoU32,lp
                          73 <EXPANSION BEGIN>
                          73 jarl22 _actCpyBEtoU32 , lp 
0000002c 80ff0000*        73 <EXPANSION END>
                          74 --line90
                          75 ..lin.C.3A.5C_ECU2.5CECU_Rivian_A1.5CTarget.5Crepo_projects.5CpFOTA.5CcL_R2023.2E09.2E01.5Cmake.5Cobj.5CactSHA2_32.2::
                          76 .LDWlin2:
00000030 1c30             77 	mov	r28,r6
                          78 	jarl	_actWatchdogTriggerFunction,lp
                          78 <EXPANSION BEGIN>
                          78 jarl22 _actWatchdogTriggerFunction , lp 
00000032 80ff0000*        78 <EXPANSION END>
                          79 --line92
                          80 ..lin.C.3A.5C_ECU2.5CECU_Rivian_A1.5CTarget.5Crepo_projects.5CpFOTA.5CcL_R2023.2E09.2E01.5Cmake.5Cobj.5CactSHA2_32.3::
                          81 .LDWlin3:
00000036 00ea             82 	mov	0,r29
                          83 .L9:
00000038 0092             84 	mov	0,r18
0000003a e0e9             85 	cmp	zero,r29
0000003c ea6d*            86 	bne	.L18
                          87 .L14:
                          88 --line121
                          89 ..lin.C.3A.5C_ECU2.5CECU_Rivian_A1.5CTarget.5Crepo_projects.5CpFOTA.5CcL_R2023.2E09.2E01.5Cmake.5Cobj.5CactSHA2_32.4::
                          90 .LDWlin4:
0000003e 044a             91 	mov	4,r9
00000040 b249             92 	sub	r18,r9
00000042 c9f60700         93 	andi	7,r9,ep
00000046 c2f2             94 	shl	2,ep
00000048 c3f1             95 	add	sp,ep
0000004a 1e42             96 	mov	-2,r8
0000004c 0075             97 	sld.w	0[ep],r14
0000004e b241             98 	sub	r18,r8
00000050 c8f60700         99 	andi	7,r8,ep
00000054 c2f2            100 	shl	2,ep
00000056 c3f1            101 	add	sp,ep
00000058 1d9a            102 	mov	-3,r19
0000005a 008d            103 	sld.w	0[ep],r17
0000005c b299            104 	sub	r18,r19
0000005e d3f60700        105 	andi	7,r19,ep

                                                                      Page 3
                                                              C:\Users\nhuliyap\AppData\Local\Temp\gh_00005lg1.s
00000062 c2f2            106 	shl	2,ep
00000064 c3f1            107 	add	sp,ep
00000066 0065            108 	sld.w	0[ep],r12
00000068 1298            109 	mov	r18,r19
0000006a c29a            110 	shl	2,r19
0000006c 3e0600000000*   111 	mov	rosdaoff23(_actSHA2_32_K),ep
00000072 3161            112 	xor	r17,r12
00000074 4e61            113 	and	r14,r12
00000076 1f52            114 	mov	-1,r10
00000078 3161            115 	xor	r17,r12
0000007a d3f1            116 	add	r19,ep
0000007c b251            117 	sub	r18,r10
0000007e fa77c478        118 	rotl	26,r14,r15
00000082 f577c438        119 	rotl	21,r14,r7
00000086 008d            120 	sld.w	0[ep],r17
00000088 ca860700        121 	andi	7,r10,r16
0000008c 2f39            122 	xor	r15,r7
0000008e e777c430        123 	rotl	7,r14,r6
00000092 c282            124 	shl	2,r16
00000094 2731            125 	xor	r7,r6
00000096 c381            126 	add	sp,r16
00000098 c661            127 	add	r6,r12
0000009a c399            128 	add	sp,r19
0000009c cc89            129 	add	r12,r17
0000009e 337f2100        130 	ld.w	32[r19],r15
000000a2 10f0            131 	mov	r16,ep
000000a4 0065            132 	sld.w	0[ep],r12
000000a6 0372            133 	mov	3,r14
000000a8 d179            134 	add	r17,r15
000000aa b271            135 	sub	r18,r14
000000ac cf61            136 	add	r15,r12
000000ae 0165            137 	sst.w	r12,0[ep]
000000b0 cef60700        138 	andi	7,r14,ep
000000b4 c2f2            139 	shl	2,ep
000000b6 c3f1            140 	add	sp,ep
000000b8 006d            141 	sld.w	0[ep],r13
000000ba 015a            142 	mov	1,r11
000000bc b259            143 	sub	r18,r11
000000be 0232            144 	mov	2,r6
000000c0 cc69            145 	add	r12,r13
000000c2 1260            146 	mov	r18,r12
000000c4 016d            147 	sst.w	r13,0[ep]
000000c6 8061            148 	subr	zero,r12
000000c8 ccf60700        149 	andi	7,r12,ep
000000cc c2f2            150 	shl	2,ep
000000ce c3f1            151 	add	sp,ep
000000d0 007d            152 	sld.w	0[ep],r15
000000d2 cbf60700        153 	andi	7,r11,ep
000000d6 c2f2            154 	shl	2,ep
000000d8 c3f1            155 	add	sp,ep
000000da 008d            156 	sld.w	0[ep],r17
000000dc b231            157 	sub	r18,r6
000000de c6f60700        158 	andi	7,r6,ep
000000e2 c2f2            159 	shl	2,ep
000000e4 c3f1            160 	add	sp,ep
000000e6 0065            161 	sld.w	0[ep],r12
000000e8 1138            162 	mov	r17,r7
000000ea 10f0            163 	mov	r16,ep
000000ec fe7fc468        164 	rotl	30,r15,r13
000000f0 f37fc448        165 	rotl	19,r15,r9
000000f4 0f89            166 	or	r15,r17

                                                                      Page 4
                                                              C:\Users\nhuliyap\AppData\Local\Temp\gh_00005lg1.s
000000f6 009d            167 	sld.w	0[ep],r19
000000f8 2d49            168 	xor	r13,r9
000000fa ea7fc440        169 	rotl	10,r15,r8
000000fe 4f39            170 	and	r15,r7
00000100 4c89            171 	and	r12,r17
00000102 2941            172 	xor	r9,r8
00000104 0789            173 	or	r7,r17
00000106 c889            174 	add	r8,r17
00000108 d199            175 	add	r17,r19
0000010a 4192            176 	add	1,r18
0000010c 019d            177 	sst.w	r19,0[ep]
0000010e 1206f0ff        178 	addi	-16,r18,zero
00000112 e995*           179 	bnl	.L14
00000114 80073a01*       180 	br	.L15
                         181 .L18:
                         182 --line131
                         183 ..lin.C.3A.5C_ECU2.5CECU_Rivian_A1.5CTarget.5Crepo_projects.5CpFOTA.5CcL_R2023.2E09.2E01.5Cmake.5Cobj.5CactSHA2_32.5::
                         184 .LDWlin5:
00000118 1256feff        185 	addi	-2,r18,r10
0000011c ca860f00        186 	andi	15,r10,r16
00000120 124e0100        187 	addi	1,r18,r9
00000124 235e2000        188 	movea	32,sp,r11
00000128 c282            189 	shl	2,r16
0000012a c97e0f00        190 	andi	15,r9,r15
0000012e cb81            191 	add	r11,r16
00000130 c27a            192 	shl	2,r15
00000132 1236f9ff        193 	addi	-7,r18,r6
00000136 30470100        194 	ld.w	0[r16],r8
0000013a cb79            195 	add	r11,r15
0000013c c6760f00        196 	andi	15,r6,r14
00000140 2f6f0100        197 	ld.w	0[r15],r13
00000144 c272            198 	shl	2,r14
00000146 d2f60f00        199 	andi	15,r18,ep
0000014a cb71            200 	add	r11,r14
0000014c ef47c438        201 	rotl	15,r8,r7
00000150 ed47c488        202 	rotl	13,r8,r17
00000154 c2f2            203 	shl	2,ep
00000156 2e870100        204 	ld.w	0[r14],r16
0000015a 2789            205 	xor	r7,r17
0000015c cbf1            206 	add	r11,ep
0000015e 8a42            207 	shr	10,r8
00000160 f96fc498        208 	rotl	25,r13,r19
00000164 ee6fc478        209 	rotl	14,r13,r15
00000168 003d            210 	sld.w	0[ep],r7
0000016a 3141            211 	xor	r17,r8
0000016c 3379            212 	xor	r19,r15
0000016e 836a            213 	shr	3,r13
00000170 c881            214 	add	r8,r16
00000172 2f69            215 	xor	r15,r13
00000174 d069            216 	add	r16,r13
00000176 cd39            217 	add	r13,r7
00000178 046a            218 	mov	4,r13
0000017a 013d            219 	sst.w	r7,0[ep]
0000017c b269            220 	sub	r18,r13
0000017e 1f72            221 	mov	-1,r14
00000180 cdf60700        222 	andi	7,r13,ep
00000184 b271            223 	sub	r18,r14
00000186 c2f2            224 	shl	2,ep
00000188 ce860700        225 	andi	7,r14,r16
0000018c c3f1            226 	add	sp,ep
0000018e 1e62            227 	mov	-2,r12

                                                                      Page 5
                                                              C:\Users\nhuliyap\AppData\Local\Temp\gh_00005lg1.s
00000190 0075            228 	sld.w	0[ep],r14
00000192 b261            229 	sub	r18,r12
00000194 ccf60700        230 	andi	7,r12,ep
00000198 c2f2            231 	shl	2,ep
0000019a c3f1            232 	add	sp,ep
0000019c 1d52            233 	mov	-3,r10
0000019e 008d            234 	sld.w	0[ep],r17
000001a0 b251            235 	sub	r18,r10
000001a2 fa77c478        236 	rotl	26,r14,r15
000001a6 f577c458        237 	rotl	21,r14,r11
000001aa caf60700        238 	andi	7,r10,ep
000001ae 2f59            239 	xor	r15,r11
000001b0 e777c468        240 	rotl	7,r14,r13
000001b4 c2f2            241 	shl	2,ep
000001b6 2b69            242 	xor	r11,r13
000001b8 c3f1            243 	add	sp,ep
000001ba 005d            244 	sld.w	0[ep],r11
000001bc c282            245 	shl	2,r16
000001be 1df0            246 	mov	r29,ep
000001c0 c381            247 	add	sp,r16
000001c2 d2f1            248 	add	r18,ep
000001c4 30670100        249 	ld.w	0[r16],r12
000001c8 c2f2            250 	shl	2,ep
000001ca c5f1            251 	add	r5,ep
000001cc 3159            252 	xor	r17,r11
000001ce 9e0709400000*   253 	ld.w	rosdaoff23(_actSHA2_32_K)[ep],r8
000001d4 4e59            254 	and	r14,r11
000001d6 cc69            255 	add	r12,r13
000001d8 3159            256 	xor	r17,r11
000001da 0332            257 	mov	3,r6
000001dc cd59            258 	add	r13,r11
000001de b231            259 	sub	r18,r6
000001e0 cb41            260 	add	r11,r8
000001e2 c6f60700        261 	andi	7,r6,ep
000001e6 c839            262 	add	r8,r7
000001e8 c2f2            263 	shl	2,ep
000001ea 703f0100        264 	st.w	r7,0[r16]
000001ee c3f1            265 	add	sp,ep
000001f0 009d            266 	sld.w	0[ep],r19
000001f2 1288            267 	mov	r18,r17
000001f4 8089            268 	subr	zero,r17
000001f6 0172            269 	mov	1,r14
000001f8 c799            270 	add	r7,r19
000001fa 019d            271 	sst.w	r19,0[ep]
000001fc d1f60700        272 	andi	7,r17,ep
00000200 c2f2            273 	shl	2,ep
00000202 c3f1            274 	add	sp,ep
00000204 007d            275 	sld.w	0[ep],r15
00000206 b271            276 	sub	r18,r14
00000208 cef60700        277 	andi	7,r14,ep
0000020c c2f2            278 	shl	2,ep
0000020e c3f1            279 	add	sp,ep
00000210 0252            280 	mov	2,r10
00000212 008d            281 	sld.w	0[ep],r17
00000214 b251            282 	sub	r18,r10
00000216 caf60700        283 	andi	7,r10,ep
0000021a c2f2            284 	shl	2,ep
0000021c c3f1            285 	add	sp,ep
0000021e 003d            286 	sld.w	0[ep],r7
00000220 1158            287 	mov	r17,r11
00000222 10f0            288 	mov	r16,ep

                                                                      Page 6
                                                              C:\Users\nhuliyap\AppData\Local\Temp\gh_00005lg1.s
00000224 fe7fc440        289 	rotl	30,r15,r8
00000228 f37fc468        290 	rotl	19,r15,r13
0000022c 0f89            291 	or	r15,r17
0000022e 004d            292 	sld.w	0[ep],r9
00000230 2869            293 	xor	r8,r13
00000232 ea7fc460        294 	rotl	10,r15,r12
00000236 4f59            295 	and	r15,r11
00000238 4789            296 	and	r7,r17
0000023a 2d61            297 	xor	r13,r12
0000023c 0b89            298 	or	r11,r17
0000023e cc89            299 	add	r12,r17
00000240 d149            300 	add	r17,r9
00000242 4192            301 	add	1,r18
00000244 014d            302 	sst.w	r9,0[ep]
00000246 1206f0ff        303 	addi	-16,r18,zero
0000024a f907cffe*       304 	bnl	.L18
                         305 .L15:
                         306 --line139
                         307 ..lin.C.3A.5C_ECU2.5CECU_Rivian_A1.5CTarget.5Crepo_projects.5CpFOTA.5CcL_R2023.2E09.2E01.5Cmake.5Cobj.5CactSHA2_32.6::
                         308 .LDWlin6:
0000024e 1c30            309 	mov	r28,r6
                         310 	jarl	_actWatchdogTriggerFunction,lp
                         310 <EXPANSION BEGIN>
                         310 jarl22 _actWatchdogTriggerFunction , lp 
00000250 80ff0000*       310 <EXPANSION END>
                         311 --line92
                         312 ..lin.C.3A.5C_ECU2.5CECU_Rivian_A1.5CTarget.5Crepo_projects.5CpFOTA.5CcL_R2023.2E09.2E01.5Cmake.5Cobj.5CactSHA2_32.7::
                         313 .LDWlin7:
00000254 1dee1000        314 	addi	16,r29,r29
00000258 1d06c0ff        315 	addi	-64,r29,zero
0000025c f907ddfd*       316 	bnl	.L9
                         317 --line142
                         318 ..lin.C.3A.5C_ECU2.5CECU_Rivian_A1.5CTarget.5Crepo_projects.5CpFOTA.5CcL_R2023.2E09.2E01.5Cmake.5Cobj.5CactSHA2_32.8::
                         319 .LDWlin8:
00000260 1c30            320 	mov	r28,r6
                         321 	jarl	_actWatchdogTriggerFunction,lp
                         321 <EXPANSION BEGIN>
                         321 jarl22 _actWatchdogTriggerFunction , lp 
00000262 80ff0000*       321 <EXPANSION END>
                         322 --line144
                         323 ..lin.C.3A.5C_ECU2.5CECU_Rivian_A1.5CTarget.5Crepo_projects.5CpFOTA.5CcL_R2023.2E09.2E01.5Cmake.5Cobj.5CactSHA2_32.9::
                         324 .LDWlin9:
00000266 0092            325 	mov	0,r18
                         326 .L21:
00000268 12f0            327 	mov	r18,ep
0000026a c2f2            328 	shl	2,ep
0000026c 0340            329 	mov	sp,r8
0000026e de41            330 	add	ep,r8
00000270 dbf1            331 	add	r27,ep
00000272 003d            332 	sld.w	0[ep],r7
00000274 28370100        333 	ld.w	0[r8],r6
00000278 4192            334 	add	1,r18
0000027a c639            335 	add	r6,r7
0000027c 013d            336 	sst.w	r7,0[ep]
0000027e 6892            337 	cmp	8,r18
00000280 c1f5*           338 	bl	.L21
                         339 --	    .ef
                         340 .LDW11:
                         341 --line147
                         342 ..lin.C.3A.5C_ECU2.5CECU_Rivian_A1.5CTarget.5Crepo_projects.5CpFOTA.5CcL_R2023.2E09.2E01.5Cmake.5Cobj.5CactSHA2_32.10::
                         343 .LDWlin10:

                                                                      Page 7
                                                              C:\Users\nhuliyap\AppData\Local\Temp\gh_00005lg1.s
00000282 7006ff10        344 	dispose	24,{r27,r28,r29,r31},[lp]
                         345 	.type	_actSHA2_32_Transform,@function
                         346 	.size	_actSHA2_32_Transform,.-_actSHA2_32_Transform
                         347 	.type	_actSHA2_32_Transform..C.3A.5C_ECU2.5CECU_Rivian_A1.5CTarget.5Crepo_projects.5CpFOTA.5CcL_R2023.2E09.2E01.5Cmake.5Cobj.5CactSHA2_32.,@function
                         348 	.size	_actSHA2_32_Transform..C.3A.5C_ECU2.5CECU_Rivian_A1.5CTarget.5Crepo_projects.5CpFOTA.5CcL_R2023.2E09.2E01.5Cmake.5Cobj.5CactSHA2_32.,.-_actSHA2_32_Transform..C.3A.5C_ECU2.5CECU_Rivian_A1.5CTarget.5Crepo_projects.5CpFOTA.5CcL_R2023.2E09.2E01.5Cmake.5Cobj.5CactSHA2_32.
                         349 	.align	2
                         350 .LDW21:
                         351 --_W	32[sp]	local
                         352 --_T	0[sp]	local
                         353 --_i	r18	local
                         354 --_j	r29	local
                         355 
                         356 --_in	r19	param
                         357 --_H	r27	param
                         358 --_watchdog	r28	param
                         359 
                         360 	.section ".bss","awb"
                         361 .L1099:
                         362 	.type	.L1099,@object
                         363 	.size	.L1099,0
                         364 	.section ".rosdata","a"
                         365 	.align	4
                         366 	.global	_actSHA2_32_K..C.3A.5C_ECU2.5CECU_Rivian_A1.5CTarget.5Crepo_projects.5CpFOTA.5CcL_R2023.2E09.2E01.5Cmake.5Cobj.5CactSHA2_32.
                         367 _actSHA2_32_K..C.3A.5C_ECU2.5CECU_Rivian_A1.5CTarget.5Crepo_projects.5CpFOTA.5CcL_R2023.2E09.2E01.5Cmake.5Cobj.5CactSHA2_32.:
00000000 982f8a42        368 _actSHA2_32_K:	.byte	152,47,138,66
00000004 91443771        369 	.byte	145,68,55,113
00000008 cffbc0b5        370 	.byte	207,251,192,181
0000000c a5dbb5e9        371 	.byte	165,219,181,233
00000010 5bc25639        372 	.byte	91,194,86,57
00000014 f111f159        373 	.byte	241,17,241,89
00000018 a4823f92        374 	.byte	164,130,63,146
0000001c d55e1cab        375 	.byte	213,94,28,171
00000020 98aa07d8        376 	.byte	152,170,7,216
00000024 015b8312        377 	.byte	1,91,131,18
00000028 be853124        378 	.byte	190,133,49,36
0000002c c37d0c55        379 	.byte	195,125,12,85
00000030 745dbe72        380 	.byte	116,93,190,114
00000034 feb1de80        381 	.byte	254,177,222,128
00000038 a706dc9b        382 	.byte	167,6,220,155
0000003c 74f19bc1        383 	.byte	116,241,155,193
00000040 c1699be4        384 	.byte	193,105,155,228
00000044 8647beef        385 	.byte	134,71,190,239
00000048 c69dc10f        386 	.byte	198,157,193,15
0000004c cca10c24        387 	.byte	204,161,12,36
00000050 6f2ce92d        388 	.byte	111,44,233,45
00000054 aa84744a        389 	.byte	170,132,116,74
00000058 dca9b05c        390 	.byte	220,169,176,92
0000005c da88f976        391 	.byte	218,136,249,118
00000060 52513e98        392 	.byte	82,81,62,152
00000064 6dc631a8        393 	.byte	109,198,49,168
00000068 c82703b0        394 	.byte	200,39,3,176
0000006c c77f59bf        395 	.byte	199,127,89,191
00000070 f30be0c6        396 	.byte	243,11,224,198
00000074 4791a7d5        397 	.byte	71,145,167,213
00000078 5163ca06        398 	.byte	81,99,202,6
0000007c 67292914        399 	.byte	103,41,41,20
00000080 850ab727        400 	.byte	133,10,183,39
00000084 38211b2e        401 	.byte	56,33,27,46
00000088 fc6d2c4d        402 	.byte	252,109,44,77
0000008c 130d3853        403 	.byte	19,13,56,83
00000090 54730a65        404 	.byte	84,115,10,101

                                                                      Page 8
                                                              C:\Users\nhuliyap\AppData\Local\Temp\gh_00005lg1.s
00000094 bb0a6a76        405 	.byte	187,10,106,118
00000098 2ec9c281        406 	.byte	46,201,194,129
0000009c 852c7292        407 	.byte	133,44,114,146
000000a0 a1e8bfa2        408 	.byte	161,232,191,162
000000a4 4b661aa8        409 	.byte	75,102,26,168
000000a8 708b4bc2        410 	.byte	112,139,75,194
000000ac a3516cc7        411 	.byte	163,81,108,199
000000b0 19e892d1        412 	.byte	25,232,146,209
000000b4 240699d6        413 	.byte	36,6,153,214
000000b8 85350ef4        414 	.byte	133,53,14,244
000000bc 70a06a10        415 	.byte	112,160,106,16
000000c0 16c1a419        416 	.byte	22,193,164,25
000000c4 086c371e        417 	.byte	8,108,55,30
000000c8 4c774827        418 	.byte	76,119,72,39
000000cc b5bcb034        419 	.byte	181,188,176,52
000000d0 b30c1c39        420 	.byte	179,12,28,57
000000d4 4aaad84e        421 	.byte	74,170,216,78
000000d8 4fca9c5b        422 	.byte	79,202,156,91
000000dc f36f2e68        423 	.byte	243,111,46,104
000000e0 ee828f74        424 	.byte	238,130,143,116
000000e4 6f63a578        425 	.byte	111,99,165,120
000000e8 1478c884        426 	.byte	20,120,200,132
000000ec 0802c78c        427 	.byte	8,2,199,140
000000f0 faffbe90        428 	.byte	250,255,190,144
000000f4 eb6c50a4        429 	.byte	235,108,80,164
000000f8 f7a3f9be        430 	.byte	247,163,249,190
000000fc f27871c6        431 	.byte	242,120,113,198
                         432 	.type	_actSHA2_32_K..C.3A.5C_ECU2.5CECU_Rivian_A1.5CTarget.5Crepo_projects.5CpFOTA.5CcL_R2023.2E09.2E01.5Cmake.5Cobj.5CactSHA2_32.,@object
                         433 	.size	_actSHA2_32_K..C.3A.5C_ECU2.5CECU_Rivian_A1.5CTarget.5Crepo_projects.5CpFOTA.5CcL_R2023.2E09.2E01.5Cmake.5Cobj.5CactSHA2_32.,256
                         434 	.type	_actSHA2_32_K,@object
                         435 	.size	_actSHA2_32_K,256
                         436 	.data
                         437 	.section ".MSR_CODE","ax"
                         438 	.align	2
                         439 	.align	2
                         440 ..gh.f.f.1.e.1:
                         441 	.type	..gh.f.f.1.e.1,@object
                         442 	.size	..gh.f.f.1.e.1,0
                         443 	.global	_actSHA2_32_Update..C.3A.5C_ECU2.5CECU_Rivian_A1.5CTarget.5Crepo_projects.5CpFOTA.5CcL_R2023.2E09.2E01.5Cmake.5Cobj.5CactSHA2_32.
                         444 _actSHA2_32_Update..C.3A.5C_ECU2.5CECU_Rivian_A1.5CTarget.5Crepo_projects.5CpFOTA.5CcL_R2023.2E09.2E01.5Cmake.5Cobj.5CactSHA2_32.:
                         445 _actSHA2_32_Update:
00000286 8007e1f3        446 	prepare	{r22,r23,r24,r25,r26,r27,r28,r29,r31},0
0000028a 06e8            447 	mov	r6,r29
0000028c 07b0            448 	mov	r7,r22
0000028e 08e0            449 	mov	r8,r28
00000290 09c8            450 	mov	r9,r25
                         451 --	    .bf
                         452 .LDW31:
00000292 06c62e00        453 	addi	46,r6,r24
00000296 00da            454 	mov	0,r27
00000298 1bb8            455 	mov	r27,r23
0000029a 0930            456 	mov	r9,r6
                         457 	jarl	_actWatchdogTriggerFunction,lp
                         457 <EXPANSION BEGIN>
                         457 jarl22 _actWatchdogTriggerFunction , lp 
0000029c 80ff0000*       457 <EXPANSION END>
                         458 --line164
                         459 ..lin.C.3A.5C_ECU2.5CECU_Rivian_A1.5CTarget.5Crepo_projects.5CpFOTA.5CcL_R2023.2E09.2E01.5Cmake.5Cobj.5CactSHA2_32.11::
                         460 .LDWlin11:
000002a0 3d9f2100        461 	ld.w	32[r29],r19
000002a4 1c80            462 	mov	r28,r16

                                                                      Page 9
                                                              C:\Users\nhuliyap\AppData\Local\Temp\gh_00005lg1.s
000002a6 d381            463 	add	r19,r16
000002a8 f381            464 	cmp	r19,r16
000002aa c90d*           465 	bnl	.L1230
                         466 --line165
                         467 ..lin.C.3A.5C_ECU2.5CECU_Rivian_A1.5CTarget.5Crepo_projects.5CpFOTA.5CcL_R2023.2E09.2E01.5Cmake.5Cobj.5CactSHA2_32.12::
                         468 .LDWlin12:
000002ac 1df0            469 	mov	r29,ep
000002ae 127d            470 	sld.w	36[ep],r15
000002b0 40960020        471 	movhi	hi(536870912),zero,r18
000002b4 417a            472 	add	1,r15
000002b6 137d            473 	sst.w	r15,36[ep]
000002b8 f279            474 	cmp	r18,r15
000002ba ca05*           475 	bne	.L1230
                         476 --line167
                         477 ..lin.C.3A.5C_ECU2.5CECU_Rivian_A1.5CTarget.5Crepo_projects.5CpFOTA.5CcL_R2023.2E09.2E01.5Cmake.5Cobj.5CactSHA2_32.13::
                         478 .LDWlin13:
000002bc 20bef800        479 	movea	248,zero,r23
000002c0 c53d*           480 	br	.L1229
                         481 .L1230:
                         482 --line172
                         483 ..lin.C.3A.5C_ECU2.5CECU_Rivian_A1.5CTarget.5Crepo_projects.5CpFOTA.5CcL_R2023.2E09.2E01.5Cmake.5Cobj.5CactSHA2_32.14::
                         484 .LDWlin14:
000002c2 1df0            485 	mov	r29,ep
000002c4 1435            486 	sld.w	40[ep],r6
000002c6 1185            487 	sst.w	r16,32[ep]
000002c8 e031            488 	cmp	zero,r6
000002ca a21d*           489 	be	.L1237
                         490 --line175
                         491 ..lin.C.3A.5C_ECU2.5CECU_Rivian_A1.5CTarget.5Crepo_projects.5CpFOTA.5CcL_R2023.2E09.2E01.5Cmake.5Cobj.5CactSHA2_32.15::
                         492 .LDWlin15:
000002cc 20764000        493 	movea	64,zero,r14
000002d0 a671            494 	sub	r6,r14
000002d2 fc71            495 	cmp	r28,r14
000002d4 fc7732db        496 	cmovnl	r28,r14,r27
000002d8 d831            497 	add	r24,r6
000002da 1638            498 	mov	r22,r7
000002dc 1b40            499 	mov	r27,r8
                         500 	jarl	_VStdLib_MemCpy,lp
                         500 <EXPANSION BEGIN>
                         500 jarl22 _VStdLib_MemCpy , lp 
000002de 80ff0000*       500 <EXPANSION END>
                         501 --line177
                         502 ..lin.C.3A.5C_ECU2.5CECU_Rivian_A1.5CTarget.5Crepo_projects.5CpFOTA.5CcL_R2023.2E09.2E01.5Cmake.5Cobj.5CactSHA2_32.16::
                         503 .LDWlin16:
000002e2 1df0            504 	mov	r29,ep
000002e4 148d            505 	sld.w	40[ep],r17
000002e6 1b80            506 	mov	r27,r16
000002e8 9000            507 	zxb	r16
000002ea d089            508 	add	r16,r17
000002ec 158d            509 	sst.w	r17,40[ep]
000002ee 1106c0ff        510 	addi	-64,r17,zero
000002f2 b925*           511 	bnl	.L1229
                         512 --line185
                         513 ..lin.C.3A.5C_ECU2.5CECU_Rivian_A1.5CTarget.5Crepo_projects.5CpFOTA.5CcL_R2023.2E09.2E01.5Cmake.5Cobj.5CactSHA2_32.17::
                         514 .LDWlin17:
000002f4 1830            515 	mov	r24,r6
000002f6 1d38            516 	mov	r29,r7
000002f8 1940            517 	mov	r25,r8
                         518 	jarl	_actSHA2_32_Transform,lp
                         518 <EXPANSION BEGIN>
                         518 jarl22 _actSHA2_32_Transform , lp 

                                                                      Page 10
                                                              C:\Users\nhuliyap\AppData\Local\Temp\gh_00005lg1.s
000002fa bfff06fd*       518 <EXPANSION END>
                         519 .L1237:
                         520 --line190
                         521 ..lin.C.3A.5C_ECU2.5CECU_Rivian_A1.5CTarget.5Crepo_projects.5CpFOTA.5CcL_R2023.2E09.2E01.5Cmake.5Cobj.5CactSHA2_32.18::
                         522 .LDWlin18:
000002fe 1c90            523 	mov	r28,r18
00000300 bb91            524 	sub	r27,r18
00000302 8692            525 	shr	6,r18
00000304 c692            526 	shl	6,r18
00000306 1bd0            527 	mov	r27,r26
00000308 d2d1            528 	add	r18,r26
0000030a 950d*           529 	br	.L1241
                         530 .L1240:
                         531 --line195
                         532 ..lin.C.3A.5C_ECU2.5CECU_Rivian_A1.5CTarget.5Crepo_projects.5CpFOTA.5CcL_R2023.2E09.2E01.5Cmake.5Cobj.5CactSHA2_32.19::
                         533 .LDWlin19:
0000030c 1b30            534 	mov	r27,r6
0000030e d631            535 	add	r22,r6
00000310 1d38            536 	mov	r29,r7
00000312 1940            537 	mov	r25,r8
                         538 	jarl	_actSHA2_32_Transform,lp
                         538 <EXPANSION BEGIN>
                         538 jarl22 _actSHA2_32_Transform , lp 
00000314 bfffecfc*       538 <EXPANSION END>
                         539 --line193
                         540 ..lin.C.3A.5C_ECU2.5CECU_Rivian_A1.5CTarget.5Crepo_projects.5CpFOTA.5CcL_R2023.2E09.2E01.5Cmake.5Cobj.5CactSHA2_32.20::
                         541 .LDWlin20:
00000318 1bde4000        542 	addi	64,r27,r27
                         543 .L1241:
0000031c fad9            544 	cmp	r26,r27
0000031e f1f5*           545 	bl	.L1240
                         546 --line198
                         547 ..lin.C.3A.5C_ECU2.5CECU_Rivian_A1.5CTarget.5Crepo_projects.5CpFOTA.5CcL_R2023.2E09.2E01.5Cmake.5Cobj.5CactSHA2_32.21::
                         548 .LDWlin21:
00000320 bae1            549 	sub	r26,r28
00000322 1a38            550 	mov	r26,r7
00000324 7de72900        551 	st.w	r28,40[r29]
00000328 1830            552 	mov	r24,r6
0000032a d639            553 	add	r22,r7
0000032c 1c40            554 	mov	r28,r8
                         555 	jarl	_VStdLib_MemCpy,lp
                         555 <EXPANSION BEGIN>
                         555 jarl22 _VStdLib_MemCpy , lp 
0000032e 80ff0000*       555 <EXPANSION END>
                         556 --line201
                         557 ..lin.C.3A.5C_ECU2.5CECU_Rivian_A1.5CTarget.5Crepo_projects.5CpFOTA.5CcL_R2023.2E09.2E01.5Cmake.5Cobj.5CactSHA2_32.22::
                         558 .LDWlin22:
00000332 1930            559 	mov	r25,r6
                         560 	jarl	_actWatchdogTriggerFunction,lp
                         560 <EXPANSION BEGIN>
                         560 jarl22 _actWatchdogTriggerFunction , lp 
00000334 80ff0000*       560 <EXPANSION END>
                         561 .L1229:
                         562 --line205
                         563 ..lin.C.3A.5C_ECU2.5CECU_Rivian_A1.5CTarget.5Crepo_projects.5CpFOTA.5CcL_R2023.2E09.2E01.5Cmake.5Cobj.5CactSHA2_32.23::
                         564 .LDWlin23:
00000338 1750            565 	mov	r23,r10
                         566 --	    .ef
                         567 .LDW41:
0000033a 4006fff3        568 	dispose	0,{r22,r23,r24,r25,r26,r27,r28,r29,r31},[lp]
                         569 	.type	_actSHA2_32_Update,@function

                                                                      Page 11
                                                              C:\Users\nhuliyap\AppData\Local\Temp\gh_00005lg1.s
                         570 	.size	_actSHA2_32_Update,.-_actSHA2_32_Update
                         571 	.type	_actSHA2_32_Update..C.3A.5C_ECU2.5CECU_Rivian_A1.5CTarget.5Crepo_projects.5CpFOTA.5CcL_R2023.2E09.2E01.5Cmake.5Cobj.5CactSHA2_32.,@function
                         572 	.size	_actSHA2_32_Update..C.3A.5C_ECU2.5CECU_Rivian_A1.5CTarget.5Crepo_projects.5CpFOTA.5CcL_R2023.2E09.2E01.5Cmake.5Cobj.5CactSHA2_32.,.-_actSHA2_32_Update..C.3A.5C_ECU2.5CECU_Rivian_A1.5CTarget.5Crepo_projects.5CpFOTA.5CcL_R2023.2E09.2E01.5Cmake.5Cobj.5CactSHA2_32.
                         573 	.align	2
                         574 .LDW51:
                         575 --_Hptr	r29	local
                         576 --_bufferPtr	r24	local
                         577 --_diff	r27	local
                         578 --_retVal	r23	local
                         579 --_lastBlockEnd	r26	local
                         580 --_bcount	r27	local
                         581 
                         582 --_info	r29	param
                         583 --_dataIN	r22	param
                         584 --_length	r28	param
                         585 --_watchdog	r25	param
                         586 
                         587 	.section ".bss","awb"
                         588 .L1383:
                         589 	.type	.L1383,@object
                         590 	.size	.L1383,0
                         591 	.data
                         592 	.section ".MSR_CODE","ax"
                         593 	.align	2
                         594 	.align	2
                         595 ..gh.f.f.1.e.2:
                         596 	.type	..gh.f.f.1.e.2,@object
                         597 	.size	..gh.f.f.1.e.2,0
                         598 	.global	_actSHA2_32_Finalize..C.3A.5C_ECU2.5CECU_Rivian_A1.5CTarget.5Crepo_projects.5CpFOTA.5CcL_R2023.2E09.2E01.5Cmake.5Cobj.5CactSHA2_32.
                         599 _actSHA2_32_Finalize..C.3A.5C_ECU2.5CECU_Rivian_A1.5CTarget.5Crepo_projects.5CpFOTA.5CcL_R2023.2E09.2E01.5Cmake.5Cobj.5CactSHA2_32.:
                         600 _actSHA2_32_Finalize:
0000033e 8007e1f1        601 	prepare	{r23,r24,r25,r26,r27,r28,r29,r31},0
00000342 06e8            602 	mov	r6,r29
00000344 07b8            603 	mov	r7,r23
00000346 08c8            604 	mov	r8,r25
                         605 --	    .bf
                         606 .LDW61:
00000348 06f0            607 	mov	r6,ep
0000034a 1095            608 	sld.w	32[ep],r18
0000034c 128d            609 	sld.w	36[ep],r17
0000034e 06e62e00        610 	addi	46,r6,r28
00000352 0830            611 	mov	r8,r6
00000354 12d0            612 	mov	r18,r26
00000356 12c0            613 	mov	r18,r24
00000358 c38a            614 	shl	3,r17
0000035a 9dd2            615 	shr	29,r26
0000035c c3c2            616 	shl	3,r24
0000035e 11d1            617 	or	r17,r26
00000360 d2de3f00        618 	andi	63,r18,r27
                         619 	jarl	_actWatchdogTriggerFunction,lp
                         619 <EXPANSION BEGIN>
                         619 jarl22 _actWatchdogTriggerFunction , lp 
00000364 80ff0000*       619 <EXPANSION END>
                         620 --line221
                         621 ..lin.C.3A.5C_ECU2.5CECU_Rivian_A1.5CTarget.5Crepo_projects.5CpFOTA.5CcL_R2023.2E09.2E01.5Cmake.5Cobj.5CactSHA2_32.24::
                         622 .LDWlin24:
00000368 1bf0            623 	mov	r27,ep
0000036a 41da            624 	add	1,r27
0000036c ddf1            625 	add	r29,ep
0000036e 20868000        626 	movea	128,zero,r16
00000372 1b30            627 	mov	r27,r6

                                                                      Page 12
                                                              C:\Users\nhuliyap\AppData\Local\Temp\gh_00005lg1.s
00000374 20464000        628 	movea	64,zero,r8
00000378 ae83            629 	sst.b	r16,46[ep]
0000037a dc31            630 	add	r28,r6
0000037c bb41            631 	sub	r27,r8
0000037e 003a            632 	mov	0,r7
                         633 	jarl	_VStdLib_MemSet,lp
                         633 <EXPANSION BEGIN>
                         633 jarl22 _VStdLib_MemSet , lp 
00000380 80ff0000*       633 <EXPANSION END>
                         634 --line225
                         635 ..lin.C.3A.5C_ECU2.5CECU_Rivian_A1.5CTarget.5Crepo_projects.5CpFOTA.5CcL_R2023.2E09.2E01.5Cmake.5Cobj.5CactSHA2_32.25::
                         636 .LDWlin25:
00000384 1b06c7ff        637 	addi	-57,r27,zero
00000388 c90d*           638 	bnl	.L1499
                         639 --line226
                         640 ..lin.C.3A.5C_ECU2.5CECU_Rivian_A1.5CTarget.5Crepo_projects.5CpFOTA.5CcL_R2023.2E09.2E01.5Cmake.5Cobj.5CactSHA2_32.26::
                         641 .LDWlin26:
0000038a 1c30            642 	mov	r28,r6
0000038c 1d38            643 	mov	r29,r7
0000038e 1940            644 	mov	r25,r8
                         645 	jarl	_actSHA2_32_Transform,lp
                         645 <EXPANSION BEGIN>
                         645 jarl22 _actSHA2_32_Transform , lp 
00000390 bfff70fc*       645 <EXPANSION END>
                         646 --line227
                         647 ..lin.C.3A.5C_ECU2.5CECU_Rivian_A1.5CTarget.5Crepo_projects.5CpFOTA.5CcL_R2023.2E09.2E01.5Cmake.5Cobj.5CactSHA2_32.27::
                         648 .LDWlin27:
00000394 1c30            649 	mov	r28,r6
00000396 003a            650 	mov	0,r7
00000398 20463800        651 	movea	56,zero,r8
                         652 	jarl	_VStdLib_MemSet,lp
                         652 <EXPANSION BEGIN>
                         652 jarl22 _VStdLib_MemSet , lp 
0000039c 80ff0000*       652 <EXPANSION END>
                         653 .L1499:
                         654 --line230
                         655 ..lin.C.3A.5C_ECU2.5CECU_Rivian_A1.5CTarget.5Crepo_projects.5CpFOTA.5CcL_R2023.2E09.2E01.5Cmake.5Cobj.5CactSHA2_32.28::
                         656 .LDWlin28:
000003a0 1c363800        657 	addi	56,r28,r6
000003a4 1a38            658 	mov	r26,r7
                         659 	jarl	_actU32toBE,lp
                         659 <EXPANSION BEGIN>
                         659 jarl22 _actU32toBE , lp 
000003a6 80ff0000*       659 <EXPANSION END>
                         660 --line231
                         661 ..lin.C.3A.5C_ECU2.5CECU_Rivian_A1.5CTarget.5Crepo_projects.5CpFOTA.5CcL_R2023.2E09.2E01.5Cmake.5Cobj.5CactSHA2_32.29::
                         662 .LDWlin29:
000003aa 1c363c00        663 	addi	60,r28,r6
000003ae 1838            664 	mov	r24,r7
                         665 	jarl	_actU32toBE,lp
                         665 <EXPANSION BEGIN>
                         665 jarl22 _actU32toBE , lp 
000003b0 80ff0000*       665 <EXPANSION END>
                         666 --line233
                         667 ..lin.C.3A.5C_ECU2.5CECU_Rivian_A1.5CTarget.5Crepo_projects.5CpFOTA.5CcL_R2023.2E09.2E01.5Cmake.5Cobj.5CactSHA2_32.30::
                         668 .LDWlin30:
000003b4 1c30            669 	mov	r28,r6
000003b6 1d38            670 	mov	r29,r7
000003b8 1940            671 	mov	r25,r8
                         672 	jarl	_actSHA2_32_Transform,lp
                         672 <EXPANSION BEGIN>

                                                                      Page 13
                                                              C:\Users\nhuliyap\AppData\Local\Temp\gh_00005lg1.s
                         672 jarl22 _actSHA2_32_Transform , lp 
000003ba bfff46fc*       672 <EXPANSION END>
                         673 --line235
                         674 ..lin.C.3A.5C_ECU2.5CECU_Rivian_A1.5CTarget.5Crepo_projects.5CpFOTA.5CcL_R2023.2E09.2E01.5Cmake.5Cobj.5CactSHA2_32.31::
                         675 .LDWlin31:
000003be fd472d00        676 	ld.hu	44[r29],r8
000003c2 1730            677 	mov	r23,r6
000003c4 1d38            678 	mov	r29,r7
000003c6 8242            679 	shr	2,r8
                         680 	jarl	_actCpyU32toBE,lp
                         680 <EXPANSION BEGIN>
                         680 jarl22 _actCpyU32toBE , lp 
000003c8 80ff0000*       680 <EXPANSION END>
                         681 --line237
                         682 ..lin.C.3A.5C_ECU2.5CECU_Rivian_A1.5CTarget.5Crepo_projects.5CpFOTA.5CcL_R2023.2E09.2E01.5Cmake.5Cobj.5CactSHA2_32.32::
                         683 .LDWlin32:
000003cc 1c30            684 	mov	r28,r6
000003ce 003a            685 	mov	0,r7
000003d0 20464000        686 	movea	64,zero,r8
                         687 	jarl	_VStdLib_MemSet,lp
                         687 <EXPANSION BEGIN>
                         687 jarl22 _VStdLib_MemSet , lp 
000003d4 80ff0000*       687 <EXPANSION END>
                         688 --line239
                         689 ..lin.C.3A.5C_ECU2.5CECU_Rivian_A1.5CTarget.5Crepo_projects.5CpFOTA.5CcL_R2023.2E09.2E01.5Cmake.5Cobj.5CactSHA2_32.33::
                         690 .LDWlin33:
000003d8 1930            691 	mov	r25,r6
                         692 	jarl	_actWatchdogTriggerFunction,lp
                         692 <EXPANSION BEGIN>
                         692 jarl22 _actWatchdogTriggerFunction , lp 
000003da 80ff0000*       692 <EXPANSION END>
                         693 --line241
                         694 ..lin.C.3A.5C_ECU2.5CECU_Rivian_A1.5CTarget.5Crepo_projects.5CpFOTA.5CcL_R2023.2E09.2E01.5Cmake.5Cobj.5CactSHA2_32.34::
                         695 .LDWlin34:
000003de 0052            696 	mov	0,r10
                         697 --	    .ef
                         698 .LDW71:
000003e0 4006fff1        699 	dispose	0,{r23,r24,r25,r26,r27,r28,r29,r31},[lp]
                         700 	.type	_actSHA2_32_Finalize,@function
                         701 	.size	_actSHA2_32_Finalize,.-_actSHA2_32_Finalize
                         702 	.type	_actSHA2_32_Finalize..C.3A.5C_ECU2.5CECU_Rivian_A1.5CTarget.5Crepo_projects.5CpFOTA.5CcL_R2023.2E09.2E01.5Cmake.5Cobj.5CactSHA2_32.,@function
                         703 	.size	_actSHA2_32_Finalize..C.3A.5C_ECU2.5CECU_Rivian_A1.5CTarget.5Crepo_projects.5CpFOTA.5CcL_R2023.2E09.2E01.5Cmake.5Cobj.5CactSHA2_32.,.-_actSHA2_32_Finalize..C.3A.5C_ECU2.5CECU_Rivian_A1.5CTarget.5Crepo_projects.5CpFOTA.5CcL_R2023.2E09.2E01.5Cmake.5Cobj.5CactSHA2_32.
                         704 	.align	2
                         705 .LDW81:
                         706 --_tempBuffer	r28	local
                         707 --_digest	r29	local
                         708 --_low_bitcount	r24	local
                         709 --_hi_bitcount	r26	local
                         710 --_len	r27	local
                         711 
                         712 --_info	r29	param
                         713 --_hash	r23	param
                         714 --_watchdog	r25	param
                         715 
                         716 	.section ".bss","awb"
                         717 .L1531:
                         718 	.type	.L1531,@object
                         719 	.size	.L1531,0
                         720 	.data
                         721 	.section ".MSR_CODE","ax"
                         722 	.align	2

                                                                      Page 14
                                                              C:\Users\nhuliyap\AppData\Local\Temp\gh_00005lg1.s
                         723 	.align	2
                         724 ..gh.f.f.1.e.3:
                         725 	.type	..gh.f.f.1.e.3,@object
                         726 	.size	..gh.f.f.1.e.3,0
                         727 	.global	_actSHA224Init
                         728 _actSHA224Init:
000003e4 06f0            729 	mov	r6,ep
                         730 --	    .bf
                         731 .LDW91:
000003e6 20561c00        732 	movea	28,zero,r10
000003ea 3206d89e05c1    733 	mov	-1056596264,r18
000003f0 310607d57c36    734 	mov	914150663,r17
000003f6 300617dd7030    735 	mov	812702999,r16
000003fc 2f0639590ef7    736 	mov	-150054599,r15
00000402 2e06310bc0ff    737 	mov	-4191439,r14
00000408 2d0611155868    738 	mov	1750603025,r13
0000040e 2c06a78ff964    739 	mov	1694076839,r12
00000414 2b06a44ffabe    740 	mov	-1090891868,r11
0000041a 9654            741 	sst.h	r10,44[ep]
0000041c 0195            742 	sst.w	r18,0[ep]
0000041e 038d            743 	sst.w	r17,4[ep]
00000420 0585            744 	sst.w	r16,8[ep]
00000422 077d            745 	sst.w	r15,12[ep]
00000424 0975            746 	sst.w	r14,16[ep]
00000426 0b6d            747 	sst.w	r13,20[ep]
00000428 0d65            748 	sst.w	r12,24[ep]
0000042a 0f5d            749 	sst.w	r11,28[ep]
0000042c 1105            750 	sst.w	zero,32[ep]
0000042e 1305            751 	sst.w	zero,36[ep]
00000430 1505            752 	sst.w	zero,40[ep]
00000432 0052            753 	mov	0,r10
                         754 --	    .ef
                         755 .LDW02:
00000434 7f00            756 	jmp	[lp]
                         757 	.type	_actSHA224Init,@function
                         758 	.size	_actSHA224Init,.-_actSHA224Init
                         759 	.align	2
                         760 .LDW12:
                         761 
                         762 --_info	ep	param
                         763 
                         764 	.section ".bss","awb"
                         765 .L1585:
                         766 	.type	.L1585,@object
                         767 	.size	.L1585,0
                         768 	.data
                         769 	.section ".MSR_CODE","ax"
                         770 	.align	2
                         771 	.align	2
                         772 ..gh.f.f.1.e.4:
                         773 	.type	..gh.f.f.1.e.4,@object
                         774 	.size	..gh.f.f.1.e.4,0
                         775 	.global	_actSHA224Update
                         776 _actSHA224Update:
                         777 --	    .bf
                         778 .LDW22:
00000436 bf0750fe*       779 	jr	_actSHA2_32_Update
                         780 --	    .ef
                         781 .LDW32:
                         782 	.type	_actSHA224Update,@function
                         783 	.size	_actSHA224Update,.-_actSHA224Update

                                                                      Page 15
                                                              C:\Users\nhuliyap\AppData\Local\Temp\gh_00005lg1.s
                         784 	.align	2
                         785 .LDW42:
                         786 
                         787 --_info	r6	param
                         788 --_dataIN	r7	param
                         789 --_length	r8	param
                         790 --_watchdog	r9	param
                         791 
                         792 	.section ".bss","awb"
                         793 .L1633:
                         794 	.type	.L1633,@object
                         795 	.size	.L1633,0
                         796 	.data
                         797 	.section ".MSR_CODE","ax"
                         798 	.align	2
                         799 	.align	2
                         800 ..gh.f.f.1.e.5:
                         801 	.type	..gh.f.f.1.e.5,@object
                         802 	.size	..gh.f.f.1.e.5,0
                         803 	.global	_actSHA224Finalize
                         804 _actSHA224Finalize:
                         805 --	    .bf
                         806 .LDW52:
0000043a bf0704ff*       807 	jr	_actSHA2_32_Finalize
                         808 --	    .ef
                         809 .LDW62:
                         810 	.type	_actSHA224Finalize,@function
                         811 	.size	_actSHA224Finalize,.-_actSHA224Finalize
                         812 	.align	2
                         813 .LDW72:
                         814 
                         815 --_info	r6	param
                         816 --_hash	r7	param
                         817 --_watchdog	r8	param
                         818 
                         819 	.section ".bss","awb"
                         820 .L1681:
                         821 	.type	.L1681,@object
                         822 	.size	.L1681,0
                         823 	.data
                         824 	.section ".MSR_CODE","ax"
                         825 	.align	2
                         826 	.align	2
                         827 ..gh.f.f.1.e.6:
                         828 	.type	..gh.f.f.1.e.6,@object
                         829 	.size	..gh.f.f.1.e.6,0
                         830 	.global	_actSHA256Init
                         831 _actSHA256Init:
0000043e 06f0            832 	mov	r6,ep
                         833 --	    .bf
                         834 .LDW82:
00000440 20562000        835 	movea	32,zero,r10
00000444 320667e6096a    836 	mov	1779033703,r18
0000044a 310685ae67bb    837 	mov	-1150833019,r17
00000450 300672f36e3c    838 	mov	1013904242,r16
00000456 2f063af54fa5    839 	mov	-1521486534,r15
0000045c 2e067f520e51    840 	mov	1359893119,r14
00000462 2d068c68059b    841 	mov	-1694144372,r13
00000468 2c06abd9831f    842 	mov	528734635,r12
0000046e 2b0619cde05b    843 	mov	1541459225,r11
00000474 9654            844 	sst.h	r10,44[ep]

                                                                      Page 16
                                                              C:\Users\nhuliyap\AppData\Local\Temp\gh_00005lg1.s
00000476 0195            845 	sst.w	r18,0[ep]
00000478 038d            846 	sst.w	r17,4[ep]
0000047a 0585            847 	sst.w	r16,8[ep]
0000047c 077d            848 	sst.w	r15,12[ep]
0000047e 0975            849 	sst.w	r14,16[ep]
00000480 0b6d            850 	sst.w	r13,20[ep]
00000482 0d65            851 	sst.w	r12,24[ep]
00000484 0f5d            852 	sst.w	r11,28[ep]
00000486 1105            853 	sst.w	zero,32[ep]
00000488 1305            854 	sst.w	zero,36[ep]
0000048a 1505            855 	sst.w	zero,40[ep]
0000048c 0052            856 	mov	0,r10
                         857 --	    .ef
                         858 .LDW92:
0000048e 7f00            859 	jmp	[lp]
                         860 	.type	_actSHA256Init,@function
                         861 	.size	_actSHA256Init,.-_actSHA256Init
                         862 	.align	2
                         863 .LDW03:
                         864 
                         865 --_info	ep	param
                         866 
                         867 	.section ".bss","awb"
                         868 .L1729:
                         869 	.type	.L1729,@object
                         870 	.size	.L1729,0
                         871 	.data
                         872 	.section ".MSR_CODE","ax"
                         873 	.align	2
                         874 	.align	2
                         875 ..gh.f.f.1.e.7:
                         876 	.type	..gh.f.f.1.e.7,@object
                         877 	.size	..gh.f.f.1.e.7,0
                         878 	.global	_actSHA256Update
                         879 _actSHA256Update:
                         880 --	    .bf
                         881 .LDW13:
00000490 bf07f6fd*       882 	jr	_actSHA2_32_Update
                         883 --	    .ef
                         884 .LDW23:
                         885 	.type	_actSHA256Update,@function
                         886 	.size	_actSHA256Update,.-_actSHA256Update
                         887 	.align	2
                         888 .LDW33:
                         889 
                         890 --_info	r6	param
                         891 --_dataIN	r7	param
                         892 --_length	r8	param
                         893 --_watchdog	r9	param
                         894 
                         895 	.section ".bss","awb"
                         896 .L1777:
                         897 	.type	.L1777,@object
                         898 	.size	.L1777,0
                         899 	.data
                         900 	.section ".MSR_CODE","ax"
                         901 	.align	2
                         902 	.align	2
                         903 ..gh.f.f.1.e.8:
                         904 	.type	..gh.f.f.1.e.8,@object
                         905 	.size	..gh.f.f.1.e.8,0

                                                                      Page 17
                                                              C:\Users\nhuliyap\AppData\Local\Temp\gh_00005lg1.s
                         906 	.global	_actSHA256Finalize
                         907 _actSHA256Finalize:
                         908 --	    .bf
                         909 .LDW43:
00000494 bf07aafe*       910 	jr	_actSHA2_32_Finalize
                         911 --	    .ef
                         912 .LDW53:
                         913 	.type	_actSHA256Finalize,@function
                         914 	.size	_actSHA256Finalize,.-_actSHA256Finalize
                         915 	.align	2
                         916 .LDW63:
                         917 
                         918 --_info	r6	param
                         919 --_hash	r7	param
                         920 --_watchdog	r8	param
                         921 
                         922 	.section ".bss","awb"
                         923 .L1825:
                         924 	.type	.L1825,@object
                         925 	.size	.L1825,0
                         926 	.data
                         927 	.section ".MSR_CODE","ax"
                         928 	.align	2
                         929 --_actSHA2_32_K	rosdaoff23(_actSHA2_32_K)	static
                         930 
                         931 	.data
                         932 	.ghsnote version,17
                         933 	.ghsnote tools,3
                         934 	.ghsnote options,144
                         935 	.section ".MSR_CODE","ax"
                         936 	.align	2
                         937 ..eof.C.3A.5C_ECU2.5CECU_Rivian_A1.5CTarget.5Crepo_projects.5CpFOTA.5CcL_R2023.2E09.2E01.5Cmake.5Cobj.5CactSHA2_32...43.3A.5C_ECU2.5CECU_Rivian_A1.5CTarget.5Crepo_projects.5CpFOTA.5CcL_R2023.2E09.2E01.5Cmake..64F86459..0::
                         938 .rh850_flags REGMODE32,DATA_ALIGN8,GP_FIX,EP_NONFIX,TP_FIX,REG2_RESERVE,G3K,SDA_EXTRA_REGS_0
