                                                                      Page 1
                                                              C:\Users\nhuliyap\AppData\Local\Temp\gh_00002r01.s
Command Line: C:\GHS\comp_201517\ease850.exe -w -stderr=err/EcuabCanIf.err -elf -b0 -I../source/_common -I../source/common -I../source/ecuabcanif -I../source/ecuabcantrcv -I../source/ecuabcryif -I../source/ecuabfee -I../source/ecuabmemif -I../source/libautosar -I../source/mcalcan -I../source/mcalcry -I../source/mcaldio -I../source/mcaleep -I../source/mcalfls -I../source/mcalmcu -I../source/projectara -I../source/projectcfg -I../source/projectcompiler -I../source/swcservicebswm -I../source/swcservicecantp -I../source/swcservicecomm -I../source/swcservicecsm -I../source/swcservicedcm -I../source/swcservicedem -I../source/swcservicedet -I../source/swcserviceecum -I../source/swcservicenvm -I../source/swcserviceos -I../source/swcservicepdur -I../source/swcserviceschm -I../source/swcservicestartup -I../source/wrappers/swcservicesecm -I../source/wrappers/vsecprim -I../source/wrappers/vstdlib -Ic:/ghs/comp_201517/ansi -Ic:/ghs/comp_201517/include/v800 -Igendata -IC:\GHS\comp_201517\lib\rh850 -cg_underscore -cpu=rh850g3k -nofpu -no_v850_simd -rh850_fpsimd=none -nomacro -patch_dbo=C:\_ECU2\ECU_Rivian_A1\Target\repo_projects\pFOTA\cL_R2023.09.01\make\obj\EcuabCanIf.dbo -source=EcuabCanIf.c -o obj\gh_00002r01.o -list=lst/EcuabCanIf.lst C:\Users\nhuliyap\AppData\Local\Temp\gh_00002r01.s 
Original File: C:\Users\nhuliyap\AppData\Local\Temp\gh_00002r01.s
Source File: EcuabCanIf.c
Directory: C:\_ECU2\ECU_Rivian_A1\Target\repo_projects\pFOTA\cL_R2023.09.01\make
Host OS: Windows
EASE: Copyright (C) 1983-2015 Green Hills Software.  All Rights Reserved.
Release: Compiler v2015.1.7
Build Directory: [Directory] BTOWORKER6:c:/build_2015_1_bto/2015-10-21.2100-2015_1_bto/win32-comp-ecom
Revision: [VCInfo] http://toolsvc/branches/release-branch-70-bto/src@544153 (built by build)
Revision Date: Thu Oct 22 07:50:13 2015

Release Date: Thu Oct 22 09:32:32 2015

                           1 --Driver Command: ccrh850 -DBRS_DERIVATIVE_701018 -DBRS_OSC_CLK=16
                           2 --		-DBRS_TIMEBASE_CLOCK=80 -DBRS_EVA_BOARD_
                           3 --		-DBRS_DERIVATIVE_GROUP_F1L -DBRS_OS_USECASE_BRS
                           4 --		-DBRS_PLATFORM_RH850 -DBRS_COMP_GHS
                           5 --		-DBRS_CPU_LOCAL_RAM_SIZE_CORE0=32
                           6 --		-DBRS_CPU_RAM_START_CORE0=0xFEDF8000 -list=lst/EcuabCanIf.lst
                           7 --		-object_dir=obj -stderr=err/EcuabCanIf.err -c -cpu=rh850 -sda=all
                           8 --		-large_sda -prepare_dispose -pragma_asm_inline -no_callt
                           9 --		-inline_prologue -notda -reserve_r2 -fsoft
                          10 --		--unknown_pragma_warnings -list -g -Ogeneral -shortenum
                          11 --		-registermode=32 -I../source/_common -I../source/common
                          12 --		-I../source/ecuabcanif -I../source/ecuabcantrcv
                          13 --		-I../source/ecuabcryif -I../source/ecuabfee
                          14 --		-I../source/ecuabmemif -I../source/libautosar -I../source/mcalcan
                          15 --		-I../source/mcalcry -I../source/mcaldio -I../source/mcaleep
                          16 --		-I../source/mcalfls -I../source/mcalmcu -I../source/projectara
                          17 --		-I../source/projectcfg -I../source/projectcompiler
                          18 --		-I../source/swcservicebswm -I../source/swcservicecantp
                          19 --		-I../source/swcservicecomm -I../source/swcservicecsm
                          20 --		-I../source/swcservicedcm -I../source/swcservicedem
                          21 --		-I../source/swcservicedet -I../source/swcserviceecum
                          22 --		-I../source/swcservicenvm -I../source/swcserviceos
                          23 --		-I../source/swcservicepdur -I../source/swcserviceschm
                          24 --		-I../source/swcservicestartup -I../source/wrappers/swcservicesecm
                          25 --		-I../source/wrappers/vsecprim -I../source/wrappers/vstdlib
                          26 --		-Ic:/ghs/comp_201517/ansi -Ic:/ghs/comp_201517/include/v800
                          27 --		-Igendata ../source/EcuabCanIf/EcuabCanIf.c
                          28 --Source File:   ../source/EcuabCanIf/EcuabCanIf.c
                          29 --Directory:     
                          30 --		C:\_ECU2\ECU_Rivian_A1\Target\repo_projects\pFOTA\cL_R2023.09.01\make
                          31 --Compile Date:  Wed Sep 06 13:34:03 2023
                          32 --Host OS:       Win32
                          33 --Version:       C-RH850 2015.1.7 RELEASE VERSION
                          34 --Release:       Compiler v2015.1.7
                          35 --Revision Date: Thu Oct 22 08:06:12 2015
                          36 --Release Date:  Thu Oct 22 09:34:32 2015
                          37 -- ecom  -g -w -OM
                          38 	.text
                          39 ..bof.C.3A.5C_ECU2.5CECU_Rivian_A1.5CTarget.5Crepo_projects.5CpFOTA.5CcL_R2023.2E09.2E01.5Cmake.5Cobj.5CEcuabCanIf...43.3A.5C_ECU2.5CECU_Rivian_A1.5CTarget.5Crepo_projects.5CpFOTA.5CcL_R2023.2E09.2E01.5Cmake..64F863AC..0::
                          40 	.align	2
                          41 ..gh.f.f.1.e.0:
                          42 	.type	..gh.f.f.1.e.0,@object
                          43 	.size	..gh.f.f.1.e.0,0
                          44 	.global	_CanIf_ClearQueue..C.3A.5C_ECU2.5CECU_Rivian_A1.5CTarget.5Crepo_projects.5CpFOTA.5CcL_R2023.2E09.2E01.5Cmake.5Cobj.5CEcuabCanIf.
                          45 _CanIf_ClearQueue..C.3A.5C_ECU2.5CECU_Rivian_A1.5CTarget.5Crepo_projects.5CpFOTA.5CcL_R2023.2E09.2E01.5Cmake.5Cobj.5CEcuabCanIf.:
                          46 _CanIf_ClearQueue:
                          47 --	    .bf
                          48 .LDW01:
00000000 a50705880000*    49 	ld.bu	rosdaoff23(_CfgEcuabCanIf_IdCtrl2MappedBuffersTx+1)[r5],r17
00000006 d52d*            50 	br	.L509

                                                                      Page 2
                                                              C:\Users\nhuliyap\AppData\Local\Temp\gh_00002r01.s
                          51 .L508:
                          52 --	    .bs
                          53 .LDW11:
                          54 --line925
                          55 ..lin.C.3A.5C_ECU2.5CECU_Rivian_A1.5CTarget.5Crepo_projects.5CpFOTA.5CcL_R2023.2E09.2E01.5Cmake.5Cobj.5CEcuabCanIf.1::
                          56 .LDWlin1:
00000008 a50705800000*    57 	ld.bu	rosdaoff23(_CfgEcuabCanIf_BuffersTxMapped)[r5],r16
0000000e f0f60600         58 	mulhi	6,r16,ep
00000012 c5f1             59 	add	r5,ep
00000014 be0705780000*    60 	ld.bu	rosdaoff23(_CfgEcuabCanIf_MailBox+4)[ep],r15
0000001a 617a             61 	cmp	1,r15
0000001c 9a25*            62 	bne	.L507
                          63 --line940
                          64 ..lin.C.3A.5C_ECU2.5CECU_Rivian_A1.5CTarget.5Crepo_projects.5CpFOTA.5CcL_R2023.2E09.2E01.5Cmake.5Cobj.5CEcuabCanIf.2::
                          65 .LDWlin2:
0000001e a50705900000*    66 	ld.bu	rosdaoff23(_CfgEcuabCanIf_QueueBufferTxPrioByIdCan+3)[r5],r18
00000024 9515*            67 	br	.L516
                          68 .L515:
                          69 --line942
                          70 ..lin.C.3A.5C_ECU2.5CECU_Rivian_A1.5CTarget.5Crepo_projects.5CpFOTA.5CcL_R2023.2E09.2E01.5Cmake.5Cobj.5CEcuabCanIf.3::
                          71 .LDWlin3:
00000026 05f0             72 	mov	r5,ep
00000028 d2f1             73 	add	r18,ep
0000002a be0705f00000*    74 	ld.bu	rosdaoff23(_CfgEcuabCanIf_QueueBufferPdusMappedTxPrioByIdCan)[ep],ep
00000030 4192             75 	add	1,r18
00000032 c5f1             76 	add	r5,ep
00000034 be0705680000*    77 	ld.bu	rosdaoff23(_EcuabCanIf_IndexQueuePduTx)[ep],r13
0000003a edf60a00         78 	mulhi	10,r13,ep
0000003e c4f1             79 	add	gp,ep
00000040 9e070d000000*    80 	st.b	zero,sdaoff23(_EcuabCanIf_QueueTx+9)[ep]
                          81 .L516:
00000046 a50705580000*    82 	ld.bu	rosdaoff23(_CfgEcuabCanIf_QueueBufferTxPrioByIdCan+1)[r5],r11
0000004c eb91             83 	cmp	r11,r18
0000004e c1ed*            84 	bl	.L515
                          85 --line945
                          86 ..lin.C.3A.5C_ECU2.5CECU_Rivian_A1.5CTarget.5Crepo_projects.5CpFOTA.5CcL_R2023.2E09.2E01.5Cmake.5Cobj.5CEcuabCanIf.4::
                          87 .LDWlin4:
00000050 a50705f00000*    88 	ld.bu	rosdaoff23(_CfgEcuabCanIf_QueueBufferTxPrioByIdCan)[r5],ep
00000056 c4f1             89 	add	gp,ep
00000058 9e070d000000*    90 	st.b	zero,sdaoff23(_EcuabCanIf_BufferTxPrioByIdCanBase)[ep]
                          91 .L507:
                          92 --	    .es
                          93 .LDW21:
0000005e 418a             94 	add	1,r17
                          95 .L509:
00000060 a50705480000*    96 	ld.bu	rosdaoff23(_CfgEcuabCanIf_IdCtrl2MappedBuffersTx)[r5],r9
00000066 e989             97 	cmp	r9,r17
00000068 81d5*            98 	bl	.L508
                          99 --	    .ef
                         100 .LDW31:
                         101 --line989
                         102 ..lin.C.3A.5C_ECU2.5CECU_Rivian_A1.5CTarget.5Crepo_projects.5CpFOTA.5CcL_R2023.2E09.2E01.5Cmake.5Cobj.5CEcuabCanIf.5::
                         103 .LDWlin5:
0000006a 7f00            104 	jmp	[lp]
                         105 	.type	_CanIf_ClearQueue,@function
                         106 	.size	_CanIf_ClearQueue,.-_CanIf_ClearQueue
                         107 	.type	_CanIf_ClearQueue..C.3A.5C_ECU2.5CECU_Rivian_A1.5CTarget.5Crepo_projects.5CpFOTA.5CcL_R2023.2E09.2E01.5Cmake.5Cobj.5CEcuabCanIf.,@function
                         108 	.size	_CanIf_ClearQueue..C.3A.5C_ECU2.5CECU_Rivian_A1.5CTarget.5Crepo_projects.5CpFOTA.5CcL_R2023.2E09.2E01.5Cmake.5Cobj.5CEcuabCanIf.,.-_CanIf_ClearQueue..C.3A.5C_ECU2.5CECU_Rivian_A1.5CTarget.5Crepo_projects.5CpFOTA.5CcL_R2023.2E09.2E01.5Cmake.5Cobj.5CEcuabCanIf.
                         109 	.align	2
                         110 .LDW41:
                         111 --_idx2MappedTxBufferCfg	r17	local

                                                                      Page 3
                                                              C:\Users\nhuliyap\AppData\Local\Temp\gh_00002r01.s
                         112 --_hth	r16	local
                         113 --_MappedTxPdusIdx	r18	local
                         114 
                         115 	.section ".bss","awb"
                         116 .L592:
                         117 	.type	.L592,@object
                         118 	.size	.L592,0
                         119 	.section ".rosdata","a"
                         120 	.align	4
                         121 	.global	_CanIfState..C.3A.5C_ECU2.5CECU_Rivian_A1.5CTarget.5Crepo_projects.5CpFOTA.5CcL_R2023.2E09.2E01.5Cmake.5Cobj.5CEcuabCanIf.
                         122 _CanIfState..C.3A.5C_ECU2.5CECU_Rivian_A1.5CTarget.5Crepo_projects.5CpFOTA.5CcL_R2023.2E09.2E01.5Cmake.5Cobj.5CEcuabCanIf.:
00000000 ffff01ff        123 _CanIfState:	.byte	255,255,1,255
00000004 0203            124 	.byte	2,3
00000006 04              125 	.byte	4
00000007 00              126 	.space	1
00000008 00              127 	.space	1
00000009 ffff0303        128 	.byte	255,255,3,3
0000000d 05              129 	.byte	5
0000000e 00              130 	.space	1
0000000f ff03            131 	.byte	255,3
00000011 00              132 	.space	1
00000012 ff03            133 	.byte	255,3
00000014 04              134 	.byte	4
00000015 00              135 	.space	1
00000016 02ff01ff        136 	.byte	2,255,1,255
0000001a ff05            137 	.byte	255,5
0000001c 00              138 	.space	1
0000001d ff05            139 	.byte	255,5
0000001f 00              140 	.space	1
00000020 0203            141 	.byte	2,3
00000022 ff              142 	.byte	255
00000023 00              143 	.space	1
00000024 04ff0103        144 	.byte	4,255,1,3
00000028 03ff            145 	.byte	3,255
0000002a 0000            146 	.space	2
                         147 	.type	_CanIfState..C.3A.5C_ECU2.5CECU_Rivian_A1.5CTarget.5Crepo_projects.5CpFOTA.5CcL_R2023.2E09.2E01.5Cmake.5Cobj.5CEcuabCanIf.,@object
                         148 	.size	_CanIfState..C.3A.5C_ECU2.5CECU_Rivian_A1.5CTarget.5Crepo_projects.5CpFOTA.5CcL_R2023.2E09.2E01.5Cmake.5Cobj.5CEcuabCanIf.,44
                         149 	.type	_CanIfState,@object
                         150 	.size	_CanIfState,44
                         151 	.data
                         152 	.text
                         153 	.align	2
                         154 	.align	2
                         155 ..gh.f.f.1.e.1:
                         156 	.type	..gh.f.f.1.e.1,@object
                         157 	.size	..gh.f.f.1.e.1,0
                         158 	.global	_infEcuabCanIfSwcApplEcuM_InitFunction
                         159 _infEcuabCanIfSwcApplEcuM_InitFunction:
0000006c 80072100        160 	prepare	{r31},0
                         161 --	    .bf
                         162 .LDW51:
                         163 	jarl	_CanIf_ClearQueue,lp
                         163 <EXPANSION BEGIN>
                         163 jarl22 _CanIf_ClearQueue , lp 
00000070 bfff90ff*       163 <EXPANSION END>
                         164 --line1071
                         165 ..lin.C.3A.5C_ECU2.5CECU_Rivian_A1.5CTarget.5Crepo_projects.5CpFOTA.5CcL_R2023.2E09.2E01.5Cmake.5Cobj.5CEcuabCanIf.6::
                         166 .LDWlin6:
00000074 0192            167 	mov	1,r18
00000076 3e0600000000*   168 	mov	sdaoff23(_EcuabCanIf_StatesCtrl),ep
0000007c 8093            169 	sst.b	r18,0[ep]

                                                                      Page 4
                                                              C:\Users\nhuliyap\AppData\Local\Temp\gh_00002r01.s
0000007e 8103            170 	sst.b	zero,1[ep]
                         171 --	    .ef
                         172 .LDW61:
00000080 40063f00        173 	dispose	0,{r31},[lp]
                         174 	.type	_infEcuabCanIfSwcApplEcuM_InitFunction,@function
                         175 	.size	_infEcuabCanIfSwcApplEcuM_InitFunction,.-_infEcuabCanIfSwcApplEcuM_InitFunction
                         176 	.align	2
                         177 .LDW71:
                         178 
                         179 --_ConfigPtr	none	param
                         180 
                         181 	.section ".bss","awb"
                         182 .L728:
                         183 	.type	.L728,@object
                         184 	.size	.L728,0
                         185 	.data
                         186 	.text
                         187 	.align	2
                         188 	.align	2
                         189 ..gh.f.f.1.e.2:
                         190 	.type	..gh.f.f.1.e.2,@object
                         191 	.size	..gh.f.f.1.e.2,0
                         192 	.global	_CanIf_SetControllerMode
                         193 _CanIf_SetControllerMode:
00000084 80076100        194 	prepare	{r29,r31},0
00000088 a700            195 	sxb	r7
                         196 --	    .bf
                         197 .LDW81:
0000008a 01ea            198 	mov	1,r29
0000008c c636ff00        199 	andi	255,r6,r6
00000090 0f4a            200 	mov	15,r9
00000092 fa05*           201 	bne	.L778
                         202 --line1269
                         203 ..lin.C.3A.5C_ECU2.5CECU_Rivian_A1.5CTarget.5Crepo_projects.5CpFOTA.5CcL_R2023.2E09.2E01.5Cmake.5Cobj.5CEcuabCanIf.7::
                         204 .LDWlin7:
00000094 840705900000*   205 	ld.b	sdaoff23(_EcuabCanIf_StatesCtrl)[gp],r18
0000009a e091            206 	cmp	zero,r18
0000009c 9a0d*           207 	bne	.L751
                         208 --line1270
                         209 ..lin.C.3A.5C_ECU2.5CECU_Rivian_A1.5CTarget.5Crepo_projects.5CpFOTA.5CcL_R2023.2E09.2E01.5Cmake.5Cobj.5CEcuabCanIf.8::
                         210 .LDWlin8:
0000009e 4f4a            211 	add	15,r9
                         212 .L778:
000000a0 20363c00        213 	movea	60,zero,r6
000000a4 003a            214 	mov	0,r7
000000a6 0342            215 	mov	3,r8
                         216 	jarl	_Det_ReportError,lp
                         216 <EXPANSION BEGIN>
                         216 jarl22 _Det_ReportError , lp 
000000a8 80ff0000*       216 <EXPANSION END>
000000ac 8545*           217 	br	.L777
                         218 .L751:
                         219 --line1287
                         220 ..lin.C.3A.5C_ECU2.5CECU_Rivian_A1.5CTarget.5Crepo_projects.5CpFOTA.5CcL_R2023.2E09.2E01.5Cmake.5Cobj.5CEcuabCanIf.9::
                         221 .LDWlin9:
000000ae 613a            222 	cmp	1,r7
000000b0 d105*           223 	bl	.L774
000000b2 c20d*           224 	be	.L757
000000b4 633a            225 	cmp	3,r7
000000b6 f125*           226 	bl	.L764
000000b8 8235*           227 	be	.L769

                                                                      Page 5
                                                              C:\Users\nhuliyap\AppData\Local\Temp\gh_00002r01.s
                         228 .L774:
000000ba 20363c00        229 	movea	60,zero,r6
000000be 003a            230 	mov	0,r7
000000c0 0342            231 	mov	3,r8
000000c2 464a            232 	add	6,r9
                         233 	jarl	_Det_ReportError,lp
                         233 <EXPANSION BEGIN>
                         233 jarl22 _Det_ReportError , lp 
000000c4 80ff0000*       233 <EXPANSION END>
000000c8 a535*           234 	br	.L777
                         235 .L757:
000000ca 6192            236 	cmp	1,r18
000000cc 8135*           237 	bl	.L777
000000ce c215*           238 	be	.L762
000000d0 6392            239 	cmp	3,r18
000000d2 910d*           240 	bl	.L760
000000d4 ca2d*           241 	bne	.L777
000000d6 033a            242 	mov	3,r7
                         243 	jarl	_Can_SetControllerMode,lp
                         243 <EXPANSION BEGIN>
                         243 jarl22 _Can_SetControllerMode , lp 
000000d8 80ff0000*       243 <EXPANSION END>
000000dc 6152            244 	cmp	1,r10
000000de eaef0000        245 	setfne	r29
000000e2 d525*           246 	br	.L777
                         247 .L760:
000000e4 1d38            248 	mov	r29,r7
                         249 	jarl	_Can_SetControllerMode,lp
                         249 <EXPANSION BEGIN>
                         249 jarl22 _Can_SetControllerMode , lp 
000000e6 80ff0000*       249 <EXPANSION END>
000000ea 6152            250 	cmp	1,r10
000000ec 8a25*           251 	bne	.L777
                         252 	jarl	_CanIf_ClearQueue,lp
                         252 <EXPANSION BEGIN>
                         252 jarl22 _CanIf_ClearQueue , lp 
000000ee bfff12ff*       252 <EXPANSION END>
000000f2 00ea            253 	mov	0,r29
000000f4 c51d*           254 	br	.L777
                         255 .L762:
000000f6 1d38            256 	mov	r29,r7
                         257 	jarl	_Can_SetControllerMode,lp
                         257 <EXPANSION BEGIN>
                         257 jarl22 _Can_SetControllerMode , lp 
000000f8 80ff0000*       257 <EXPANSION END>
000000fc 6152            258 	cmp	1,r10
000000fe eaef0000        259 	setfne	r29
00000102 d515*           260 	br	.L777
                         261 .L764:
00000104 5f92            262 	add	-1,r18
00000106 6192            263 	cmp	1,r18
00000108 ab15*           264 	bh	.L777
0000010a 0638            265 	mov	r6,r7
                         266 	jarl	_Can_SetControllerMode,lp
                         266 <EXPANSION BEGIN>
                         266 jarl22 _Can_SetControllerMode , lp 
0000010c 80ff0000*       266 <EXPANSION END>
00000110 6152            267 	cmp	1,r10
00000112 eaef0000        268 	setfne	r29
00000116 b50d*           269 	br	.L777
                         270 .L769:

                                                                      Page 6
                                                              C:\Users\nhuliyap\AppData\Local\Temp\gh_00002r01.s
00000118 6192            271 	cmp	1,r18
0000011a b205*           272 	be	.L770
0000011c 6392            273 	cmp	3,r18
0000011e fa05*           274 	bne	.L777
                         275 .L770:
00000120 023a            276 	mov	2,r7
                         277 	jarl	_Can_SetControllerMode,lp
                         277 <EXPANSION BEGIN>
                         277 jarl22 _Can_SetControllerMode , lp 
00000122 80ff0000*       277 <EXPANSION END>
00000126 6152            278 	cmp	1,r10
00000128 eaef0000        279 	setfne	r29
                         280 .L777:
                         281 --line1304
                         282 ..lin.C.3A.5C_ECU2.5CECU_Rivian_A1.5CTarget.5Crepo_projects.5CpFOTA.5CcL_R2023.2E09.2E01.5Cmake.5Cobj.5CEcuabCanIf.10::
                         283 .LDWlin10:
0000012c 1d50            284 	mov	r29,r10
                         285 --	    .ef
                         286 .LDW91:
0000012e 40067f00        287 	dispose	0,{r29,r31},[lp]
                         288 	.type	_CanIf_SetControllerMode,@function
                         289 	.size	_CanIf_SetControllerMode,.-_CanIf_SetControllerMode
                         290 	.align	2
                         291 .LDW02:
                         292 --_retval	r29	local
                         293 --_errorId	r9	local
                         294 --_retval	r29	local
                         295 
                         296 --_ControllerId	r6	param
                         297 --_ControllerMode	r7	param
                         298 
                         299 	.section ".bss","awb"
                         300 .L993:
                         301 	.type	.L993,@object
                         302 	.size	.L993,0
                         303 	.data
                         304 	.text
                         305 	.align	2
                         306 	.align	2
                         307 ..gh.f.f.1.e.3:
                         308 	.type	..gh.f.f.1.e.3,@object
                         309 	.size	..gh.f.f.1.e.3,0
                         310 	.global	_CanIf_GetControllerMode
                         311 _CanIf_GetControllerMode:
00000132 80076100        312 	prepare	{r29,r31},0
00000136 07f0            313 	mov	r7,ep
                         314 --	    .bf
                         315 .LDW12:
00000138 01ea            316 	mov	1,r29
0000013a c636ff00        317 	andi	255,r6,r6
0000013e 0f4a            318 	mov	15,r9
00000140 fa05*           319 	bne	.L1244
                         320 --line1324
                         321 ..lin.C.3A.5C_ECU2.5CECU_Rivian_A1.5CTarget.5Crepo_projects.5CpFOTA.5CcL_R2023.2E09.2E01.5Cmake.5Cobj.5CEcuabCanIf.11::
                         322 .LDWlin11:
00000142 840705400000*   323 	ld.b	sdaoff23(_EcuabCanIf_StatesCtrl)[gp],r8
00000148 e041            324 	cmp	zero,r8
0000014a 9a0d*           325 	bne	.L1237
                         326 --line1325
                         327 ..lin.C.3A.5C_ECU2.5CECU_Rivian_A1.5CTarget.5Crepo_projects.5CpFOTA.5CcL_R2023.2E09.2E01.5Cmake.5Cobj.5CEcuabCanIf.12::
                         328 .LDWlin12:

                                                                      Page 7
                                                              C:\Users\nhuliyap\AppData\Local\Temp\gh_00002r01.s
0000014c 4f4a            329 	add	15,r9
                         330 .L1244:
0000014e 20363c00        331 	movea	60,zero,r6
00000152 003a            332 	mov	0,r7
00000154 0442            333 	mov	4,r8
                         334 	jarl	_Det_ReportError,lp
                         334 <EXPANSION BEGIN>
                         334 jarl22 _Det_ReportError , lp 
00000156 80ff0000*       334 <EXPANSION END>
0000015a f505*           335 	br	.L1243
                         336 .L1237:
                         337 --line1328
                         338 ..lin.C.3A.5C_ECU2.5CECU_Rivian_A1.5CTarget.5Crepo_projects.5CpFOTA.5CcL_R2023.2E09.2E01.5Cmake.5Cobj.5CEcuabCanIf.13::
                         339 .LDWlin13:
0000015c e039            340 	cmp	zero,r7
0000015e ba05*           341 	bne	.L1240
                         342 --line1329
                         343 ..lin.C.3A.5C_ECU2.5CECU_Rivian_A1.5CTarget.5Crepo_projects.5CpFOTA.5CcL_R2023.2E09.2E01.5Cmake.5Cobj.5CEcuabCanIf.14::
                         344 .LDWlin14:
00000160 454a            345 	add	5,r9
00000162 e5f5*           346 	br	.L1244
                         347 .L1240:
                         348 --line1335
                         349 ..lin.C.3A.5C_ECU2.5CECU_Rivian_A1.5CTarget.5Crepo_projects.5CpFOTA.5CcL_R2023.2E09.2E01.5Cmake.5Cobj.5CEcuabCanIf.15::
                         350 .LDWlin15:
00000164 8043            351 	sst.b	r8,0[ep]
00000166 06e8            352 	mov	r6,r29
                         353 .L1243:
00000168 1d50            354 	mov	r29,r10
                         355 --	    .ef
                         356 .LDW22:
0000016a 40067f00        357 	dispose	0,{r29,r31},[lp]
                         358 	.type	_CanIf_GetControllerMode,@function
                         359 	.size	_CanIf_GetControllerMode,.-_CanIf_GetControllerMode
                         360 	.align	2
                         361 .LDW32:
                         362 --_retval	r29	local
                         363 --_errorId	r9	local
                         364 
                         365 --_ControllerId	r6	param
                         366 --_ControllerModePtr	ep	param
                         367 
                         368 	.section ".bss","awb"
                         369 .L1340:
                         370 	.type	.L1340,@object
                         371 	.size	.L1340,0
                         372 	.data
                         373 	.text
                         374 	.align	2
                         375 	.align	2
                         376 ..gh.f.f.1.e.4:
                         377 	.type	..gh.f.f.1.e.4,@object
                         378 	.size	..gh.f.f.1.e.4,0
                         379 	.global	_CanIf_HlTxConfirmation..C.3A.5C_ECU2.5CECU_Rivian_A1.5CTarget.5Crepo_projects.5CpFOTA.5CcL_R2023.2E09.2E01.5Cmake.5Cobj.5CEcuabCanIf.
                         380 _CanIf_HlTxConfirmation..C.3A.5C_ECU2.5CECU_Rivian_A1.5CTarget.5Crepo_projects.5CpFOTA.5CcL_R2023.2E09.2E01.5Cmake.5Cobj.5CEcuabCanIf.:
                         381 _CanIf_HlTxConfirmation:
0000016e 80076100        382 	prepare	{r29,r31},0
00000172 06f0            383 	mov	r6,ep
00000174 9e00            384 	zxb	ep
                         385 --	    .bf
                         386 .LDW42:

                                                                      Page 8
                                                              C:\Users\nhuliyap\AppData\Local\Temp\gh_00002r01.s
00000176 c3f2            387 	shl	3,ep
00000178 c5f1            388 	add	r5,ep
0000017a be0705300000*   389 	ld.bu	rosdaoff23(_EcuabCanIf_PduTx+2)[ep],r6
00000180 be0705f00000*   390 	ld.bu	rosdaoff23(_EcuabCanIf_PduTx+6)[ep],ep
00000186 c2f2            391 	shl	2,ep
00000188 c5f1            392 	add	r5,ep
0000018a 9e0709e80000*   393 	ld.w	rosdaoff23(_EcuabCanIf_ListFctConfirmationTx)[ep],r29
00000190 e0e9            394 	cmp	zero,r29
00000192 b205*           395 	be	.L1426
                         396 --line1918
                         397 ..lin.C.3A.5C_ECU2.5CECU_Rivian_A1.5CTarget.5Crepo_projects.5CpFOTA.5CcL_R2023.2E09.2E01.5Cmake.5Cobj.5CEcuabCanIf.16::
                         398 .LDWlin16:
00000194 fdc760f9        399 	jarl	[r29],lp
                         400 .L1426:
                         401 --	    .ef
                         402 .LDW52:
                         403 --line1920
                         404 ..lin.C.3A.5C_ECU2.5CECU_Rivian_A1.5CTarget.5Crepo_projects.5CpFOTA.5CcL_R2023.2E09.2E01.5Cmake.5Cobj.5CEcuabCanIf.17::
                         405 .LDWlin17:
00000198 40067f00        406 	dispose	0,{r29,r31},[lp]
                         407 	.type	_CanIf_HlTxConfirmation,@function
                         408 	.size	_CanIf_HlTxConfirmation,.-_CanIf_HlTxConfirmation
                         409 	.type	_CanIf_HlTxConfirmation..C.3A.5C_ECU2.5CECU_Rivian_A1.5CTarget.5Crepo_projects.5CpFOTA.5CcL_R2023.2E09.2E01.5Cmake.5Cobj.5CEcuabCanIf.,@function
                         410 	.size	_CanIf_HlTxConfirmation..C.3A.5C_ECU2.5CECU_Rivian_A1.5CTarget.5Crepo_projects.5CpFOTA.5CcL_R2023.2E09.2E01.5Cmake.5Cobj.5CEcuabCanIf.,.-_CanIf_HlTxConfirmation..C.3A.5C_ECU2.5CECU_Rivian_A1.5CTarget.5Crepo_projects.5CpFOTA.5CcL_R2023.2E09.2E01.5Cmake.5Cobj.5CEcuabCanIf.
                         411 	.align	2
                         412 .LDW62:
                         413 --_upperLayerTxPduId	r6	local
                         414 --_txConfirmationFct	r29	local
                         415 
                         416 --_CanTxPduId	r6	param
                         417 
                         418 	.section ".bss","awb"
                         419 .L1462:
                         420 	.type	.L1462,@object
                         421 	.size	.L1462,0
                         422 	.data
                         423 	.text
                         424 	.align	2
                         425 	.align	2
                         426 ..gh.f.f.1.e.5:
                         427 	.type	..gh.f.f.1.e.5,@object
                         428 	.size	..gh.f.f.1.e.5,0
                         429 	.global	_EcuabCanIf_Transmit
                         430 _EcuabCanIf_Transmit:
0000019c 8607e100        431 	prepare	{r28,r29,r31},3
000001a0 8600            432 	zxb	r6
                         433 --	    .bf
                         434 .LDW72:
000001a2 01ea            435 	mov	1,r29
000001a4 6232            436 	cmp	2,r6
000001a6 d105*           437 	bl	.L1497
                         438 --line1764
                         439 ..lin.C.3A.5C_ECU2.5CECU_Rivian_A1.5CTarget.5Crepo_projects.5CpFOTA.5CcL_R2023.2E09.2E01.5Cmake.5Cobj.5CEcuabCanIf.18::
                         440 .LDWlin18:
000001a8 204e3200        441 	movea	50,zero,r9
000001ac 80079c01*       442 	br	.L1557
                         443 .L1497:
000001b0 07f0            444 	mov	r7,ep
                         445 --line1776
                         446 ..lin.C.3A.5C_ECU2.5CECU_Rivian_A1.5CTarget.5Crepo_projects.5CpFOTA.5CcL_R2023.2E09.2E01.5Cmake.5Cobj.5CEcuabCanIf.19::
                         447 .LDWlin19:

                                                                      Page 9
                                                              C:\Users\nhuliyap\AppData\Local\Temp\gh_00002r01.s
000001b2 e039            448 	cmp	zero,r7
000001b4 da05*           449 	bne	.L1500
                         450 --line1778
                         451 ..lin.C.3A.5C_ECU2.5CECU_Rivian_A1.5CTarget.5Crepo_projects.5CpFOTA.5CcL_R2023.2E09.2E01.5Cmake.5Cobj.5CEcuabCanIf.20::
                         452 .LDWlin20:
000001b6 204e1400        453 	movea	20,zero,r9
000001ba 80078e01*       454 	br	.L1557
                         455 .L1500:
                         456 --line1781
                         457 ..lin.C.3A.5C_ECU2.5CECU_Rivian_A1.5CTarget.5Crepo_projects.5CpFOTA.5CcL_R2023.2E09.2E01.5Cmake.5Cobj.5CEcuabCanIf.21::
                         458 .LDWlin21:
000001be 840705980000*   459 	ld.b	sdaoff23(_EcuabCanIf_StatesCtrl)[gp],r19
000001c4 e099            460 	cmp	zero,r19
000001c6 da05*           461 	bne	.L1503
                         462 --line1783
                         463 ..lin.C.3A.5C_ECU2.5CECU_Rivian_A1.5CTarget.5Crepo_projects.5CpFOTA.5CcL_R2023.2E09.2E01.5Cmake.5Cobj.5CEcuabCanIf.22::
                         464 .LDWlin22:
000001c8 204e1e00        465 	movea	30,zero,r9
000001cc 80077c01*       466 	br	.L1557
                         467 .L1503:
                         468 --line1809
                         469 ..lin.C.3A.5C_ECU2.5CECU_Rivian_A1.5CTarget.5Crepo_projects.5CpFOTA.5CcL_R2023.2E09.2E01.5Cmake.5Cobj.5CEcuabCanIf.23::
                         470 .LDWlin23:
000001d0 629a            471 	cmp	2,r19
000001d2 ea076f01*       472 	bne	.L1506
                         473 --line1811
                         474 ..lin.C.3A.5C_ECU2.5CECU_Rivian_A1.5CTarget.5Crepo_projects.5CpFOTA.5CcL_R2023.2E09.2E01.5Cmake.5Cobj.5CEcuabCanIf.24::
                         475 .LDWlin24:
000001d6 840705400000*   476 	ld.b	sdaoff23(_EcuabCanIf_StatesCtrl+1)[gp],r8
000001dc 6342            477 	cmp	3,r8
000001de c205*           478 	be	.L1509
000001e0 6242            479 	cmp	2,r8
000001e2 ea074f01*       480 	bne	.L1508
                         481 .L1509:
                         482 --line1832
                         483 ..lin.C.3A.5C_ECU2.5CECU_Rivian_A1.5CTarget.5Crepo_projects.5CpFOTA.5CcL_R2023.2E09.2E01.5Cmake.5Cobj.5CEcuabCanIf.25::
                         484 .LDWlin25:
000001e6 0690            485 	mov	r6,r18
000001e8 c392            486 	shl	3,r18
000001ea 310600000000*   487 	mov	rosdaoff23(_EcuabCanIf_PduTx),r17
000001f0 d191            488 	add	r17,r18
000001f2 f27f0100        489 	ld.hu	0[r18],r15
000001f6 0075            490 	sld.w	0[ep],r14
000001f8 43370800        491 	st.b	r6,8[sp]
000001fc 7268            492 	sld.hu	4[ep],r13
000001fe b2370500        493 	ld.bu	5[r18],r6
00000202 637f0000        494 	st.h	r15,0[sp]
00000206 63770500        495 	st.w	r14,4[sp]
0000020a 436f0200        496 	st.b	r13,2[sp]
0000020e 0338            497 	mov	sp,r7
                         498 	jarl	_Can_Write,lp
                         498 <EXPANSION BEGIN>
                         498 jarl22 _Can_Write , lp 
00000210 80ff0000*       498 <EXPANSION END>
00000214 6252            499 	cmp	2,r10
00000216 ba5d*           500 	bne	.L1535
00000218 838f0900        501 	ld.bu	8[sp],r17
0000021c 2a0600000000*   502 	mov	rosdaoff23(_CfgEcuabCanIf_MailBox),r10
00000222 11f0            503 	mov	r17,ep
00000224 c3f2            504 	shl	3,ep
00000226 c5f1            505 	add	r5,ep

                                                                      Page 10
                                                              C:\Users\nhuliyap\AppData\Local\Temp\gh_00002r01.s
00000228 be0705580000*   506 	ld.bu	rosdaoff23(_EcuabCanIf_PduTx+5)[ep],r11
0000022e ebf60600        507 	mulhi	6,r11,ep
00000232 caf1            508 	add	r10,ep
00000234 6380            509 	sld.bu	3[ep],r16
00000236 100601ff        510 	addi	-255,r16,zero
0000023a e235*           511 	be	.L1556
0000023c 233f0500        512 	ld.w	4[sp],r7
00000240 e039            513 	cmp	zero,r7
00000242 ea0d*           514 	bne	.L1518
00000244 834f0300        515 	ld.bu	2[sp],r9
00000248 e049            516 	cmp	zero,r9
0000024a a20d*           517 	be	.L1518
0000024c 204e1400        518 	movea	20,zero,r9
                         519 .L1532:
00000250 20363c00        520 	movea	60,zero,r6
00000254 003a            521 	mov	0,r7
00000256 0542            522 	mov	5,r8
                         523 	jarl	_Det_ReportError,lp
                         523 <EXPANSION BEGIN>
                         523 jarl22 _Det_ReportError , lp 
00000258 80ff0000*       523 <EXPANSION END>
0000025c d525*           524 	br	.L1556
                         525 .L1518:
0000025e 6440            526 	sld.bu	4[ep],r8
00000260 6142            527 	cmp	1,r8
00000262 aa25*           528 	bne	.L1556
00000264 83470300        529 	ld.bu	2[sp],r8
00000268 0b4a            530 	mov	11,r9
0000026a 6842            531 	cmp	8,r8
0000026c abf5*           532 	bh	.L1532
0000026e 3c0600000000*   533 	mov	rosdaoff23(_EcuabCanIf_IndexQueuePduTx),r28
00000274 11f0            534 	mov	r17,ep
00000276 dcf1            535 	add	r28,ep
00000278 6030            536 	sld.bu	0[ep],r6
0000027a 3d0600000000*   537 	mov	sdaoff23(_EcuabCanIf_QueueTx),r29
00000280 e6360a00        538 	mulhi	10,r6,r6
00000284 dd31            539 	add	r29,r6
00000286 46470800        540 	st.b	r8,8[r6]
                         541 	jarl	_VStdLib_MemCpy,lp
                         541 <EXPANSION BEGIN>
                         541 jarl22 _VStdLib_MemCpy , lp 
0000028a 80ff0000*       541 <EXPANSION END>
0000028e 83f70900        542 	ld.bu	8[sp],ep
00000292 dcf1            543 	add	r28,ep
00000294 6098            544 	sld.bu	0[ep],r19
00000296 f3460a00        545 	mulhi	10,r19,r8
0000029a c8e9            546 	add	r8,r29
0000029c bd970900        547 	ld.bu	9[r29],r18
000002a0 e091            548 	cmp	zero,r18
000002a2 d205*           549 	be	.L1524
000002a4 00ea            550 	mov	0,r29
                         551 .L1556:
                         552 --line1903
                         553 ..lin.C.3A.5C_ECU2.5CECU_Rivian_A1.5CTarget.5Crepo_projects.5CpFOTA.5CcL_R2023.2E09.2E01.5Cmake.5Cobj.5CEcuabCanIf.26::
                         554 .LDWlin26:
000002a6 1d50            555 	mov	r29,r10
                         556 --	    .ef
                         557 .LDW82:
000002a8 4606ff00        558 	dispose	3,{r28,r29,r31},[lp]
                         559 .L1524:
000002ac 1df0            560 	mov	r29,ep

                                                                      Page 11
                                                              C:\Users\nhuliyap\AppData\Local\Temp\gh_00002r01.s
000002ae 018a            561 	mov	1,r17
000002b0 898b            562 	sst.b	r17,9[ep]
000002b2 a50705f00000*   563 	ld.bu	rosdaoff23(_CfgEcuabCanIf_QueueBufferTxPrioByIdCan)[r5],ep
000002b8 00ea            564 	mov	0,r29
000002ba c4f1            565 	add	gp,ep
000002bc be0705900000*   566 	ld.bu	sdaoff23(_EcuabCanIf_BufferTxPrioByIdCanBase)[ep],r18
000002c2 4192            567 	add	1,r18
000002c4 9e070d900000*   568 	st.b	r18,sdaoff23(_EcuabCanIf_BufferTxPrioByIdCanBase)[ep]
000002ca e5ed*           569 	br	.L1556
                         570 .L1535:
000002cc e051            571 	cmp	zero,r10
000002ce c2ed*           572 	be	.L1556
000002d0 838f0900        573 	ld.bu	8[sp],r17
000002d4 00ea            574 	mov	0,r29
000002d6 11f0            575 	mov	r17,ep
000002d8 c3f2            576 	shl	3,ep
000002da c5f1            577 	add	r5,ep
000002dc be0705980000*   578 	ld.bu	rosdaoff23(_EcuabCanIf_PduTx+5)[ep],r19
000002e2 f3f60600        579 	mulhi	6,r19,ep
000002e6 c5f1            580 	add	r5,ep
000002e8 be0705800000*   581 	ld.bu	rosdaoff23(_CfgEcuabCanIf_MailBox+4)[ep],r16
000002ee 6182            582 	cmp	1,r16
000002f0 badd*           583 	bne	.L1556
000002f2 05f0            584 	mov	r5,ep
000002f4 d1f1            585 	add	r17,ep
000002f6 be0705800000*   586 	ld.bu	rosdaoff23(_EcuabCanIf_IndexQueuePduTx)[ep],r16
000002fc 04f0            587 	mov	gp,ep
000002fe f03e0a00        588 	mulhi	10,r16,r7
00000302 c7f1            589 	add	r7,ep
00000304 be0705780000*   590 	ld.bu	sdaoff23(_EcuabCanIf_QueueTx+9)[ep],r15
0000030a 617a            591 	cmp	1,r15
0000030c dacd*           592 	bne	.L1556
0000030e 04f0            593 	mov	gp,ep
00000310 c7f1            594 	add	r7,ep
00000312 9e070d000000*   595 	st.b	zero,sdaoff23(_EcuabCanIf_QueueTx+9)[ep]
00000318 a50705f00000*   596 	ld.bu	rosdaoff23(_CfgEcuabCanIf_QueueBufferTxPrioByIdCan)[r5],ep
0000031e c4f1            597 	add	gp,ep
00000320 be0705880000*   598 	ld.bu	sdaoff23(_EcuabCanIf_BufferTxPrioByIdCanBase)[ep],r17
00000326 5f8a            599 	add	-1,r17
00000328 9e070d880000*   600 	st.b	r17,sdaoff23(_EcuabCanIf_BufferTxPrioByIdCanBase)[ep]
0000032e c5bd*           601 	br	.L1556
                         602 .L1508:
                         603 --line1868
                         604 ..lin.C.3A.5C_ECU2.5CECU_Rivian_A1.5CTarget.5Crepo_projects.5CpFOTA.5CcL_R2023.2E09.2E01.5Cmake.5Cobj.5CEcuabCanIf.27::
                         605 .LDWlin27:
00000330 6442            606 	cmp	4,r8
00000332 b205*           607 	be	.L1549
00000334 6542            608 	cmp	5,r8
00000336 fa05*           609 	bne	.L1554
                         610 .L1549:
                         611 --line1871
                         612 ..lin.C.3A.5C_ECU2.5CECU_Rivian_A1.5CTarget.5Crepo_projects.5CpFOTA.5CcL_R2023.2E09.2E01.5Cmake.5Cobj.5CEcuabCanIf.28::
                         613 .LDWlin28:
00000338 00ea            614 	mov	0,r29
                         615 	jarl	_CanIf_HlTxConfirmation,lp
                         615 <EXPANSION BEGIN>
                         615 jarl22 _CanIf_HlTxConfirmation , lp 
0000033a bfff34fe*       615 <EXPANSION END>
0000033e c5b5*           616 	br	.L1556
                         617 .L1506:
                         618 --line1881

                                                                      Page 12
                                                              C:\Users\nhuliyap\AppData\Local\Temp\gh_00002r01.s
                         619 ..lin.C.3A.5C_ECU2.5CECU_Rivian_A1.5CTarget.5Crepo_projects.5CpFOTA.5CcL_R2023.2E09.2E01.5Cmake.5Cobj.5CEcuabCanIf.29::
                         620 .LDWlin29:
00000340 619a            621 	cmp	1,r19
00000342 aab5*           622 	bne	.L1556
                         623 .L1554:
                         624 --line1883
                         625 ..lin.C.3A.5C_ECU2.5CECU_Rivian_A1.5CTarget.5Crepo_projects.5CpFOTA.5CcL_R2023.2E09.2E01.5Cmake.5Cobj.5CEcuabCanIf.30::
                         626 .LDWlin30:
00000344 204e4600        627 	movea	70,zero,r9
                         628 .L1557:
00000348 20363c00        629 	movea	60,zero,r6
0000034c 003a            630 	mov	0,r7
0000034e 0542            631 	mov	5,r8
                         632 	jarl	_Det_ReportError,lp
                         632 <EXPANSION BEGIN>
                         632 jarl22 _Det_ReportError , lp 
00000350 80ff0000*       632 <EXPANSION END>
00000354 95ad*           633 	br	.L1556
                         634 	.type	_EcuabCanIf_Transmit,@function
                         635 	.size	_EcuabCanIf_Transmit,.-_EcuabCanIf_Transmit
                         636 	.align	2
                         637 .LDW92:
                         638 --_retval	r29	local
                         639 --_errorId	r9	local
                         640 --_localPdu	0[sp]	local
                         641 --_retval	r29	local
                         642 --_txResult	r10	local
                         643 --_retval	r29	local
                         644 --_errorId	r9	local
                         645 --_PduId	ep	local
                         646 
                         647 --_CanTxPduId	r6	param
                         648 --_PduInfoPtr	ep	param
                         649 
                         650 	.section ".bss","awb"
                         651 .L1943:
                         652 	.type	.L1943,@object
                         653 	.size	.L1943,0
                         654 	.data
                         655 	.text
                         656 	.align	2
                         657 	.align	2
                         658 ..gh.f.f.1.e.6:
                         659 	.type	..gh.f.f.1.e.6,@object
                         660 	.size	..gh.f.f.1.e.6,0
                         661 	.global	_EcuabCanIf_QueueTxTransmit..C.3A.5C_ECU2.5CECU_Rivian_A1.5CTarget.5Crepo_projects.5CpFOTA.5CcL_R2023.2E09.2E01.5Cmake.5Cobj.5CEcuabCanIf.
                         662 _EcuabCanIf_QueueTxTransmit..C.3A.5C_ECU2.5CECU_Rivian_A1.5CTarget.5Crepo_projects.5CpFOTA.5CcL_R2023.2E09.2E01.5Cmake.5Cobj.5CEcuabCanIf.:
                         663 _EcuabCanIf_QueueTxTransmit:
00000356 8607e110        664 	prepare	{r27,r28,r29,r31},3
0000035a 06e8            665 	mov	r6,r29
0000035c 9d00            666 	zxb	r29
                         667 --	    .bf
                         668 .LDW03:
0000035e 01e2            669 	mov	1,r28
00000360 62ea            670 	cmp	2,r29
00000362 8955*           671 	bnl	.L2292
                         672 --line3048
                         673 ..lin.C.3A.5C_ECU2.5CECU_Rivian_A1.5CTarget.5Crepo_projects.5CpFOTA.5CcL_R2023.2E09.2E01.5Cmake.5Cobj.5CEcuabCanIf.31::
                         674 .LDWlin31:
00000364 1df0            675 	mov	r29,ep
00000366 c3f2            676 	shl	3,ep

                                                                      Page 13
                                                              C:\Users\nhuliyap\AppData\Local\Temp\gh_00002r01.s
00000368 310600000000*   677 	mov	rosdaoff23(_EcuabCanIf_PduTx),r17
0000036e d1f1            678 	add	r17,ep
00000370 6530            679 	sld.bu	5[ep],r6
00000372 e6960600        680 	mulhi	6,r6,r18
00000376 c591            681 	add	r5,r18
00000378 b20705d80000*   682 	ld.bu	rosdaoff23(_CfgEcuabCanIf_MailBox+4)[r18],r27
0000037e 61da            683 	cmp	1,r27
00000380 ea15*           684 	bne	.L2270
                         685 --line3060
                         686 ..lin.C.3A.5C_ECU2.5CECU_Rivian_A1.5CTarget.5Crepo_projects.5CpFOTA.5CcL_R2023.2E09.2E01.5Cmake.5Cobj.5CEcuabCanIf.32::
                         687 .LDWlin32:
00000382 7068            688 	sld.hu	0[ep],r13
00000384 05f0            689 	mov	r5,ep
00000386 ddf1            690 	add	r29,ep
00000388 be0705580000*   691 	ld.bu	rosdaoff23(_EcuabCanIf_IndexQueuePduTx)[ep],r11
0000038e 2a0600000000*   692 	mov	sdaoff23(_EcuabCanIf_QueueTx),r10
00000394 636f0000        693 	st.h	r13,0[sp]
00000398 43ef0800        694 	st.b	r29,8[sp]
0000039c ebf60a00        695 	mulhi	10,r11,ep
000003a0 caf1            696 	add	r10,ep
000003a2 6848            697 	sld.bu	8[ep],r9
000003a4 63f70500        698 	st.w	ep,4[sp]
000003a8 434f0200        699 	st.b	r9,2[sp]
                         700 .L2270:
000003ac 0338            701 	mov	sp,r7
                         702 	jarl	_Can_Write,lp
                         702 <EXPANSION BEGIN>
                         702 jarl22 _Can_Write , lp 
000003ae 80ff0000*       702 <EXPANSION END>
                         703 --line3104
                         704 ..lin.C.3A.5C_ECU2.5CECU_Rivian_A1.5CTarget.5Crepo_projects.5CpFOTA.5CcL_R2023.2E09.2E01.5Cmake.5Cobj.5CEcuabCanIf.33::
                         705 .LDWlin33:
000003b2 6152            706 	cmp	1,r10
000003b4 ba25*           707 	bne	.L2274
                         708 --line3105
                         709 ..lin.C.3A.5C_ECU2.5CECU_Rivian_A1.5CTarget.5Crepo_projects.5CpFOTA.5CcL_R2023.2E09.2E01.5Cmake.5Cobj.5CEcuabCanIf.34::
                         710 .LDWlin34:
000003b6 61da            711 	cmp	1,r27
000003b8 fa1d*           712 	bne	.L2290
                         713 --line3109
                         714 ..lin.C.3A.5C_ECU2.5CECU_Rivian_A1.5CTarget.5Crepo_projects.5CpFOTA.5CcL_R2023.2E09.2E01.5Cmake.5Cobj.5CEcuabCanIf.35::
                         715 .LDWlin35:
000003ba 05f0            716 	mov	r5,ep
000003bc ddf1            717 	add	r29,ep
000003be be0705980000*   718 	ld.bu	rosdaoff23(_EcuabCanIf_IndexQueuePduTx)[ep],r19
000003c4 04f0            719 	mov	gp,ep
000003c6 f39e0a00        720 	mulhi	10,r19,r19
000003ca d3f1            721 	add	r19,ep
000003cc be0705900000*   722 	ld.bu	sdaoff23(_EcuabCanIf_QueueTx+9)[ep],r18
000003d2 6192            723 	cmp	1,r18
000003d4 9a15*           724 	bne	.L2290
000003d6 04f0            725 	mov	gp,ep
000003d8 d3f1            726 	add	r19,ep
000003da 9e070d000000*   727 	st.b	zero,sdaoff23(_EcuabCanIf_QueueTx+9)[ep]
000003e0 a50705f00000*   728 	ld.bu	rosdaoff23(_CfgEcuabCanIf_QueueBufferTxPrioByIdCan)[r5],ep
000003e6 c4f1            729 	add	gp,ep
000003e8 be0705880000*   730 	ld.bu	sdaoff23(_EcuabCanIf_BufferTxPrioByIdCanBase)[ep],r17
000003ee 5f8a            731 	add	-1,r17
000003f0 9e070d880000*   732 	st.b	r17,sdaoff23(_EcuabCanIf_BufferTxPrioByIdCanBase)[ep]
                         733 .L2290:
                         734 --line3134

                                                                      Page 14
                                                              C:\Users\nhuliyap\AppData\Local\Temp\gh_00002r01.s
                         735 ..lin.C.3A.5C_ECU2.5CECU_Rivian_A1.5CTarget.5Crepo_projects.5CpFOTA.5CcL_R2023.2E09.2E01.5Cmake.5Cobj.5CEcuabCanIf.36::
                         736 .LDWlin36:
000003f6 00e2            737 	mov	0,r28
000003f8 e50d*           738 	br	.L2291
                         739 .L2274:
                         740 --line3133
                         741 ..lin.C.3A.5C_ECU2.5CECU_Rivian_A1.5CTarget.5Crepo_projects.5CpFOTA.5CcL_R2023.2E09.2E01.5Cmake.5Cobj.5CEcuabCanIf.37::
                         742 .LDWlin37:
000003fa 6252            743 	cmp	2,r10
000003fc eae70000        744 	setfne	r28
00000400 a50d*           745 	br	.L2291
                         746 .L2292:
                         747 --line3140
                         748 ..lin.C.3A.5C_ECU2.5CECU_Rivian_A1.5CTarget.5Crepo_projects.5CpFOTA.5CcL_R2023.2E09.2E01.5Cmake.5Cobj.5CEcuabCanIf.38::
                         749 .LDWlin38:
00000402 20363c00        750 	movea	60,zero,r6
00000406 003a            751 	mov	0,r7
00000408 2046fa00        752 	movea	250,zero,r8
0000040c 204e3200        753 	movea	50,zero,r9
                         754 	jarl	_Det_ReportError,lp
                         754 <EXPANSION BEGIN>
                         754 jarl22 _Det_ReportError , lp 
00000410 80ff0000*       754 <EXPANSION END>
                         755 .L2291:
                         756 --line3145
                         757 ..lin.C.3A.5C_ECU2.5CECU_Rivian_A1.5CTarget.5Crepo_projects.5CpFOTA.5CcL_R2023.2E09.2E01.5Cmake.5Cobj.5CEcuabCanIf.39::
                         758 .LDWlin39:
00000414 1c50            759 	mov	r28,r10
                         760 --	    .ef
                         761 .LDW13:
00000416 4606ff10        762 	dispose	3,{r27,r28,r29,r31},[lp]
                         763 	.type	_EcuabCanIf_QueueTxTransmit,@function
                         764 	.size	_EcuabCanIf_QueueTxTransmit,.-_EcuabCanIf_QueueTxTransmit
                         765 	.type	_EcuabCanIf_QueueTxTransmit..C.3A.5C_ECU2.5CECU_Rivian_A1.5CTarget.5Crepo_projects.5CpFOTA.5CcL_R2023.2E09.2E01.5Cmake.5Cobj.5CEcuabCanIf.,@function
                         766 	.size	_EcuabCanIf_QueueTxTransmit..C.3A.5C_ECU2.5CECU_Rivian_A1.5CTarget.5Crepo_projects.5CpFOTA.5CcL_R2023.2E09.2E01.5Cmake.5Cobj.5CEcuabCanIf.,.-_EcuabCanIf_QueueTxTransmit..C.3A.5C_ECU2.5CECU_Rivian_A1.5CTarget.5Crepo_projects.5CpFOTA.5CcL_R2023.2E09.2E01.5Cmake.5Cobj.5CEcuabCanIf.
                         767 	.align	2
                         768 .LDW23:
                         769 --_localPdu	0[sp]	local
                         770 --_txResult	r10	local
                         771 --_retval	r28	local
                         772 --_hth	r6	local
                         773 
                         774 --_PduId	r29	param
                         775 
                         776 	.section ".bss","awb"
                         777 .L2453:
                         778 	.type	.L2453,@object
                         779 	.size	.L2453,0
                         780 	.data
                         781 	.text
                         782 	.align	2
                         783 	.align	2
                         784 ..gh.f.f.1.e.7:
                         785 	.type	..gh.f.f.1.e.7,@object
                         786 	.size	..gh.f.f.1.e.7,0
                         787 	.global	_EcuabCanIf_QueueTxTreatment..C.3A.5C_ECU2.5CECU_Rivian_A1.5CTarget.5Crepo_projects.5CpFOTA.5CcL_R2023.2E09.2E01.5Cmake.5Cobj.5CEcuabCanIf.
                         788 _EcuabCanIf_QueueTxTreatment..C.3A.5C_ECU2.5CECU_Rivian_A1.5CTarget.5Crepo_projects.5CpFOTA.5CcL_R2023.2E09.2E01.5Cmake.5Cobj.5CEcuabCanIf.:
                         789 _EcuabCanIf_QueueTxTreatment:
0000041a 80072100        790 	prepare	{r31},0
0000041e 8600            791 	zxb	r6
                         792 --	    .bf

                                                                      Page 15
                                                              C:\Users\nhuliyap\AppData\Local\Temp\gh_00002r01.s
                         793 .LDW33:
00000420 e6f60600        794 	mulhi	6,r6,ep
00000424 0152            795 	mov	1,r10
00000426 c5f1            796 	add	r5,ep
00000428 be0705980000*   797 	ld.bu	rosdaoff23(_CfgEcuabCanIf_MailBox+4)[ep],r19
0000042e 619a            798 	cmp	1,r19
00000430 ea2d*           799 	bne	.L2575
                         800 --line3211
                         801 ..lin.C.3A.5C_ECU2.5CECU_Rivian_A1.5CTarget.5Crepo_projects.5CpFOTA.5CcL_R2023.2E09.2E01.5Cmake.5Cobj.5CEcuabCanIf.40::
                         802 .LDWlin40:
00000432 a50705f00000*   803 	ld.bu	rosdaoff23(_CfgEcuabCanIf_QueueBufferTxPrioByIdCan)[r5],ep
00000438 c4f1            804 	add	gp,ep
0000043a be0705880000*   805 	ld.bu	sdaoff23(_EcuabCanIf_BufferTxPrioByIdCanBase)[ep],r17
00000440 e089            806 	cmp	zero,r17
00000442 d225*           807 	be	.L2575
                         808 --line3215
                         809 ..lin.C.3A.5C_ECU2.5CECU_Rivian_A1.5CTarget.5Crepo_projects.5CpFOTA.5CcL_R2023.2E09.2E01.5Cmake.5Cobj.5CEcuabCanIf.41::
                         810 .LDWlin41:
00000444 a50705980000*   811 	ld.bu	rosdaoff23(_CfgEcuabCanIf_QueueBufferTxPrioByIdCan+1)[r5],r19
0000044a 1396ffff        812 	addi	-1,r19,r18
0000044e 851d*           813 	br	.L2585
                         814 .L2584:
                         815 --	    .bs
                         816 .LDW43:
                         817 --line3218
                         818 ..lin.C.3A.5C_ECU2.5CECU_Rivian_A1.5CTarget.5Crepo_projects.5CpFOTA.5CcL_R2023.2E09.2E01.5Cmake.5Cobj.5CEcuabCanIf.42::
                         819 .LDWlin42:
00000450 05f0            820 	mov	r5,ep
00000452 d2f1            821 	add	r18,ep
00000454 be0705300000*   822 	ld.bu	rosdaoff23(_CfgEcuabCanIf_QueueBufferPdusMappedTxPrioByIdCan)[ep],r6
0000045a 05f0            823 	mov	r5,ep
0000045c c6f1            824 	add	r6,ep
0000045e be0705800000*   825 	ld.bu	rosdaoff23(_EcuabCanIf_IndexQueuePduTx)[ep],r16
00000464 f0f60a00        826 	mulhi	10,r16,ep
00000468 c4f1            827 	add	gp,ep
0000046a be0705700000*   828 	ld.bu	sdaoff23(_EcuabCanIf_QueueTx+9)[ep],r14
00000470 e071            829 	cmp	zero,r14
00000472 d205*           830 	be	.L2583
                         831 --line3222
                         832 ..lin.C.3A.5C_ECU2.5CECU_Rivian_A1.5CTarget.5Crepo_projects.5CpFOTA.5CcL_R2023.2E09.2E01.5Cmake.5Cobj.5CEcuabCanIf.43::
                         833 .LDWlin43:
                         834 	jarl	_EcuabCanIf_QueueTxTransmit,lp
                         834 <EXPANSION BEGIN>
                         834 jarl22 _EcuabCanIf_QueueTxTransmit , lp 
00000474 bfffe2fe*       834 <EXPANSION END>
                         835 --line3223
                         836 ..lin.C.3A.5C_ECU2.5CECU_Rivian_A1.5CTarget.5Crepo_projects.5CpFOTA.5CcL_R2023.2E09.2E01.5Cmake.5Cobj.5CEcuabCanIf.44::
                         837 .LDWlin44:
00000478 40063f00        838 	dispose	0,{r31},[lp]
                         839 .L2583:
                         840 --	    .es
                         841 .LDW53:
                         842 --line3215
                         843 ..lin.C.3A.5C_ECU2.5CECU_Rivian_A1.5CTarget.5Crepo_projects.5CpFOTA.5CcL_R2023.2E09.2E01.5Cmake.5Cobj.5CEcuabCanIf.45::
                         844 .LDWlin45:
0000047c 5f92            845 	add	-1,r18
                         846 .L2585:
0000047e a50705980000*   847 	ld.bu	rosdaoff23(_CfgEcuabCanIf_QueueBufferTxPrioByIdCan+3)[r5],r19
00000484 f391            848 	cmp	r19,r18
00000486 d9e5*           849 	bnl	.L2584
00000488 40063f00        850 	dispose	0,{r31},[lp]

                                                                      Page 16
                                                              C:\Users\nhuliyap\AppData\Local\Temp\gh_00002r01.s
                         851 .L2575:
                         852 --	    .ef
                         853 .LDW63:
                         854 --line3268
                         855 ..lin.C.3A.5C_ECU2.5CECU_Rivian_A1.5CTarget.5Crepo_projects.5CpFOTA.5CcL_R2023.2E09.2E01.5Cmake.5Cobj.5CEcuabCanIf.46::
                         856 .LDWlin46:
0000048c 40063f00        857 	dispose	0,{r31},[lp]
                         858 	.type	_EcuabCanIf_QueueTxTreatment,@function
                         859 	.size	_EcuabCanIf_QueueTxTreatment,.-_EcuabCanIf_QueueTxTreatment
                         860 	.type	_EcuabCanIf_QueueTxTreatment..C.3A.5C_ECU2.5CECU_Rivian_A1.5CTarget.5Crepo_projects.5CpFOTA.5CcL_R2023.2E09.2E01.5Cmake.5Cobj.5CEcuabCanIf.,@function
                         861 	.size	_EcuabCanIf_QueueTxTreatment..C.3A.5C_ECU2.5CECU_Rivian_A1.5CTarget.5Crepo_projects.5CpFOTA.5CcL_R2023.2E09.2E01.5Cmake.5Cobj.5CEcuabCanIf.,.-_EcuabCanIf_QueueTxTreatment..C.3A.5C_ECU2.5CECU_Rivian_A1.5CTarget.5Crepo_projects.5CpFOTA.5CcL_R2023.2E09.2E01.5Cmake.5Cobj.5CEcuabCanIf.
                         862 	.align	2
                         863 .LDW73:
                         864 --_idx2MappedTxPdus	r18	local
                         865 --_retval	r10	local
                         866 --_TxPduId	r6	local
                         867 
                         868 --_hth	r6	param
                         869 
                         870 	.section ".bss","awb"
                         871 .L2666:
                         872 	.type	.L2666,@object
                         873 	.size	.L2666,0
                         874 	.data
                         875 	.text
                         876 	.align	2
                         877 	.align	2
                         878 ..gh.f.f.1.e.8:
                         879 	.type	..gh.f.f.1.e.8,@object
                         880 	.size	..gh.f.f.1.e.8,0
                         881 	.global	_EcuabCanIf_TxConfirmation
                         882 _EcuabCanIf_TxConfirmation:
00000490 80076100        883 	prepare	{r29,r31},0
00000494 06e8            884 	mov	r6,r29
00000496 9d00            885 	zxb	r29
                         886 --	    .bf
                         887 .LDW83:
00000498 62ea            888 	cmp	2,r29
0000049a 0d4a            889 	mov	13,r9
0000049c b915*           890 	bnl	.L2776
                         891 --line1938
                         892 ..lin.C.3A.5C_ECU2.5CECU_Rivian_A1.5CTarget.5Crepo_projects.5CpFOTA.5CcL_R2023.2E09.2E01.5Cmake.5Cobj.5CEcuabCanIf.47::
                         893 .LDWlin47:
0000049e 1df0            894 	mov	r29,ep
000004a0 c3f2            895 	shl	3,ep
000004a2 300600000000*   896 	mov	rosdaoff23(_EcuabCanIf_PduTx),r16
000004a8 d0f1            897 	add	r16,ep
000004aa 6390            898 	sld.bu	3[ep],r18
000004ac 310600000000*   899 	mov	sdaoff23(_EcuabCanIf_StatesCtrl),r17
000004b2 c192            900 	shl	1,r18
000004b4 d289            901 	add	r18,r17
000004b6 119f0000        902 	ld.b	0[r17],r19
000004ba e099            903 	cmp	zero,r19
000004bc ca0d*           904 	bne	.L2765
                         905 --line1939
                         906 ..lin.C.3A.5C_ECU2.5CECU_Rivian_A1.5CTarget.5Crepo_projects.5CpFOTA.5CcL_R2023.2E09.2E01.5Cmake.5Cobj.5CEcuabCanIf.48::
                         907 .LDWlin48:
000004be 204e1e00        908 	movea	30,zero,r9
                         909 .L2776:
000004c2 20363c00        910 	movea	60,zero,r6
000004c6 003a            911 	mov	0,r7

                                                                      Page 17
                                                              C:\Users\nhuliyap\AppData\Local\Temp\gh_00002r01.s
000004c8 20461300        912 	movea	19,zero,r8
                         913 	jarl	_Det_ReportError,lp
                         913 <EXPANSION BEGIN>
                         913 jarl22 _Det_ReportError , lp 
000004cc 80ff0000*       913 <EXPANSION END>
000004d0 40067f00        914 	dispose	0,{r29,r31},[lp]
                         915 .L2765:
                         916 --line1952
                         917 ..lin.C.3A.5C_ECU2.5CECU_Rivian_A1.5CTarget.5Crepo_projects.5CpFOTA.5CcL_R2023.2E09.2E01.5Cmake.5Cobj.5CEcuabCanIf.49::
                         918 .LDWlin49:
000004d4 629a            919 	cmp	2,r19
000004d6 ea15*           920 	bne	.L2760
                         921 --line1953
                         922 ..lin.C.3A.5C_ECU2.5CECU_Rivian_A1.5CTarget.5Crepo_projects.5CpFOTA.5CcL_R2023.2E09.2E01.5Cmake.5Cobj.5CEcuabCanIf.50::
                         923 .LDWlin50:
000004d8 11970100        924 	ld.b	1[r17],r18
000004dc 6392            925 	cmp	3,r18
000004de b205*           926 	be	.L2771
000004e0 6292            927 	cmp	2,r18
000004e2 8a15*           928 	bne	.L2760
                         929 .L2771:
                         930 --	    .bs
                         931 .LDW93:
                         932 --line1981
                         933 ..lin.C.3A.5C_ECU2.5CECU_Rivian_A1.5CTarget.5Crepo_projects.5CpFOTA.5CcL_R2023.2E09.2E01.5Cmake.5Cobj.5CEcuabCanIf.51::
                         934 .LDWlin51:
000004e4 6530            935 	sld.bu	5[ep],r6
000004e6 e6f60600        936 	mulhi	6,r6,ep
000004ea c5f1            937 	add	r5,ep
000004ec be0705880000*   938 	ld.bu	rosdaoff23(_CfgEcuabCanIf_MailBox+3)[ep],r17
000004f2 110601ff        939 	addi	-255,r17,zero
000004f6 b205*           940 	be	.L2773
                         941 --line1987
                         942 ..lin.C.3A.5C_ECU2.5CECU_Rivian_A1.5CTarget.5Crepo_projects.5CpFOTA.5CcL_R2023.2E09.2E01.5Cmake.5Cobj.5CEcuabCanIf.52::
                         943 .LDWlin52:
                         944 	jarl	_EcuabCanIf_QueueTxTreatment,lp
                         944 <EXPANSION BEGIN>
                         944 jarl22 _EcuabCanIf_QueueTxTreatment , lp 
000004f8 bfff22ff*       944 <EXPANSION END>
                         945 .L2773:
                         946 --	    .es
                         947 .LDW04:
                         948 --line1994
                         949 ..lin.C.3A.5C_ECU2.5CECU_Rivian_A1.5CTarget.5Crepo_projects.5CpFOTA.5CcL_R2023.2E09.2E01.5Cmake.5Cobj.5CEcuabCanIf.53::
                         950 .LDWlin53:
000004fc 1d30            951 	mov	r29,r6
                         952 	jarl	_CanIf_HlTxConfirmation,lp
                         952 <EXPANSION BEGIN>
                         952 jarl22 _CanIf_HlTxConfirmation , lp 
000004fe bfff70fc*       952 <EXPANSION END>
                         953 .L2760:
                         954 --	    .ef
                         955 .LDW14:
                         956 --line2006
                         957 ..lin.C.3A.5C_ECU2.5CECU_Rivian_A1.5CTarget.5Crepo_projects.5CpFOTA.5CcL_R2023.2E09.2E01.5Cmake.5Cobj.5CEcuabCanIf.54::
                         958 .LDWlin54:
00000502 40067f00        959 	dispose	0,{r29,r31},[lp]
                         960 	.type	_EcuabCanIf_TxConfirmation,@function
                         961 	.size	_EcuabCanIf_TxConfirmation,.-_EcuabCanIf_TxConfirmation
                         962 	.align	2
                         963 .LDW24:

                                                                      Page 18
                                                              C:\Users\nhuliyap\AppData\Local\Temp\gh_00002r01.s
                         964 --_errorId	r9	local
                         965 --_hth	r6	local
                         966 
                         967 --_CanTxPduId	r29	param
                         968 
                         969 	.section ".bss","awb"
                         970 .L2894:
                         971 	.type	.L2894,@object
                         972 	.size	.L2894,0
                         973 	.data
                         974 	.text
                         975 	.align	2
                         976 	.align	2
                         977 ..gh.f.f.1.e.9:
                         978 	.type	..gh.f.f.1.e.9,@object
                         979 	.size	..gh.f.f.1.e.9,0
                         980 	.global	_CanIf_HlIndication..C.3A.5C_ECU2.5CECU_Rivian_A1.5CTarget.5Crepo_projects.5CpFOTA.5CcL_R2023.2E09.2E01.5Cmake.5Cobj.5CEcuabCanIf.
                         981 _CanIf_HlIndication..C.3A.5C_ECU2.5CECU_Rivian_A1.5CTarget.5Crepo_projects.5CpFOTA.5CcL_R2023.2E09.2E01.5Cmake.5Cobj.5CEcuabCanIf.:
                         982 _CanIf_HlIndication:
00000506 84076100        983 	prepare	{r29,r31},2
                         984 --	    .bf
                         985 .LDW34:
0000050a 840705880000*   986 	ld.b	sdaoff23(_EcuabCanIf_StatesCtrl)[gp],r17
00000510 e089            987 	cmp	zero,r17
00000512 ca0d*           988 	bne	.L3006
                         989 --line2673
                         990 ..lin.C.3A.5C_ECU2.5CECU_Rivian_A1.5CTarget.5Crepo_projects.5CpFOTA.5CcL_R2023.2E09.2E01.5Cmake.5Cobj.5CEcuabCanIf.55::
                         991 .LDWlin55:
00000514 204e1e00        992 	movea	30,zero,r9
                         993 .L3026:
00000518 20363c00        994 	movea	60,zero,r6
0000051c 003a            995 	mov	0,r7
0000051e 20461400        996 	movea	20,zero,r8
                         997 	jarl	_Det_ReportError,lp
                         997 <EXPANSION BEGIN>
                         997 jarl22 _Det_ReportError , lp 
00000522 80ff0000*       997 <EXPANSION END>
00000526 44067f00        998 	dispose	2,{r29,r31},[lp]
                         999 .L3006:
0000052a 8700           1000 	zxb	r7
0000052c 8900           1001 	zxb	r9
                        1002 --line2678
                        1003 ..lin.C.3A.5C_ECU2.5CECU_Rivian_A1.5CTarget.5Crepo_projects.5CpFOTA.5CcL_R2023.2E09.2E01.5Cmake.5Cobj.5CEcuabCanIf.56::
                        1004 .LDWlin56:
0000052e 628a           1005 	cmp	2,r17
00000530 ba2d*          1006 	bne	.L3004
                        1007 --line2691
                        1008 ..lin.C.3A.5C_ECU2.5CECU_Rivian_A1.5CTarget.5Crepo_projects.5CpFOTA.5CcL_R2023.2E09.2E01.5Cmake.5Cobj.5CEcuabCanIf.57::
                        1009 .LDWlin57:
00000532 840705880000*  1010 	ld.b	sdaoff23(_EcuabCanIf_StatesCtrl+1)[gp],r17
00000538 638a           1011 	cmp	3,r17
0000053a d205*          1012 	be	.L3012
0000053c 618a           1013 	cmp	1,r17
0000053e b205*          1014 	be	.L3012
00000540 658a           1015 	cmp	5,r17
00000542 aa25*          1016 	bne	.L3004
                        1017 .L3012:
                        1018 --line2784
                        1019 ..lin.C.3A.5C_ECU2.5CECU_Rivian_A1.5CTarget.5Crepo_projects.5CpFOTA.5CcL_R2023.2E09.2E01.5Cmake.5Cobj.5CEcuabCanIf.58::
                        1020 .LDWlin58:
00000544 07f0           1021 	mov	r7,ep

                                                                      Page 19
                                                              C:\Users\nhuliyap\AppData\Local\Temp\gh_00002r01.s
00000546 c3f2           1022 	shl	3,ep
00000548 270600000000*  1023 	mov	rosdaoff23(_CfgEcuabCanIf_PduRx),r7
0000054e c7f1           1024 	add	r7,ep
00000550 6690           1025 	sld.bu	6[ep],r18
00000552 6292           1026 	cmp	2,r18
00000554 c105*          1027 	bl	.L3020
                        1028 --line2786
                        1029 ..lin.C.3A.5C_ECU2.5CECU_Rivian_A1.5CTarget.5Crepo_projects.5CpFOTA.5CcL_R2023.2E09.2E01.5Cmake.5Cobj.5CEcuabCanIf.59::
                        1030 .LDWlin59:
00000556 204e2d00       1031 	movea	45,zero,r9
0000055a f5dd*          1032 	br	.L3026
                        1033 .L3020:
                        1034 --line2798
                        1035 ..lin.C.3A.5C_ECU2.5CECU_Rivian_A1.5CTarget.5Crepo_projects.5CpFOTA.5CcL_R2023.2E09.2E01.5Cmake.5Cobj.5CEcuabCanIf.60::
                        1036 .LDWlin60:
0000055c c392           1037 	shl	3,r18
0000055e 260600000000*  1038 	mov	rosdaoff23(_CfgEcuabCanIf_ListFctIndicationRx),r6
00000564 c691           1039 	add	r6,r18
00000566 129f0400       1040 	ld.b	4[r18],r19
0000056a 619a           1041 	cmp	1,r19
0000056c da0d*          1042 	bne	.L3004
0000056e 32ef0100       1043 	ld.w	0[r18],r29
00000572 63470100       1044 	st.w	r8,0[sp]
00000576 634f0400       1045 	st.h	r9,4[sp]
0000057a e0e9           1046 	cmp	zero,r29
0000057c d205*          1047 	be	.L3004
0000057e 6430           1048 	sld.bu	4[ep],r6
00000580 0338           1049 	mov	sp,r7
00000582 fdc760f9       1050 	jarl	[r29],lp
                        1051 .L3004:
                        1052 --	    .ef
                        1053 .LDW44:
                        1054 --line2818
                        1055 ..lin.C.3A.5C_ECU2.5CECU_Rivian_A1.5CTarget.5Crepo_projects.5CpFOTA.5CcL_R2023.2E09.2E01.5Cmake.5Cobj.5CEcuabCanIf.61::
                        1056 .LDWlin61:
00000586 44067f00       1057 	dispose	2,{r29,r31},[lp]
                        1058 	.type	_CanIf_HlIndication,@function
                        1059 	.size	_CanIf_HlIndication,.-_CanIf_HlIndication
                        1060 	.type	_CanIf_HlIndication..C.3A.5C_ECU2.5CECU_Rivian_A1.5CTarget.5Crepo_projects.5CpFOTA.5CcL_R2023.2E09.2E01.5Cmake.5Cobj.5CEcuabCanIf.,@function
                        1061 	.size	_CanIf_HlIndication..C.3A.5C_ECU2.5CECU_Rivian_A1.5CTarget.5Crepo_projects.5CpFOTA.5CcL_R2023.2E09.2E01.5Cmake.5Cobj.5CEcuabCanIf.,.-_CanIf_HlIndication..C.3A.5C_ECU2.5CECU_Rivian_A1.5CTarget.5Crepo_projects.5CpFOTA.5CcL_R2023.2E09.2E01.5Cmake.5Cobj.5CEcuabCanIf.
                        1062 	.align	2
                        1063 .LDW54:
                        1064 --_errorId	r9	local
                        1065 --_rxIndicationFct	r29	local
                        1066 --_pduinfo	0[sp]	local
                        1067 
                        1068 --_Hrh	none	param
                        1069 --_PduId	r7	param
                        1070 --_CanSduPtr	r8	param
                        1071 --_CanDlc	r9	param
                        1072 
                        1073 	.section ".bss","awb"
                        1074 .L3160:
                        1075 	.type	.L3160,@object
                        1076 	.size	.L3160,0
                        1077 	.data
                        1078 	.text
                        1079 	.align	2
                        1080 	.align	2
                        1081 ..gh.f.f.1.e.10:
                        1082 	.type	..gh.f.f.1.e.10,@object

                                                                      Page 20
                                                              C:\Users\nhuliyap\AppData\Local\Temp\gh_00002r01.s
                        1083 	.size	..gh.f.f.1.e.10,0
                        1084 	.global	_EcuabCanIf_RxIndicationAsr403
                        1085 _EcuabCanIf_RxIndicationAsr403:
                        1086 --	    .bf
                        1087 .LDW64:
0000058a e049           1088 	cmp	zero,r9
0000058c aa0d*          1089 	bne	.L3285
                        1090 --line2451
                        1091 ..lin.C.3A.5C_ECU2.5CECU_Rivian_A1.5CTarget.5Crepo_projects.5CpFOTA.5CcL_R2023.2E09.2E01.5Cmake.5Cobj.5CEcuabCanIf.62::
                        1092 .LDWlin62:
0000058e 204e1400       1093 	movea	20,zero,r9
                        1094 .L3350:
00000592 20363c00       1095 	movea	60,zero,r6
00000596 003a           1096 	mov	0,r7
00000598 20461400       1097 	movea	20,zero,r8
0000059c 80070000*      1098 	jr	_Det_ReportError
                        1099 .L3285:
000005a0 0860           1100 	mov	r8,r12
000005a2 8c00           1101 	zxb	r12
000005a4 0678           1102 	mov	r6,r15
                        1103 --line2454
                        1104 ..lin.C.3A.5C_ECU2.5CECU_Rivian_A1.5CTarget.5Crepo_projects.5CpFOTA.5CcL_R2023.2E09.2E01.5Cmake.5Cobj.5CEcuabCanIf.63::
                        1105 .LDWlin63:
000005a6 6862           1106 	cmp	8,r12
000005a8 8f00           1107 	zxb	r15
000005aa c700           1108 	zxh	r7
000005ac eb4f164b       1109 	cmovh	11,r9,r9
000005b0 9bf5*          1110 	bh	.L3350
                        1111 --line2459
                        1112 ..lin.C.3A.5C_ECU2.5CECU_Rivian_A1.5CTarget.5Crepo_projects.5CpFOTA.5CcL_R2023.2E09.2E01.5Cmake.5Cobj.5CEcuabCanIf.64::
                        1113 .LDWlin64:
000005b2 2036ffbf       1114 	movea	-16385,zero,r6
000005b6 4731           1115 	and	r7,r6
000005b8 060600f8       1116 	addi	-2048,r6,zero
000005bc ea4f024b       1117 	cmovl	10,r9,r9
000005c0 91ed*          1118 	bl	.L3350
                        1119 --line2464
                        1120 ..lin.C.3A.5C_ECU2.5CECU_Rivian_A1.5CTarget.5Crepo_projects.5CpFOTA.5CcL_R2023.2E09.2E01.5Cmake.5Cobj.5CEcuabCanIf.65::
                        1121 .LDWlin65:
000005c2 627a           1122 	cmp	2,r15
000005c4 ec4f124b       1123 	cmovnl	12,r9,r9
000005c8 d9e5*          1124 	bnl	.L3350
                        1125 --line2511
                        1126 ..lin.C.3A.5C_ECU2.5CECU_Rivian_A1.5CTarget.5Crepo_projects.5CpFOTA.5CcL_R2023.2E09.2E01.5Cmake.5Cobj.5CEcuabCanIf.66::
                        1127 .LDWlin66:
000005ca eff60600       1128 	mulhi	6,r15,ep
000005ce 260600000000*  1129 	mov	rosdaoff23(_CfgEcuabCanIf_MailBox),r6
000005d4 c73effbf       1130 	andi	49151,r7,r7
000005d8 c6f1           1131 	add	r6,ep
000005da 6290           1132 	sld.bu	2[ep],r18
000005dc 120601ff       1133 	addi	-255,r18,zero
000005e0 d26d*          1134 	be	.L3283
                        1135 --line2517
                        1136 ..lin.C.3A.5C_ECU2.5CECU_Rivian_A1.5CTarget.5Crepo_projects.5CpFOTA.5CcL_R2023.2E09.2E01.5Cmake.5Cobj.5CEcuabCanIf.67::
                        1137 .LDWlin67:
000005e2 0583           1138 	sld.b	5[ep],r16
000005e4 209eff00       1139 	movea	255,zero,r19
000005e8 6182           1140 	cmp	1,r16
000005ea f29f249b       1141 	cmove	r18,r19,r19
000005ee 8265*          1142 	be	.L3348
                        1143 --line2521

                                                                      Page 21
                                                              C:\Users\nhuliyap\AppData\Local\Temp\gh_00002r01.s
                        1144 ..lin.C.3A.5C_ECU2.5CECU_Rivian_A1.5CTarget.5Crepo_projects.5CpFOTA.5CcL_R2023.2E09.2E01.5Cmake.5Cobj.5CEcuabCanIf.68::
                        1145 .LDWlin68:
000005f0 e081           1146 	cmp	zero,r16
000005f2 ca35*          1147 	bne	.L3308
                        1148 --line2524
                        1149 ..lin.C.3A.5C_ECU2.5CECU_Rivian_A1.5CTarget.5Crepo_projects.5CpFOTA.5CcL_R2023.2E09.2E01.5Cmake.5Cobj.5CEcuabCanIf.69::
                        1150 .LDWlin69:
000005f4 12f0           1151 	mov	r18,ep
000005f6 c3f2           1152 	shl	3,ep
000005f8 310600000000*  1153 	mov	rosdaoff23(_CfgEcuabCanIf_PduRx),r17
000005fe d1f1           1154 	add	r17,ep
00000600 deef0300       1155 	tst1	5,3[ep]
00000604 b20d*          1156 	be	.L3319
00000606 853d*          1157 	br	.L3334
                        1158 .L3314:
00000608 7068           1159 	sld.hu	0[ep],r13
0000060a e769           1160 	cmp	r7,r13
0000060c f29f249b       1161 	cmove	r18,r19,r19
00000610 c24d*          1162 	be	.L3307
00000612 8f8a           1163 	shr	15,r17
00000614 a14d*          1164 	bl	.L3307
00000616 5f92           1165 	add	-1,r18
00000618 9200           1166 	zxb	r18
                        1167 .L3319:
0000061a 12f0           1168 	mov	r18,ep
0000061c c3f2           1169 	shl	3,ep
0000061e 2a0600000000*  1170 	mov	rosdaoff23(_CfgEcuabCanIf_PduRx),r10
00000624 caf1           1171 	add	r10,ep
00000626 7188           1172 	sld.hu	2[ep],r17
00000628 d1060020       1173 	andi	8192,r17,zero
0000062c e2ed*          1174 	be	.L3314
0000062e c525*          1175 	br	.L3334
                        1176 .L3323:
00000630 7080           1177 	sld.hu	0[ep],r16
00000632 d0060020       1178 	andi	8192,r16,zero
00000636 d215*          1179 	be	.L3328
00000638 1170           1180 	mov	r17,r14
0000063a 4771           1181 	and	r7,r14
0000063c 8e760020       1182 	ori	8192,r14,r14
00000640 ee81           1183 	cmp	r14,r16
00000642 8a1d*          1184 	bne	.L3333
00000644 1298           1185 	mov	r18,r19
00000646 c525*          1186 	br	.L3335
                        1187 .L3340:
00000648 f039           1188 	cmp	r16,r7
0000064a f12d*          1189 	bl	.L3307
0000064c 2036ff9f       1190 	movea	-24577,zero,r6
00000650 4689           1191 	and	r6,r17
00000652 f139           1192 	cmp	r17,r7
00000654 f29f269b       1193 	cmovnh	r18,r19,r19
00000658 852d*          1194 	br	.L3307
                        1195 .L3308:
                        1196 --line2529
                        1197 ..lin.C.3A.5C_ECU2.5CECU_Rivian_A1.5CTarget.5Crepo_projects.5CpFOTA.5CcL_R2023.2E09.2E01.5Cmake.5Cobj.5CEcuabCanIf.70::
                        1198 .LDWlin70:
0000065a 204e2d00       1199 	movea	45,zero,r9
0000065e a59d*          1200 	br	.L3350
                        1201 .L3328:
00000660 f039           1202 	cmp	r16,r7
00000662 810d*          1203 	bl	.L3333
00000664 206eff9f       1204 	movea	-24577,zero,r13

                                                                      Page 22
                                                              C:\Users\nhuliyap\AppData\Local\Temp\gh_00002r01.s
00000668 5169           1205 	and	r17,r13
0000066a ed39           1206 	cmp	r13,r7
0000066c f29f269b       1207 	cmovnh	r18,r19,r19
00000670 f30d*          1208 	bnh	.L3335
                        1209 .L3333:
00000672 5f92           1210 	add	-1,r18
00000674 9200           1211 	zxb	r18
                        1212 .L3334:
00000676 12f0           1213 	mov	r18,ep
00000678 c3f2           1214 	shl	3,ep
0000067a 2a0600000000*  1215 	mov	rosdaoff23(_CfgEcuabCanIf_PduRx),r10
00000680 caf1           1216 	add	r10,ep
00000682 7188           1217 	sld.hu	2[ep],r17
00000684 d1460060       1218 	andi	24576,r17,r8
00000688 080600e0       1219 	addi	-8192,r8,zero
0000068c a2d5*          1220 	be	.L3323
                        1221 .L3335:
0000068e 080600a0       1222 	addi	-24576,r8,zero
00000692 ba0d*          1223 	bne	.L3307
00000694 7080           1224 	sld.hu	0[ep],r16
00000696 d0060020       1225 	andi	8192,r16,zero
0000069a f2d5*          1226 	be	.L3340
0000069c 4789           1227 	and	r7,r17
0000069e 913e0020       1228 	ori	8192,r17,r7
000006a2 e781           1229 	cmp	r7,r16
000006a4 f29f249b       1230 	cmove	r18,r19,r19
                        1231 .L3307:
                        1232 --line2533
                        1233 ..lin.C.3A.5C_ECU2.5CECU_Rivian_A1.5CTarget.5Crepo_projects.5CpFOTA.5CcL_R2023.2E09.2E01.5Cmake.5Cobj.5CEcuabCanIf.71::
                        1234 .LDWlin71:
000006a8 130601ff       1235 	addi	-255,r19,zero
000006ac f205*          1236 	be	.L3283
                        1237 .L3348:
                        1238 --line2565
                        1239 ..lin.C.3A.5C_ECU2.5CECU_Rivian_A1.5CTarget.5Crepo_projects.5CpFOTA.5CcL_R2023.2E09.2E01.5Cmake.5Cobj.5CEcuabCanIf.72::
                        1240 .LDWlin72:
000006ae 0940           1241 	mov	r9,r8
000006b0 0f30           1242 	mov	r15,r6
000006b2 1338           1243 	mov	r19,r7
000006b4 0c48           1244 	mov	r12,r9
000006b6 bf0750fe*      1245 	jr	_CanIf_HlIndication
                        1246 .L3283:
                        1247 --	    .ef
                        1248 .LDW74:
                        1249 --line2580
                        1250 ..lin.C.3A.5C_ECU2.5CECU_Rivian_A1.5CTarget.5Crepo_projects.5CpFOTA.5CcL_R2023.2E09.2E01.5Cmake.5Cobj.5CEcuabCanIf.73::
                        1251 .LDWlin73:
000006ba 7f00           1252 	jmp	[lp]
                        1253 	.type	_EcuabCanIf_RxIndicationAsr403,@function
                        1254 	.size	_EcuabCanIf_RxIndicationAsr403,.-_EcuabCanIf_RxIndicationAsr403
                        1255 	.align	2
                        1256 .LDW84:
                        1257 --_errorId	r9	local
                        1258 
                        1259 --_Hrh	r15	param
                        1260 --_CanId	r7	param
                        1261 --_CanDlc	r12	param
                        1262 --_CanSduPtr	r9	param
                        1263 
                        1264 	.section ".bss","awb"
                        1265 .L3847:

                                                                      Page 23
                                                              C:\Users\nhuliyap\AppData\Local\Temp\gh_00002r01.s
                        1266 	.type	.L3847,@object
                        1267 	.size	.L3847,0
                        1268 	.data
                        1269 	.text
                        1270 	.align	2
                        1271 	.align	2
                        1272 ..gh.f.f.1.e.11:
                        1273 	.type	..gh.f.f.1.e.11,@object
                        1274 	.size	..gh.f.f.1.e.11,0
                        1275 	.global	_CanIf_SetPduMode
                        1276 _CanIf_SetPduMode:
000006bc 8007e100       1277 	prepare	{r28,r29,r31},0
000006c0 07e8           1278 	mov	r7,r29
000006c2 bd00           1279 	sxb	r29
                        1280 --	    .bf
                        1281 .LDW94:
000006c4 01e2           1282 	mov	1,r28
000006c6 d832           1283 	shl	24,r6
000006c8 0f4a           1284 	mov	15,r9
000006ca fa05*          1285 	bne	.L4206
                        1286 --line2894
                        1287 ..lin.C.3A.5C_ECU2.5CECU_Rivian_A1.5CTarget.5Crepo_projects.5CpFOTA.5CcL_R2023.2E09.2E01.5Cmake.5Cobj.5CEcuabCanIf.74::
                        1288 .LDWlin74:
000006cc 840705300000*  1289 	ld.b	sdaoff23(_EcuabCanIf_StatesCtrl)[gp],r6
000006d2 e031           1290 	cmp	zero,r6
000006d4 9a0d*          1291 	bne	.L4186
                        1292 --line2895
                        1293 ..lin.C.3A.5C_ECU2.5CECU_Rivian_A1.5CTarget.5Crepo_projects.5CpFOTA.5CcL_R2023.2E09.2E01.5Cmake.5Cobj.5CEcuabCanIf.75::
                        1294 .LDWlin75:
000006d6 4f4a           1295 	add	15,r9
                        1296 .L4206:
000006d8 20363c00       1297 	movea	60,zero,r6
000006dc 003a           1298 	mov	0,r7
000006de 0942           1299 	mov	9,r8
                        1300 	jarl	_Det_ReportError,lp
                        1300 <EXPANSION BEGIN>
                        1300 jarl22 _Det_ReportError , lp 
000006e0 80ff0000*      1300 <EXPANSION END>
000006e4 d52d*          1301 	br	.L4205
                        1302 .L4186:
                        1303 --line2898
                        1304 ..lin.C.3A.5C_ECU2.5CECU_Rivian_A1.5CTarget.5Crepo_projects.5CpFOTA.5CcL_R2023.2E09.2E01.5Cmake.5Cobj.5CEcuabCanIf.76::
                        1305 .LDWlin76:
000006e6 67ea           1306 	cmp	7,r29
000006e8 b605*          1307 	blt	.L4189
                        1308 --line2899
                        1309 ..lin.C.3A.5C_ECU2.5CECU_Rivian_A1.5CTarget.5Crepo_projects.5CpFOTA.5CcL_R2023.2E09.2E01.5Cmake.5Cobj.5CEcuabCanIf.77::
                        1310 .LDWlin77:
000006ea 474a           1311 	add	7,r9
000006ec e5f5*          1312 	br	.L4206
                        1313 .L4189:
                        1314 --line2904
                        1315 ..lin.C.3A.5C_ECU2.5CECU_Rivian_A1.5CTarget.5Crepo_projects.5CpFOTA.5CcL_R2023.2E09.2E01.5Cmake.5Cobj.5CEcuabCanIf.78::
                        1316 .LDWlin78:
000006ee 6232           1317 	cmp	2,r6
000006f0 fa25*          1318 	bne	.L4205
                        1319 --line2908
                        1320 ..lin.C.3A.5C_ECU2.5CECU_Rivian_A1.5CTarget.5Crepo_projects.5CpFOTA.5CcL_R2023.2E09.2E01.5Cmake.5Cobj.5CEcuabCanIf.79::
                        1321 .LDWlin79:
000006f2 840705380000*  1322 	ld.b	sdaoff23(_EcuabCanIf_StatesCtrl+1)[gp],r7
000006f8 00e2           1323 	mov	0,r28

                                                                      Page 24
                                                              C:\Users\nhuliyap\AppData\Local\Temp\gh_00002r01.s
000006fa e7f60700       1324 	mulhi	7,r7,ep
000006fe ddf1           1325 	add	r29,ep
00000700 c5f1           1326 	add	r5,ep
00000702 be0705300000*  1327 	ld.bu	rosdaoff23(_CanIfState)[ep],r6
00000708 060601ff       1328 	addi	-255,r6,zero
0000070c 921d*          1329 	be	.L4205
                        1330 --line2910
                        1331 ..lin.C.3A.5C_ECU2.5CECU_Rivian_A1.5CTarget.5Crepo_projects.5CpFOTA.5CcL_R2023.2E09.2E01.5Cmake.5Cobj.5CEcuabCanIf.80::
                        1332 .LDWlin80:
0000070e e0e9           1333 	cmp	zero,r29
00000710 d205*          1334 	be	.L4198
00000712 63ea           1335 	cmp	3,r29
00000714 b205*          1336 	be	.L4198
00000716 66ea           1337 	cmp	6,r29
00000718 ea05*          1338 	bne	.L4196
                        1339 .L4198:
                        1340 --line2915
                        1341 ..lin.C.3A.5C_ECU2.5CECU_Rivian_A1.5CTarget.5Crepo_projects.5CpFOTA.5CcL_R2023.2E09.2E01.5Cmake.5Cobj.5CEcuabCanIf.81::
                        1342 .LDWlin81:
0000071a 5e3a           1343 	add	-2,r7
0000071c 613a           1344 	cmp	1,r7
0000071e bb05*          1345 	bh	.L4196
                        1346 --line2926
                        1347 ..lin.C.3A.5C_ECU2.5CECU_Rivian_A1.5CTarget.5Crepo_projects.5CpFOTA.5CcL_R2023.2E09.2E01.5Cmake.5Cobj.5CEcuabCanIf.82::
                        1348 .LDWlin82:
                        1349 	jarl	_CanIf_ClearQueue,lp
                        1349 <EXPANSION BEGIN>
                        1349 jarl22 _CanIf_ClearQueue , lp 
00000720 bfffe0f8*      1349 <EXPANSION END>
                        1350 .L4196:
                        1351 --line2957
                        1352 ..lin.C.3A.5C_ECU2.5CECU_Rivian_A1.5CTarget.5Crepo_projects.5CpFOTA.5CcL_R2023.2E09.2E01.5Cmake.5Cobj.5CEcuabCanIf.83::
                        1353 .LDWlin83:
00000724 840705880000*  1354 	ld.b	sdaoff23(_EcuabCanIf_StatesCtrl+1)[gp],r17
0000072a f1f60700       1355 	mulhi	7,r17,ep
0000072e ddf1           1356 	add	r29,ep
00000730 c5f1           1357 	add	r5,ep
00000732 be0705780000*  1358 	ld.bu	rosdaoff23(_CanIfState)[ep],r15
00000738 84070d780000*  1359 	st.b	r15,sdaoff23(_EcuabCanIf_StatesCtrl+1)[gp]
                        1360 .L4205:
0000073e 1c50           1361 	mov	r28,r10
                        1362 --	    .ef
                        1363 .LDW05:
00000740 4006ff00       1364 	dispose	0,{r28,r29,r31},[lp]
                        1365 	.type	_CanIf_SetPduMode,@function
                        1366 	.size	_CanIf_SetPduMode,.-_CanIf_SetPduMode
                        1367 	.align	2
                        1368 .LDW15:
                        1369 --_retval	r28	local
                        1370 --_errorId	r9	local
                        1371 
                        1372 --_ControllerId	r6	param
                        1373 --_PduModeRequest	r29	param
                        1374 
                        1375 	.section ".bss","awb"
                        1376 .L4375:
                        1377 	.type	.L4375,@object
                        1378 	.size	.L4375,0
                        1379 	.data
                        1380 	.text
                        1381 	.align	2

                                                                      Page 25
                                                              C:\Users\nhuliyap\AppData\Local\Temp\gh_00002r01.s
                        1382 	.align	2
                        1383 ..gh.f.f.1.e.12:
                        1384 	.type	..gh.f.f.1.e.12,@object
                        1385 	.size	..gh.f.f.1.e.12,0
                        1386 	.global	_CanIf_ControllerBusOff
                        1387 _CanIf_ControllerBusOff:
00000744 80076100       1388 	prepare	{r29,r31},0
                        1389 --	    .bf
                        1390 .LDW25:
00000748 850709e80000*  1391 	ld.w	rosdaoff23(_CfgEcuabCanIf_fptrNotificationBusOff)[r5],r29
0000074e c636ff00       1392 	andi	255,r6,r6
00000752 0e4a           1393 	mov	14,r9
00000754 8a1d*          1394 	bne	.L4550
                        1395 --line2839
                        1396 ..lin.C.3A.5C_ECU2.5CECU_Rivian_A1.5CTarget.5Crepo_projects.5CpFOTA.5CcL_R2023.2E09.2E01.5Cmake.5Cobj.5CEcuabCanIf.84::
                        1397 .LDWlin84:
00000756 840705980000*  1398 	ld.b	sdaoff23(_EcuabCanIf_StatesCtrl)[gp],r19
0000075c e099           1399 	cmp	zero,r19
0000075e 9215*          1400 	be	.L4544
                        1401 --line2840
                        1402 ..lin.C.3A.5C_ECU2.5CECU_Rivian_A1.5CTarget.5Crepo_projects.5CpFOTA.5CcL_R2023.2E09.2E01.5Cmake.5Cobj.5CEcuabCanIf.85::
                        1403 .LDWlin85:
00000760 033a           1404 	mov	3,r7
                        1405 	jarl	_CanIf_SetPduMode,lp
                        1405 <EXPANSION BEGIN>
                        1405 jarl22 _CanIf_SetPduMode , lp 
00000762 bfff5aff*      1405 <EXPANSION END>
                        1406 --line2842
                        1407 ..lin.C.3A.5C_ECU2.5CECU_Rivian_A1.5CTarget.5Crepo_projects.5CpFOTA.5CcL_R2023.2E09.2E01.5Cmake.5Cobj.5CEcuabCanIf.86::
                        1408 .LDWlin86:
00000766 0192           1409 	mov	1,r18
00000768 84070d900000*  1410 	st.b	r18,sdaoff23(_EcuabCanIf_StatesCtrl)[gp]
                        1411 	jarl	_CanIf_ClearQueue,lp
                        1411 <EXPANSION BEGIN>
                        1411 jarl22 _CanIf_ClearQueue , lp 
0000076e bfff92f8*      1411 <EXPANSION END>
                        1412 --line2854
                        1413 ..lin.C.3A.5C_ECU2.5CECU_Rivian_A1.5CTarget.5Crepo_projects.5CpFOTA.5CcL_R2023.2E09.2E01.5Cmake.5Cobj.5CEcuabCanIf.87::
                        1414 .LDWlin87:
00000772 e0e9           1415 	cmp	zero,r29
00000774 f20d*          1416 	be	.L4539
                        1417 --line2856
                        1418 ..lin.C.3A.5C_ECU2.5CECU_Rivian_A1.5CTarget.5Crepo_projects.5CpFOTA.5CcL_R2023.2E09.2E01.5Cmake.5Cobj.5CEcuabCanIf.88::
                        1419 .LDWlin88:
00000776 0032           1420 	mov	0,r6
00000778 fdc760f9       1421 	jarl	[r29],lp
0000077c 40067f00       1422 	dispose	0,{r29,r31},[lp]
                        1423 .L4544:
                        1424 --line2860
                        1425 ..lin.C.3A.5C_ECU2.5CECU_Rivian_A1.5CTarget.5Crepo_projects.5CpFOTA.5CcL_R2023.2E09.2E01.5Cmake.5Cobj.5CEcuabCanIf.89::
                        1426 .LDWlin89:
00000780 204e1e00       1427 	movea	30,zero,r9
                        1428 .L4550:
00000784 20363c00       1429 	movea	60,zero,r6
00000788 003a           1430 	mov	0,r7
0000078a 20461600       1431 	movea	22,zero,r8
                        1432 	jarl	_Det_ReportError,lp
                        1432 <EXPANSION BEGIN>
                        1432 jarl22 _Det_ReportError , lp 
0000078e 80ff0000*      1432 <EXPANSION END>
                        1433 .L4539:

                                                                      Page 26
                                                              C:\Users\nhuliyap\AppData\Local\Temp\gh_00002r01.s
                        1434 --	    .ef
                        1435 .LDW35:
                        1436 --line2875
                        1437 ..lin.C.3A.5C_ECU2.5CECU_Rivian_A1.5CTarget.5Crepo_projects.5CpFOTA.5CcL_R2023.2E09.2E01.5Cmake.5Cobj.5CEcuabCanIf.90::
                        1438 .LDWlin90:
00000792 40067f00       1439 	dispose	0,{r29,r31},[lp]
                        1440 	.type	_CanIf_ControllerBusOff,@function
                        1441 	.size	_CanIf_ControllerBusOff,.-_CanIf_ControllerBusOff
                        1442 	.align	2
                        1443 .LDW45:
                        1444 --_errorId	r9	local
                        1445 --_busoffnotificationFct	r29	local
                        1446 
                        1447 --_ControllerId	r6	param
                        1448 
                        1449 	.section ".bss","awb"
                        1450 .L4637:
                        1451 	.type	.L4637,@object
                        1452 	.size	.L4637,0
                        1453 	.data
                        1454 	.text
                        1455 	.align	2
                        1456 	.align	2
                        1457 ..gh.f.f.1.e.13:
                        1458 	.type	..gh.f.f.1.e.13,@object
                        1459 	.size	..gh.f.f.1.e.13,0
                        1460 	.global	_CanIf_GetPduMode
                        1461 _CanIf_GetPduMode:
00000796 80076100       1462 	prepare	{r29,r31},0
0000079a 07f0           1463 	mov	r7,ep
                        1464 --	    .bf
                        1465 .LDW55:
0000079c 01ea           1466 	mov	1,r29
0000079e c636ff00       1467 	andi	255,r6,r6
000007a2 0f4a           1468 	mov	15,r9
000007a4 fa05*          1469 	bne	.L4723
                        1470 --line2994
                        1471 ..lin.C.3A.5C_ECU2.5CECU_Rivian_A1.5CTarget.5Crepo_projects.5CpFOTA.5CcL_R2023.2E09.2E01.5Cmake.5Cobj.5CEcuabCanIf.91::
                        1472 .LDWlin91:
000007a6 840705980000*  1473 	ld.b	sdaoff23(_EcuabCanIf_StatesCtrl)[gp],r19
000007ac e099           1474 	cmp	zero,r19
000007ae 9a0d*          1475 	bne	.L4716
                        1476 --line2995
                        1477 ..lin.C.3A.5C_ECU2.5CECU_Rivian_A1.5CTarget.5Crepo_projects.5CpFOTA.5CcL_R2023.2E09.2E01.5Cmake.5Cobj.5CEcuabCanIf.92::
                        1478 .LDWlin92:
000007b0 4f4a           1479 	add	15,r9
                        1480 .L4723:
000007b2 20363c00       1481 	movea	60,zero,r6
000007b6 003a           1482 	mov	0,r7
000007b8 0a42           1483 	mov	10,r8
                        1484 	jarl	_Det_ReportError,lp
                        1484 <EXPANSION BEGIN>
                        1484 jarl22 _Det_ReportError , lp 
000007ba 80ff0000*      1484 <EXPANSION END>
000007be a50d*          1485 	br	.L4722
                        1486 .L4716:
                        1487 --line2998
                        1488 ..lin.C.3A.5C_ECU2.5CECU_Rivian_A1.5CTarget.5Crepo_projects.5CpFOTA.5CcL_R2023.2E09.2E01.5Cmake.5Cobj.5CEcuabCanIf.93::
                        1489 .LDWlin93:
000007c0 e039           1490 	cmp	zero,r7
000007c2 ba05*          1491 	bne	.L4719

                                                                      Page 27
                                                              C:\Users\nhuliyap\AppData\Local\Temp\gh_00002r01.s
                        1492 --line2999
                        1493 ..lin.C.3A.5C_ECU2.5CECU_Rivian_A1.5CTarget.5Crepo_projects.5CpFOTA.5CcL_R2023.2E09.2E01.5Cmake.5Cobj.5CEcuabCanIf.94::
                        1494 .LDWlin94:
000007c4 454a           1495 	add	5,r9
000007c6 e5f5*          1496 	br	.L4723
                        1497 .L4719:
                        1498 --line3004
                        1499 ..lin.C.3A.5C_ECU2.5CECU_Rivian_A1.5CTarget.5Crepo_projects.5CpFOTA.5CcL_R2023.2E09.2E01.5Cmake.5Cobj.5CEcuabCanIf.95::
                        1500 .LDWlin95:
000007c8 840705900000*  1501 	ld.b	sdaoff23(_EcuabCanIf_StatesCtrl+1)[gp],r18
000007ce 06e8           1502 	mov	r6,r29
000007d0 8093           1503 	sst.b	r18,0[ep]
                        1504 .L4722:
000007d2 1d50           1505 	mov	r29,r10
                        1506 --	    .ef
                        1507 .LDW65:
000007d4 40067f00       1508 	dispose	0,{r29,r31},[lp]
                        1509 	.type	_CanIf_GetPduMode,@function
                        1510 	.size	_CanIf_GetPduMode,.-_CanIf_GetPduMode
                        1511 	.align	2
                        1512 .LDW75:
                        1513 --_retval	r29	local
                        1514 --_errorId	r9	local
                        1515 
                        1516 --_ControllerId	r6	param
                        1517 --_PduModePtr	ep	param
                        1518 
                        1519 	.section ".bss","awb"
                        1520 .L4828:
                        1521 	.type	.L4828,@object
                        1522 	.size	.L4828,0
                        1523 	.data
                        1524 	.text
                        1525 	.align	2
                        1526 	.align	2
                        1527 ..gh.f.f.1.e.14:
                        1528 	.type	..gh.f.f.1.e.14,@object
                        1529 	.size	..gh.f.f.1.e.14,0
                        1530 	.global	_infEcuabCanIfSwcApplEcuM_InitFunctionMemory
                        1531 _infEcuabCanIfSwcApplEcuM_InitFunctionMemory:
                        1532 --	    .bf
                        1533 .LDW85:
000007d8 84070d000000*  1534 	st.b	zero,sdaoff23(_EcuabCanIf_StatesCtrl)[gp]
                        1535 --	    .ef
                        1536 .LDW95:
000007de 7f00           1537 	jmp	[lp]
                        1538 	.type	_infEcuabCanIfSwcApplEcuM_InitFunctionMemory,@function
                        1539 	.size	_infEcuabCanIfSwcApplEcuM_InitFunctionMemory,.-_infEcuabCanIfSwcApplEcuM_InitFunctionMemory
                        1540 	.align	2
                        1541 .LDW06:
                        1542 
                        1543 	.section ".bss","awb"
                        1544 .L4945:
                        1545 	.type	.L4945,@object
                        1546 	.size	.L4945,0
                        1547 	.data
                        1548 	.text
                        1549 	.align	2
                        1550 	.align	2
                        1551 ..gh.f.f.1.e.15:
                        1552 	.type	..gh.f.f.1.e.15,@object

                                                                      Page 28
                                                              C:\Users\nhuliyap\AppData\Local\Temp\gh_00002r01.s
                        1553 	.size	..gh.f.f.1.e.15,0
                        1554 	.global	_CanIf_ControllerModeIndication
                        1555 _CanIf_ControllerModeIndication:
000007e0 80076100       1556 	prepare	{r29,r31},0
000007e4 a700           1557 	sxb	r7
                        1558 --	    .bf
                        1559 .LDW16:
000007e6 d832           1560 	shl	24,r6
000007e8 0e4a           1561 	mov	14,r9
000007ea 8a0d*          1562 	bne	.L4996
                        1563 --line4785
                        1564 ..lin.C.3A.5C_ECU2.5CECU_Rivian_A1.5CTarget.5Crepo_projects.5CpFOTA.5CcL_R2023.2E09.2E01.5Cmake.5Cobj.5CEcuabCanIf.96::
                        1565 .LDWlin96:
000007ec 840705900000*  1566 	ld.b	sdaoff23(_EcuabCanIf_StatesCtrl)[gp],r18
000007f2 e091           1567 	cmp	zero,r18
000007f4 ca0d*          1568 	bne	.L4968
                        1569 --line4786
                        1570 ..lin.C.3A.5C_ECU2.5CECU_Rivian_A1.5CTarget.5Crepo_projects.5CpFOTA.5CcL_R2023.2E09.2E01.5Cmake.5Cobj.5CEcuabCanIf.97::
                        1571 .LDWlin97:
000007f6 204e1e00       1572 	movea	30,zero,r9
                        1573 .L4996:
                        1574 --	    .es
                        1575 .LDW26:
000007fa 20363c00       1576 	movea	60,zero,r6
000007fe 003a           1577 	mov	0,r7
00000800 20461700       1578 	movea	23,zero,r8
                        1579 	jarl	_Det_ReportError,lp
                        1579 <EXPANSION BEGIN>
                        1579 jarl22 _Det_ReportError , lp 
00000804 80ff0000*      1579 <EXPANSION END>
00000808 40067f00       1580 	dispose	0,{r29,r31},[lp]
                        1581 .L4968:
                        1582 --	    .bs
                        1583 .LDW36:
                        1584 --line4798
                        1585 ..lin.C.3A.5C_ECU2.5CECU_Rivian_A1.5CTarget.5Crepo_projects.5CpFOTA.5CcL_R2023.2E09.2E01.5Cmake.5Cobj.5CEcuabCanIf.98::
                        1586 .LDWlin98:
0000080c 613a           1587 	cmp	1,r7
0000080e f115*          1588 	bl	.L4971
00000810 d205*          1589 	be	.L4973
00000812 633a           1590 	cmp	3,r7
00000814 810d*          1591 	bl	.L4979
00000816 b20d*          1592 	be	.L4986
00000818 a515*          1593 	br	.L4971
                        1594 .L4973:
                        1595 --line4802
                        1596 ..lin.C.3A.5C_ECU2.5CECU_Rivian_A1.5CTarget.5Crepo_projects.5CpFOTA.5CcL_R2023.2E09.2E01.5Cmake.5Cobj.5CEcuabCanIf.99::
                        1597 .LDWlin99:
0000081a 5e92           1598 	add	-2,r18
0000081c 6192           1599 	cmp	1,r18
0000081e fb0d*          1600 	bh	.L4971
                        1601 --line4807
                        1602 ..lin.C.3A.5C_ECU2.5CECU_Rivian_A1.5CTarget.5Crepo_projects.5CpFOTA.5CcL_R2023.2E09.2E01.5Cmake.5Cobj.5CEcuabCanIf.100::
                        1603 .LDWlin100:
00000820 018a           1604 	mov	1,r17
00000822 a50d*          1605 	br	.L5046
                        1606 .L4979:
                        1607 --line4823
                        1608 ..lin.C.3A.5C_ECU2.5CECU_Rivian_A1.5CTarget.5Crepo_projects.5CpFOTA.5CcL_R2023.2E09.2E01.5Cmake.5Cobj.5CEcuabCanIf.101::
                        1609 .LDWlin101:
00000824 6192           1610 	cmp	1,r18

                                                                      Page 29
                                                              C:\Users\nhuliyap\AppData\Local\Temp\gh_00002r01.s
00000826 ba0d*          1611 	bne	.L4971
                        1612 --line4827
                        1613 ..lin.C.3A.5C_ECU2.5CECU_Rivian_A1.5CTarget.5Crepo_projects.5CpFOTA.5CcL_R2023.2E09.2E01.5Cmake.5Cobj.5CEcuabCanIf.102::
                        1614 .LDWlin102:
00000828 028a           1615 	mov	2,r17
0000082a e505*          1616 	br	.L5046
                        1617 .L4986:
                        1618 --line4842
                        1619 ..lin.C.3A.5C_ECU2.5CECU_Rivian_A1.5CTarget.5Crepo_projects.5CpFOTA.5CcL_R2023.2E09.2E01.5Cmake.5Cobj.5CEcuabCanIf.103::
                        1620 .LDWlin103:
0000082c 6192           1621 	cmp	1,r18
0000082e b205*          1622 	be	.L4989
00000830 6392           1623 	cmp	3,r18
00000832 da05*          1624 	bne	.L4971
                        1625 .L4989:
                        1626 --line4847
                        1627 ..lin.C.3A.5C_ECU2.5CECU_Rivian_A1.5CTarget.5Crepo_projects.5CpFOTA.5CcL_R2023.2E09.2E01.5Cmake.5Cobj.5CEcuabCanIf.104::
                        1628 .LDWlin104:
00000834 038a           1629 	mov	3,r17
                        1630 .L5046:
00000836 84070d880000*  1631 	st.b	r17,sdaoff23(_EcuabCanIf_StatesCtrl)[gp]
                        1632 .L4971:
0000083c 850709e80000*  1633 	ld.w	rosdaoff23(_CanIf_CtrlModeIndicationFctPtr)[r5],r29
00000842 e0e9           1634 	cmp	zero,r29
00000844 c205*          1635 	be	.L4963
                        1636 --line4866
                        1637 ..lin.C.3A.5C_ECU2.5CECU_Rivian_A1.5CTarget.5Crepo_projects.5CpFOTA.5CcL_R2023.2E09.2E01.5Cmake.5Cobj.5CEcuabCanIf.105::
                        1638 .LDWlin105:
00000846 0032           1639 	mov	0,r6
00000848 fdc760f9       1640 	jarl	[r29],lp
                        1641 .L4963:
                        1642 --	    .ef
                        1643 .LDW46:
                        1644 --line4881
                        1645 ..lin.C.3A.5C_ECU2.5CECU_Rivian_A1.5CTarget.5Crepo_projects.5CpFOTA.5CcL_R2023.2E09.2E01.5Cmake.5Cobj.5CEcuabCanIf.106::
                        1646 .LDWlin106:
0000084c 40067f00       1647 	dispose	0,{r29,r31},[lp]
                        1648 	.type	_CanIf_ControllerModeIndication,@function
                        1649 	.size	_CanIf_ControllerModeIndication,.-_CanIf_ControllerModeIndication
                        1650 	.align	2
                        1651 .LDW56:
                        1652 --_errorId	r9	local
                        1653 --_cbkFct	r29	local
                        1654 
                        1655 --_ControllerId	r6	param
                        1656 --_ControllerMode	r7	param
                        1657 
                        1658 	.section ".bss","awb"
                        1659 .L5168:
                        1660 	.type	.L5168,@object
                        1661 	.size	.L5168,0
                        1662 	.data
                        1663 	.text
                        1664 	.align	2
                        1665 --_CfgEcuabCanIf_fptrNotificationBusOff	rosdaoff23(_CfgEcuabCanIf_fptrNotificationBusOff)	import
                        1666 --_CfgEcuabCanIf_IdCtrl2MappedBuffersTx	rosdaoff23(_CfgEcuabCanIf_IdCtrl2MappedBuffersTx)	import
                        1667 --_CanIf_CtrlModeIndicationFctPtr	rosdaoff23(_CanIf_CtrlModeIndicationFctPtr)	import
                        1668 --_CfgEcuabCanIf_MailBox	rosdaoff23(_CfgEcuabCanIf_MailBox)	import
                        1669 --_CfgEcuabCanIf_BuffersTxMapped	rosdaoff23(_CfgEcuabCanIf_BuffersTxMapped)	import
                        1670 --_CfgEcuabCanIf_ListFctIndicationRx	rosdaoff23(_CfgEcuabCanIf_ListFctIndicationRx)	import
                        1671 --_CfgEcuabCanIf_PduRx	rosdaoff23(_CfgEcuabCanIf_PduRx)	import

                                                                      Page 30
                                                              C:\Users\nhuliyap\AppData\Local\Temp\gh_00002r01.s
                        1672 --_CfgEcuabCanIf_QueueBufferTxPrioByIdCan	rosdaoff23(_CfgEcuabCanIf_QueueBufferTxPrioByIdCan)	import
                        1673 --_CfgEcuabCanIf_QueueBufferPdusMappedTxPrioByIdCan	rosdaoff23(_CfgEcuabCanIf_QueueBufferPdusMappedTxPrioByIdCan)	import
                        1674 --_EcuabCanIf_ListFctConfirmationTx	rosdaoff23(_EcuabCanIf_ListFctConfirmationTx)	import
                        1675 --_EcuabCanIf_PduTx	rosdaoff23(_EcuabCanIf_PduTx)	import
                        1676 --_EcuabCanIf_IndexQueuePduTx	rosdaoff23(_EcuabCanIf_IndexQueuePduTx)	import
                        1677 --_EcuabCanIf_StatesCtrl	sdaoff23(_EcuabCanIf_StatesCtrl)	import
                        1678 --_EcuabCanIf_BufferTxPrioByIdCanBase	sdaoff23(_EcuabCanIf_BufferTxPrioByIdCanBase)	import
                        1679 --_EcuabCanIf_QueueTx	sdaoff23(_EcuabCanIf_QueueTx)	import
                        1680 --_CanIfState	rosdaoff23(_CanIfState)	static
                        1681 
                        1682 	.section ".rosdata","a"
                        1683 	.global	_CanIf_MainVersion
0000002c 06             1684 _CanIf_MainVersion:	.byte	6
                        1685 	.type	_CanIf_MainVersion,@object
                        1686 	.size	_CanIf_MainVersion,1
                        1687 	.global	_CanIf_SubVersion
0000002d 19             1688 _CanIf_SubVersion:	.byte	25
                        1689 	.type	_CanIf_SubVersion,@object
                        1690 	.size	_CanIf_SubVersion,1
                        1691 	.global	_CanIf_ReleaseVersion
0000002e 00             1692 _CanIf_ReleaseVersion:	.byte	0
                        1693 	.type	_CanIf_ReleaseVersion,@object
                        1694 	.size	_CanIf_ReleaseVersion,1
                        1695 	.data
                        1696 	.ghsnote version,17
                        1697 	.ghsnote tools,3
                        1698 	.ghsnote options,144
                        1699 	.text
                        1700 	.align	2
                        1701 ..eof.C.3A.5C_ECU2.5CECU_Rivian_A1.5CTarget.5Crepo_projects.5CpFOTA.5CcL_R2023.2E09.2E01.5Cmake.5Cobj.5CEcuabCanIf...43.3A.5C_ECU2.5CECU_Rivian_A1.5CTarget.5Crepo_projects.5CpFOTA.5CcL_R2023.2E09.2E01.5Cmake..64F863AC..0::
                        1702 .rh850_flags REGMODE32,DATA_ALIGN8,GP_FIX,EP_NONFIX,TP_FIX,REG2_RESERVE,G3K,SDA_EXTRA_REGS_0
