                                                                      Page 1
                                                              C:\Users\nhuliyap\AppData\Local\Temp\gh_0000d481.s
Command Line: C:\GHS\comp_201517\ease850.exe -w -stderr=err/EcuabCryIf.err -elf -b0 -I../source/_common -I../source/common -I../source/ecuabcanif -I../source/ecuabcantrcv -I../source/ecuabcryif -I../source/ecuabfee -I../source/ecuabmemif -I../source/libautosar -I../source/mcalcan -I../source/mcalcry -I../source/mcaldio -I../source/mcaleep -I../source/mcalfls -I../source/mcalmcu -I../source/projectara -I../source/projectcfg -I../source/projectcompiler -I../source/swcservicebswm -I../source/swcservicecantp -I../source/swcservicecomm -I../source/swcservicecsm -I../source/swcservicedcm -I../source/swcservicedem -I../source/swcservicedet -I../source/swcserviceecum -I../source/swcservicenvm -I../source/swcserviceos -I../source/swcservicepdur -I../source/swcserviceschm -I../source/swcservicestartup -I../source/wrappers/swcservicesecm -I../source/wrappers/vsecprim -I../source/wrappers/vstdlib -Ic:/ghs/comp_201517/ansi -Ic:/ghs/comp_201517/include/v800 -Igendata -IC:\GHS\comp_201517\lib\rh850 -cg_underscore -cpu=rh850g3k -nofpu -no_v850_simd -rh850_fpsimd=none -nomacro -patch_dbo=C:\_ECU2\ECU_Rivian_A1\Target\repo_projects\pFOTA\cL_R2023.09.01\make\obj\EcuabCryIf.dbo -source=EcuabCryIf.c -o obj\gh_0000d481.o -list=lst/EcuabCryIf.lst C:\Users\nhuliyap\AppData\Local\Temp\gh_0000d481.s 
Original File: C:\Users\nhuliyap\AppData\Local\Temp\gh_0000d481.s
Source File: EcuabCryIf.c
Directory: C:\_ECU2\ECU_Rivian_A1\Target\repo_projects\pFOTA\cL_R2023.09.01\make
Host OS: Windows
EASE: Copyright (C) 1983-2015 Green Hills Software.  All Rights Reserved.
Release: Compiler v2015.1.7
Build Directory: [Directory] BTOWORKER6:c:/build_2015_1_bto/2015-10-21.2100-2015_1_bto/win32-comp-ecom
Revision: [VCInfo] http://toolsvc/branches/release-branch-70-bto/src@544153 (built by build)
Revision Date: Thu Oct 22 07:50:13 2015

Release Date: Thu Oct 22 09:32:32 2015

                           1 --Driver Command: ccrh850 -DBRS_DERIVATIVE_701018 -DBRS_OSC_CLK=16
                           2 --		-DBRS_TIMEBASE_CLOCK=80 -DBRS_EVA_BOARD_
                           3 --		-DBRS_DERIVATIVE_GROUP_F1L -DBRS_OS_USECASE_BRS
                           4 --		-DBRS_PLATFORM_RH850 -DBRS_COMP_GHS
                           5 --		-DBRS_CPU_LOCAL_RAM_SIZE_CORE0=32
                           6 --		-DBRS_CPU_RAM_START_CORE0=0xFEDF8000 -list=lst/EcuabCryIf.lst
                           7 --		-object_dir=obj -stderr=err/EcuabCryIf.err -c -cpu=rh850 -sda=all
                           8 --		-large_sda -prepare_dispose -pragma_asm_inline -no_callt
                           9 --		-inline_prologue -notda -reserve_r2 -fsoft
                          10 --		--unknown_pragma_warnings -list -g -Ogeneral -shortenum
                          11 --		-registermode=32 -I../source/_common -I../source/common
                          12 --		-I../source/ecuabcanif -I../source/ecuabcantrcv
                          13 --		-I../source/ecuabcryif -I../source/ecuabfee
                          14 --		-I../source/ecuabmemif -I../source/libautosar -I../source/mcalcan
                          15 --		-I../source/mcalcry -I../source/mcaldio -I../source/mcaleep
                          16 --		-I../source/mcalfls -I../source/mcalmcu -I../source/projectara
                          17 --		-I../source/projectcfg -I../source/projectcompiler
                          18 --		-I../source/swcservicebswm -I../source/swcservicecantp
                          19 --		-I../source/swcservicecomm -I../source/swcservicecsm
                          20 --		-I../source/swcservicedcm -I../source/swcservicedem
                          21 --		-I../source/swcservicedet -I../source/swcserviceecum
                          22 --		-I../source/swcservicenvm -I../source/swcserviceos
                          23 --		-I../source/swcservicepdur -I../source/swcserviceschm
                          24 --		-I../source/swcservicestartup -I../source/wrappers/swcservicesecm
                          25 --		-I../source/wrappers/vsecprim -I../source/wrappers/vstdlib
                          26 --		-Ic:/ghs/comp_201517/ansi -Ic:/ghs/comp_201517/include/v800
                          27 --		-Igendata ../source/EcuabCryIf/EcuabCryIf.c
                          28 --Source File:   ../source/EcuabCryIf/EcuabCryIf.c
                          29 --Directory:     
                          30 --		C:\_ECU2\ECU_Rivian_A1\Target\repo_projects\pFOTA\cL_R2023.09.01\make
                          31 --Compile Date:  Wed Sep 06 13:34:06 2023
                          32 --Host OS:       Win32
                          33 --Version:       C-RH850 2015.1.7 RELEASE VERSION
                          34 --Release:       Compiler v2015.1.7
                          35 --Revision Date: Thu Oct 22 08:06:12 2015
                          36 --Release Date:  Thu Oct 22 09:34:32 2015
                          37 -- ecom  -g -w -OM
                          38 	.text
                          39 ..bof.C.3A.5C_ECU2.5CECU_Rivian_A1.5CTarget.5Crepo_projects.5CpFOTA.5CcL_R2023.2E09.2E01.5Cmake.5Cobj.5CEcuabCryIf...43.3A.5C_ECU2.5CECU_Rivian_A1.5CTarget.5Crepo_projects.5CpFOTA.5CcL_R2023.2E09.2E01.5Cmake..64F863AE..0::
                          40 	.align	2
                          41 ..gh.f.f.1.e.0:
                          42 	.type	..gh.f.f.1.e.0,@object
                          43 	.size	..gh.f.f.1.e.0,0
                          44 	.global	_CryIf_KeyCopyForDifferentDrivers..C.3A.5C_ECU2.5CECU_Rivian_A1.5CTarget.5Crepo_projects.5CpFOTA.5CcL_R2023.2E09.2E01.5Cmake.5Cobj.5CEcuabCryIf.
                          45 _CryIf_KeyCopyForDifferentDrivers..C.3A.5C_ECU2.5CECU_Rivian_A1.5CTarget.5Crepo_projects.5CpFOTA.5CcL_R2023.2E09.2E01.5Cmake.5Cobj.5CEcuabCryIf.:
                          46 _CryIf_KeyCopyForDifferentDrivers:
00000000 be07e1f0         47 	prepare	{r24,r25,r26,r27,r28,r29,r31},31
00000004 06f0             48 	mov	r6,ep
00000006 07c8             49 	mov	r7,r25
                          50 --	    .bf

                                                                      Page 2
                                                              C:\Users\nhuliyap\AppData\Local\Temp\gh_0000d481.s
                          51 .LDW01:
00000008 c3f2             52 	shl	3,ep
0000000a 3c0600000000*    53 	mov	rosdaoff23(_CryIf_Key),r28
00000010 dcf1             54 	add	r28,ep
00000012 00d5             55 	sld.w	0[ep],r26
00000014 850709e80000*    56 	ld.w	rosdaoff23(_CryIf_CryptoFunctions+36)[r5],r29
0000001a 0a32             57 	mov	10,r6
0000001c 209e2000         58 	movea	32,zero,r19
00000020 63370500         59 	st.w	r6,4[sp]
00000024 63370900         60 	st.w	r6,8[sp]
00000028 01da             61 	mov	1,r27
0000002a 639f0100         62 	st.w	r19,0[sp]
0000002e 1a30             63 	mov	r26,r6
00000030 233e3400         64 	movea	52,sp,r7
00000034 23460400         65 	movea	4,sp,r8
00000038 fdc760f9         66 	jarl	[r29],lp
                          67 --line83
                          68 ..lin.C.3A.5C_ECU2.5CECU_Rivian_A1.5CTarget.5Crepo_projects.5CpFOTA.5CcL_R2023.2E09.2E01.5Cmake.5Cobj.5CEcuabCryIf.1::
                          69 .LDWlin1:
0000003c 19f0             70 	mov	r25,ep
0000003e c3f2             71 	shl	3,ep
00000040 dcf1             72 	add	r28,ep
00000042 00cd             73 	sld.w	0[ep],r25
00000044 0ac0             74 	mov	r10,r24
00000046 233e0c00         75 	movea	12,sp,r7
0000004a 23460800         76 	movea	8,sp,r8
0000004e 1930             77 	mov	r25,r6
00000050 fdc760f9         78 	jarl	[r29],lp
00000054 0ae8             79 	mov	r10,r29
                          80 --line85
                          81 ..lin.C.3A.5C_ECU2.5CECU_Rivian_A1.5CTarget.5Crepo_projects.5CpFOTA.5CcL_R2023.2E09.2E01.5Cmake.5Cobj.5CEcuabCryIf.2::
                          82 .LDWlin2:
00000056 e0c1             83 	cmp	zero,r24
00000058 9a3d*            84 	bne	.L121
0000005a e051             85 	cmp	zero,r10
0000005c fa35*            86 	bne	.L121
                          87 --line86
                          88 ..lin.C.3A.5C_ECU2.5CECU_Rivian_A1.5CTarget.5Crepo_projects.5CpFOTA.5CcL_R2023.2E09.2E01.5Cmake.5Cobj.5CEcuabCryIf.3::
                          89 .LDWlin3:
0000005e a535*            90 	br	.L127
                          91 .L126:
                          92 --line87
                          93 ..lin.C.3A.5C_ECU2.5CECU_Rivian_A1.5CTarget.5Crepo_projects.5CpFOTA.5CcL_R2023.2E09.2E01.5Cmake.5Cobj.5CEcuabCryIf.4::
                          94 .LDWlin4:
00000060 0092             95 	mov	0,r18
00000062 a52d*            96 	br	.L131
                          97 .L130:
                          98 --line89
                          99 ..lin.C.3A.5C_ECU2.5CECU_Rivian_A1.5CTarget.5Crepo_projects.5CpFOTA.5CcL_R2023.2E09.2E01.5Cmake.5Cobj.5CEcuabCryIf.5::
                         100 .LDWlin5:
00000064 1df0            101 	mov	r29,ep
00000066 12e0            102 	mov	r18,r28
00000068 c2f2            103 	shl	2,ep
0000006a c2e2            104 	shl	2,r28
0000006c c3f1            105 	add	sp,ep
0000006e c3e1            106 	add	sp,r28
00000070 1a3d            107 	sld.w	52[ep],r7
00000072 3c7f0d00        108 	ld.w	12[r28],r15
00000076 ef39            109 	cmp	r15,r7
00000078 da1d*           110 	bne	.L129
                         111 --line91

                                                                      Page 3
                                                              C:\Users\nhuliyap\AppData\Local\Temp\gh_0000d481.s
                         112 ..lin.C.3A.5C_ECU2.5CECU_Rivian_A1.5CTarget.5Crepo_projects.5CpFOTA.5CcL_R2023.2E09.2E01.5Cmake.5Cobj.5CEcuabCryIf.6::
                         113 .LDWlin6:
0000007a 850709c00000*   114 	ld.w	rosdaoff23(_CryIf_CryptoFunctions+32)[r5],r24
00000080 4ce2            115 	add	12,r28
00000082 1a30            116 	mov	r26,r6
00000084 23465c00        117 	movea	92,sp,r8
00000088 0348            118 	mov	sp,r9
0000008a f8c760f9        119 	jarl	[r24],lp
0000008e e051            120 	cmp	zero,r10
00000090 fa15*           121 	bne	.L125
                         122 --line93
                         123 ..lin.C.3A.5C_ECU2.5CECU_Rivian_A1.5CTarget.5Crepo_projects.5CpFOTA.5CcL_R2023.2E09.2E01.5Cmake.5Cobj.5CEcuabCryIf.7::
                         124 .LDWlin7:
00000092 3c3f0100        125 	ld.w	0[r28],r7
00000096 234f0100        126 	ld.w	0[sp],r9
0000009a 850709e00000*   127 	ld.w	rosdaoff23(_CryIf_CryptoFunctions+40)[r5],r28
000000a0 1930            128 	mov	r25,r6
000000a2 23465c00        129 	movea	92,sp,r8
000000a6 fcc760f9        130 	jarl	[r28],lp
000000aa e051            131 	cmp	zero,r10
                         132 --line95
                         133 ..lin.C.3A.5C_ECU2.5CECU_Rivian_A1.5CTarget.5Crepo_projects.5CpFOTA.5CcL_R2023.2E09.2E01.5Cmake.5Cobj.5CEcuabCryIf.8::
                         134 .LDWlin8:
000000ac eadf24db        135 	cmove	r10,r27,r27
000000b0 f505*           136 	br	.L125
                         137 .L129:
                         138 --line87
                         139 ..lin.C.3A.5C_ECU2.5CECU_Rivian_A1.5CTarget.5Crepo_projects.5CpFOTA.5CcL_R2023.2E09.2E01.5Cmake.5Cobj.5CEcuabCryIf.9::
                         140 .LDWlin9:
000000b2 4192            141 	add	1,r18
000000b4 9200            142 	zxb	r18
                         143 .L131:
000000b6 234f0900        144 	ld.w	8[sp],r9
000000ba e991            145 	cmp	r9,r18
000000bc c1d5*           146 	bl	.L130
                         147 .L125:
                         148 --line86
                         149 ..lin.C.3A.5C_ECU2.5CECU_Rivian_A1.5CTarget.5Crepo_projects.5CpFOTA.5CcL_R2023.2E09.2E01.5Cmake.5Cobj.5CEcuabCryIf.10::
                         150 .LDWlin10:
000000be 41ea            151 	add	1,r29
000000c0 9d00            152 	zxb	r29
                         153 .L127:
000000c2 23470500        154 	ld.w	4[sp],r8
000000c6 e8e9            155 	cmp	r8,r29
000000c8 c1cd*           156 	bl	.L126
                         157 .L121:
                         158 --line104
                         159 ..lin.C.3A.5C_ECU2.5CECU_Rivian_A1.5CTarget.5Crepo_projects.5CpFOTA.5CcL_R2023.2E09.2E01.5Cmake.5Cobj.5CEcuabCryIf.11::
                         160 .LDWlin11:
000000ca 1b50            161 	mov	r27,r10
                         162 --	    .ef
                         163 .LDW11:
000000cc 7e06fff0        164 	dispose	31,{r24,r25,r26,r27,r28,r29,r31},[lp]
                         165 	.type	_CryIf_KeyCopyForDifferentDrivers,@function
                         166 	.size	_CryIf_KeyCopyForDifferentDrivers,.-_CryIf_KeyCopyForDifferentDrivers
                         167 	.type	_CryIf_KeyCopyForDifferentDrivers..C.3A.5C_ECU2.5CECU_Rivian_A1.5CTarget.5Crepo_projects.5CpFOTA.5CcL_R2023.2E09.2E01.5Cmake.5Cobj.5CEcuabCryIf.,@function
                         168 	.size	_CryIf_KeyCopyForDifferentDrivers..C.3A.5C_ECU2.5CECU_Rivian_A1.5CTarget.5Crepo_projects.5CpFOTA.5CcL_R2023.2E09.2E01.5Cmake.5Cobj.5CEcuabCryIf.,.-_CryIf_KeyCopyForDifferentDrivers..C.3A.5C_ECU2.5CECU_Rivian_A1.5CTarget.5Crepo_projects.5CpFOTA.5CcL_R2023.2E09.2E01.5Cmake.5Cobj.5CEcuabCryIf.
                         169 	.align	2
                         170 .LDW21:
                         171 --_i	r29	local
                         172 --_j	r18	local

                                                                      Page 4
                                                              C:\Users\nhuliyap\AppData\Local\Temp\gh_0000d481.s
                         173 --_retVal	r27	local
                         174 --_retValSrc	r24	local
                         175 --_retValDst	r29	local
                         176 --_buffer	92[sp]	local
                         177 --_bufferSize	0[sp]	local
                         178 --_elementIdsSrc	52[sp]	local
                         179 --_elementIdsSrcSize	4[sp]	local
                         180 --_elementIdsDst	12[sp]	local
                         181 --_elementIdsDstSize	8[sp]	local
                         182 
                         183 --_cryIfKeyId	ep	param
                         184 --_targetCryIfKeyId	r25	param
                         185 
                         186 	.section ".bss","awb"
                         187 .L266:
                         188 	.type	.L266,@object
                         189 	.size	.L266,0
                         190 	.section ".sdata","aw"
                         191 	.global	_CryIf_ModuleInitialized..C.3A.5C_ECU2.5CECU_Rivian_A1.5CTarget.5Crepo_projects.5CpFOTA.5CcL_R2023.2E09.2E01.5Cmake.5Cobj.5CEcuabCryIf.
                         192 _CryIf_ModuleInitialized..C.3A.5C_ECU2.5CECU_Rivian_A1.5CTarget.5Crepo_projects.5CpFOTA.5CcL_R2023.2E09.2E01.5Cmake.5Cobj.5CEcuabCryIf.:
00000000 00              193 _CryIf_ModuleInitialized:	.byte	0
                         194 	.type	_CryIf_ModuleInitialized..C.3A.5C_ECU2.5CECU_Rivian_A1.5CTarget.5Crepo_projects.5CpFOTA.5CcL_R2023.2E09.2E01.5Cmake.5Cobj.5CEcuabCryIf.,@object
                         195 	.size	_CryIf_ModuleInitialized..C.3A.5C_ECU2.5CECU_Rivian_A1.5CTarget.5Crepo_projects.5CpFOTA.5CcL_R2023.2E09.2E01.5Cmake.5Cobj.5CEcuabCryIf.,1
                         196 	.type	_CryIf_ModuleInitialized,@object
                         197 	.size	_CryIf_ModuleInitialized,1
                         198 	.data
                         199 	.text
                         200 	.align	2
                         201 	.align	2
                         202 ..gh.f.f.1.e.1:
                         203 	.type	..gh.f.f.1.e.1,@object
                         204 	.size	..gh.f.f.1.e.1,0
                         205 	.global	_CryIf_InitMemory
                         206 _CryIf_InitMemory:
                         207 --	    .bf
                         208 .LDW31:
000000d0 84070d000000*   209 	st.b	zero,sdaoff23(_CryIf_ModuleInitialized)[gp]
                         210 --	    .ef
                         211 .LDW41:
000000d6 7f00            212 	jmp	[lp]
                         213 	.type	_CryIf_InitMemory,@function
                         214 	.size	_CryIf_InitMemory,.-_CryIf_InitMemory
                         215 	.align	2
                         216 .LDW51:
                         217 
                         218 	.section ".bss","awb"
                         219 .L417:
                         220 	.type	.L417,@object
                         221 	.size	.L417,0
                         222 	.data
                         223 	.text
                         224 	.align	2
                         225 	.align	2
                         226 ..gh.f.f.1.e.2:
                         227 	.type	..gh.f.f.1.e.2,@object
                         228 	.size	..gh.f.f.1.e.2,0
                         229 	.global	_CryIf_Init
                         230 _CryIf_Init:
                         231 --	    .bf
                         232 .LDW61:
000000d8 a40705900000*   233 	ld.bu	sdaoff23(_CryIf_ModuleInitialized)[gp],r18

                                                                      Page 5
                                                              C:\Users\nhuliyap\AppData\Local\Temp\gh_0000d481.s
000000de 6192            234 	cmp	1,r18
000000e0 e205*           235 	be	.L441
                         236 --line277
                         237 ..lin.C.3A.5C_ECU2.5CECU_Rivian_A1.5CTarget.5Crepo_projects.5CpFOTA.5CcL_R2023.2E09.2E01.5Cmake.5Cobj.5CEcuabCryIf.12::
                         238 .LDWlin12:
000000e2 018a            239 	mov	1,r17
000000e4 84070d880000*   240 	st.b	r17,sdaoff23(_CryIf_ModuleInitialized)[gp]
                         241 --	    .ef
                         242 .LDW71:
000000ea 7f00            243 	jmp	[lp]
                         244 .L441:
                         245 --line283
                         246 ..lin.C.3A.5C_ECU2.5CECU_Rivian_A1.5CTarget.5Crepo_projects.5CpFOTA.5CcL_R2023.2E09.2E01.5Cmake.5Cobj.5CEcuabCryIf.13::
                         247 .LDWlin13:
000000ec 003a            248 	mov	0,r7
000000ee 20367000        249 	movea	112,zero,r6
000000f2 0740            250 	mov	r7,r8
000000f4 204e1100        251 	movea	17,zero,r9
000000f8 80070000*       252 	jr	_Det_ReportError
                         253 	.type	_CryIf_Init,@function
                         254 	.size	_CryIf_Init,.-_CryIf_Init
                         255 	.align	2
                         256 .LDW81:
                         257 
                         258 	.section ".bss","awb"
                         259 .L490:
                         260 	.type	.L490,@object
                         261 	.size	.L490,0
                         262 	.data
                         263 	.text
                         264 	.align	2
                         265 	.align	2
                         266 ..gh.f.f.1.e.3:
                         267 	.type	..gh.f.f.1.e.3,@object
                         268 	.size	..gh.f.f.1.e.3,0
                         269 	.global	_CryIf_CallbackNotification
                         270 _CryIf_CallbackNotification:
000000fc 8700            271 	zxb	r7
                         272 --	    .bf
                         273 .LDW91:
000000fe 80070000*       274 	jr	_Csm_CallbackNotification
                         275 --	    .ef
                         276 .LDW02:
                         277 	.type	_CryIf_CallbackNotification,@function
                         278 	.size	_CryIf_CallbackNotification,.-_CryIf_CallbackNotification
                         279 	.align	2
                         280 .LDW12:
                         281 
                         282 --_job	r6	param
                         283 --_result	r7	param
                         284 
                         285 	.section ".bss","awb"
                         286 .L561:
                         287 	.type	.L561,@object
                         288 	.size	.L561,0
                         289 	.data
                         290 	.text
                         291 	.align	2
                         292 	.align	2
                         293 ..gh.f.f.1.e.4:
                         294 	.type	..gh.f.f.1.e.4,@object

                                                                      Page 6
                                                              C:\Users\nhuliyap\AppData\Local\Temp\gh_0000d481.s
                         295 	.size	..gh.f.f.1.e.4,0
                         296 	.global	_EcuabCryIf_ProcessJob
                         297 _EcuabCryIf_ProcessJob:
00000102 80076100        298 	prepare	{r29,r31},0
00000106 07f0            299 	mov	r7,ep
                         300 --	    .bf
                         301 .LDW22:
00000108 a40705480000*   302 	ld.bu	sdaoff23(_CryIf_ModuleInitialized)[gp],r9
0000010e 01ea            303 	mov	1,r29
00000110 e049            304 	cmp	zero,r9
00000112 f205*           305 	be	.L600
                         306 --line335
                         307 ..lin.C.3A.5C_ECU2.5CECU_Rivian_A1.5CTarget.5Crepo_projects.5CpFOTA.5CcL_R2023.2E09.2E01.5Cmake.5Cobj.5CEcuabCryIf.14::
                         308 .LDWlin14:
00000114 e039            309 	cmp	zero,r7
00000116 024a            310 	mov	2,r9
00000118 c205*           311 	be	.L600
                         312 --line339
                         313 ..lin.C.3A.5C_ECU2.5CECU_Rivian_A1.5CTarget.5Crepo_projects.5CpFOTA.5CcL_R2023.2E09.2E01.5Cmake.5Cobj.5CEcuabCryIf.15::
                         314 .LDWlin15:
0000011a 6232            315 	cmp	2,r6
0000011c 910d*           316 	bl	.L588
0000011e 034a            317 	mov	3,r9
                         318 .L600:
                         319 --line378
                         320 ..lin.C.3A.5C_ECU2.5CECU_Rivian_A1.5CTarget.5Crepo_projects.5CpFOTA.5CcL_R2023.2E09.2E01.5Cmake.5Cobj.5CEcuabCryIf.16::
                         321 .LDWlin16:
00000120 20367000        322 	movea	112,zero,r6
00000124 003a            323 	mov	0,r7
00000126 0242            324 	mov	2,r8
                         325 	jarl	_Det_ReportError,lp
                         325 <EXPANSION BEGIN>
                         325 jarl22 _Det_ReportError , lp 
00000128 80ff0000*       325 <EXPANSION END>
0000012c 8535*           326 	br	.L599
                         327 .L588:
                         328 --line345
                         329 ..lin.C.3A.5C_ECU2.5CECU_Rivian_A1.5CTarget.5Crepo_projects.5CpFOTA.5CcL_R2023.2E09.2E01.5Cmake.5Cobj.5CEcuabCryIf.17::
                         330 .LDWlin17:
0000012e 208d            331 	sld.w	64[ep],r17
00000130 31970d00        332 	ld.w	12[r17],r18
00000134 6792            333 	cmp	7,r18
00000136 a92d*           334 	bnl	.L591
                         335 --line346
                         336 ..lin.C.3A.5C_ECU2.5CECU_Rivian_A1.5CTarget.5Crepo_projects.5CpFOTA.5CcL_R2023.2E09.2E01.5Cmake.5Cobj.5CEcuabCryIf.18::
                         337 .LDWlin18:
00000138 31470500        338 	ld.w	4[r17],r8
0000013c 330600000000*   339 	mov	rosdaoff23(_CryIf_Key),r19
00000142 88470500        340 	ld.bu	4[r8],r8
00000146 6c42            341 	cmp	12,r8
00000148 f905*           342 	bnl	.L593
                         343 --line348
                         344 ..lin.C.3A.5C_ECU2.5CECU_Rivian_A1.5CTarget.5Crepo_projects.5CpFOTA.5CcL_R2023.2E09.2E01.5Cmake.5Cobj.5CEcuabCryIf.19::
                         345 .LDWlin19:
0000014a c392            346 	shl	3,r18
0000014c d391            347 	add	r19,r18
0000014e 32870100        348 	ld.w	0[r18],r16
00000152 2585            349 	sst.w	r16,72[ep]
00000154 f50d*           350 	br	.L595
                         351 .L593:
                         352 --line352

                                                                      Page 7
                                                              C:\Users\nhuliyap\AppData\Local\Temp\gh_0000d481.s
                         353 ..lin.C.3A.5C_ECU2.5CECU_Rivian_A1.5CTarget.5Crepo_projects.5CpFOTA.5CcL_R2023.2E09.2E01.5Cmake.5Cobj.5CEcuabCryIf.20::
                         354 .LDWlin20:
00000156 1c8d            355 	sld.w	56[ep],r17
00000158 c38a            356 	shl	3,r17
0000015a d389            357 	add	r19,r17
0000015c 317f0100        358 	ld.w	0[r17],r15
00000160 6e42            359 	cmp	14,r8
00000162 257d            360 	sst.w	r15,72[ep]
00000164 fa05*           361 	bne	.L595
                         362 --line356
                         363 ..lin.C.3A.5C_ECU2.5CECU_Rivian_A1.5CTarget.5Crepo_projects.5CpFOTA.5CcL_R2023.2E09.2E01.5Cmake.5Cobj.5CEcuabCryIf.21::
                         364 .LDWlin21:
00000166 1e85            365 	sld.w	60[ep],r16
00000168 c382            366 	shl	3,r16
0000016a d381            367 	add	r19,r16
0000016c 306f0100        368 	ld.w	0[r16],r13
00000170 276d            369 	sst.w	r13,76[ep]
                         370 .L595:
00000172 c332            371 	shl	3,r6
00000174 c531            372 	add	r5,r6
00000176 860709300000*   373 	ld.w	rosdaoff23(_CryIf_Channel)[r6],r6
0000017c 850709e80000*   374 	ld.w	rosdaoff23(_CryIf_CryptoFunctions+60)[r5],r29
00000182 fdc760f9        375 	jarl	[r29],lp
00000186 0ae8            376 	mov	r10,r29
00000188 a505*           377 	br	.L599
                         378 .L591:
                         379 --line372
                         380 ..lin.C.3A.5C_ECU2.5CECU_Rivian_A1.5CTarget.5Crepo_projects.5CpFOTA.5CcL_R2023.2E09.2E01.5Cmake.5Cobj.5CEcuabCryIf.22::
                         381 .LDWlin22:
0000018a 08ea            382 	mov	8,r29
                         383 .L599:
0000018c 1d50            384 	mov	r29,r10
                         385 --	    .ef
                         386 .LDW32:
0000018e 40067f00        387 	dispose	0,{r29,r31},[lp]
                         388 	.type	_EcuabCryIf_ProcessJob,@function
                         389 	.size	_EcuabCryIf_ProcessJob,.-_EcuabCryIf_ProcessJob
                         390 	.align	2
                         391 .LDW42:
                         392 --_retVal	r29	local
                         393 --_errorId	r9	local
                         394 
                         395 --_channelId	r6	param
                         396 --_job	ep	param
                         397 
                         398 	.section ".bss","awb"
                         399 .L766:
                         400 	.type	.L766,@object
                         401 	.size	.L766,0
                         402 	.data
                         403 	.text
                         404 	.align	2
                         405 	.align	2
                         406 ..gh.f.f.1.e.5:
                         407 	.type	..gh.f.f.1.e.5,@object
                         408 	.size	..gh.f.f.1.e.5,0
                         409 	.global	_EcuabCryIf_CancelJob
                         410 _EcuabCryIf_CancelJob:
00000192 80076100        411 	prepare	{r29,r31},0
00000196 07f0            412 	mov	r7,ep
                         413 --	    .bf

                                                                      Page 8
                                                              C:\Users\nhuliyap\AppData\Local\Temp\gh_0000d481.s
                         414 .LDW52:
00000198 a40705480000*   415 	ld.bu	sdaoff23(_CryIf_ModuleInitialized)[gp],r9
0000019e 01ea            416 	mov	1,r29
000001a0 e049            417 	cmp	zero,r9
000001a2 f205*           418 	be	.L919
                         419 --line398
                         420 ..lin.C.3A.5C_ECU2.5CECU_Rivian_A1.5CTarget.5Crepo_projects.5CpFOTA.5CcL_R2023.2E09.2E01.5Cmake.5Cobj.5CEcuabCryIf.23::
                         421 .LDWlin23:
000001a4 e039            422 	cmp	zero,r7
000001a6 024a            423 	mov	2,r9
000001a8 c205*           424 	be	.L919
                         425 --line402
                         426 ..lin.C.3A.5C_ECU2.5CECU_Rivian_A1.5CTarget.5Crepo_projects.5CpFOTA.5CcL_R2023.2E09.2E01.5Cmake.5Cobj.5CEcuabCryIf.24::
                         427 .LDWlin24:
000001aa 6232            428 	cmp	2,r6
000001ac 910d*           429 	bl	.L907
000001ae 034a            430 	mov	3,r9
                         431 .L919:
                         432 --line445
                         433 ..lin.C.3A.5C_ECU2.5CECU_Rivian_A1.5CTarget.5Crepo_projects.5CpFOTA.5CcL_R2023.2E09.2E01.5Cmake.5Cobj.5CEcuabCryIf.25::
                         434 .LDWlin25:
000001b0 20367000        435 	movea	112,zero,r6
000001b4 003a            436 	mov	0,r7
000001b6 0342            437 	mov	3,r8
                         438 	jarl	_Det_ReportError,lp
                         438 <EXPANSION BEGIN>
                         438 jarl22 _Det_ReportError , lp 
000001b8 80ff0000*       438 <EXPANSION END>
000001bc 8535*           439 	br	.L918
                         440 .L907:
                         441 --line408
                         442 ..lin.C.3A.5C_ECU2.5CECU_Rivian_A1.5CTarget.5Crepo_projects.5CpFOTA.5CcL_R2023.2E09.2E01.5Cmake.5Cobj.5CEcuabCryIf.26::
                         443 .LDWlin26:
000001be 208d            444 	sld.w	64[ep],r17
000001c0 31970d00        445 	ld.w	12[r17],r18
000001c4 6792            446 	cmp	7,r18
000001c6 a92d*           447 	bnl	.L910
                         448 --line409
                         449 ..lin.C.3A.5C_ECU2.5CECU_Rivian_A1.5CTarget.5Crepo_projects.5CpFOTA.5CcL_R2023.2E09.2E01.5Cmake.5Cobj.5CEcuabCryIf.27::
                         450 .LDWlin27:
000001c8 31470500        451 	ld.w	4[r17],r8
000001cc 330600000000*   452 	mov	rosdaoff23(_CryIf_Key),r19
000001d2 88470500        453 	ld.bu	4[r8],r8
000001d6 6c42            454 	cmp	12,r8
000001d8 f905*           455 	bnl	.L912
                         456 --line411
                         457 ..lin.C.3A.5C_ECU2.5CECU_Rivian_A1.5CTarget.5Crepo_projects.5CpFOTA.5CcL_R2023.2E09.2E01.5Cmake.5Cobj.5CEcuabCryIf.28::
                         458 .LDWlin28:
000001da c392            459 	shl	3,r18
000001dc d391            460 	add	r19,r18
000001de 32870100        461 	ld.w	0[r18],r16
000001e2 2585            462 	sst.w	r16,72[ep]
000001e4 f50d*           463 	br	.L914
                         464 .L912:
                         465 --line415
                         466 ..lin.C.3A.5C_ECU2.5CECU_Rivian_A1.5CTarget.5Crepo_projects.5CpFOTA.5CcL_R2023.2E09.2E01.5Cmake.5Cobj.5CEcuabCryIf.29::
                         467 .LDWlin29:
000001e6 1c8d            468 	sld.w	56[ep],r17
000001e8 c38a            469 	shl	3,r17
000001ea d389            470 	add	r19,r17
000001ec 317f0100        471 	ld.w	0[r17],r15

                                                                      Page 9
                                                              C:\Users\nhuliyap\AppData\Local\Temp\gh_0000d481.s
000001f0 6e42            472 	cmp	14,r8
000001f2 257d            473 	sst.w	r15,72[ep]
000001f4 fa05*           474 	bne	.L914
                         475 --line419
                         476 ..lin.C.3A.5C_ECU2.5CECU_Rivian_A1.5CTarget.5Crepo_projects.5CpFOTA.5CcL_R2023.2E09.2E01.5Cmake.5Cobj.5CEcuabCryIf.30::
                         477 .LDWlin30:
000001f6 1e85            478 	sld.w	60[ep],r16
000001f8 c382            479 	shl	3,r16
000001fa d381            480 	add	r19,r16
000001fc 306f0100        481 	ld.w	0[r16],r13
00000200 276d            482 	sst.w	r13,76[ep]
                         483 .L914:
00000202 c332            484 	shl	3,r6
00000204 c531            485 	add	r5,r6
00000206 860709300000*   486 	ld.w	rosdaoff23(_CryIf_Channel)[r6],r6
0000020c 850709e80000*   487 	ld.w	rosdaoff23(_CryIf_CryptoFunctions+4)[r5],r29
00000212 fdc760f9        488 	jarl	[r29],lp
00000216 0ae8            489 	mov	r10,r29
00000218 a505*           490 	br	.L918
                         491 .L910:
                         492 --line439
                         493 ..lin.C.3A.5C_ECU2.5CECU_Rivian_A1.5CTarget.5Crepo_projects.5CpFOTA.5CcL_R2023.2E09.2E01.5Cmake.5Cobj.5CEcuabCryIf.31::
                         494 .LDWlin31:
0000021a 08ea            495 	mov	8,r29
                         496 .L918:
0000021c 1d50            497 	mov	r29,r10
                         498 --	    .ef
                         499 .LDW62:
0000021e 40067f00        500 	dispose	0,{r29,r31},[lp]
                         501 	.type	_EcuabCryIf_CancelJob,@function
                         502 	.size	_EcuabCryIf_CancelJob,.-_EcuabCryIf_CancelJob
                         503 	.align	2
                         504 .LDW72:
                         505 --_retVal	r29	local
                         506 --_errorId	r9	local
                         507 
                         508 --_channelId	r6	param
                         509 --_job	ep	param
                         510 
                         511 	.section ".bss","awb"
                         512 .L1086:
                         513 	.type	.L1086,@object
                         514 	.size	.L1086,0
                         515 	.data
                         516 	.text
                         517 	.align	2
                         518 	.align	2
                         519 ..gh.f.f.1.e.6:
                         520 	.type	..gh.f.f.1.e.6,@object
                         521 	.size	..gh.f.f.1.e.6,0
                         522 	.global	_CryIf_KeyElementSet
                         523 _CryIf_KeyElementSet:
00000222 80076100        524 	prepare	{r29,r31},0
00000226 0998            525 	mov	r9,r19
                         526 --	    .bf
                         527 .LDW82:
00000228 a40705480000*   528 	ld.bu	sdaoff23(_CryIf_ModuleInitialized)[gp],r9
0000022e 01ea            529 	mov	1,r29
00000230 e049            530 	cmp	zero,r9
00000232 f205*           531 	be	.L1234
                         532 --line467

                                                                      Page 10
                                                              C:\Users\nhuliyap\AppData\Local\Temp\gh_0000d481.s
                         533 ..lin.C.3A.5C_ECU2.5CECU_Rivian_A1.5CTarget.5Crepo_projects.5CpFOTA.5CcL_R2023.2E09.2E01.5Cmake.5Cobj.5CEcuabCryIf.32::
                         534 .LDWlin32:
00000234 e041            535 	cmp	zero,r8
00000236 024a            536 	mov	2,r9
00000238 c205*           537 	be	.L1234
                         538 --line471
                         539 ..lin.C.3A.5C_ECU2.5CECU_Rivian_A1.5CTarget.5Crepo_projects.5CpFOTA.5CcL_R2023.2E09.2E01.5Cmake.5Cobj.5CEcuabCryIf.33::
                         540 .LDWlin33:
0000023a e099            541 	cmp	zero,r19
0000023c 9a0d*           542 	bne	.L1227
0000023e 044a            543 	mov	4,r9
                         544 .L1234:
                         545 --line489
                         546 ..lin.C.3A.5C_ECU2.5CECU_Rivian_A1.5CTarget.5Crepo_projects.5CpFOTA.5CcL_R2023.2E09.2E01.5Cmake.5Cobj.5CEcuabCryIf.34::
                         547 .LDWlin34:
00000240 20367000        548 	movea	112,zero,r6
00000244 003a            549 	mov	0,r7
00000246 0442            550 	mov	4,r8
                         551 	jarl	_Det_ReportError,lp
                         551 <EXPANSION BEGIN>
                         551 jarl22 _Det_ReportError , lp 
00000248 80ff0000*       551 <EXPANSION END>
0000024c 8515*           552 	br	.L1233
                         553 .L1227:
                         554 --line475
                         555 ..lin.C.3A.5C_ECU2.5CECU_Rivian_A1.5CTarget.5Crepo_projects.5CpFOTA.5CcL_R2023.2E09.2E01.5Cmake.5Cobj.5CEcuabCryIf.35::
                         556 .LDWlin35:
0000024e 6732            557 	cmp	7,r6
00000250 034a            558 	mov	3,r9
00000252 f9f5*           559 	bnl	.L1234
                         560 --line481
                         561 ..lin.C.3A.5C_ECU2.5CECU_Rivian_A1.5CTarget.5Crepo_projects.5CpFOTA.5CcL_R2023.2E09.2E01.5Cmake.5Cobj.5CEcuabCryIf.36::
                         562 .LDWlin36:
00000254 c332            563 	shl	3,r6
00000256 c531            564 	add	r5,r6
00000258 860709300000*   565 	ld.w	rosdaoff23(_CryIf_Key)[r6],r6
0000025e 850709e80000*   566 	ld.w	rosdaoff23(_CryIf_CryptoFunctions+40)[r5],r29
00000264 1348            567 	mov	r19,r9
00000266 fdc760f9        568 	jarl	[r29],lp
0000026a 0ae8            569 	mov	r10,r29
                         570 .L1233:
                         571 --line495
                         572 ..lin.C.3A.5C_ECU2.5CECU_Rivian_A1.5CTarget.5Crepo_projects.5CpFOTA.5CcL_R2023.2E09.2E01.5Cmake.5Cobj.5CEcuabCryIf.37::
                         573 .LDWlin37:
0000026c 1d50            574 	mov	r29,r10
                         575 --	    .ef
                         576 .LDW92:
0000026e 40067f00        577 	dispose	0,{r29,r31},[lp]
                         578 	.type	_CryIf_KeyElementSet,@function
                         579 	.size	_CryIf_KeyElementSet,.-_CryIf_KeyElementSet
                         580 	.align	2
                         581 .LDW03:
                         582 --_retVal	r29	local
                         583 --_errorId	r9	local
                         584 
                         585 --_cryIfKeyId	r6	param
                         586 --_keyElementId	r7	param
                         587 --_keyPtr	r8	param
                         588 --_keyLength	r19	param
                         589 
                         590 	.section ".bss","awb"

                                                                      Page 11
                                                              C:\Users\nhuliyap\AppData\Local\Temp\gh_0000d481.s
                         591 .L1356:
                         592 	.type	.L1356,@object
                         593 	.size	.L1356,0
                         594 	.data
                         595 	.text
                         596 	.align	2
                         597 	.align	2
                         598 ..gh.f.f.1.e.7:
                         599 	.type	..gh.f.f.1.e.7,@object
                         600 	.size	..gh.f.f.1.e.7,0
                         601 	.global	_CryIf_KeySetValid
                         602 _CryIf_KeySetValid:
00000272 80076100        603 	prepare	{r29,r31},0
                         604 --	    .bf
                         605 .LDW13:
00000276 a40705480000*   606 	ld.bu	sdaoff23(_CryIf_ModuleInitialized)[gp],r9
0000027c 01ea            607 	mov	1,r29
0000027e e049            608 	cmp	zero,r9
00000280 8215*           609 	be	.L1458
                         610 --line508
                         611 ..lin.C.3A.5C_ECU2.5CECU_Rivian_A1.5CTarget.5Crepo_projects.5CpFOTA.5CcL_R2023.2E09.2E01.5Cmake.5Cobj.5CEcuabCryIf.38::
                         612 .LDWlin38:
00000282 6732            613 	cmp	7,r6
00000284 034a            614 	mov	3,r9
00000286 d90d*           615 	bnl	.L1458
                         616 --line514
                         617 ..lin.C.3A.5C_ECU2.5CECU_Rivian_A1.5CTarget.5Crepo_projects.5CpFOTA.5CcL_R2023.2E09.2E01.5Cmake.5Cobj.5CEcuabCryIf.39::
                         618 .LDWlin39:
00000288 c332            619 	shl	3,r6
0000028a c531            620 	add	r5,r6
0000028c 860709300000*   621 	ld.w	rosdaoff23(_CryIf_Key)[r6],r6
00000292 850709e80000*   622 	ld.w	rosdaoff23(_CryIf_CryptoFunctions+56)[r5],r29
00000298 fdc760f9        623 	jarl	[r29],lp
0000029c 0ae8            624 	mov	r10,r29
0000029e f505*           625 	br	.L1457
                         626 .L1458:
                         627 --line519
                         628 ..lin.C.3A.5C_ECU2.5CECU_Rivian_A1.5CTarget.5Crepo_projects.5CpFOTA.5CcL_R2023.2E09.2E01.5Cmake.5Cobj.5CEcuabCryIf.40::
                         629 .LDWlin40:
000002a0 20367000        630 	movea	112,zero,r6
000002a4 003a            631 	mov	0,r7
000002a6 0542            632 	mov	5,r8
                         633 	jarl	_Det_ReportError,lp
                         633 <EXPANSION BEGIN>
                         633 jarl22 _Det_ReportError , lp 
000002a8 80ff0000*       633 <EXPANSION END>
                         634 .L1457:
                         635 --line525
                         636 ..lin.C.3A.5C_ECU2.5CECU_Rivian_A1.5CTarget.5Crepo_projects.5CpFOTA.5CcL_R2023.2E09.2E01.5Cmake.5Cobj.5CEcuabCryIf.41::
                         637 .LDWlin41:
000002ac 1d50            638 	mov	r29,r10
                         639 --	    .ef
                         640 .LDW23:
000002ae 40067f00        641 	dispose	0,{r29,r31},[lp]
                         642 	.type	_CryIf_KeySetValid,@function
                         643 	.size	_CryIf_KeySetValid,.-_CryIf_KeySetValid
                         644 	.align	2
                         645 .LDW33:
                         646 --_retVal	r29	local
                         647 --_errorId	r9	local
                         648 

                                                                      Page 12
                                                              C:\Users\nhuliyap\AppData\Local\Temp\gh_0000d481.s
                         649 --_cryIfKeyId	r6	param
                         650 
                         651 	.section ".bss","awb"
                         652 .L1548:
                         653 	.type	.L1548,@object
                         654 	.size	.L1548,0
                         655 	.data
                         656 	.text
                         657 	.align	2
                         658 	.align	2
                         659 ..gh.f.f.1.e.8:
                         660 	.type	..gh.f.f.1.e.8,@object
                         661 	.size	..gh.f.f.1.e.8,0
                         662 	.global	_CryIf_KeyElementGet
                         663 _CryIf_KeyElementGet:
000002b2 80076100        664 	prepare	{r29,r31},0
000002b6 09f0            665 	mov	r9,ep
                         666 --	    .bf
                         667 .LDW43:
000002b8 a40705480000*   668 	ld.bu	sdaoff23(_CryIf_ModuleInitialized)[gp],r9
000002be 01ea            669 	mov	1,r29
000002c0 e049            670 	cmp	zero,r9
000002c2 e205*           671 	be	.L1629
                         672 --line541
                         673 ..lin.C.3A.5C_ECU2.5CECU_Rivian_A1.5CTarget.5Crepo_projects.5CpFOTA.5CcL_R2023.2E09.2E01.5Cmake.5Cobj.5CEcuabCryIf.42::
                         674 .LDWlin42:
000002c4 024a            675 	mov	2,r9
000002c6 e041            676 	cmp	zero,r8
000002c8 b205*           677 	be	.L1629
000002ca e0f1            678 	cmp	zero,ep
000002cc 8a0d*           679 	bne	.L1618
                         680 .L1629:
                         681 --line563
                         682 ..lin.C.3A.5C_ECU2.5CECU_Rivian_A1.5CTarget.5Crepo_projects.5CpFOTA.5CcL_R2023.2E09.2E01.5Cmake.5Cobj.5CEcuabCryIf.43::
                         683 .LDWlin43:
000002ce 20367000        684 	movea	112,zero,r6
000002d2 003a            685 	mov	0,r7
000002d4 0642            686 	mov	6,r8
                         687 	jarl	_Det_ReportError,lp
                         687 <EXPANSION BEGIN>
                         687 jarl22 _Det_ReportError , lp 
000002d6 80ff0000*       687 <EXPANSION END>
000002da d515*           688 	br	.L1628
                         689 .L1618:
                         690 --line545
                         691 ..lin.C.3A.5C_ECU2.5CECU_Rivian_A1.5CTarget.5Crepo_projects.5CpFOTA.5CcL_R2023.2E09.2E01.5Cmake.5Cobj.5CEcuabCryIf.44::
                         692 .LDWlin44:
000002dc 009d            693 	sld.w	0[ep],r19
000002de 044a            694 	mov	4,r9
000002e0 e099            695 	cmp	zero,r19
000002e2 e2f5*           696 	be	.L1629
                         697 --line549
                         698 ..lin.C.3A.5C_ECU2.5CECU_Rivian_A1.5CTarget.5Crepo_projects.5CpFOTA.5CcL_R2023.2E09.2E01.5Cmake.5Cobj.5CEcuabCryIf.45::
                         699 .LDWlin45:
000002e4 6732            700 	cmp	7,r6
000002e6 e34f124b        701 	cmovnl	3,r9,r9
000002ea a9f5*           702 	bnl	.L1629
                         703 --line555
                         704 ..lin.C.3A.5C_ECU2.5CECU_Rivian_A1.5CTarget.5Crepo_projects.5CpFOTA.5CcL_R2023.2E09.2E01.5Cmake.5Cobj.5CEcuabCryIf.46::
                         705 .LDWlin46:
000002ec c332            706 	shl	3,r6

                                                                      Page 13
                                                              C:\Users\nhuliyap\AppData\Local\Temp\gh_0000d481.s
000002ee c531            707 	add	r5,r6
000002f0 860709300000*   708 	ld.w	rosdaoff23(_CryIf_Key)[r6],r6
000002f6 850709e80000*   709 	ld.w	rosdaoff23(_CryIf_CryptoFunctions+32)[r5],r29
000002fc 1e48            710 	mov	ep,r9
000002fe fdc760f9        711 	jarl	[r29],lp
00000302 0ae8            712 	mov	r10,r29
                         713 .L1628:
                         714 --line569
                         715 ..lin.C.3A.5C_ECU2.5CECU_Rivian_A1.5CTarget.5Crepo_projects.5CpFOTA.5CcL_R2023.2E09.2E01.5Cmake.5Cobj.5CEcuabCryIf.47::
                         716 .LDWlin47:
00000304 1d50            717 	mov	r29,r10
                         718 --	    .ef
                         719 .LDW53:
00000306 40067f00        720 	dispose	0,{r29,r31},[lp]
                         721 	.type	_CryIf_KeyElementGet,@function
                         722 	.size	_CryIf_KeyElementGet,.-_CryIf_KeyElementGet
                         723 	.align	2
                         724 .LDW63:
                         725 --_retVal	r29	local
                         726 --_errorId	r9	local
                         727 
                         728 --_cryIfKeyId	r6	param
                         729 --_keyElementId	r7	param
                         730 --_resultPtr	r8	param
                         731 --_resultLengthPtr	ep	param
                         732 
                         733 	.section ".bss","awb"
                         734 .L1763:
                         735 	.type	.L1763,@object
                         736 	.size	.L1763,0
                         737 	.data
                         738 	.text
                         739 	.align	2
                         740 	.align	2
                         741 ..gh.f.f.1.e.9:
                         742 	.type	..gh.f.f.1.e.9,@object
                         743 	.size	..gh.f.f.1.e.9,0
                         744 	.global	_CryIf_KeyElementCopy
                         745 _CryIf_KeyElementCopy:
0000030a 9207e130        746 	prepare	{r26,r27,r28,r29,r31},9
0000030e 0790            747 	mov	r7,r18
00000310 09d8            748 	mov	r9,r27
                         749 --	    .bf
                         750 .LDW73:
00000312 a40705480000*   751 	ld.bu	sdaoff23(_CryIf_ModuleInitialized)[gp],r9
00000318 01ea            752 	mov	1,r29
0000031a e049            753 	cmp	zero,r9
0000031c e205*           754 	be	.L1884
                         755 --line585
                         756 ..lin.C.3A.5C_ECU2.5CECU_Rivian_A1.5CTarget.5Crepo_projects.5CpFOTA.5CcL_R2023.2E09.2E01.5Cmake.5Cobj.5CEcuabCryIf.48::
                         757 .LDWlin48:
0000031e 034a            758 	mov	3,r9
00000320 6732            759 	cmp	7,r6
00000322 b905*           760 	bnl	.L1884
00000324 6742            761 	cmp	7,r8
00000326 810d*           762 	bl	.L1874
                         763 .L1884:
                         764 --	    .es
                         765 .LDW83:
                         766 --	    .es
                         767 .LDW93:

                                                                      Page 14
                                                              C:\Users\nhuliyap\AppData\Local\Temp\gh_0000d481.s
                         768 --line613
                         769 ..lin.C.3A.5C_ECU2.5CECU_Rivian_A1.5CTarget.5Crepo_projects.5CpFOTA.5CcL_R2023.2E09.2E01.5Cmake.5Cobj.5CEcuabCryIf.49::
                         770 .LDWlin49:
00000328 20367000        771 	movea	112,zero,r6
0000032c 003a            772 	mov	0,r7
0000032e 0f42            773 	mov	15,r8
                         774 	jarl	_Det_ReportError,lp
                         774 <EXPANSION BEGIN>
                         774 jarl22 _Det_ReportError , lp 
00000330 80ff0000*       774 <EXPANSION END>
00000334 e535*           775 	br	.L1883
                         776 .L1874:
                         777 --	    .bs
                         778 .LDW04:
                         779 --line595
                         780 ..lin.C.3A.5C_ECU2.5CECU_Rivian_A1.5CTarget.5Crepo_projects.5CpFOTA.5CcL_R2023.2E09.2E01.5Cmake.5Cobj.5CEcuabCryIf.50::
                         781 .LDWlin50:
00000336 08f0            782 	mov	r8,ep
00000338 c332            783 	shl	3,r6
0000033a 270600000000*   784 	mov	rosdaoff23(_CryIf_Key),r7
00000340 c3f2            785 	shl	3,ep
00000342 c731            786 	add	r7,r6
00000344 c7f1            787 	add	r7,ep
00000346 269f0100        788 	ld.w	0[r6],r19
0000034a 6488            789 	sld.bu	4[ep],r17
0000034c 86870500        790 	ld.bu	4[r6],r16
00000350 00e5            791 	sld.w	0[ep],r28
00000352 1330            792 	mov	r19,r6
00000354 1238            793 	mov	r18,r7
00000356 f181            794 	cmp	r17,r16
00000358 aa0d*           795 	bne	.L1878
                         796 --line598
                         797 ..lin.C.3A.5C_ECU2.5CECU_Rivian_A1.5CTarget.5Crepo_projects.5CpFOTA.5CcL_R2023.2E09.2E01.5Cmake.5Cobj.5CEcuabCryIf.51::
                         798 .LDWlin51:
0000035a 850709e80000*   799 	ld.w	rosdaoff23(_CryIf_CryptoFunctions+24)[r5],r29
00000360 1c40            800 	mov	r28,r8
00000362 1b48            801 	mov	r27,r9
00000364 fdc760f9        802 	jarl	[r29],lp
00000368 0ae8            803 	mov	r10,r29
0000036a b51d*           804 	br	.L1883
                         805 .L1878:
                         806 --	    .bs
                         807 .LDW14:
                         808 --line604
                         809 ..lin.C.3A.5C_ECU2.5CECU_Rivian_A1.5CTarget.5Crepo_projects.5CpFOTA.5CcL_R2023.2E09.2E01.5Cmake.5Cobj.5CEcuabCryIf.52::
                         810 .LDWlin52:
0000036c 850709d00000*   811 	ld.w	rosdaoff23(_CryIf_CryptoFunctions+32)[r5],r26
00000372 207e2000        812 	movea	32,zero,r15
00000376 637f0100        813 	st.w	r15,0[sp]
0000037a 23460400        814 	movea	4,sp,r8
0000037e 0348            815 	mov	sp,r9
00000380 fac760f9        816 	jarl	[r26],lp
00000384 e051            817 	cmp	zero,r10
00000386 da0d*           818 	bne	.L1883
                         819 --line606
                         820 ..lin.C.3A.5C_ECU2.5CECU_Rivian_A1.5CTarget.5Crepo_projects.5CpFOTA.5CcL_R2023.2E09.2E01.5Cmake.5Cobj.5CEcuabCryIf.53::
                         821 .LDWlin53:
00000388 234f0100        822 	ld.w	0[sp],r9
0000038c 850709e80000*   823 	ld.w	rosdaoff23(_CryIf_CryptoFunctions+40)[r5],r29
00000392 1c30            824 	mov	r28,r6
00000394 1b38            825 	mov	r27,r7

                                                                      Page 15
                                                              C:\Users\nhuliyap\AppData\Local\Temp\gh_0000d481.s
00000396 23460400        826 	movea	4,sp,r8
0000039a fdc760f9        827 	jarl	[r29],lp
0000039e 0ae8            828 	mov	r10,r29
                         829 .L1883:
                         830 --line619
                         831 ..lin.C.3A.5C_ECU2.5CECU_Rivian_A1.5CTarget.5Crepo_projects.5CpFOTA.5CcL_R2023.2E09.2E01.5Cmake.5Cobj.5CEcuabCryIf.54::
                         832 .LDWlin54:
000003a0 1d50            833 	mov	r29,r10
                         834 --	    .ef
                         835 .LDW24:
000003a2 5206ff30        836 	dispose	9,{r26,r27,r28,r29,r31},[lp]
                         837 	.type	_CryIf_KeyElementCopy,@function
                         838 	.size	_CryIf_KeyElementCopy,.-_CryIf_KeyElementCopy
                         839 	.align	2
                         840 .LDW34:
                         841 --_retVal	r29	local
                         842 --_errorId	r9	local
                         843 --_cryptoKeyIdSrc	r19	local
                         844 --_cryptoKeyIdDst	r28	local
                         845 --_buffer	4[sp]	local
                         846 --_bufferSize	0[sp]	local
                         847 
                         848 --_cryIfKeyId	r6	param
                         849 --_keyElementId	r18	param
                         850 --_targetCryIfKeyId	r8	param
                         851 --_targetKeyElementId	r27	param
                         852 
                         853 	.section ".bss","awb"
                         854 .L2028:
                         855 	.type	.L2028,@object
                         856 	.size	.L2028,0
                         857 	.data
                         858 	.text
                         859 	.align	2
                         860 	.align	2
                         861 ..gh.f.f.1.e.10:
                         862 	.type	..gh.f.f.1.e.10,@object
                         863 	.size	..gh.f.f.1.e.10,0
                         864 	.global	_CryIf_KeyElementCopyPartial_Stub
                         865 _CryIf_KeyElementCopyPartial_Stub:
                         866 --	    .bf
                         867 .LDW44:
000003a6 0152            868 	mov	1,r10
                         869 --	    .ef
                         870 .LDW54:
000003a8 7f00            871 	jmp	[lp]
                         872 	.type	_CryIf_KeyElementCopyPartial_Stub,@function
                         873 	.size	_CryIf_KeyElementCopyPartial_Stub,.-_CryIf_KeyElementCopyPartial_Stub
                         874 	.align	2
                         875 .LDW64:
                         876 
                         877 --_cryIfKeyId	none	param
                         878 --_keyElementId	none	param
                         879 --_keyElementSourceOffset	none	param
                         880 --_keyElementTargetOffset	none	param
                         881 --_keyElementCopyLength	none	param
                         882 --_targetCryIfKeyId	none	param
                         883 --_targetKeyElementId	none	param
                         884 
                         885 	.section ".bss","awb"
                         886 .L2161:

                                                                      Page 16
                                                              C:\Users\nhuliyap\AppData\Local\Temp\gh_0000d481.s
                         887 	.type	.L2161,@object
                         888 	.size	.L2161,0
                         889 	.data
                         890 	.text
                         891 	.align	2
                         892 	.align	2
                         893 ..gh.f.f.1.e.11:
                         894 	.type	..gh.f.f.1.e.11,@object
                         895 	.size	..gh.f.f.1.e.11,0
                         896 	.global	_CryIf_KeyElementCopyPartial
                         897 _CryIf_KeyElementCopyPartial:
000003aa aa07e1f1        898 	prepare	{r23,r24,r25,r26,r27,r28,r29,r31},21
000003ae 23d77500        899 	ld.w	116[sp],r26
000003b2 08c0            900 	mov	r8,r24
000003b4 09e0            901 	mov	r9,r28
000003b6 23f77900        902 	ld.w	120[sp],ep
000003ba 23bf7d00        903 	ld.w	124[sp],r23
                         904 --	    .bf
                         905 .LDW74:
000003be a40705480000*   906 	ld.bu	sdaoff23(_CryIf_ModuleInitialized)[gp],r9
000003c4 01ea            907 	mov	1,r29
000003c6 e049            908 	cmp	zero,r9
000003c8 e205*           909 	be	.L2215
                         910 --line656
                         911 ..lin.C.3A.5C_ECU2.5CECU_Rivian_A1.5CTarget.5Crepo_projects.5CpFOTA.5CcL_R2023.2E09.2E01.5Cmake.5Cobj.5CEcuabCryIf.55::
                         912 .LDWlin55:
000003ca 034a            913 	mov	3,r9
000003cc 6732            914 	cmp	7,r6
000003ce b905*           915 	bnl	.L2215
000003d0 67f2            916 	cmp	7,ep
000003d2 a10d*           917 	bl	.L2184
                         918 .L2215:
                         919 --	    .es
                         920 .LDW84:
                         921 --line678
                         922 ..lin.C.3A.5C_ECU2.5CECU_Rivian_A1.5CTarget.5Crepo_projects.5CpFOTA.5CcL_R2023.2E09.2E01.5Cmake.5Cobj.5CEcuabCryIf.56::
                         923 .LDWlin56:
000003d4 20367000        924 	movea	112,zero,r6
000003d8 003a            925 	mov	0,r7
000003da 20461200        926 	movea	18,zero,r8
                         927 	jarl	_Det_ReportError,lp
                         927 <EXPANSION BEGIN>
                         927 jarl22 _Det_ReportError , lp 
000003de 80ff0000*       927 <EXPANSION END>
000003e2 80070601*       928 	br	.L2214
                         929 .L2184:
                         930 --	    .bs
                         931 .LDW94:
                         932 --line665
                         933 ..lin.C.3A.5C_ECU2.5CECU_Rivian_A1.5CTarget.5Crepo_projects.5CpFOTA.5CcL_R2023.2E09.2E01.5Cmake.5Cobj.5CEcuabCryIf.57::
                         934 .LDWlin57:
000003e6 c332            935 	shl	3,r6
000003e8 330600000000*   936 	mov	rosdaoff23(_CryIf_Key),r19
000003ee d331            937 	add	r19,r6
000003f0 26470100        938 	ld.w	0[r6],r8
000003f4 c3f2            939 	shl	3,ep
000003f6 d3f1            940 	add	r19,ep
000003f8 6480            941 	sld.bu	4[ep],r16
000003fa 867f0500        942 	ld.bu	4[r6],r15
000003fe 00cd            943 	sld.w	0[ep],r25
00000400 f079            944 	cmp	r16,r15

                                                                      Page 17
                                                              C:\Users\nhuliyap\AppData\Local\Temp\gh_0000d481.s
00000402 ca15*           945 	bne	.L2194
00000404 a50705700000*   946 	ld.bu	rosdaoff23(_CryIf_CryptoFunctions)[r5],r14
0000040a e071            947 	cmp	zero,r14
0000040c f20d*           948 	be	.L2194
                         949 --line669
                         950 ..lin.C.3A.5C_ECU2.5CECU_Rivian_A1.5CTarget.5Crepo_projects.5CpFOTA.5CcL_R2023.2E09.2E01.5Cmake.5Cobj.5CEcuabCryIf.58::
                         951 .LDWlin58:
0000040e 850709e80000*   952 	ld.w	rosdaoff23(_CryIf_CryptoFunctions+28)[r5],r29
00000414 0830            953 	mov	r8,r6
00000416 03f0            954 	mov	sp,ep
00000418 1840            955 	mov	r24,r8
0000041a 1c48            956 	mov	r28,r9
0000041c 01d5            957 	sst.w	r26,0[ep]
0000041e 03cd            958 	sst.w	r25,4[ep]
00000420 05bd            959 	sst.w	r23,8[ep]
00000422 fdc760f9        960 	jarl	[r29],lp
00000426 0ae8            961 	mov	r10,r29
00000428 8565*           962 	br	.L2214
                         963 .L2194:
                         964 --line672
                         965 ..lin.C.3A.5C_ECU2.5CECU_Rivian_A1.5CTarget.5Crepo_projects.5CpFOTA.5CcL_R2023.2E09.2E01.5Cmake.5Cobj.5CEcuabCryIf.59::
                         966 .LDWlin59:
0000042a 1ae8            967 	mov	r26,r29
0000042c dce9            968 	add	r28,r29
0000042e 20962000        969 	movea	32,zero,r18
00000432 03f0            970 	mov	sp,ep
00000434 1d06dfff        971 	addi	-33,r29,zero
00000438 0795            972 	sst.w	r18,12[ep]
0000043a 0995            973 	sst.w	r18,16[ep]
0000043c e1ef02eb        974 	cmovl	1,r29,r29
00000440 c155*           975 	bl	.L2214
00000442 850709d80000*   976 	ld.w	rosdaoff23(_CryIf_CryptoFunctions+32)[r5],r27
00000448 0830            977 	mov	r8,r6
0000044a 23463400        978 	movea	52,sp,r8
0000044e 234e0c00        979 	movea	12,sp,r9
00000452 fbc760f9        980 	jarl	[r27],lp
00000456 e051            981 	cmp	zero,r10
00000458 eaef34eb        982 	cmovne	r10,r29,r29
0000045c ea45*           983 	bne	.L2214
0000045e 236f0d00        984 	ld.w	12[sp],r13
00000462 1a98            985 	mov	r26,r19
00000464 d899            986 	add	r24,r19
00000466 ed99            987 	cmp	r13,r19
00000468 e1ef16eb        988 	cmovh	1,r29,r29
0000046c eb3d*           989 	bh	.L2214
0000046e 1930            990 	mov	r25,r6
00000470 1738            991 	mov	r23,r7
00000472 23461400        992 	movea	20,sp,r8
00000476 234e1000        993 	movea	16,sp,r9
0000047a fbc760f9        994 	jarl	[r27],lp
0000047e e051            995 	cmp	zero,r10
00000480 d205*           996 	be	.L2199
00000482 6d52            997 	cmp	13,r10
00000484 9a35*           998 	bne	.L2192
00000486 63071100        999 	st.w	zero,16[sp]
                        1000 .L2199:
0000048a 234f1100       1001 	ld.w	16[sp],r9
0000048e 009a           1002 	mov	0,r19
00000490 fc49           1003 	cmp	r28,r9
00000492 a91d*          1004 	bnl	.L2207
00000494 233e1400       1005 	movea	20,sp,r7

                                                                      Page 18
                                                              C:\Users\nhuliyap\AppData\Local\Temp\gh_0000d481.s
00000498 1c30           1006 	mov	r28,r6
0000049a c939           1007 	add	r9,r7
0000049c a931           1008 	sub	r9,r6
0000049e 1340           1009 	mov	r19,r8
                        1010 .L2203:
000004a0 e641           1011 	cmp	r6,r8
000004a2 a915*          1012 	bnl	.L2207
000004a4 08f0           1013 	mov	r8,ep
000004a6 c7f1           1014 	add	r7,ep
000004a8 8003           1015 	sst.b	zero,0[ep]
000004aa 4142           1016 	add	1,r8
000004ac a5fd*          1017 	br	.L2203
                        1018 .L2206:
000004ae 238e3400       1019 	movea	52,sp,r17
000004b2 d889           1020 	add	r24,r17
000004b4 1380           1021 	mov	r19,r16
000004b6 d181           1022 	add	r17,r16
000004b8 905f0100       1023 	ld.bu	0[r16],r11
000004bc dc41           1024 	add	r28,r8
000004be 13f0           1025 	mov	r19,ep
000004c0 c8f1           1026 	add	r8,ep
000004c2 805b           1027 	sst.b	r11,0[ep]
000004c4 419a           1028 	add	1,r19
                        1029 .L2207:
000004c6 23461400       1030 	movea	20,sp,r8
000004ca fa99           1031 	cmp	r26,r19
000004cc 91f5*          1032 	bl	.L2206
000004ce e9e9           1033 	cmp	r9,r29
000004d0 e9ef264b       1034 	cmovnh	r9,r29,r9
000004d4 850709e80000*  1035 	ld.w	rosdaoff23(_CryIf_CryptoFunctions+40)[r5],r29
000004da 634f1100       1036 	st.w	r9,16[sp]
000004de 1930           1037 	mov	r25,r6
000004e0 1738           1038 	mov	r23,r7
000004e2 fdc760f9       1039 	jarl	[r29],lp
                        1040 .L2192:
000004e6 0ae8           1041 	mov	r10,r29
                        1042 .L2214:
                        1043 --line684
                        1044 ..lin.C.3A.5C_ECU2.5CECU_Rivian_A1.5CTarget.5Crepo_projects.5CpFOTA.5CcL_R2023.2E09.2E01.5Cmake.5Cobj.5CEcuabCryIf.60::
                        1045 .LDWlin60:
000004e8 1d50           1046 	mov	r29,r10
                        1047 --	    .ef
                        1048 .LDW05:
000004ea 6a06fff1       1049 	dispose	21,{r23,r24,r25,r26,r27,r28,r29,r31},[lp]
                        1050 	.type	_CryIf_KeyElementCopyPartial,@function
                        1051 	.size	_CryIf_KeyElementCopyPartial,.-_CryIf_KeyElementCopyPartial
                        1052 	.align	2
                        1053 .LDW15:
                        1054 --_retVal	r29	local
                        1055 --_errorId	r9	local
                        1056 --_cryptoKeyIdSrc	r8	local
                        1057 --_cryptoKeyIdDst	r25	local
                        1058 --_retVal	r10	local
                        1059 --_bufferSrc	52[sp]	local
                        1060 --_bufferDst	20[sp]	local
                        1061 --_bufferSizeSrc	12[sp]	local
                        1062 --_bufferSizeDst	16[sp]	local
                        1063 --_dst	r7	local
                        1064 --_count	r6	local
                        1065 --_i	r8	local
                        1066 --_i	r19	local

                                                                      Page 19
                                                              C:\Users\nhuliyap\AppData\Local\Temp\gh_0000d481.s
                        1067 
                        1068 --_cryIfKeyId	r6	param
                        1069 --_keyElementId	r7	param
                        1070 --_keyElementSourceOffset	r24	param
                        1071 --_keyElementTargetOffset	r28	param
                        1072 --_keyElementCopyLength	r26	param
                        1073 --_targetCryIfKeyId	ep	param
                        1074 --_targetKeyElementId	r23	param
                        1075 
                        1076 	.section ".bss","awb"
                        1077 .L2503:
                        1078 	.type	.L2503,@object
                        1079 	.size	.L2503,0
                        1080 	.data
                        1081 	.text
                        1082 	.align	2
                        1083 	.align	2
                        1084 ..gh.f.f.1.e.12:
                        1085 	.type	..gh.f.f.1.e.12,@object
                        1086 	.size	..gh.f.f.1.e.12,0
                        1087 	.global	_CryIf_KeyCopy
                        1088 _CryIf_KeyCopy:
000004ee 80076100       1089 	prepare	{r29,r31},0
                        1090 --	    .bf
                        1091 .LDW25:
000004f2 a40705480000*  1092 	ld.bu	sdaoff23(_CryIf_ModuleInitialized)[gp],r9
000004f8 01ea           1093 	mov	1,r29
000004fa e049           1094 	cmp	zero,r9
000004fc e205*          1095 	be	.L2761
                        1096 --line698
                        1097 ..lin.C.3A.5C_ECU2.5CECU_Rivian_A1.5CTarget.5Crepo_projects.5CpFOTA.5CcL_R2023.2E09.2E01.5Cmake.5Cobj.5CEcuabCryIf.61::
                        1098 .LDWlin61:
000004fe 034a           1099 	mov	3,r9
00000500 6732           1100 	cmp	7,r6
00000502 b905*          1101 	bnl	.L2761
00000504 673a           1102 	cmp	7,r7
00000506 910d*          1103 	bl	.L2753
                        1104 .L2761:
                        1105 --line715
                        1106 ..lin.C.3A.5C_ECU2.5CECU_Rivian_A1.5CTarget.5Crepo_projects.5CpFOTA.5CcL_R2023.2E09.2E01.5Cmake.5Cobj.5CEcuabCryIf.62::
                        1107 .LDWlin62:
00000508 20367000       1108 	movea	112,zero,r6
0000050c 003a           1109 	mov	0,r7
0000050e 20461000       1110 	movea	16,zero,r8
                        1111 	jarl	_Det_ReportError,lp
                        1111 <EXPANSION BEGIN>
                        1111 jarl22 _Det_ReportError , lp 
00000512 80ff0000*      1111 <EXPANSION END>
00000516 c51d*          1112 	br	.L2760
                        1113 .L2753:
                        1114 --line705
                        1115 ..lin.C.3A.5C_ECU2.5CECU_Rivian_A1.5CTarget.5Crepo_projects.5CpFOTA.5CcL_R2023.2E09.2E01.5Cmake.5Cobj.5CEcuabCryIf.63::
                        1116 .LDWlin63:
00000518 0690           1117 	mov	r6,r18
0000051a 07f0           1118 	mov	r7,ep
0000051c c392           1119 	shl	3,r18
0000051e 280600000000*  1120 	mov	rosdaoff23(_CryIf_Key),r8
00000524 c3f2           1121 	shl	3,ep
00000526 c891           1122 	add	r8,r18
00000528 c8f1           1123 	add	r8,ep
0000052a 6498           1124 	sld.bu	4[ep],r19

                                                                      Page 20
                                                              C:\Users\nhuliyap\AppData\Local\Temp\gh_0000d481.s
0000052c 928f0500       1125 	ld.bu	4[r18],r17
00000530 f389           1126 	cmp	r19,r17
00000532 ba0d*          1127 	bne	.L2757
                        1128 --line706
                        1129 ..lin.C.3A.5C_ECU2.5CECU_Rivian_A1.5CTarget.5Crepo_projects.5CpFOTA.5CcL_R2023.2E09.2E01.5Cmake.5Cobj.5CEcuabCryIf.64::
                        1130 .LDWlin64:
00000534 32370100       1131 	ld.w	0[r18],r6
00000538 003d           1132 	sld.w	0[ep],r7
0000053a 850709e80000*  1133 	ld.w	rosdaoff23(_CryIf_CryptoFunctions+16)[r5],r29
00000540 fdc760f9       1134 	jarl	[r29],lp
00000544 0ae8           1135 	mov	r10,r29
00000546 c505*          1136 	br	.L2760
                        1137 .L2757:
                        1138 --line709
                        1139 ..lin.C.3A.5C_ECU2.5CECU_Rivian_A1.5CTarget.5Crepo_projects.5CpFOTA.5CcL_R2023.2E09.2E01.5Cmake.5Cobj.5CEcuabCryIf.65::
                        1140 .LDWlin65:
                        1141 	jarl	_CryIf_KeyCopyForDifferentDrivers,lp
                        1141 <EXPANSION BEGIN>
                        1141 jarl22 _CryIf_KeyCopyForDifferentDrivers , lp 
00000548 bfffb8fa*      1141 <EXPANSION END>
0000054c 0ae8           1142 	mov	r10,r29
                        1143 .L2760:
                        1144 --line721
                        1145 ..lin.C.3A.5C_ECU2.5CECU_Rivian_A1.5CTarget.5Crepo_projects.5CpFOTA.5CcL_R2023.2E09.2E01.5Cmake.5Cobj.5CEcuabCryIf.66::
                        1146 .LDWlin66:
0000054e 1d50           1147 	mov	r29,r10
                        1148 --	    .ef
                        1149 .LDW35:
00000550 40067f00       1150 	dispose	0,{r29,r31},[lp]
                        1151 	.type	_CryIf_KeyCopy,@function
                        1152 	.size	_CryIf_KeyCopy,.-_CryIf_KeyCopy
                        1153 	.align	2
                        1154 .LDW45:
                        1155 --_retVal	r29	local
                        1156 --_errorId	r9	local
                        1157 
                        1158 --_cryIfKeyId	r6	param
                        1159 --_targetCryIfKeyId	r7	param
                        1160 
                        1161 	.section ".bss","awb"
                        1162 .L2881:
                        1163 	.type	.L2881,@object
                        1164 	.size	.L2881,0
                        1165 	.data
                        1166 	.text
                        1167 	.align	2
                        1168 	.align	2
                        1169 ..gh.f.f.1.e.13:
                        1170 	.type	..gh.f.f.1.e.13,@object
                        1171 	.size	..gh.f.f.1.e.13,0
                        1172 	.global	_EcuabCryIf_RandomSeed
                        1173 _EcuabCryIf_RandomSeed:
00000554 80076100       1174 	prepare	{r29,r31},0
                        1175 --	    .bf
                        1176 .LDW55:
00000558 a40705480000*  1177 	ld.bu	sdaoff23(_CryIf_ModuleInitialized)[gp],r9
0000055e 01ea           1178 	mov	1,r29
00000560 e049           1179 	cmp	zero,r9
00000562 f205*          1180 	be	.L2992
                        1181 --line736
                        1182 ..lin.C.3A.5C_ECU2.5CECU_Rivian_A1.5CTarget.5Crepo_projects.5CpFOTA.5CcL_R2023.2E09.2E01.5Cmake.5Cobj.5CEcuabCryIf.67::

                                                                      Page 21
                                                              C:\Users\nhuliyap\AppData\Local\Temp\gh_0000d481.s
                        1183 .LDWlin67:
00000564 e039           1184 	cmp	zero,r7
00000566 024a           1185 	mov	2,r9
00000568 c205*          1186 	be	.L2992
                        1187 --line740
                        1188 ..lin.C.3A.5C_ECU2.5CECU_Rivian_A1.5CTarget.5Crepo_projects.5CpFOTA.5CcL_R2023.2E09.2E01.5Cmake.5Cobj.5CEcuabCryIf.68::
                        1189 .LDWlin68:
0000056a e041           1190 	cmp	zero,r8
0000056c 9a0d*          1191 	bne	.L2985
0000056e 044a           1192 	mov	4,r9
                        1193 .L2992:
                        1194 --line757
                        1195 ..lin.C.3A.5C_ECU2.5CECU_Rivian_A1.5CTarget.5Crepo_projects.5CpFOTA.5CcL_R2023.2E09.2E01.5Cmake.5Cobj.5CEcuabCryIf.69::
                        1196 .LDWlin69:
00000570 20367000       1197 	movea	112,zero,r6
00000574 003a           1198 	mov	0,r7
00000576 0742           1199 	mov	7,r8
                        1200 	jarl	_Det_ReportError,lp
                        1200 <EXPANSION BEGIN>
                        1200 jarl22 _Det_ReportError , lp 
00000578 80ff0000*      1200 <EXPANSION END>
0000057c f50d*          1201 	br	.L2991
                        1202 .L2985:
                        1203 --line744
                        1204 ..lin.C.3A.5C_ECU2.5CECU_Rivian_A1.5CTarget.5Crepo_projects.5CpFOTA.5CcL_R2023.2E09.2E01.5Cmake.5Cobj.5CEcuabCryIf.70::
                        1205 .LDWlin70:
0000057e 6732           1206 	cmp	7,r6
00000580 034a           1207 	mov	3,r9
00000582 f9f5*          1208 	bnl	.L2992
                        1209 --line750
                        1210 ..lin.C.3A.5C_ECU2.5CECU_Rivian_A1.5CTarget.5Crepo_projects.5CpFOTA.5CcL_R2023.2E09.2E01.5Cmake.5Cobj.5CEcuabCryIf.71::
                        1211 .LDWlin71:
00000584 c332           1212 	shl	3,r6
00000586 c531           1213 	add	r5,r6
00000588 860709300000*  1214 	ld.w	rosdaoff23(_CryIf_Key)[r6],r6
0000058e 850709e80000*  1215 	ld.w	rosdaoff23(_CryIf_CryptoFunctions+64)[r5],r29
00000594 fdc760f9       1216 	jarl	[r29],lp
00000598 0ae8           1217 	mov	r10,r29
                        1218 .L2991:
                        1219 --line763
                        1220 ..lin.C.3A.5C_ECU2.5CECU_Rivian_A1.5CTarget.5Crepo_projects.5CpFOTA.5CcL_R2023.2E09.2E01.5Cmake.5Cobj.5CEcuabCryIf.72::
                        1221 .LDWlin72:
0000059a 1d50           1222 	mov	r29,r10
                        1223 --	    .ef
                        1224 .LDW65:
0000059c 40067f00       1225 	dispose	0,{r29,r31},[lp]
                        1226 	.type	_EcuabCryIf_RandomSeed,@function
                        1227 	.size	_EcuabCryIf_RandomSeed,.-_EcuabCryIf_RandomSeed
                        1228 	.align	2
                        1229 .LDW75:
                        1230 --_retVal	r29	local
                        1231 --_errorId	r9	local
                        1232 
                        1233 --_cryIfKeyId	r6	param
                        1234 --_seedPtr	r7	param
                        1235 --_seedLength	r8	param
                        1236 
                        1237 	.section ".bss","awb"
                        1238 .L3100:
                        1239 	.type	.L3100,@object
                        1240 	.size	.L3100,0

                                                                      Page 22
                                                              C:\Users\nhuliyap\AppData\Local\Temp\gh_0000d481.s
                        1241 	.data
                        1242 	.text
                        1243 	.align	2
                        1244 	.align	2
                        1245 ..gh.f.f.1.e.14:
                        1246 	.type	..gh.f.f.1.e.14,@object
                        1247 	.size	..gh.f.f.1.e.14,0
                        1248 	.global	_EcuabCryIf_KeyGenerate
                        1249 _EcuabCryIf_KeyGenerate:
000005a0 80076100       1250 	prepare	{r29,r31},0
                        1251 --	    .bf
                        1252 .LDW85:
000005a4 a40705480000*  1253 	ld.bu	sdaoff23(_CryIf_ModuleInitialized)[gp],r9
000005aa 01ea           1254 	mov	1,r29
000005ac e049           1255 	cmp	zero,r9
000005ae 8215*          1256 	be	.L3202
                        1257 --line776
                        1258 ..lin.C.3A.5C_ECU2.5CECU_Rivian_A1.5CTarget.5Crepo_projects.5CpFOTA.5CcL_R2023.2E09.2E01.5Cmake.5Cobj.5CEcuabCryIf.73::
                        1259 .LDWlin73:
000005b0 6732           1260 	cmp	7,r6
000005b2 034a           1261 	mov	3,r9
000005b4 d90d*          1262 	bnl	.L3202
                        1263 --line782
                        1264 ..lin.C.3A.5C_ECU2.5CECU_Rivian_A1.5CTarget.5Crepo_projects.5CpFOTA.5CcL_R2023.2E09.2E01.5Cmake.5Cobj.5CEcuabCryIf.74::
                        1265 .LDWlin74:
000005b6 c332           1266 	shl	3,r6
000005b8 c531           1267 	add	r5,r6
000005ba 860709300000*  1268 	ld.w	rosdaoff23(_CryIf_Key)[r6],r6
000005c0 850709e80000*  1269 	ld.w	rosdaoff23(_CryIf_CryptoFunctions+52)[r5],r29
000005c6 fdc760f9       1270 	jarl	[r29],lp
000005ca 0ae8           1271 	mov	r10,r29
000005cc f505*          1272 	br	.L3201
                        1273 .L3202:
                        1274 --line787
                        1275 ..lin.C.3A.5C_ECU2.5CECU_Rivian_A1.5CTarget.5Crepo_projects.5CpFOTA.5CcL_R2023.2E09.2E01.5Cmake.5Cobj.5CEcuabCryIf.75::
                        1276 .LDWlin75:
000005ce 20367000       1277 	movea	112,zero,r6
000005d2 003a           1278 	mov	0,r7
000005d4 0842           1279 	mov	8,r8
                        1280 	jarl	_Det_ReportError,lp
                        1280 <EXPANSION BEGIN>
                        1280 jarl22 _Det_ReportError , lp 
000005d6 80ff0000*      1280 <EXPANSION END>
                        1281 .L3201:
                        1282 --line793
                        1283 ..lin.C.3A.5C_ECU2.5CECU_Rivian_A1.5CTarget.5Crepo_projects.5CpFOTA.5CcL_R2023.2E09.2E01.5Cmake.5Cobj.5CEcuabCryIf.76::
                        1284 .LDWlin76:
000005da 1d50           1285 	mov	r29,r10
                        1286 --	    .ef
                        1287 .LDW95:
000005dc 40067f00       1288 	dispose	0,{r29,r31},[lp]
                        1289 	.type	_EcuabCryIf_KeyGenerate,@function
                        1290 	.size	_EcuabCryIf_KeyGenerate,.-_EcuabCryIf_KeyGenerate
                        1291 	.align	2
                        1292 .LDW06:
                        1293 --_retVal	r29	local
                        1294 --_errorId	r9	local
                        1295 
                        1296 --_cryIfKeyId	r6	param
                        1297 
                        1298 	.section ".bss","awb"

                                                                      Page 23
                                                              C:\Users\nhuliyap\AppData\Local\Temp\gh_0000d481.s
                        1299 .L3292:
                        1300 	.type	.L3292,@object
                        1301 	.size	.L3292,0
                        1302 	.data
                        1303 	.text
                        1304 	.align	2
                        1305 	.align	2
                        1306 ..gh.f.f.1.e.15:
                        1307 	.type	..gh.f.f.1.e.15,@object
                        1308 	.size	..gh.f.f.1.e.15,0
                        1309 	.global	_CryIf_KeyDerive
                        1310 _CryIf_KeyDerive:
000005e0 80076100       1311 	prepare	{r29,r31},0
                        1312 --	    .bf
                        1313 .LDW16:
000005e4 a40705480000*  1314 	ld.bu	sdaoff23(_CryIf_ModuleInitialized)[gp],r9
000005ea 01ea           1315 	mov	1,r29
000005ec e049           1316 	cmp	zero,r9
000005ee e205*          1317 	be	.L3367
                        1318 --line807
                        1319 ..lin.C.3A.5C_ECU2.5CECU_Rivian_A1.5CTarget.5Crepo_projects.5CpFOTA.5CcL_R2023.2E09.2E01.5Cmake.5Cobj.5CEcuabCryIf.77::
                        1320 .LDWlin77:
000005f0 034a           1321 	mov	3,r9
000005f2 6732           1322 	cmp	7,r6
000005f4 b905*          1323 	bnl	.L3367
000005f6 673a           1324 	cmp	7,r7
000005f8 810d*          1325 	bl	.L3362
                        1326 .L3367:
                        1327 --line819
                        1328 ..lin.C.3A.5C_ECU2.5CECU_Rivian_A1.5CTarget.5Crepo_projects.5CpFOTA.5CcL_R2023.2E09.2E01.5Cmake.5Cobj.5CEcuabCryIf.78::
                        1329 .LDWlin78:
000005fa 20367000       1330 	movea	112,zero,r6
000005fe 003a           1331 	mov	0,r7
00000600 0942           1332 	mov	9,r8
                        1333 	jarl	_Det_ReportError,lp
                        1333 <EXPANSION BEGIN>
                        1333 jarl22 _Det_ReportError , lp 
00000602 80ff0000*      1333 <EXPANSION END>
00000606 a515*          1334 	br	.L3366
                        1335 .L3362:
                        1336 --line814
                        1337 ..lin.C.3A.5C_ECU2.5CECU_Rivian_A1.5CTarget.5Crepo_projects.5CpFOTA.5CcL_R2023.2E09.2E01.5Cmake.5Cobj.5CEcuabCryIf.79::
                        1338 .LDWlin79:
00000608 06f0           1339 	mov	r6,ep
0000060a c3f2           1340 	shl	3,ep
0000060c 330600000000*  1341 	mov	rosdaoff23(_CryIf_Key),r19
00000612 d3f1           1342 	add	r19,ep
00000614 0035           1343 	sld.w	0[ep],r6
00000616 07f0           1344 	mov	r7,ep
00000618 c3f2           1345 	shl	3,ep
0000061a d3f1           1346 	add	r19,ep
0000061c 003d           1347 	sld.w	0[ep],r7
0000061e 850709e80000*  1348 	ld.w	rosdaoff23(_CryIf_CryptoFunctions+20)[r5],r29
00000624 fdc760f9       1349 	jarl	[r29],lp
00000628 0ae8           1350 	mov	r10,r29
                        1351 .L3366:
                        1352 --line825
                        1353 ..lin.C.3A.5C_ECU2.5CECU_Rivian_A1.5CTarget.5Crepo_projects.5CpFOTA.5CcL_R2023.2E09.2E01.5Cmake.5Cobj.5CEcuabCryIf.80::
                        1354 .LDWlin80:
0000062a 1d50           1355 	mov	r29,r10
                        1356 --	    .ef

                                                                      Page 24
                                                              C:\Users\nhuliyap\AppData\Local\Temp\gh_0000d481.s
                        1357 .LDW26:
0000062c 40067f00       1358 	dispose	0,{r29,r31},[lp]
                        1359 	.type	_CryIf_KeyDerive,@function
                        1360 	.size	_CryIf_KeyDerive,.-_CryIf_KeyDerive
                        1361 	.align	2
                        1362 .LDW36:
                        1363 --_retVal	r29	local
                        1364 --_errorId	r9	local
                        1365 
                        1366 --_cryIfKeyId	r6	param
                        1367 --_targetCryIfKeyId	r7	param
                        1368 
                        1369 	.section ".bss","awb"
                        1370 .L3460:
                        1371 	.type	.L3460,@object
                        1372 	.size	.L3460,0
                        1373 	.data
                        1374 	.text
                        1375 	.align	2
                        1376 	.align	2
                        1377 ..gh.f.f.1.e.16:
                        1378 	.type	..gh.f.f.1.e.16,@object
                        1379 	.size	..gh.f.f.1.e.16,0
                        1380 	.global	_CryIf_KeyExchangeCalcPubVal
                        1381 _CryIf_KeyExchangeCalcPubVal:
00000630 80076100       1382 	prepare	{r29,r31},0
00000634 08f0           1383 	mov	r8,ep
                        1384 --	    .bf
                        1385 .LDW46:
00000636 a40705480000*  1386 	ld.bu	sdaoff23(_CryIf_ModuleInitialized)[gp],r9
0000063c 01ea           1387 	mov	1,r29
0000063e e049           1388 	cmp	zero,r9
00000640 e205*          1389 	be	.L3554
                        1390 --line840
                        1391 ..lin.C.3A.5C_ECU2.5CECU_Rivian_A1.5CTarget.5Crepo_projects.5CpFOTA.5CcL_R2023.2E09.2E01.5Cmake.5Cobj.5CEcuabCryIf.81::
                        1392 .LDWlin81:
00000642 024a           1393 	mov	2,r9
00000644 e039           1394 	cmp	zero,r7
00000646 b205*          1395 	be	.L3554
00000648 e041           1396 	cmp	zero,r8
0000064a 8a0d*          1397 	bne	.L3543
                        1398 .L3554:
                        1399 --line861
                        1400 ..lin.C.3A.5C_ECU2.5CECU_Rivian_A1.5CTarget.5Crepo_projects.5CpFOTA.5CcL_R2023.2E09.2E01.5Cmake.5Cobj.5CEcuabCryIf.82::
                        1401 .LDWlin82:
0000064c 20367000       1402 	movea	112,zero,r6
00000650 003a           1403 	mov	0,r7
00000652 0a42           1404 	mov	10,r8
                        1405 	jarl	_Det_ReportError,lp
                        1405 <EXPANSION BEGIN>
                        1405 jarl22 _Det_ReportError , lp 
00000654 80ff0000*      1405 <EXPANSION END>
00000658 c515*          1406 	br	.L3553
                        1407 .L3543:
                        1408 --line844
                        1409 ..lin.C.3A.5C_ECU2.5CECU_Rivian_A1.5CTarget.5Crepo_projects.5CpFOTA.5CcL_R2023.2E09.2E01.5Cmake.5Cobj.5CEcuabCryIf.83::
                        1410 .LDWlin83:
0000065a 009d           1411 	sld.w	0[ep],r19
0000065c 044a           1412 	mov	4,r9
0000065e e099           1413 	cmp	zero,r19
00000660 e2f5*          1414 	be	.L3554

                                                                      Page 25
                                                              C:\Users\nhuliyap\AppData\Local\Temp\gh_0000d481.s
                        1415 --line848
                        1416 ..lin.C.3A.5C_ECU2.5CECU_Rivian_A1.5CTarget.5Crepo_projects.5CpFOTA.5CcL_R2023.2E09.2E01.5Cmake.5Cobj.5CEcuabCryIf.84::
                        1417 .LDWlin84:
00000662 6732           1418 	cmp	7,r6
00000664 e34f124b       1419 	cmovnl	3,r9,r9
00000668 a9f5*          1420 	bnl	.L3554
                        1421 --line854
                        1422 ..lin.C.3A.5C_ECU2.5CECU_Rivian_A1.5CTarget.5Crepo_projects.5CpFOTA.5CcL_R2023.2E09.2E01.5Cmake.5Cobj.5CEcuabCryIf.85::
                        1423 .LDWlin85:
0000066a c332           1424 	shl	3,r6
0000066c c531           1425 	add	r5,r6
0000066e 860709300000*  1426 	ld.w	rosdaoff23(_CryIf_Key)[r6],r6
00000674 850709e80000*  1427 	ld.w	rosdaoff23(_CryIf_CryptoFunctions+44)[r5],r29
0000067a fdc760f9       1428 	jarl	[r29],lp
0000067e 0ae8           1429 	mov	r10,r29
                        1430 .L3553:
                        1431 --line867
                        1432 ..lin.C.3A.5C_ECU2.5CECU_Rivian_A1.5CTarget.5Crepo_projects.5CpFOTA.5CcL_R2023.2E09.2E01.5Cmake.5Cobj.5CEcuabCryIf.86::
                        1433 .LDWlin86:
00000680 1d50           1434 	mov	r29,r10
                        1435 --	    .ef
                        1436 .LDW56:
00000682 40067f00       1437 	dispose	0,{r29,r31},[lp]
                        1438 	.type	_CryIf_KeyExchangeCalcPubVal,@function
                        1439 	.size	_CryIf_KeyExchangeCalcPubVal,.-_CryIf_KeyExchangeCalcPubVal
                        1440 	.align	2
                        1441 .LDW66:
                        1442 --_retVal	r29	local
                        1443 --_errorId	r9	local
                        1444 
                        1445 --_cryIfKeyId	r6	param
                        1446 --_publicValuePtr	r7	param
                        1447 --_publicValueLengthPtr	ep	param
                        1448 
                        1449 	.section ".bss","awb"
                        1450 .L3699:
                        1451 	.type	.L3699,@object
                        1452 	.size	.L3699,0
                        1453 	.data
                        1454 	.text
                        1455 	.align	2
                        1456 	.align	2
                        1457 ..gh.f.f.1.e.17:
                        1458 	.type	..gh.f.f.1.e.17,@object
                        1459 	.size	..gh.f.f.1.e.17,0
                        1460 	.global	_CryIf_KeyExchangeCalcSecret
                        1461 _CryIf_KeyExchangeCalcSecret:
00000686 80076100       1462 	prepare	{r29,r31},0
                        1463 --	    .bf
                        1464 .LDW76:
0000068a a40705480000*  1465 	ld.bu	sdaoff23(_CryIf_ModuleInitialized)[gp],r9
00000690 01ea           1466 	mov	1,r29
00000692 e049           1467 	cmp	zero,r9
00000694 f205*          1468 	be	.L3820
                        1469 --line882
                        1470 ..lin.C.3A.5C_ECU2.5CECU_Rivian_A1.5CTarget.5Crepo_projects.5CpFOTA.5CcL_R2023.2E09.2E01.5Cmake.5Cobj.5CEcuabCryIf.87::
                        1471 .LDWlin87:
00000696 e039           1472 	cmp	zero,r7
00000698 024a           1473 	mov	2,r9
0000069a c205*          1474 	be	.L3820
                        1475 --line886

                                                                      Page 26
                                                              C:\Users\nhuliyap\AppData\Local\Temp\gh_0000d481.s
                        1476 ..lin.C.3A.5C_ECU2.5CECU_Rivian_A1.5CTarget.5Crepo_projects.5CpFOTA.5CcL_R2023.2E09.2E01.5Cmake.5Cobj.5CEcuabCryIf.88::
                        1477 .LDWlin88:
0000069c e041           1478 	cmp	zero,r8
0000069e 9a0d*          1479 	bne	.L3813
000006a0 044a           1480 	mov	4,r9
                        1481 .L3820:
                        1482 --line903
                        1483 ..lin.C.3A.5C_ECU2.5CECU_Rivian_A1.5CTarget.5Crepo_projects.5CpFOTA.5CcL_R2023.2E09.2E01.5Cmake.5Cobj.5CEcuabCryIf.89::
                        1484 .LDWlin89:
000006a2 20367000       1485 	movea	112,zero,r6
000006a6 003a           1486 	mov	0,r7
000006a8 0b42           1487 	mov	11,r8
                        1488 	jarl	_Det_ReportError,lp
                        1488 <EXPANSION BEGIN>
                        1488 jarl22 _Det_ReportError , lp 
000006aa 80ff0000*      1488 <EXPANSION END>
000006ae f50d*          1489 	br	.L3819
                        1490 .L3813:
                        1491 --line890
                        1492 ..lin.C.3A.5C_ECU2.5CECU_Rivian_A1.5CTarget.5Crepo_projects.5CpFOTA.5CcL_R2023.2E09.2E01.5Cmake.5Cobj.5CEcuabCryIf.90::
                        1493 .LDWlin90:
000006b0 6732           1494 	cmp	7,r6
000006b2 034a           1495 	mov	3,r9
000006b4 f9f5*          1496 	bnl	.L3820
                        1497 --line896
                        1498 ..lin.C.3A.5C_ECU2.5CECU_Rivian_A1.5CTarget.5Crepo_projects.5CpFOTA.5CcL_R2023.2E09.2E01.5Cmake.5Cobj.5CEcuabCryIf.91::
                        1499 .LDWlin91:
000006b6 c332           1500 	shl	3,r6
000006b8 c531           1501 	add	r5,r6
000006ba 860709300000*  1502 	ld.w	rosdaoff23(_CryIf_Key)[r6],r6
000006c0 850709e80000*  1503 	ld.w	rosdaoff23(_CryIf_CryptoFunctions+48)[r5],r29
000006c6 fdc760f9       1504 	jarl	[r29],lp
000006ca 0ae8           1505 	mov	r10,r29
                        1506 .L3819:
                        1507 --line909
                        1508 ..lin.C.3A.5C_ECU2.5CECU_Rivian_A1.5CTarget.5Crepo_projects.5CpFOTA.5CcL_R2023.2E09.2E01.5Cmake.5Cobj.5CEcuabCryIf.92::
                        1509 .LDWlin92:
000006cc 1d50           1510 	mov	r29,r10
                        1511 --	    .ef
                        1512 .LDW86:
000006ce 40067f00       1513 	dispose	0,{r29,r31},[lp]
                        1514 	.type	_CryIf_KeyExchangeCalcSecret,@function
                        1515 	.size	_CryIf_KeyExchangeCalcSecret,.-_CryIf_KeyExchangeCalcSecret
                        1516 	.align	2
                        1517 .LDW96:
                        1518 --_retVal	r29	local
                        1519 --_errorId	r9	local
                        1520 
                        1521 --_cryIfKeyId	r6	param
                        1522 --_partnerPublicValuePtr	r7	param
                        1523 --_partnerPublicValueLength	r8	param
                        1524 
                        1525 	.section ".bss","awb"
                        1526 .L3932:
                        1527 	.type	.L3932,@object
                        1528 	.size	.L3932,0
                        1529 	.data
                        1530 	.text
                        1531 	.align	2
                        1532 	.align	2
                        1533 ..gh.f.f.1.e.18:

                                                                      Page 27
                                                              C:\Users\nhuliyap\AppData\Local\Temp\gh_0000d481.s
                        1534 	.type	..gh.f.f.1.e.18,@object
                        1535 	.size	..gh.f.f.1.e.18,0
                        1536 	.global	_CryIf_CertificateParse
                        1537 _CryIf_CertificateParse:
000006d2 80076100       1538 	prepare	{r29,r31},0
                        1539 --	    .bf
                        1540 .LDW07:
000006d6 a40705480000*  1541 	ld.bu	sdaoff23(_CryIf_ModuleInitialized)[gp],r9
000006dc 01ea           1542 	mov	1,r29
000006de e049           1543 	cmp	zero,r9
000006e0 8215*          1544 	be	.L4034
                        1545 --line922
                        1546 ..lin.C.3A.5C_ECU2.5CECU_Rivian_A1.5CTarget.5Crepo_projects.5CpFOTA.5CcL_R2023.2E09.2E01.5Cmake.5Cobj.5CEcuabCryIf.93::
                        1547 .LDWlin93:
000006e2 6732           1548 	cmp	7,r6
000006e4 034a           1549 	mov	3,r9
000006e6 d90d*          1550 	bnl	.L4034
                        1551 --line928
                        1552 ..lin.C.3A.5C_ECU2.5CECU_Rivian_A1.5CTarget.5Crepo_projects.5CpFOTA.5CcL_R2023.2E09.2E01.5Cmake.5Cobj.5CEcuabCryIf.94::
                        1553 .LDWlin94:
000006e8 c332           1554 	shl	3,r6
000006ea c531           1555 	add	r5,r6
000006ec 860709300000*  1556 	ld.w	rosdaoff23(_CryIf_Key)[r6],r6
000006f2 850709e80000*  1557 	ld.w	rosdaoff23(_CryIf_CryptoFunctions+8)[r5],r29
000006f8 fdc760f9       1558 	jarl	[r29],lp
000006fc 0ae8           1559 	mov	r10,r29
000006fe f505*          1560 	br	.L4033
                        1561 .L4034:
                        1562 --line933
                        1563 ..lin.C.3A.5C_ECU2.5CECU_Rivian_A1.5CTarget.5Crepo_projects.5CpFOTA.5CcL_R2023.2E09.2E01.5Cmake.5Cobj.5CEcuabCryIf.95::
                        1564 .LDWlin95:
00000700 20367000       1565 	movea	112,zero,r6
00000704 003a           1566 	mov	0,r7
00000706 0c42           1567 	mov	12,r8
                        1568 	jarl	_Det_ReportError,lp
                        1568 <EXPANSION BEGIN>
                        1568 jarl22 _Det_ReportError , lp 
00000708 80ff0000*      1568 <EXPANSION END>
                        1569 .L4033:
                        1570 --line939
                        1571 ..lin.C.3A.5C_ECU2.5CECU_Rivian_A1.5CTarget.5Crepo_projects.5CpFOTA.5CcL_R2023.2E09.2E01.5Cmake.5Cobj.5CEcuabCryIf.96::
                        1572 .LDWlin96:
0000070c 1d50           1573 	mov	r29,r10
                        1574 --	    .ef
                        1575 .LDW17:
0000070e 40067f00       1576 	dispose	0,{r29,r31},[lp]
                        1577 	.type	_CryIf_CertificateParse,@function
                        1578 	.size	_CryIf_CertificateParse,.-_CryIf_CertificateParse
                        1579 	.align	2
                        1580 .LDW27:
                        1581 --_retVal	r29	local
                        1582 --_errorId	r9	local
                        1583 
                        1584 --_cryIfKeyId	r6	param
                        1585 
                        1586 	.section ".bss","awb"
                        1587 .L4124:
                        1588 	.type	.L4124,@object
                        1589 	.size	.L4124,0
                        1590 	.data
                        1591 	.text

                                                                      Page 28
                                                              C:\Users\nhuliyap\AppData\Local\Temp\gh_0000d481.s
                        1592 	.align	2
                        1593 	.align	2
                        1594 ..gh.f.f.1.e.19:
                        1595 	.type	..gh.f.f.1.e.19,@object
                        1596 	.size	..gh.f.f.1.e.19,0
                        1597 	.global	_CryIf_CertificateVerify
                        1598 _CryIf_CertificateVerify:
00000712 80076100       1599 	prepare	{r29,r31},0
                        1600 --	    .bf
                        1601 .LDW37:
00000716 a40705480000*  1602 	ld.bu	sdaoff23(_CryIf_ModuleInitialized)[gp],r9
0000071c 01ea           1603 	mov	1,r29
0000071e e049           1604 	cmp	zero,r9
00000720 920d*          1605 	be	.L4202
                        1606 --line954
                        1607 ..lin.C.3A.5C_ECU2.5CECU_Rivian_A1.5CTarget.5Crepo_projects.5CpFOTA.5CcL_R2023.2E09.2E01.5Cmake.5Cobj.5CEcuabCryIf.97::
                        1608 .LDWlin97:
00000722 e041           1609 	cmp	zero,r8
00000724 024a           1610 	mov	2,r9
00000726 e205*          1611 	be	.L4202
                        1612 --line958
                        1613 ..lin.C.3A.5C_ECU2.5CECU_Rivian_A1.5CTarget.5Crepo_projects.5CpFOTA.5CcL_R2023.2E09.2E01.5Cmake.5Cobj.5CEcuabCryIf.98::
                        1614 .LDWlin98:
00000728 034a           1615 	mov	3,r9
0000072a 6732           1616 	cmp	7,r6
0000072c b905*          1617 	bnl	.L4202
0000072e 673a           1618 	cmp	7,r7
00000730 910d*          1619 	bl	.L4197
                        1620 .L4202:
                        1621 --line972
                        1622 ..lin.C.3A.5C_ECU2.5CECU_Rivian_A1.5CTarget.5Crepo_projects.5CpFOTA.5CcL_R2023.2E09.2E01.5Cmake.5Cobj.5CEcuabCryIf.99::
                        1623 .LDWlin99:
00000732 20367000       1624 	movea	112,zero,r6
00000736 003a           1625 	mov	0,r7
00000738 20461100       1626 	movea	17,zero,r8
                        1627 	jarl	_Det_ReportError,lp
                        1627 <EXPANSION BEGIN>
                        1627 jarl22 _Det_ReportError , lp 
0000073c 80ff0000*      1627 <EXPANSION END>
00000740 a515*          1628 	br	.L4201
                        1629 .L4197:
                        1630 --line965
                        1631 ..lin.C.3A.5C_ECU2.5CECU_Rivian_A1.5CTarget.5Crepo_projects.5CpFOTA.5CcL_R2023.2E09.2E01.5Cmake.5Cobj.5CEcuabCryIf.100::
                        1632 .LDWlin100:
00000742 06f0           1633 	mov	r6,ep
00000744 c3f2           1634 	shl	3,ep
00000746 330600000000*  1635 	mov	rosdaoff23(_CryIf_Key),r19
0000074c d3f1           1636 	add	r19,ep
0000074e 0035           1637 	sld.w	0[ep],r6
00000750 07f0           1638 	mov	r7,ep
00000752 c3f2           1639 	shl	3,ep
00000754 d3f1           1640 	add	r19,ep
00000756 003d           1641 	sld.w	0[ep],r7
00000758 850709e80000*  1642 	ld.w	rosdaoff23(_CryIf_CryptoFunctions+12)[r5],r29
0000075e fdc760f9       1643 	jarl	[r29],lp
00000762 0ae8           1644 	mov	r10,r29
                        1645 .L4201:
                        1646 --line978
                        1647 ..lin.C.3A.5C_ECU2.5CECU_Rivian_A1.5CTarget.5Crepo_projects.5CpFOTA.5CcL_R2023.2E09.2E01.5Cmake.5Cobj.5CEcuabCryIf.101::
                        1648 .LDWlin101:
00000764 1d50           1649 	mov	r29,r10

                                                                      Page 29
                                                              C:\Users\nhuliyap\AppData\Local\Temp\gh_0000d481.s
                        1650 --	    .ef
                        1651 .LDW47:
00000766 40067f00       1652 	dispose	0,{r29,r31},[lp]
                        1653 	.type	_CryIf_CertificateVerify,@function
                        1654 	.size	_CryIf_CertificateVerify,.-_CryIf_CertificateVerify
                        1655 	.align	2
                        1656 .LDW57:
                        1657 --_retVal	r29	local
                        1658 --_errorId	r9	local
                        1659 
                        1660 --_cryIfKeyId	r6	param
                        1661 --_verifyCryIfKeyId	r7	param
                        1662 --_verifyPtr	r8	param
                        1663 
                        1664 	.section ".bss","awb"
                        1665 .L4308:
                        1666 	.type	.L4308,@object
                        1667 	.size	.L4308,0
                        1668 	.data
                        1669 	.text
                        1670 	.align	2
                        1671 --_CryIf_Channel	rosdaoff23(_CryIf_Channel)	import
                        1672 --_CryIf_CryptoFunctions	rosdaoff23(_CryIf_CryptoFunctions)	import
                        1673 --_CryIf_Key	rosdaoff23(_CryIf_Key)	import
                        1674 --_CryIf_ModuleInitialized	sdaoff23(_CryIf_ModuleInitialized)	static
                        1675 
                        1676 	.data
                        1677 	.ghsnote version,17
                        1678 	.ghsnote tools,3
                        1679 	.ghsnote options,144
                        1680 	.text
                        1681 	.align	2
                        1682 ..eof.C.3A.5C_ECU2.5CECU_Rivian_A1.5CTarget.5Crepo_projects.5CpFOTA.5CcL_R2023.2E09.2E01.5Cmake.5Cobj.5CEcuabCryIf...43.3A.5C_ECU2.5CECU_Rivian_A1.5CTarget.5Crepo_projects.5CpFOTA.5CcL_R2023.2E09.2E01.5Cmake..64F863AE..0::
                        1683 .rh850_flags REGMODE32,DATA_ALIGN8,GP_FIX,EP_NONFIX,TP_FIX,REG2_RESERVE,G3K,SDA_EXTRA_REGS_0
