                                                                      Page 1
                                                              C:\Users\nhuliyap\AppData\Local\Temp\gh_00008ik1.s
Command Line: C:\GHS\comp_201517\ease850.exe -w -stderr=err/EcuabFee.err -elf -b0 -I../source/_common -I../source/common -I../source/ecuabcanif -I../source/ecuabcantrcv -I../source/ecuabcryif -I../source/ecuabfee -I../source/ecuabmemif -I../source/libautosar -I../source/mcalcan -I../source/mcalcry -I../source/mcaldio -I../source/mcaleep -I../source/mcalfls -I../source/mcalmcu -I../source/projectara -I../source/projectcfg -I../source/projectcompiler -I../source/swcservicebswm -I../source/swcservicecantp -I../source/swcservicecomm -I../source/swcservicecsm -I../source/swcservicedcm -I../source/swcservicedem -I../source/swcservicedet -I../source/swcserviceecum -I../source/swcservicenvm -I../source/swcserviceos -I../source/swcservicepdur -I../source/swcserviceschm -I../source/swcservicestartup -I../source/wrappers/swcservicesecm -I../source/wrappers/vsecprim -I../source/wrappers/vstdlib -Ic:/ghs/comp_201517/ansi -Ic:/ghs/comp_201517/include/v800 -Igendata -IC:\GHS\comp_201517\lib\rh850 -cg_underscore -cpu=rh850g3k -nofpu -no_v850_simd -rh850_fpsimd=none -nomacro -patch_dbo=C:\_ECU2\ECU_Rivian_A1\Target\repo_projects\pFOTA\cL_R2023.09.01\make\obj\EcuabFee.dbo -source=EcuabFee.c -o obj\gh_00008ik1.o -list=lst/EcuabFee.lst C:\Users\nhuliyap\AppData\Local\Temp\gh_00008ik1.s 
Original File: C:\Users\nhuliyap\AppData\Local\Temp\gh_00008ik1.s
Source File: EcuabFee.c
Directory: C:\_ECU2\ECU_Rivian_A1\Target\repo_projects\pFOTA\cL_R2023.09.01\make
Host OS: Windows
EASE: Copyright (C) 1983-2015 Green Hills Software.  All Rights Reserved.
Release: Compiler v2015.1.7
Build Directory: [Directory] BTOWORKER6:c:/build_2015_1_bto/2015-10-21.2100-2015_1_bto/win32-comp-ecom
Revision: [VCInfo] http://toolsvc/branches/release-branch-70-bto/src@544153 (built by build)
Revision Date: Thu Oct 22 07:50:13 2015

Release Date: Thu Oct 22 09:32:32 2015

                           1 --Driver Command: ccrh850 -DBRS_DERIVATIVE_701018 -DBRS_OSC_CLK=16
                           2 --		-DBRS_TIMEBASE_CLOCK=80 -DBRS_EVA_BOARD_
                           3 --		-DBRS_DERIVATIVE_GROUP_F1L -DBRS_OS_USECASE_BRS
                           4 --		-DBRS_PLATFORM_RH850 -DBRS_COMP_GHS
                           5 --		-DBRS_CPU_LOCAL_RAM_SIZE_CORE0=32
                           6 --		-DBRS_CPU_RAM_START_CORE0=0xFEDF8000 -list=lst/EcuabFee.lst
                           7 --		-object_dir=obj -stderr=err/EcuabFee.err -c -cpu=rh850 -sda=all
                           8 --		-large_sda -prepare_dispose -pragma_asm_inline -no_callt
                           9 --		-inline_prologue -notda -reserve_r2 -fsoft
                          10 --		--unknown_pragma_warnings -list -g -Ogeneral -shortenum
                          11 --		-registermode=32 -I../source/_common -I../source/common
                          12 --		-I../source/ecuabcanif -I../source/ecuabcantrcv
                          13 --		-I../source/ecuabcryif -I../source/ecuabfee
                          14 --		-I../source/ecuabmemif -I../source/libautosar -I../source/mcalcan
                          15 --		-I../source/mcalcry -I../source/mcaldio -I../source/mcaleep
                          16 --		-I../source/mcalfls -I../source/mcalmcu -I../source/projectara
                          17 --		-I../source/projectcfg -I../source/projectcompiler
                          18 --		-I../source/swcservicebswm -I../source/swcservicecantp
                          19 --		-I../source/swcservicecomm -I../source/swcservicecsm
                          20 --		-I../source/swcservicedcm -I../source/swcservicedem
                          21 --		-I../source/swcservicedet -I../source/swcserviceecum
                          22 --		-I../source/swcservicenvm -I../source/swcserviceos
                          23 --		-I../source/swcservicepdur -I../source/swcserviceschm
                          24 --		-I../source/swcservicestartup -I../source/wrappers/swcservicesecm
                          25 --		-I../source/wrappers/vsecprim -I../source/wrappers/vstdlib
                          26 --		-Ic:/ghs/comp_201517/ansi -Ic:/ghs/comp_201517/include/v800
                          27 --		-Igendata ../source/EcuabFee/EcuabFee.c
                          28 --Source File:   ../source/EcuabFee/EcuabFee.c
                          29 --Directory:     
                          30 --		C:\_ECU2\ECU_Rivian_A1\Target\repo_projects\pFOTA\cL_R2023.09.01\make
                          31 --Compile Date:  Wed Sep 06 13:34:07 2023
                          32 --Host OS:       Win32
                          33 --Version:       C-RH850 2015.1.7 RELEASE VERSION
                          34 --Release:       Compiler v2015.1.7
                          35 --Revision Date: Thu Oct 22 08:06:12 2015
                          36 --Release Date:  Thu Oct 22 09:34:32 2015
                          37 -- ecom  -g -w -OM
                          38 	.text
                          39 ..bof.C.3A.5C_ECU2.5CECU_Rivian_A1.5CTarget.5Crepo_projects.5CpFOTA.5CcL_R2023.2E09.2E01.5Cmake.5Cobj.5CEcuabFee...43.3A.5C_ECU2.5CECU_Rivian_A1.5CTarget.5Crepo_projects.5CpFOTA.5CcL_R2023.2E09.2E01.5Cmake..64F863AF..0::
                          40 	.align	2
                          41 ..gh.f.f.1.e.0:
                          42 	.type	..gh.f.f.1.e.0,@object
                          43 	.size	..gh.f.f.1.e.0,0
                          44 	.global	_EcuabFee_SetFlagJobRequested..C.3A.5C_ECU2.5CECU_Rivian_A1.5CTarget.5Crepo_projects.5CpFOTA.5CcL_R2023.2E09.2E01.5Cmake.5Cobj.5CEcuabFee.
                          45 _EcuabFee_SetFlagJobRequested..C.3A.5C_ECU2.5CECU_Rivian_A1.5CTarget.5Crepo_projects.5CpFOTA.5CcL_R2023.2E09.2E01.5Cmake.5Cobj.5CEcuabFee.:
                          46 _EcuabFee_SetFlagJobRequested:
                          47 --	    .bf
                          48 .LDW01:
00000000 84070d300000*    49 	st.b	r6,sdaoff23(_EcuabFee_InternalFlags+1)[gp]
                          50 --	    .ef

                                                                      Page 2
                                                              C:\Users\nhuliyap\AppData\Local\Temp\gh_00008ik1.s
                          51 .LDW11:
00000006 7f00             52 	jmp	[lp]
                          53 	.type	_EcuabFee_SetFlagJobRequested,@function
                          54 	.size	_EcuabFee_SetFlagJobRequested,.-_EcuabFee_SetFlagJobRequested
                          55 	.type	_EcuabFee_SetFlagJobRequested..C.3A.5C_ECU2.5CECU_Rivian_A1.5CTarget.5Crepo_projects.5CpFOTA.5CcL_R2023.2E09.2E01.5Cmake.5Cobj.5CEcuabFee.,@function
                          56 	.size	_EcuabFee_SetFlagJobRequested..C.3A.5C_ECU2.5CECU_Rivian_A1.5CTarget.5Crepo_projects.5CpFOTA.5CcL_R2023.2E09.2E01.5Cmake.5Cobj.5CEcuabFee.,.-_EcuabFee_SetFlagJobRequested..C.3A.5C_ECU2.5CECU_Rivian_A1.5CTarget.5Crepo_projects.5CpFOTA.5CcL_R2023.2E09.2E01.5Cmake.5Cobj.5CEcuabFee.
                          57 	.align	2
                          58 .LDW21:
                          59 
                          60 --_value	r6	param
                          61 
                          62 	.section ".bss","awb"
                          63 .L49:
                          64 	.type	.L49,@object
                          65 	.size	.L49,0
                          66 	.section ".sdata","aw"
                          67 	.global	_EcuabFee_ComponentParameter..C.3A.5C_ECU2.5CECU_Rivian_A1.5CTarget.5Crepo_projects.5CpFOTA.5CcL_R2023.2E09.2E01.5Cmake.5Cobj.5CEcuabFee.
                          68 _EcuabFee_ComponentParameter..C.3A.5C_ECU2.5CECU_Rivian_A1.5CTarget.5Crepo_projects.5CpFOTA.5CcL_R2023.2E09.2E01.5Cmake.5Cobj.5CEcuabFee.:
00000000 01               69 _EcuabFee_ComponentParameter:	.byte	1
00000001 00               70 	.space	1
                          71 	.type	_EcuabFee_ComponentParameter..C.3A.5C_ECU2.5CECU_Rivian_A1.5CTarget.5Crepo_projects.5CpFOTA.5CcL_R2023.2E09.2E01.5Cmake.5Cobj.5CEcuabFee.,@object
                          72 	.size	_EcuabFee_ComponentParameter..C.3A.5C_ECU2.5CECU_Rivian_A1.5CTarget.5Crepo_projects.5CpFOTA.5CcL_R2023.2E09.2E01.5Cmake.5Cobj.5CEcuabFee.,2
                          73 	.type	_EcuabFee_ComponentParameter,@object
                          74 	.size	_EcuabFee_ComponentParameter,2
                          75 	.global	_EcuabFee_StateMachine..C.3A.5C_ECU2.5CECU_Rivian_A1.5CTarget.5Crepo_projects.5CpFOTA.5CcL_R2023.2E09.2E01.5Cmake.5Cobj.5CEcuabFee.
                          76 _EcuabFee_StateMachine..C.3A.5C_ECU2.5CECU_Rivian_A1.5CTarget.5Crepo_projects.5CpFOTA.5CcL_R2023.2E09.2E01.5Cmake.5Cobj.5CEcuabFee.:
00000002 00               77 _EcuabFee_StateMachine:	.byte	0
                          78 	.type	_EcuabFee_StateMachine..C.3A.5C_ECU2.5CECU_Rivian_A1.5CTarget.5Crepo_projects.5CpFOTA.5CcL_R2023.2E09.2E01.5Cmake.5Cobj.5CEcuabFee.,@object
                          79 	.size	_EcuabFee_StateMachine..C.3A.5C_ECU2.5CECU_Rivian_A1.5CTarget.5Crepo_projects.5CpFOTA.5CcL_R2023.2E09.2E01.5Cmake.5Cobj.5CEcuabFee.,1
                          80 	.type	_EcuabFee_StateMachine,@object
                          81 	.size	_EcuabFee_StateMachine,1
                          82 	.section ".sbss","awb"
                          83 	.align	4
                          84 	.global	_EcuabFee_InternalFlags..C.3A.5C_ECU2.5CECU_Rivian_A1.5CTarget.5Crepo_projects.5CpFOTA.5CcL_R2023.2E09.2E01.5Cmake.5Cobj.5CEcuabFee.
                          85 _EcuabFee_InternalFlags..C.3A.5C_ECU2.5CECU_Rivian_A1.5CTarget.5Crepo_projects.5CpFOTA.5CcL_R2023.2E09.2E01.5Cmake.5Cobj.5CEcuabFee.:
00000000 000000           86 _EcuabFee_InternalFlags:	.space	3
                          87 	.type	_EcuabFee_InternalFlags..C.3A.5C_ECU2.5CECU_Rivian_A1.5CTarget.5Crepo_projects.5CpFOTA.5CcL_R2023.2E09.2E01.5Cmake.5Cobj.5CEcuabFee.,@object
                          88 	.size	_EcuabFee_InternalFlags..C.3A.5C_ECU2.5CECU_Rivian_A1.5CTarget.5Crepo_projects.5CpFOTA.5CcL_R2023.2E09.2E01.5Cmake.5Cobj.5CEcuabFee.,3
                          89 	.type	_EcuabFee_InternalFlags,@object
                          90 	.size	_EcuabFee_InternalFlags,3
00000003 00               91 	.space	1
                          92 	.global	_EcuabFee_UserJobParameter..C.3A.5C_ECU2.5CECU_Rivian_A1.5CTarget.5Crepo_projects.5CpFOTA.5CcL_R2023.2E09.2E01.5Cmake.5Cobj.5CEcuabFee.
                          93 _EcuabFee_UserJobParameter..C.3A.5C_ECU2.5CECU_Rivian_A1.5CTarget.5Crepo_projects.5CpFOTA.5CcL_R2023.2E09.2E01.5Cmake.5Cobj.5CEcuabFee.:
00000004 000000000000     94 _EcuabFee_UserJobParameter:	.space	16
0000000a 000000000000 
00000010 00000000 
                          95 	.type	_EcuabFee_UserJobParameter..C.3A.5C_ECU2.5CECU_Rivian_A1.5CTarget.5Crepo_projects.5CpFOTA.5CcL_R2023.2E09.2E01.5Cmake.5Cobj.5CEcuabFee.,@object
                          96 	.size	_EcuabFee_UserJobParameter..C.3A.5C_ECU2.5CECU_Rivian_A1.5CTarget.5Crepo_projects.5CpFOTA.5CcL_R2023.2E09.2E01.5Cmake.5Cobj.5CEcuabFee.,16
                          97 	.type	_EcuabFee_UserJobParameter,@object
                          98 	.size	_EcuabFee_UserJobParameter,16
                          99 	.data
                         100 	.text
                         101 	.align	2
                         102 	.align	2
                         103 ..gh.f.f.1.e.1:
                         104 	.type	..gh.f.f.1.e.1,@object
                         105 	.size	..gh.f.f.1.e.1,0
                         106 	.global	_EcuabFee_SetFlagCancelRequested..C.3A.5C_ECU2.5CECU_Rivian_A1.5CTarget.5Crepo_projects.5CpFOTA.5CcL_R2023.2E09.2E01.5Cmake.5Cobj.5CEcuabFee.
                         107 _EcuabFee_SetFlagCancelRequested..C.3A.5C_ECU2.5CECU_Rivian_A1.5CTarget.5Crepo_projects.5CpFOTA.5CcL_R2023.2E09.2E01.5Cmake.5Cobj.5CEcuabFee.:
                         108 _EcuabFee_SetFlagCancelRequested:
                         109 --	    .bf

                                                                      Page 3
                                                              C:\Users\nhuliyap\AppData\Local\Temp\gh_00008ik1.s
                         110 .LDW31:
00000008 84070d300000*   111 	st.b	r6,sdaoff23(_EcuabFee_InternalFlags+2)[gp]
                         112 --	    .ef
                         113 .LDW41:
0000000e 7f00            114 	jmp	[lp]
                         115 	.type	_EcuabFee_SetFlagCancelRequested,@function
                         116 	.size	_EcuabFee_SetFlagCancelRequested,.-_EcuabFee_SetFlagCancelRequested
                         117 	.type	_EcuabFee_SetFlagCancelRequested..C.3A.5C_ECU2.5CECU_Rivian_A1.5CTarget.5Crepo_projects.5CpFOTA.5CcL_R2023.2E09.2E01.5Cmake.5Cobj.5CEcuabFee.,@function
                         118 	.size	_EcuabFee_SetFlagCancelRequested..C.3A.5C_ECU2.5CECU_Rivian_A1.5CTarget.5Crepo_projects.5CpFOTA.5CcL_R2023.2E09.2E01.5Cmake.5Cobj.5CEcuabFee.,.-_EcuabFee_SetFlagCancelRequested..C.3A.5C_ECU2.5CECU_Rivian_A1.5CTarget.5Crepo_projects.5CpFOTA.5CcL_R2023.2E09.2E01.5Cmake.5Cobj.5CEcuabFee.
                         119 	.align	2
                         120 .LDW51:
                         121 
                         122 --_value	r6	param
                         123 
                         124 	.section ".bss","awb"
                         125 .L97:
                         126 	.type	.L97,@object
                         127 	.size	.L97,0
                         128 	.data
                         129 	.text
                         130 	.align	2
                         131 	.align	2
                         132 ..gh.f.f.1.e.2:
                         133 	.type	..gh.f.f.1.e.2,@object
                         134 	.size	..gh.f.f.1.e.2,0
                         135 	.global	_EcuabFee_SetFlagMainFunctionBusy..C.3A.5C_ECU2.5CECU_Rivian_A1.5CTarget.5Crepo_projects.5CpFOTA.5CcL_R2023.2E09.2E01.5Cmake.5Cobj.5CEcuabFee.
                         136 _EcuabFee_SetFlagMainFunctionBusy..C.3A.5C_ECU2.5CECU_Rivian_A1.5CTarget.5Crepo_projects.5CpFOTA.5CcL_R2023.2E09.2E01.5Cmake.5Cobj.5CEcuabFee.:
                         137 _EcuabFee_SetFlagMainFunctionBusy:
                         138 --	    .bf
                         139 .LDW61:
00000010 84070d300000*   140 	st.b	r6,sdaoff23(_EcuabFee_InternalFlags)[gp]
                         141 --	    .ef
                         142 .LDW71:
00000016 7f00            143 	jmp	[lp]
                         144 	.type	_EcuabFee_SetFlagMainFunctionBusy,@function
                         145 	.size	_EcuabFee_SetFlagMainFunctionBusy,.-_EcuabFee_SetFlagMainFunctionBusy
                         146 	.type	_EcuabFee_SetFlagMainFunctionBusy..C.3A.5C_ECU2.5CECU_Rivian_A1.5CTarget.5Crepo_projects.5CpFOTA.5CcL_R2023.2E09.2E01.5Cmake.5Cobj.5CEcuabFee.,@function
                         147 	.size	_EcuabFee_SetFlagMainFunctionBusy..C.3A.5C_ECU2.5CECU_Rivian_A1.5CTarget.5Crepo_projects.5CpFOTA.5CcL_R2023.2E09.2E01.5Cmake.5Cobj.5CEcuabFee.,.-_EcuabFee_SetFlagMainFunctionBusy..C.3A.5C_ECU2.5CECU_Rivian_A1.5CTarget.5Crepo_projects.5CpFOTA.5CcL_R2023.2E09.2E01.5Cmake.5Cobj.5CEcuabFee.
                         148 	.align	2
                         149 .LDW81:
                         150 
                         151 --_value	r6	param
                         152 
                         153 	.section ".bss","awb"
                         154 .L145:
                         155 	.type	.L145,@object
                         156 	.size	.L145,0
                         157 	.data
                         158 	.text
                         159 	.align	2
                         160 	.align	2
                         161 ..gh.f.f.1.e.3:
                         162 	.type	..gh.f.f.1.e.3,@object
                         163 	.size	..gh.f.f.1.e.3,0
                         164 	.global	_EcuabFee_GetLayer1Status..C.3A.5C_ECU2.5CECU_Rivian_A1.5CTarget.5Crepo_projects.5CpFOTA.5CcL_R2023.2E09.2E01.5Cmake.5Cobj.5CEcuabFee.
                         165 _EcuabFee_GetLayer1Status..C.3A.5C_ECU2.5CECU_Rivian_A1.5CTarget.5Crepo_projects.5CpFOTA.5CcL_R2023.2E09.2E01.5Cmake.5Cobj.5CEcuabFee.:
                         166 _EcuabFee_GetLayer1Status:
00000018 80072100        167 	prepare	{r31},0
                         168 --	    .bf
                         169 .LDW91:
0000001c 840705480000*   170 	ld.b	sdaoff23(_EcuabFee_UserJobParameter+12)[gp],r9

                                                                      Page 4
                                                              C:\Users\nhuliyap\AppData\Local\Temp\gh_00008ik1.s
00000022 e049            171 	cmp	zero,r9
00000024 d205*           172 	be	.L167
                         173 --line159
                         174 ..lin.C.3A.5C_ECU2.5CECU_Rivian_A1.5CTarget.5Crepo_projects.5CpFOTA.5CcL_R2023.2E09.2E01.5Cmake.5Cobj.5CEcuabFee.1::
                         175 .LDWlin1:
                         176 	jarl	_EcuabFee_Wr_GetStatus,lp
                         176 <EXPANSION BEGIN>
                         176 jarl22 _EcuabFee_Wr_GetStatus , lp 
00000026 80ff0000*       176 <EXPANSION END>
                         177 --line160
                         178 ..lin.C.3A.5C_ECU2.5CECU_Rivian_A1.5CTarget.5Crepo_projects.5CpFOTA.5CcL_R2023.2E09.2E01.5Cmake.5Cobj.5CEcuabFee.2::
                         179 .LDWlin2:
0000002a 40063f00        180 	dispose	0,{r31},[lp]
                         181 .L167:
                         182 --line156
                         183 ..lin.C.3A.5C_ECU2.5CECU_Rivian_A1.5CTarget.5Crepo_projects.5CpFOTA.5CcL_R2023.2E09.2E01.5Cmake.5Cobj.5CEcuabFee.3::
                         184 .LDWlin3:
                         185 	jarl	_EcuabFee_Rd_GetStatus,lp
                         185 <EXPANSION BEGIN>
                         185 jarl22 _EcuabFee_Rd_GetStatus , lp 
0000002e 80ff0000*       185 <EXPANSION END>
                         186 --	    .ef
                         187 .LDW02:
                         188 --line162
                         189 ..lin.C.3A.5C_ECU2.5CECU_Rivian_A1.5CTarget.5Crepo_projects.5CpFOTA.5CcL_R2023.2E09.2E01.5Cmake.5Cobj.5CEcuabFee.4::
                         190 .LDWlin4:
00000032 40063f00        191 	dispose	0,{r31},[lp]
                         192 	.type	_EcuabFee_GetLayer1Status,@function
                         193 	.size	_EcuabFee_GetLayer1Status,.-_EcuabFee_GetLayer1Status
                         194 	.type	_EcuabFee_GetLayer1Status..C.3A.5C_ECU2.5CECU_Rivian_A1.5CTarget.5Crepo_projects.5CpFOTA.5CcL_R2023.2E09.2E01.5Cmake.5Cobj.5CEcuabFee.,@function
                         195 	.size	_EcuabFee_GetLayer1Status..C.3A.5C_ECU2.5CECU_Rivian_A1.5CTarget.5Crepo_projects.5CpFOTA.5CcL_R2023.2E09.2E01.5Cmake.5Cobj.5CEcuabFee.,.-_EcuabFee_GetLayer1Status..C.3A.5C_ECU2.5CECU_Rivian_A1.5CTarget.5Crepo_projects.5CpFOTA.5CcL_R2023.2E09.2E01.5Cmake.5Cobj.5CEcuabFee.
                         196 	.align	2
                         197 .LDW12:
                         198 --_retVal	r10	local
                         199 
                         200 	.section ".bss","awb"
                         201 .L208:
                         202 	.type	.L208,@object
                         203 	.size	.L208,0
                         204 	.data
                         205 	.text
                         206 	.align	2
                         207 	.align	2
                         208 ..gh.f.f.1.e.4:
                         209 	.type	..gh.f.f.1.e.4,@object
                         210 	.size	..gh.f.f.1.e.4,0
                         211 	.global	_EcuabFee_GetLayer1JobResult..C.3A.5C_ECU2.5CECU_Rivian_A1.5CTarget.5Crepo_projects.5CpFOTA.5CcL_R2023.2E09.2E01.5Cmake.5Cobj.5CEcuabFee.
                         212 _EcuabFee_GetLayer1JobResult..C.3A.5C_ECU2.5CECU_Rivian_A1.5CTarget.5Crepo_projects.5CpFOTA.5CcL_R2023.2E09.2E01.5Cmake.5Cobj.5CEcuabFee.:
                         213 _EcuabFee_GetLayer1JobResult:
00000036 80072100        214 	prepare	{r31},0
                         215 --	    .bf
                         216 .LDW22:
0000003a 840705480000*   217 	ld.b	sdaoff23(_EcuabFee_UserJobParameter+12)[gp],r9
00000040 e049            218 	cmp	zero,r9
00000042 d205*           219 	be	.L261
                         220 --line173
                         221 ..lin.C.3A.5C_ECU2.5CECU_Rivian_A1.5CTarget.5Crepo_projects.5CpFOTA.5CcL_R2023.2E09.2E01.5Cmake.5Cobj.5CEcuabFee.5::
                         222 .LDWlin5:
                         223 	jarl	_EcuabFee_Wr_GetJobResult,lp
                         223 <EXPANSION BEGIN>
                         223 jarl22 _EcuabFee_Wr_GetJobResult , lp 

                                                                      Page 5
                                                              C:\Users\nhuliyap\AppData\Local\Temp\gh_00008ik1.s
00000044 80ff0000*       223 <EXPANSION END>
                         224 --line174
                         225 ..lin.C.3A.5C_ECU2.5CECU_Rivian_A1.5CTarget.5Crepo_projects.5CpFOTA.5CcL_R2023.2E09.2E01.5Cmake.5Cobj.5CEcuabFee.6::
                         226 .LDWlin6:
00000048 40063f00        227 	dispose	0,{r31},[lp]
                         228 .L261:
                         229 --line170
                         230 ..lin.C.3A.5C_ECU2.5CECU_Rivian_A1.5CTarget.5Crepo_projects.5CpFOTA.5CcL_R2023.2E09.2E01.5Cmake.5Cobj.5CEcuabFee.7::
                         231 .LDWlin7:
                         232 	jarl	_EcuabFee_Rd_GetJobResult,lp
                         232 <EXPANSION BEGIN>
                         232 jarl22 _EcuabFee_Rd_GetJobResult , lp 
0000004c 80ff0000*       232 <EXPANSION END>
                         233 --	    .ef
                         234 .LDW32:
                         235 --line176
                         236 ..lin.C.3A.5C_ECU2.5CECU_Rivian_A1.5CTarget.5Crepo_projects.5CpFOTA.5CcL_R2023.2E09.2E01.5Cmake.5Cobj.5CEcuabFee.8::
                         237 .LDWlin8:
00000050 40063f00        238 	dispose	0,{r31},[lp]
                         239 	.type	_EcuabFee_GetLayer1JobResult,@function
                         240 	.size	_EcuabFee_GetLayer1JobResult,.-_EcuabFee_GetLayer1JobResult
                         241 	.type	_EcuabFee_GetLayer1JobResult..C.3A.5C_ECU2.5CECU_Rivian_A1.5CTarget.5Crepo_projects.5CpFOTA.5CcL_R2023.2E09.2E01.5Cmake.5Cobj.5CEcuabFee.,@function
                         242 	.size	_EcuabFee_GetLayer1JobResult..C.3A.5C_ECU2.5CECU_Rivian_A1.5CTarget.5Crepo_projects.5CpFOTA.5CcL_R2023.2E09.2E01.5Cmake.5Cobj.5CEcuabFee.,.-_EcuabFee_GetLayer1JobResult..C.3A.5C_ECU2.5CECU_Rivian_A1.5CTarget.5Crepo_projects.5CpFOTA.5CcL_R2023.2E09.2E01.5Cmake.5Cobj.5CEcuabFee.
                         243 	.align	2
                         244 .LDW42:
                         245 --_retVal	r10	local
                         246 
                         247 	.section ".bss","awb"
                         248 .L304:
                         249 	.type	.L304,@object
                         250 	.size	.L304,0
                         251 	.data
                         252 	.text
                         253 	.align	2
                         254 	.align	2
                         255 ..gh.f.f.1.e.5:
                         256 	.type	..gh.f.f.1.e.5,@object
                         257 	.size	..gh.f.f.1.e.5,0
                         258 	.global	_EcuabFee_StartLayer1Job..C.3A.5C_ECU2.5CECU_Rivian_A1.5CTarget.5Crepo_projects.5CpFOTA.5CcL_R2023.2E09.2E01.5Cmake.5Cobj.5CEcuabFee.
                         259 _EcuabFee_StartLayer1Job..C.3A.5C_ECU2.5CECU_Rivian_A1.5CTarget.5Crepo_projects.5CpFOTA.5CcL_R2023.2E09.2E01.5Cmake.5Cobj.5CEcuabFee.:
                         260 _EcuabFee_StartLayer1Job:
                         261 --	    .bf
                         262 .LDW52:
00000054 840705900000*   263 	ld.b	sdaoff23(_EcuabFee_UserJobParameter+12)[gp],r18
0000005a 3e0600000000*   264 	mov	sdaoff23(_EcuabFee_UserJobParameter),ep
00000060 be0709300000    265 	ld.dw	0[ep],r6
00000066 be0789400000    266 	ld.dw	8[ep],r8
0000006c e091            267 	cmp	zero,r18
0000006e b205*           268 	be	.L357
00000070 80070000*       269 	jr	_EcuabFee_Wr_StartJob
                         270 .L357:
                         271 --line182
                         272 ..lin.C.3A.5C_ECU2.5CECU_Rivian_A1.5CTarget.5Crepo_projects.5CpFOTA.5CcL_R2023.2E09.2E01.5Cmake.5Cobj.5CEcuabFee.9::
                         273 .LDWlin9:
00000074 80070000*       274 	jr	_EcuabFee_Rd_StartJob
                         275 --	    .ef
                         276 .LDW62:
                         277 ..lin.C.3A.5C_ECU2.5CECU_Rivian_A1.5CTarget.5Crepo_projects.5CpFOTA.5CcL_R2023.2E09.2E01.5Cmake.5Cobj.5CEcuabFee.10::
                         278 .LDWlin10:
                         279 	.type	_EcuabFee_StartLayer1Job,@function
                         280 	.size	_EcuabFee_StartLayer1Job,.-_EcuabFee_StartLayer1Job

                                                                      Page 6
                                                              C:\Users\nhuliyap\AppData\Local\Temp\gh_00008ik1.s
                         281 	.type	_EcuabFee_StartLayer1Job..C.3A.5C_ECU2.5CECU_Rivian_A1.5CTarget.5Crepo_projects.5CpFOTA.5CcL_R2023.2E09.2E01.5Cmake.5Cobj.5CEcuabFee.,@function
                         282 	.size	_EcuabFee_StartLayer1Job..C.3A.5C_ECU2.5CECU_Rivian_A1.5CTarget.5Crepo_projects.5CpFOTA.5CcL_R2023.2E09.2E01.5Cmake.5Cobj.5CEcuabFee.,.-_EcuabFee_StartLayer1Job..C.3A.5C_ECU2.5CECU_Rivian_A1.5CTarget.5Crepo_projects.5CpFOTA.5CcL_R2023.2E09.2E01.5Cmake.5Cobj.5CEcuabFee.
                         283 	.align	2
                         284 .LDW72:
                         285 
                         286 	.section ".bss","awb"
                         287 .L395:
                         288 	.type	.L395,@object
                         289 	.size	.L395,0
                         290 	.data
                         291 	.text
                         292 	.align	2
                         293 	.align	2
                         294 ..gh.f.f.1.e.6:
                         295 	.type	..gh.f.f.1.e.6,@object
                         296 	.size	..gh.f.f.1.e.6,0
                         297 	.global	_EcuabFee_SetUserParameter..C.3A.5C_ECU2.5CECU_Rivian_A1.5CTarget.5Crepo_projects.5CpFOTA.5CcL_R2023.2E09.2E01.5Cmake.5Cobj.5CEcuabFee.
                         298 _EcuabFee_SetUserParameter..C.3A.5C_ECU2.5CECU_Rivian_A1.5CTarget.5Crepo_projects.5CpFOTA.5CcL_R2023.2E09.2E01.5Cmake.5Cobj.5CEcuabFee.:
                         299 _EcuabFee_SetUserParameter:
00000078 039f0000        300 	ld.b	0[sp],r19
                         301 --	    .bf
                         302 .LDW82:
0000007c 3e0600000000*   303 	mov	sdaoff23(_EcuabFee_UserJobParameter),ep
00000082 8034            304 	sst.h	r6,0[ep]
00000084 813c            305 	sst.h	r7,2[ep]
00000086 0545            306 	sst.w	r8,8[ep]
00000088 824c            307 	sst.h	r9,4[ep]
0000008a 8c9b            308 	sst.b	r19,12[ep]
                         309 --	    .ef
                         310 .LDW92:
0000008c 7f00            311 	jmp	[lp]
                         312 	.type	_EcuabFee_SetUserParameter,@function
                         313 	.size	_EcuabFee_SetUserParameter,.-_EcuabFee_SetUserParameter
                         314 	.type	_EcuabFee_SetUserParameter..C.3A.5C_ECU2.5CECU_Rivian_A1.5CTarget.5Crepo_projects.5CpFOTA.5CcL_R2023.2E09.2E01.5Cmake.5Cobj.5CEcuabFee.,@function
                         315 	.size	_EcuabFee_SetUserParameter..C.3A.5C_ECU2.5CECU_Rivian_A1.5CTarget.5Crepo_projects.5CpFOTA.5CcL_R2023.2E09.2E01.5Cmake.5Cobj.5CEcuabFee.,.-_EcuabFee_SetUserParameter..C.3A.5C_ECU2.5CECU_Rivian_A1.5CTarget.5Crepo_projects.5CpFOTA.5CcL_R2023.2E09.2E01.5Cmake.5Cobj.5CEcuabFee.
                         316 	.align	2
                         317 .LDW03:
                         318 
                         319 --_BlockNumber	r6	param
                         320 --_BlockOffset	r7	param
                         321 --_DataBufferPtr	r8	param
                         322 --_Length	r9	param
                         323 --_JobType	r19	param
                         324 
                         325 	.section ".bss","awb"
                         326 .L465:
                         327 	.type	.L465,@object
                         328 	.size	.L465,0
                         329 	.data
                         330 	.text
                         331 	.align	2
                         332 	.align	2
                         333 ..gh.f.f.1.e.7:
                         334 	.type	..gh.f.f.1.e.7,@object
                         335 	.size	..gh.f.f.1.e.7,0
                         336 	.global	_EcuabFee_SetJobParameter..C.3A.5C_ECU2.5CECU_Rivian_A1.5CTarget.5Crepo_projects.5CpFOTA.5CcL_R2023.2E09.2E01.5Cmake.5Cobj.5CEcuabFee.
                         337 _EcuabFee_SetJobParameter..C.3A.5C_ECU2.5CECU_Rivian_A1.5CTarget.5Crepo_projects.5CpFOTA.5CcL_R2023.2E09.2E01.5Cmake.5Cobj.5CEcuabFee.:
                         338 _EcuabFee_SetJobParameter:
0000008e 80073b000000*   339 	prepare	{r31},0,sdaoff23(_EcuabFee_ComponentParameter)
00000094 0000*
                         340 --	    .bf

                                                                      Page 7
                                                              C:\Users\nhuliyap\AppData\Local\Temp\gh_00008ik1.s
                         341 .LDW13:
00000096 0292            342 	mov	2,r18
00000098 8193            343 	sst.b	r18,1[ep]
0000009a 8093            344 	sst.b	r18,0[ep]
0000009c 0132            345 	mov	1,r6
                         346 	jarl	_EcuabFee_SetFlagJobRequested,lp
                         346 <EXPANSION BEGIN>
                         346 jarl22 _EcuabFee_SetFlagJobRequested , lp 
0000009e bfff62ff*       346 <EXPANSION END>
                         347 --line207
                         348 ..lin.C.3A.5C_ECU2.5CECU_Rivian_A1.5CTarget.5Crepo_projects.5CpFOTA.5CcL_R2023.2E09.2E01.5Cmake.5Cobj.5CEcuabFee.11::
                         349 .LDWlin11:
                         350 	jarl	_EcuabFee_SetFlagMainFunctionBusy,lp
                         350 <EXPANSION BEGIN>
                         350 jarl22 _EcuabFee_SetFlagMainFunctionBusy , lp 
000000a2 bfff6eff*       350 <EXPANSION END>
                         351 --	    .ef
                         352 .LDW23:
                         353 --line208
                         354 ..lin.C.3A.5C_ECU2.5CECU_Rivian_A1.5CTarget.5Crepo_projects.5CpFOTA.5CcL_R2023.2E09.2E01.5Cmake.5Cobj.5CEcuabFee.12::
                         355 .LDWlin12:
000000a6 40063f00        356 	dispose	0,{r31},[lp]
                         357 	.type	_EcuabFee_SetJobParameter,@function
                         358 	.size	_EcuabFee_SetJobParameter,.-_EcuabFee_SetJobParameter
                         359 	.type	_EcuabFee_SetJobParameter..C.3A.5C_ECU2.5CECU_Rivian_A1.5CTarget.5Crepo_projects.5CpFOTA.5CcL_R2023.2E09.2E01.5Cmake.5Cobj.5CEcuabFee.,@function
                         360 	.size	_EcuabFee_SetJobParameter..C.3A.5C_ECU2.5CECU_Rivian_A1.5CTarget.5Crepo_projects.5CpFOTA.5CcL_R2023.2E09.2E01.5Cmake.5Cobj.5CEcuabFee.,.-_EcuabFee_SetJobParameter..C.3A.5C_ECU2.5CECU_Rivian_A1.5CTarget.5Crepo_projects.5CpFOTA.5CcL_R2023.2E09.2E01.5Cmake.5Cobj.5CEcuabFee.
                         361 	.align	2
                         362 .LDW33:
                         363 
                         364 	.section ".bss","awb"
                         365 .L513:
                         366 	.type	.L513,@object
                         367 	.size	.L513,0
                         368 	.data
                         369 	.text
                         370 	.align	2
                         371 	.align	2
                         372 ..gh.f.f.1.e.8:
                         373 	.type	..gh.f.f.1.e.8,@object
                         374 	.size	..gh.f.f.1.e.8,0
                         375 	.global	_EcuabFee_InitDataHandler..C.3A.5C_ECU2.5CECU_Rivian_A1.5CTarget.5Crepo_projects.5CpFOTA.5CcL_R2023.2E09.2E01.5Cmake.5Cobj.5CEcuabFee.
                         376 _EcuabFee_InitDataHandler..C.3A.5C_ECU2.5CECU_Rivian_A1.5CTarget.5Crepo_projects.5CpFOTA.5CcL_R2023.2E09.2E01.5Cmake.5Cobj.5CEcuabFee.:
                         377 _EcuabFee_InitDataHandler:
000000aa 8207e130        378 	prepare	{r26,r27,r28,r29,r31},1
                         379 --	    .bf
                         380 .LDW43:
000000ae a40707300000*   381 	ld.hu	sdaoff23(_EcuabFee_UserJobParameter)[gp],r6
                         382 	jarl	_EcuabFee_Ph_Init,lp
                         382 <EXPANSION BEGIN>
                         382 jarl22 _EcuabFee_Ph_Init , lp 
000000b4 80ff0000*       382 <EXPANSION END>
                         383 --line284
                         384 ..lin.C.3A.5C_ECU2.5CECU_Rivian_A1.5CTarget.5Crepo_projects.5CpFOTA.5CcL_R2023.2E09.2E01.5Cmake.5Cobj.5CEcuabFee.13::
                         385 .LDWlin13:
                         386 	jarl	_EcuabFee_Ph_GetPartitionStartAddress,lp
                         386 <EXPANSION BEGIN>
                         386 jarl22 _EcuabFee_Ph_GetPartitionStartAddress , lp 
000000b8 80ff0000*       386 <EXPANSION END>
000000bc a40707300000*   387 	ld.hu	sdaoff23(_EcuabFee_UserJobParameter)[gp],r6
000000c2 0a38            388 	mov	r10,r7
                         389 	jarl	_EcuabFee_Bh_Init,lp

                                                                      Page 8
                                                              C:\Users\nhuliyap\AppData\Local\Temp\gh_00008ik1.s
                         389 <EXPANSION BEGIN>
                         389 jarl22 _EcuabFee_Bh_Init , lp 
000000c4 80ff0000*       389 <EXPANSION END>
                         390 --line285
                         391 ..lin.C.3A.5C_ECU2.5CECU_Rivian_A1.5CTarget.5Crepo_projects.5CpFOTA.5CcL_R2023.2E09.2E01.5Cmake.5Cobj.5CEcuabFee.14::
                         392 .LDWlin14:
000000c8 a40707e80000*   393 	ld.hu	sdaoff23(_EcuabFee_UserJobParameter)[gp],r29
000000ce 1d30            394 	mov	r29,r6
                         395 	jarl	_EcuabFee_Bh_GetDataLength,lp
                         395 <EXPANSION BEGIN>
                         395 jarl22 _EcuabFee_Bh_GetDataLength , lp 
000000d0 80ff0000*       395 <EXPANSION END>
000000d4 a40707300000*   396 	ld.hu	sdaoff23(_EcuabFee_UserJobParameter)[gp],r6
000000da 0ae0            397 	mov	r10,r28
                         398 	jarl	_EcuabFee_Bh_GetNrOfInstances,lp
                         398 <EXPANSION BEGIN>
                         398 jarl22 _EcuabFee_Bh_GetNrOfInstances , lp 
000000dc 80ff0000*       398 <EXPANSION END>
000000e0 0ad8            399 	mov	r10,r27
                         400 	jarl	_EcuabFee_Bh_GetBlockStartAddress,lp
                         400 <EXPANSION BEGIN>
                         400 jarl22 _EcuabFee_Bh_GetBlockStartAddress , lp 
000000e2 80ff0000*       400 <EXPANSION END>
000000e6 0ad0            401 	mov	r10,r26
                         402 	jarl	_EcuabFee_Ph_GetPartitionAddressAlignment,lp
                         402 <EXPANSION BEGIN>
                         402 jarl22 _EcuabFee_Ph_GetPartitionAddressAlignment , lp 
000000e8 80ff0000*       402 <EXPANSION END>
000000ec 1d30            403 	mov	r29,r6
000000ee 1c38            404 	mov	r28,r7
000000f0 1b40            405 	mov	r27,r8
000000f2 1a48            406 	mov	r26,r9
000000f4 63570100        407 	st.w	r10,0[sp]
                         408 	jarl	_EcuabFee_Dh_Init,lp
                         408 <EXPANSION BEGIN>
                         408 jarl22 _EcuabFee_Dh_Init , lp 
000000f8 80ff0000*       408 <EXPANSION END>
                         409 --	    .ef
                         410 .LDW53:
                         411 --line287
                         412 ..lin.C.3A.5C_ECU2.5CECU_Rivian_A1.5CTarget.5Crepo_projects.5CpFOTA.5CcL_R2023.2E09.2E01.5Cmake.5Cobj.5CEcuabFee.15::
                         413 .LDWlin15:
000000fc 4206ff30        414 	dispose	1,{r26,r27,r28,r29,r31},[lp]
                         415 	.type	_EcuabFee_InitDataHandler,@function
                         416 	.size	_EcuabFee_InitDataHandler,.-_EcuabFee_InitDataHandler
                         417 	.type	_EcuabFee_InitDataHandler..C.3A.5C_ECU2.5CECU_Rivian_A1.5CTarget.5Crepo_projects.5CpFOTA.5CcL_R2023.2E09.2E01.5Cmake.5Cobj.5CEcuabFee.,@function
                         418 	.size	_EcuabFee_InitDataHandler..C.3A.5C_ECU2.5CECU_Rivian_A1.5CTarget.5Crepo_projects.5CpFOTA.5CcL_R2023.2E09.2E01.5Cmake.5Cobj.5CEcuabFee.,.-_EcuabFee_InitDataHandler..C.3A.5C_ECU2.5CECU_Rivian_A1.5CTarget.5Crepo_projects.5CpFOTA.5CcL_R2023.2E09.2E01.5Cmake.5Cobj.5CEcuabFee.
                         419 	.align	2
                         420 .LDW63:
                         421 
                         422 	.section ".bss","awb"
                         423 .L561:
                         424 	.type	.L561,@object
                         425 	.size	.L561,0
                         426 	.data
                         427 	.text
                         428 	.align	2
                         429 	.align	2
                         430 ..gh.f.f.1.e.9:
                         431 	.type	..gh.f.f.1.e.9,@object
                         432 	.size	..gh.f.f.1.e.9,0

                                                                      Page 9
                                                              C:\Users\nhuliyap\AppData\Local\Temp\gh_00008ik1.s
                         433 	.global	_EcuabFee_StartJob..C.3A.5C_ECU2.5CECU_Rivian_A1.5CTarget.5Crepo_projects.5CpFOTA.5CcL_R2023.2E09.2E01.5Cmake.5Cobj.5CEcuabFee.
                         434 _EcuabFee_StartJob..C.3A.5C_ECU2.5CECU_Rivian_A1.5CTarget.5Crepo_projects.5CpFOTA.5CcL_R2023.2E09.2E01.5Cmake.5Cobj.5CEcuabFee.:
                         435 _EcuabFee_StartJob:
00000100 80072100        436 	prepare	{r31},0
                         437 --	    .bf
                         438 .LDW73:
                         439 	jarl	_EcuabFee_Tm_Init,lp
                         439 <EXPANSION BEGIN>
                         439 jarl22 _EcuabFee_Tm_Init , lp 
00000104 80ff0000*       439 <EXPANSION END>
                         440 --line213
                         441 ..lin.C.3A.5C_ECU2.5CECU_Rivian_A1.5CTarget.5Crepo_projects.5CpFOTA.5CcL_R2023.2E09.2E01.5Cmake.5Cobj.5CEcuabFee.16::
                         442 .LDWlin16:
                         443 	jarl	_EcuabFee_InitDataHandler,lp
                         443 <EXPANSION BEGIN>
                         443 jarl22 _EcuabFee_InitDataHandler , lp 
00000108 bfffa2ff*       443 <EXPANSION END>
                         444 --line215
                         445 ..lin.C.3A.5C_ECU2.5CECU_Rivian_A1.5CTarget.5Crepo_projects.5CpFOTA.5CcL_R2023.2E09.2E01.5Cmake.5Cobj.5CEcuabFee.17::
                         446 .LDWlin17:
                         447 	jarl	_EcuabFee_StartLayer1Job,lp
                         447 <EXPANSION BEGIN>
                         447 jarl22 _EcuabFee_StartLayer1Job , lp 
0000010c bfff48ff*       447 <EXPANSION END>
                         448 --line217
                         449 ..lin.C.3A.5C_ECU2.5CECU_Rivian_A1.5CTarget.5Crepo_projects.5CpFOTA.5CcL_R2023.2E09.2E01.5Cmake.5Cobj.5CEcuabFee.18::
                         450 .LDWlin18:
00000110 0292            451 	mov	2,r18
00000112 84070d900000*   452 	st.b	r18,sdaoff23(_EcuabFee_StateMachine)[gp]
                         453 --	    .ef
                         454 .LDW83:
00000118 40063f00        455 	dispose	0,{r31},[lp]
                         456 	.type	_EcuabFee_StartJob,@function
                         457 	.size	_EcuabFee_StartJob,.-_EcuabFee_StartJob
                         458 	.type	_EcuabFee_StartJob..C.3A.5C_ECU2.5CECU_Rivian_A1.5CTarget.5Crepo_projects.5CpFOTA.5CcL_R2023.2E09.2E01.5Cmake.5Cobj.5CEcuabFee.,@function
                         459 	.size	_EcuabFee_StartJob..C.3A.5C_ECU2.5CECU_Rivian_A1.5CTarget.5Crepo_projects.5CpFOTA.5CcL_R2023.2E09.2E01.5Cmake.5Cobj.5CEcuabFee.,.-_EcuabFee_StartJob..C.3A.5C_ECU2.5CECU_Rivian_A1.5CTarget.5Crepo_projects.5CpFOTA.5CcL_R2023.2E09.2E01.5Cmake.5Cobj.5CEcuabFee.
                         460 	.align	2
                         461 .LDW93:
                         462 
                         463 	.section ".bss","awb"
                         464 .L609:
                         465 	.type	.L609,@object
                         466 	.size	.L609,0
                         467 	.data
                         468 	.text
                         469 	.align	2
                         470 	.align	2
                         471 ..gh.f.f.1.e.10:
                         472 	.type	..gh.f.f.1.e.10,@object
                         473 	.size	..gh.f.f.1.e.10,0
                         474 	.global	_EcuabFee_FinishJob..C.3A.5C_ECU2.5CECU_Rivian_A1.5CTarget.5Crepo_projects.5CpFOTA.5CcL_R2023.2E09.2E01.5Cmake.5Cobj.5CEcuabFee.
                         475 _EcuabFee_FinishJob..C.3A.5C_ECU2.5CECU_Rivian_A1.5CTarget.5Crepo_projects.5CpFOTA.5CcL_R2023.2E09.2E01.5Cmake.5Cobj.5CEcuabFee.:
                         476 _EcuabFee_FinishJob:
0000011c 80076100        477 	prepare	{r29,r31},0
00000120 06e8            478 	mov	r6,r29
                         479 --	    .bf
                         480 .LDW04:
00000122 0032            481 	mov	0,r6
                         482 	jarl	_EcuabFee_SetFlagMainFunctionBusy,lp
                         482 <EXPANSION BEGIN>
                         482 jarl22 _EcuabFee_SetFlagMainFunctionBusy , lp 

                                                                      Page 10
                                                              C:\Users\nhuliyap\AppData\Local\Temp\gh_00008ik1.s
00000124 bfffecfe*       482 <EXPANSION END>
                         483 --line337
                         484 ..lin.C.3A.5C_ECU2.5CECU_Rivian_A1.5CTarget.5Crepo_projects.5CpFOTA.5CcL_R2023.2E09.2E01.5Cmake.5Cobj.5CEcuabFee.19::
                         485 .LDWlin19:
00000128 0192            486 	mov	1,r18
0000012a 3e0600000000*   487 	mov	sdaoff23(_EcuabFee_ComponentParameter),ep
00000130 84070d900000*   488 	st.b	r18,sdaoff23(_EcuabFee_StateMachine)[gp]
00000136 80eb            489 	sst.b	r29,0[ep]
00000138 8193            490 	sst.b	r18,1[ep]
                         491 --	    .ef
                         492 .LDW14:
0000013a 40067f00        493 	dispose	0,{r29,r31},[lp]
                         494 	.type	_EcuabFee_FinishJob,@function
                         495 	.size	_EcuabFee_FinishJob,.-_EcuabFee_FinishJob
                         496 	.type	_EcuabFee_FinishJob..C.3A.5C_ECU2.5CECU_Rivian_A1.5CTarget.5Crepo_projects.5CpFOTA.5CcL_R2023.2E09.2E01.5Cmake.5Cobj.5CEcuabFee.,@function
                         497 	.size	_EcuabFee_FinishJob..C.3A.5C_ECU2.5CECU_Rivian_A1.5CTarget.5Crepo_projects.5CpFOTA.5CcL_R2023.2E09.2E01.5Cmake.5Cobj.5CEcuabFee.,.-_EcuabFee_FinishJob..C.3A.5C_ECU2.5CECU_Rivian_A1.5CTarget.5Crepo_projects.5CpFOTA.5CcL_R2023.2E09.2E01.5Cmake.5Cobj.5CEcuabFee.
                         498 	.align	2
                         499 .LDW24:
                         500 
                         501 --_JobResult	r29	param
                         502 
                         503 	.section ".bss","awb"
                         504 .L657:
                         505 	.type	.L657,@object
                         506 	.size	.L657,0
                         507 	.data
                         508 	.text
                         509 	.align	2
                         510 	.align	2
                         511 ..gh.f.f.1.e.11:
                         512 	.type	..gh.f.f.1.e.11,@object
                         513 	.size	..gh.f.f.1.e.11,0
                         514 	.global	_EcuabFee_ProcessStateMachine..C.3A.5C_ECU2.5CECU_Rivian_A1.5CTarget.5Crepo_projects.5CpFOTA.5CcL_R2023.2E09.2E01.5Cmake.5Cobj.5CEcuabFee.
                         515 _EcuabFee_ProcessStateMachine..C.3A.5C_ECU2.5CECU_Rivian_A1.5CTarget.5Crepo_projects.5CpFOTA.5CcL_R2023.2E09.2E01.5Cmake.5Cobj.5CEcuabFee.:
                         516 _EcuabFee_ProcessStateMachine:
0000013e 80072100        517 	prepare	{r31},0
                         518 --	    .bf
                         519 .LDW34:
00000142 840705900000*   520 	ld.b	sdaoff23(_EcuabFee_StateMachine)[gp],r18
00000148 6192            521 	cmp	1,r18
0000014a d205*           522 	be	.L679
0000014c 6292            523 	cmp	2,r18
0000014e c215*           524 	be	.L683
00000150 40063f00        525 	dispose	0,{r31},[lp]
                         526 .L679:
                         527 --line292
                         528 ..lin.C.3A.5C_ECU2.5CECU_Rivian_A1.5CTarget.5Crepo_projects.5CpFOTA.5CcL_R2023.2E09.2E01.5Cmake.5Cobj.5CEcuabFee.20::
                         529 .LDWlin20:
00000154 a40705880000*   530 	ld.bu	sdaoff23(_EcuabFee_InternalFlags+2)[gp],r17
0000015a 618a            531 	cmp	1,r17
0000015c ea05*           532 	bne	.L680
                         533 --line294
                         534 ..lin.C.3A.5C_ECU2.5CECU_Rivian_A1.5CTarget.5Crepo_projects.5CpFOTA.5CcL_R2023.2E09.2E01.5Cmake.5Cobj.5CEcuabFee.21::
                         535 .LDWlin21:
0000015e 0032            536 	mov	0,r6
                         537 	jarl	_EcuabFee_SetFlagCancelRequested,lp
                         537 <EXPANSION BEGIN>
                         537 jarl22 _EcuabFee_SetFlagCancelRequested , lp 
00000160 bfffa8fe*       537 <EXPANSION END>
00000164 40063f00        538 	dispose	0,{r31},[lp]
                         539 .L680:

                                                                      Page 11
                                                              C:\Users\nhuliyap\AppData\Local\Temp\gh_00008ik1.s
                         540 --line298
                         541 ..lin.C.3A.5C_ECU2.5CECU_Rivian_A1.5CTarget.5Crepo_projects.5CpFOTA.5CcL_R2023.2E09.2E01.5Cmake.5Cobj.5CEcuabFee.22::
                         542 .LDWlin22:
                         543 	jarl	_EcuabFee_StartJob,lp
                         543 <EXPANSION BEGIN>
                         543 jarl22 _EcuabFee_StartJob , lp 
00000168 bfff98ff*       543 <EXPANSION END>
                         544 --line299
                         545 ..lin.C.3A.5C_ECU2.5CECU_Rivian_A1.5CTarget.5Crepo_projects.5CpFOTA.5CcL_R2023.2E09.2E01.5Cmake.5Cobj.5CEcuabFee.23::
                         546 .LDWlin23:
0000016c 0032            547 	mov	0,r6
                         548 	jarl	_EcuabFee_SetFlagJobRequested,lp
                         548 <EXPANSION BEGIN>
                         548 jarl22 _EcuabFee_SetFlagJobRequested , lp 
0000016e bfff92fe*       548 <EXPANSION END>
00000172 40063f00        549 	dispose	0,{r31},[lp]
                         550 .L683:
                         551 --line305
                         552 ..lin.C.3A.5C_ECU2.5CECU_Rivian_A1.5CTarget.5Crepo_projects.5CpFOTA.5CcL_R2023.2E09.2E01.5Cmake.5Cobj.5CEcuabFee.24::
                         553 .LDWlin24:
00000176 a40705800000*   554 	ld.bu	sdaoff23(_EcuabFee_InternalFlags+2)[gp],r16
0000017c 6182            555 	cmp	1,r16
0000017e ca15*           556 	bne	.L684
                         557 --line307
                         558 ..lin.C.3A.5C_ECU2.5CECU_Rivian_A1.5CTarget.5Crepo_projects.5CpFOTA.5CcL_R2023.2E09.2E01.5Cmake.5Cobj.5CEcuabFee.25::
                         559 .LDWlin25:
                         560 	jarl	_EcuabFee_Tm_CancelTasks,lp
                         560 <EXPANSION BEGIN>
                         560 jarl22 _EcuabFee_Tm_CancelTasks , lp 
00000180 80ff0000*       560 <EXPANSION END>
                         561 --line309
                         562 ..lin.C.3A.5C_ECU2.5CECU_Rivian_A1.5CTarget.5Crepo_projects.5CpFOTA.5CcL_R2023.2E09.2E01.5Cmake.5Cobj.5CEcuabFee.26::
                         563 .LDWlin26:
00000184 a40705780000*   564 	ld.bu	sdaoff23(_EcuabFee_InternalFlags+1)[gp],r15
0000018a e079            565 	cmp	zero,r15
0000018c ca05*           566 	bne	.L686
                         567 --line311
                         568 ..lin.C.3A.5C_ECU2.5CECU_Rivian_A1.5CTarget.5Crepo_projects.5CpFOTA.5CcL_R2023.2E09.2E01.5Cmake.5Cobj.5CEcuabFee.27::
                         569 .LDWlin27:
0000018e 0f30            570 	mov	r15,r6
                         571 	jarl	_EcuabFee_SetFlagMainFunctionBusy,lp
                         571 <EXPANSION BEGIN>
                         571 jarl22 _EcuabFee_SetFlagMainFunctionBusy , lp 
00000190 bfff80fe*       571 <EXPANSION END>
                         572 .L686:
                         573 --line314
                         574 ..lin.C.3A.5C_ECU2.5CECU_Rivian_A1.5CTarget.5Crepo_projects.5CpFOTA.5CcL_R2023.2E09.2E01.5Cmake.5Cobj.5CEcuabFee.28::
                         575 .LDWlin28:
00000194 0172            576 	mov	1,r14
00000196 84070d700000*   577 	st.b	r14,sdaoff23(_EcuabFee_StateMachine)[gp]
0000019c 0032            578 	mov	0,r6
                         579 	jarl	_EcuabFee_SetFlagCancelRequested,lp
                         579 <EXPANSION BEGIN>
                         579 jarl22 _EcuabFee_SetFlagCancelRequested , lp 
0000019e bfff6afe*       579 <EXPANSION END>
000001a2 40063f00        580 	dispose	0,{r31},[lp]
                         581 .L684:
                         582 --line319
                         583 ..lin.C.3A.5C_ECU2.5CECU_Rivian_A1.5CTarget.5Crepo_projects.5CpFOTA.5CcL_R2023.2E09.2E01.5Cmake.5Cobj.5CEcuabFee.29::
                         584 .LDWlin29:
                         585 	jarl	_EcuabFee_Fls_GetStatus,lp

                                                                      Page 12
                                                              C:\Users\nhuliyap\AppData\Local\Temp\gh_00008ik1.s
                         585 <EXPANSION BEGIN>
                         585 jarl22 _EcuabFee_Fls_GetStatus , lp 
000001a6 80ff0000*       585 <EXPANSION END>
000001aa 6152            586 	cmp	1,r10
000001ac 9a15*           587 	bne	.L675
                         588 --line321
                         589 ..lin.C.3A.5C_ECU2.5CECU_Rivian_A1.5CTarget.5Crepo_projects.5CpFOTA.5CcL_R2023.2E09.2E01.5Cmake.5Cobj.5CEcuabFee.30::
                         590 .LDWlin30:
                         591 	jarl	_EcuabFee_Tm_ExecuteTask,lp
                         591 <EXPANSION BEGIN>
                         591 jarl22 _EcuabFee_Tm_ExecuteTask , lp 
000001ae 80ff0000*       591 <EXPANSION END>
                         592 --line323
                         593 ..lin.C.3A.5C_ECU2.5CECU_Rivian_A1.5CTarget.5Crepo_projects.5CpFOTA.5CcL_R2023.2E09.2E01.5Cmake.5Cobj.5CEcuabFee.31::
                         594 .LDWlin31:
                         595 	jarl	_EcuabFee_GetLayer1Status,lp
                         595 <EXPANSION BEGIN>
                         595 jarl22 _EcuabFee_GetLayer1Status , lp 
000001b2 bfff66fe*       595 <EXPANSION END>
000001b6 6152            596 	cmp	1,r10
000001b8 ba0d*           597 	bne	.L675
000001ba a40705480000*   598 	ld.bu	sdaoff23(_EcuabFee_InternalFlags+2)[gp],r9
000001c0 e049            599 	cmp	zero,r9
000001c2 ea05*           600 	bne	.L675
                         601 --line325
                         602 ..lin.C.3A.5C_ECU2.5CECU_Rivian_A1.5CTarget.5Crepo_projects.5CpFOTA.5CcL_R2023.2E09.2E01.5Cmake.5Cobj.5CEcuabFee.32::
                         603 .LDWlin32:
                         604 	jarl	_EcuabFee_GetLayer1JobResult,lp
                         604 <EXPANSION BEGIN>
                         604 jarl22 _EcuabFee_GetLayer1JobResult , lp 
000001c4 bfff72fe*       604 <EXPANSION END>
000001c8 0a30            605 	mov	r10,r6
                         606 	jarl	_EcuabFee_FinishJob,lp
                         606 <EXPANSION BEGIN>
                         606 jarl22 _EcuabFee_FinishJob , lp 
000001ca bfff52ff*       606 <EXPANSION END>
                         607 .L675:
                         608 --	    .ef
                         609 .LDW44:
                         610 --line333
                         611 ..lin.C.3A.5C_ECU2.5CECU_Rivian_A1.5CTarget.5Crepo_projects.5CpFOTA.5CcL_R2023.2E09.2E01.5Cmake.5Cobj.5CEcuabFee.33::
                         612 .LDWlin33:
000001ce 40063f00        613 	dispose	0,{r31},[lp]
                         614 	.type	_EcuabFee_ProcessStateMachine,@function
                         615 	.size	_EcuabFee_ProcessStateMachine,.-_EcuabFee_ProcessStateMachine
                         616 	.type	_EcuabFee_ProcessStateMachine..C.3A.5C_ECU2.5CECU_Rivian_A1.5CTarget.5Crepo_projects.5CpFOTA.5CcL_R2023.2E09.2E01.5Cmake.5Cobj.5CEcuabFee.,@function
                         617 	.size	_EcuabFee_ProcessStateMachine..C.3A.5C_ECU2.5CECU_Rivian_A1.5CTarget.5Crepo_projects.5CpFOTA.5CcL_R2023.2E09.2E01.5Cmake.5Cobj.5CEcuabFee.,.-_EcuabFee_ProcessStateMachine..C.3A.5C_ECU2.5CECU_Rivian_A1.5CTarget.5Crepo_projects.5CpFOTA.5CcL_R2023.2E09.2E01.5Cmake.5Cobj.5CEcuabFee.
                         618 	.align	2
                         619 .LDW54:
                         620 
                         621 	.section ".bss","awb"
                         622 .L776:
                         623 	.type	.L776,@object
                         624 	.size	.L776,0
                         625 	.data
                         626 	.text
                         627 	.align	2
                         628 	.align	2
                         629 ..gh.f.f.1.e.12:
                         630 	.type	..gh.f.f.1.e.12,@object
                         631 	.size	..gh.f.f.1.e.12,0

                                                                      Page 13
                                                              C:\Users\nhuliyap\AppData\Local\Temp\gh_00008ik1.s
                         632 	.global	_EcuabFee_Init
                         633 _EcuabFee_Init:
000001d2 80073b000000*   634 	prepare	{r31},0,sdaoff23(_EcuabFee_ComponentParameter)
000001d8 0000*
                         635 --	    .bf
                         636 .LDW64:
000001da 0192            637 	mov	1,r18
000001dc 8003            638 	sst.b	zero,0[ep]
000001de 8193            639 	sst.b	r18,1[ep]
000001e0 84070d900000*   640 	st.b	r18,sdaoff23(_EcuabFee_StateMachine)[gp]
000001e6 0032            641 	mov	0,r6
                         642 	jarl	_EcuabFee_SetFlagMainFunctionBusy,lp
                         642 <EXPANSION BEGIN>
                         642 jarl22 _EcuabFee_SetFlagMainFunctionBusy , lp 
000001e8 bfff28fe*       642 <EXPANSION END>
                         643 --line360
                         644 ..lin.C.3A.5C_ECU2.5CECU_Rivian_A1.5CTarget.5Crepo_projects.5CpFOTA.5CcL_R2023.2E09.2E01.5Cmake.5Cobj.5CEcuabFee.34::
                         645 .LDWlin34:
                         646 	jarl	_EcuabFee_SetFlagJobRequested,lp
                         646 <EXPANSION BEGIN>
                         646 jarl22 _EcuabFee_SetFlagJobRequested , lp 
000001ec bfff14fe*       646 <EXPANSION END>
                         647 --line361
                         648 ..lin.C.3A.5C_ECU2.5CECU_Rivian_A1.5CTarget.5Crepo_projects.5CpFOTA.5CcL_R2023.2E09.2E01.5Cmake.5Cobj.5CEcuabFee.35::
                         649 .LDWlin35:
                         650 	jarl	_EcuabFee_SetFlagCancelRequested,lp
                         650 <EXPANSION BEGIN>
                         650 jarl22 _EcuabFee_SetFlagCancelRequested , lp 
000001f0 bfff18fe*       650 <EXPANSION END>
                         651 --line363
                         652 ..lin.C.3A.5C_ECU2.5CECU_Rivian_A1.5CTarget.5Crepo_projects.5CpFOTA.5CcL_R2023.2E09.2E01.5Cmake.5Cobj.5CEcuabFee.36::
                         653 .LDWlin36:
                         654 	jarl	_EcuabFee_Rd_Init,lp
                         654 <EXPANSION BEGIN>
                         654 jarl22 _EcuabFee_Rd_Init , lp 
000001f4 80ff0000*       654 <EXPANSION END>
                         655 --line364
                         656 ..lin.C.3A.5C_ECU2.5CECU_Rivian_A1.5CTarget.5Crepo_projects.5CpFOTA.5CcL_R2023.2E09.2E01.5Cmake.5Cobj.5CEcuabFee.37::
                         657 .LDWlin37:
                         658 	jarl	_EcuabFee_Wr_Init,lp
                         658 <EXPANSION BEGIN>
                         658 jarl22 _EcuabFee_Wr_Init , lp 
000001f8 80ff0000*       658 <EXPANSION END>
                         659 --line366
                         660 ..lin.C.3A.5C_ECU2.5CECU_Rivian_A1.5CTarget.5Crepo_projects.5CpFOTA.5CcL_R2023.2E09.2E01.5Cmake.5Cobj.5CEcuabFee.38::
                         661 .LDWlin38:
                         662 	jarl	_EcuabFee_If_Init,lp
                         662 <EXPANSION BEGIN>
                         662 jarl22 _EcuabFee_If_Init , lp 
000001fc 80ff0000*       662 <EXPANSION END>
                         663 --line367
                         664 ..lin.C.3A.5C_ECU2.5CECU_Rivian_A1.5CTarget.5Crepo_projects.5CpFOTA.5CcL_R2023.2E09.2E01.5Cmake.5Cobj.5CEcuabFee.39::
                         665 .LDWlin39:
                         666 	jarl	_EcuabFee_De_Init,lp
                         666 <EXPANSION BEGIN>
                         666 jarl22 _EcuabFee_De_Init , lp 
00000200 80ff0000*       666 <EXPANSION END>
                         667 --line368
                         668 ..lin.C.3A.5C_ECU2.5CECU_Rivian_A1.5CTarget.5Crepo_projects.5CpFOTA.5CcL_R2023.2E09.2E01.5Cmake.5Cobj.5CEcuabFee.40::
                         669 .LDWlin40:
                         670 	jarl	_EcuabFee_WrInst_Init,lp

                                                                      Page 14
                                                              C:\Users\nhuliyap\AppData\Local\Temp\gh_00008ik1.s
                         670 <EXPANSION BEGIN>
                         670 jarl22 _EcuabFee_WrInst_Init , lp 
00000204 80ff0000*       670 <EXPANSION END>
                         671 --line370
                         672 ..lin.C.3A.5C_ECU2.5CECU_Rivian_A1.5CTarget.5Crepo_projects.5CpFOTA.5CcL_R2023.2E09.2E01.5Cmake.5Cobj.5CEcuabFee.41::
                         673 .LDWlin41:
                         674 	jarl	_EcuabFee_RdMgmt_Init,lp
                         674 <EXPANSION BEGIN>
                         674 jarl22 _EcuabFee_RdMgmt_Init , lp 
00000208 80ff0000*       674 <EXPANSION END>
                         675 --	    .ef
                         676 .LDW74:
                         677 --line371
                         678 ..lin.C.3A.5C_ECU2.5CECU_Rivian_A1.5CTarget.5Crepo_projects.5CpFOTA.5CcL_R2023.2E09.2E01.5Cmake.5Cobj.5CEcuabFee.42::
                         679 .LDWlin42:
0000020c 40063f00        680 	dispose	0,{r31},[lp]
                         681 	.type	_EcuabFee_Init,@function
                         682 	.size	_EcuabFee_Init,.-_EcuabFee_Init
                         683 	.align	2
                         684 .LDW84:
                         685 
                         686 	.section ".bss","awb"
                         687 .L945:
                         688 	.type	.L945,@object
                         689 	.size	.L945,0
                         690 	.data
                         691 	.text
                         692 	.align	2
                         693 	.align	2
                         694 ..gh.f.f.1.e.13:
                         695 	.type	..gh.f.f.1.e.13,@object
                         696 	.size	..gh.f.f.1.e.13,0
                         697 	.global	_EcuabFee_Read
                         698 _EcuabFee_Read:
00000210 82072100        699 	prepare	{r31},1
                         700 --	    .bf
                         701 .LDW94:
00000214 840705980000*   702 	ld.b	sdaoff23(_EcuabFee_ComponentParameter+1)[gp],r19
0000021a 619a            703 	cmp	1,r19
0000021c da0d*           704 	bne	.L968
0000021e c600            705 	zxh	r6
00000220 c700            706 	zxh	r7
00000222 c900            707 	zxh	r9
                         708 --line411
                         709 ..lin.C.3A.5C_ECU2.5CECU_Rivian_A1.5CTarget.5Crepo_projects.5CpFOTA.5CcL_R2023.2E09.2E01.5Cmake.5Cobj.5CEcuabFee.43::
                         710 .LDWlin43:
00000224 63070100        711 	st.w	zero,0[sp]
                         712 	jarl	_EcuabFee_SetUserParameter,lp
                         712 <EXPANSION BEGIN>
                         712 jarl22 _EcuabFee_SetUserParameter , lp 
00000228 bfff50fe*       712 <EXPANSION END>
                         713 --line412
                         714 ..lin.C.3A.5C_ECU2.5CECU_Rivian_A1.5CTarget.5Crepo_projects.5CpFOTA.5CcL_R2023.2E09.2E01.5Cmake.5Cobj.5CEcuabFee.44::
                         715 .LDWlin44:
                         716 	jarl	_EcuabFee_SetJobParameter,lp
                         716 <EXPANSION BEGIN>
                         716 jarl22 _EcuabFee_SetJobParameter , lp 
0000022c bfff62fe*       716 <EXPANSION END>
                         717 --line414
                         718 ..lin.C.3A.5C_ECU2.5CECU_Rivian_A1.5CTarget.5Crepo_projects.5CpFOTA.5CcL_R2023.2E09.2E01.5Cmake.5Cobj.5CEcuabFee.45::
                         719 .LDWlin45:

                                                                      Page 15
                                                              C:\Users\nhuliyap\AppData\Local\Temp\gh_00008ik1.s
00000230 0052            720 	mov	0,r10
00000232 42063f00        721 	dispose	1,{r31},[lp]
                         722 .L968:
00000236 0152            723 	mov	1,r10
                         724 --	    .ef
                         725 .LDW05:
                         726 --line425
                         727 ..lin.C.3A.5C_ECU2.5CECU_Rivian_A1.5CTarget.5Crepo_projects.5CpFOTA.5CcL_R2023.2E09.2E01.5Cmake.5Cobj.5CEcuabFee.46::
                         728 .LDWlin46:
00000238 42063f00        729 	dispose	1,{r31},[lp]
                         730 	.type	_EcuabFee_Read,@function
                         731 	.size	_EcuabFee_Read,.-_EcuabFee_Read
                         732 	.align	2
                         733 .LDW15:
                         734 --_retVal	r10	local
                         735 
                         736 --_BlockNumber	r6	param
                         737 --_BlockOffset	r7	param
                         738 --_DataBufferPtr	r8	param
                         739 --_Length	r9	param
                         740 
                         741 	.section ".bss","awb"
                         742 .L1015:
                         743 	.type	.L1015,@object
                         744 	.size	.L1015,0
                         745 	.data
                         746 	.text
                         747 	.align	2
                         748 	.align	2
                         749 ..gh.f.f.1.e.14:
                         750 	.type	..gh.f.f.1.e.14,@object
                         751 	.size	..gh.f.f.1.e.14,0
                         752 	.global	_EcuabFee_Write
                         753 _EcuabFee_Write:
0000023c 8207e100        754 	prepare	{r28,r29,r31},1
                         755 --	    .bf
                         756 .LDW25:
00000240 840705480000*   757 	ld.b	sdaoff23(_EcuabFee_ComponentParameter+1)[gp],r9
00000246 614a            758 	cmp	1,r9
00000248 ba15*           759 	bne	.L1062
0000024a 06e8            760 	mov	r6,r29
0000024c dd00            761 	zxh	r29
0000024e 07e0            762 	mov	r7,r28
                         763 --line455
                         764 ..lin.C.3A.5C_ECU2.5CECU_Rivian_A1.5CTarget.5Crepo_projects.5CpFOTA.5CcL_R2023.2E09.2E01.5Cmake.5Cobj.5CEcuabFee.47::
                         765 .LDWlin47:
00000250 1d30            766 	mov	r29,r6
                         767 	jarl	_EcuabFee_Bh_GetDataLength,lp
                         767 <EXPANSION BEGIN>
                         767 jarl22 _EcuabFee_Bh_GetDataLength , lp 
00000252 80ff0000*       767 <EXPANSION END>
00000256 013a            768 	mov	1,r7
00000258 633f0100        769 	st.w	r7,0[sp]
0000025c 1d30            770 	mov	r29,r6
0000025e 1c40            771 	mov	r28,r8
00000260 0a48            772 	mov	r10,r9
00000262 003a            773 	mov	0,r7
                         774 	jarl	_EcuabFee_SetUserParameter,lp
                         774 <EXPANSION BEGIN>
                         774 jarl22 _EcuabFee_SetUserParameter , lp 
00000264 bfff14fe*       774 <EXPANSION END>

                                                                      Page 16
                                                              C:\Users\nhuliyap\AppData\Local\Temp\gh_00008ik1.s
                         775 --line456
                         776 ..lin.C.3A.5C_ECU2.5CECU_Rivian_A1.5CTarget.5Crepo_projects.5CpFOTA.5CcL_R2023.2E09.2E01.5Cmake.5Cobj.5CEcuabFee.48::
                         777 .LDWlin48:
                         778 	jarl	_EcuabFee_SetJobParameter,lp
                         778 <EXPANSION BEGIN>
                         778 jarl22 _EcuabFee_SetJobParameter , lp 
00000268 bfff26fe*       778 <EXPANSION END>
                         779 --line458
                         780 ..lin.C.3A.5C_ECU2.5CECU_Rivian_A1.5CTarget.5Crepo_projects.5CpFOTA.5CcL_R2023.2E09.2E01.5Cmake.5Cobj.5CEcuabFee.49::
                         781 .LDWlin49:
0000026c a505*           782 	br	.L1057
                         783 .L1062:
0000026e 013a            784 	mov	1,r7
                         785 .L1057:
                         786 --line469
                         787 ..lin.C.3A.5C_ECU2.5CECU_Rivian_A1.5CTarget.5Crepo_projects.5CpFOTA.5CcL_R2023.2E09.2E01.5Cmake.5Cobj.5CEcuabFee.50::
                         788 .LDWlin50:
00000270 0750            789 	mov	r7,r10
                         790 --	    .ef
                         791 .LDW35:
00000272 4206ff00        792 	dispose	1,{r28,r29,r31},[lp]
                         793 	.type	_EcuabFee_Write,@function
                         794 	.size	_EcuabFee_Write,.-_EcuabFee_Write
                         795 	.align	2
                         796 .LDW45:
                         797 --_retVal	r10	local
                         798 
                         799 --_BlockNumber	r29	param
                         800 --_DataBufferPtr	r28	param
                         801 
                         802 	.section ".bss","awb"
                         803 .L1111:
                         804 	.type	.L1111,@object
                         805 	.size	.L1111,0
                         806 	.data
                         807 	.text
                         808 	.align	2
                         809 	.align	2
                         810 ..gh.f.f.1.e.15:
                         811 	.type	..gh.f.f.1.e.15,@object
                         812 	.size	..gh.f.f.1.e.15,0
                         813 	.global	_EcuabFee_InvalidateBlock
                         814 _EcuabFee_InvalidateBlock:
00000276 82072100        815 	prepare	{r31},1
                         816 --	    .bf
                         817 .LDW55:
0000027a 840705980000*   818 	ld.b	sdaoff23(_EcuabFee_ComponentParameter+1)[gp],r19
00000280 619a            819 	cmp	1,r19
00000282 da0d*           820 	bne	.L1158
                         821 --line494
                         822 ..lin.C.3A.5C_ECU2.5CECU_Rivian_A1.5CTarget.5Crepo_projects.5CpFOTA.5CcL_R2023.2E09.2E01.5Cmake.5Cobj.5CEcuabFee.51::
                         823 .LDWlin51:
00000284 0292            824 	mov	2,r18
00000286 003a            825 	mov	0,r7
00000288 c600            826 	zxh	r6
0000028a 63970100        827 	st.w	r18,0[sp]
0000028e 0740            828 	mov	r7,r8
00000290 0748            829 	mov	r7,r9
                         830 	jarl	_EcuabFee_SetUserParameter,lp
                         830 <EXPANSION BEGIN>
                         830 jarl22 _EcuabFee_SetUserParameter , lp 

                                                                      Page 17
                                                              C:\Users\nhuliyap\AppData\Local\Temp\gh_00008ik1.s
00000292 bfffe6fd*       830 <EXPANSION END>
                         831 --line495
                         832 ..lin.C.3A.5C_ECU2.5CECU_Rivian_A1.5CTarget.5Crepo_projects.5CpFOTA.5CcL_R2023.2E09.2E01.5Cmake.5Cobj.5CEcuabFee.52::
                         833 .LDWlin52:
                         834 	jarl	_EcuabFee_SetJobParameter,lp
                         834 <EXPANSION BEGIN>
                         834 jarl22 _EcuabFee_SetJobParameter , lp 
00000296 bffff8fd*       834 <EXPANSION END>
                         835 --line497
                         836 ..lin.C.3A.5C_ECU2.5CECU_Rivian_A1.5CTarget.5Crepo_projects.5CpFOTA.5CcL_R2023.2E09.2E01.5Cmake.5Cobj.5CEcuabFee.53::
                         837 .LDWlin53:
0000029a a505*           838 	br	.L1153
                         839 .L1158:
0000029c 013a            840 	mov	1,r7
                         841 .L1153:
                         842 --line508
                         843 ..lin.C.3A.5C_ECU2.5CECU_Rivian_A1.5CTarget.5Crepo_projects.5CpFOTA.5CcL_R2023.2E09.2E01.5Cmake.5Cobj.5CEcuabFee.54::
                         844 .LDWlin54:
0000029e 0750            845 	mov	r7,r10
                         846 --	    .ef
                         847 .LDW65:
000002a0 42063f00        848 	dispose	1,{r31},[lp]
                         849 	.type	_EcuabFee_InvalidateBlock,@function
                         850 	.size	_EcuabFee_InvalidateBlock,.-_EcuabFee_InvalidateBlock
                         851 	.align	2
                         852 .LDW75:
                         853 --_retVal	r10	local
                         854 
                         855 --_BlockNumber	r6	param
                         856 
                         857 	.section ".bss","awb"
                         858 .L1207:
                         859 	.type	.L1207,@object
                         860 	.size	.L1207,0
                         861 	.data
                         862 	.text
                         863 	.align	2
                         864 	.align	2
                         865 ..gh.f.f.1.e.16:
                         866 	.type	..gh.f.f.1.e.16,@object
                         867 	.size	..gh.f.f.1.e.16,0
                         868 	.global	_EcuabFee_EraseImmediateBlock
                         869 _EcuabFee_EraseImmediateBlock:
000002a4 82072100        870 	prepare	{r31},1
                         871 --	    .bf
                         872 .LDW85:
000002a8 840705980000*   873 	ld.b	sdaoff23(_EcuabFee_ComponentParameter+1)[gp],r19
000002ae 619a            874 	cmp	1,r19
000002b0 da0d*           875 	bne	.L1254
                         876 --line533
                         877 ..lin.C.3A.5C_ECU2.5CECU_Rivian_A1.5CTarget.5Crepo_projects.5CpFOTA.5CcL_R2023.2E09.2E01.5Cmake.5Cobj.5CEcuabFee.55::
                         878 .LDWlin55:
000002b2 0392            879 	mov	3,r18
000002b4 003a            880 	mov	0,r7
000002b6 c600            881 	zxh	r6
000002b8 63970100        882 	st.w	r18,0[sp]
000002bc 0740            883 	mov	r7,r8
000002be 0748            884 	mov	r7,r9
                         885 	jarl	_EcuabFee_SetUserParameter,lp
                         885 <EXPANSION BEGIN>
                         885 jarl22 _EcuabFee_SetUserParameter , lp 

                                                                      Page 18
                                                              C:\Users\nhuliyap\AppData\Local\Temp\gh_00008ik1.s
000002c0 bfffb8fd*       885 <EXPANSION END>
                         886 --line534
                         887 ..lin.C.3A.5C_ECU2.5CECU_Rivian_A1.5CTarget.5Crepo_projects.5CpFOTA.5CcL_R2023.2E09.2E01.5Cmake.5Cobj.5CEcuabFee.56::
                         888 .LDWlin56:
                         889 	jarl	_EcuabFee_SetJobParameter,lp
                         889 <EXPANSION BEGIN>
                         889 jarl22 _EcuabFee_SetJobParameter , lp 
000002c4 bfffcafd*       889 <EXPANSION END>
                         890 --line536
                         891 ..lin.C.3A.5C_ECU2.5CECU_Rivian_A1.5CTarget.5Crepo_projects.5CpFOTA.5CcL_R2023.2E09.2E01.5Cmake.5Cobj.5CEcuabFee.57::
                         892 .LDWlin57:
000002c8 a505*           893 	br	.L1249
                         894 .L1254:
000002ca 013a            895 	mov	1,r7
                         896 .L1249:
                         897 --line547
                         898 ..lin.C.3A.5C_ECU2.5CECU_Rivian_A1.5CTarget.5Crepo_projects.5CpFOTA.5CcL_R2023.2E09.2E01.5Cmake.5Cobj.5CEcuabFee.58::
                         899 .LDWlin58:
000002cc 0750            900 	mov	r7,r10
                         901 --	    .ef
                         902 .LDW95:
000002ce 42063f00        903 	dispose	1,{r31},[lp]
                         904 	.type	_EcuabFee_EraseImmediateBlock,@function
                         905 	.size	_EcuabFee_EraseImmediateBlock,.-_EcuabFee_EraseImmediateBlock
                         906 	.align	2
                         907 .LDW06:
                         908 --_retVal	r10	local
                         909 
                         910 --_BlockNumber	r6	param
                         911 
                         912 	.section ".bss","awb"
                         913 .L1303:
                         914 	.type	.L1303,@object
                         915 	.size	.L1303,0
                         916 	.data
                         917 	.text
                         918 	.align	2
                         919 	.align	2
                         920 ..gh.f.f.1.e.17:
                         921 	.type	..gh.f.f.1.e.17,@object
                         922 	.size	..gh.f.f.1.e.17,0
                         923 	.global	_EcuabFee_Cancel
                         924 _EcuabFee_Cancel:
000002d2 80072100        925 	prepare	{r31},0
                         926 --	    .bf
                         927 .LDW16:
000002d6 840705880000*   928 	ld.b	sdaoff23(_EcuabFee_ComponentParameter+1)[gp],r17
000002dc 618a            929 	cmp	1,r17
000002de e20d*           930 	be	.L1345
                         931 --line566
                         932 ..lin.C.3A.5C_ECU2.5CECU_Rivian_A1.5CTarget.5Crepo_projects.5CpFOTA.5CcL_R2023.2E09.2E01.5Cmake.5Cobj.5CEcuabFee.59::
                         933 .LDWlin59:
000002e0 0132            934 	mov	1,r6
                         935 	jarl	_EcuabFee_SetFlagCancelRequested,lp
                         935 <EXPANSION BEGIN>
                         935 jarl22 _EcuabFee_SetFlagCancelRequested , lp 
000002e2 bfff26fd*       935 <EXPANSION END>
                         936 --line567
                         937 ..lin.C.3A.5C_ECU2.5CECU_Rivian_A1.5CTarget.5Crepo_projects.5CpFOTA.5CcL_R2023.2E09.2E01.5Cmake.5Cobj.5CEcuabFee.60::
                         938 .LDWlin60:
000002e6 0032            939 	mov	0,r6

                                                                      Page 19
                                                              C:\Users\nhuliyap\AppData\Local\Temp\gh_00008ik1.s
                         940 	jarl	_EcuabFee_SetFlagJobRequested,lp
                         940 <EXPANSION BEGIN>
                         940 jarl22 _EcuabFee_SetFlagJobRequested , lp 
000002e8 bfff18fd*       940 <EXPANSION END>
                         941 --line569
                         942 ..lin.C.3A.5C_ECU2.5CECU_Rivian_A1.5CTarget.5Crepo_projects.5CpFOTA.5CcL_R2023.2E09.2E01.5Cmake.5Cobj.5CEcuabFee.61::
                         943 .LDWlin61:
000002ec 0382            944 	mov	3,r16
000002ee 3e0600000000*   945 	mov	sdaoff23(_EcuabFee_ComponentParameter),ep
000002f4 017a            946 	mov	1,r15
000002f6 8083            947 	sst.b	r16,0[ep]
000002f8 817b            948 	sst.b	r15,1[ep]
                         949 .L1345:
                         950 --	    .ef
                         951 .LDW26:
000002fa 40063f00        952 	dispose	0,{r31},[lp]
                         953 	.type	_EcuabFee_Cancel,@function
                         954 	.size	_EcuabFee_Cancel,.-_EcuabFee_Cancel
                         955 	.align	2
                         956 .LDW36:
                         957 
                         958 	.section ".bss","awb"
                         959 .L1388:
                         960 	.type	.L1388,@object
                         961 	.size	.L1388,0
                         962 	.data
                         963 	.text
                         964 	.align	2
                         965 	.align	2
                         966 ..gh.f.f.1.e.18:
                         967 	.type	..gh.f.f.1.e.18,@object
                         968 	.size	..gh.f.f.1.e.18,0
                         969 	.global	_EcuabFee_GetStatus
                         970 _EcuabFee_GetStatus:
                         971 --	    .bf
                         972 .LDW46:
000002fe 840705500000*   973 	ld.b	sdaoff23(_EcuabFee_ComponentParameter+1)[gp],r10
                         974 --	    .ef
                         975 .LDW56:
00000304 7f00            976 	jmp	[lp]
                         977 	.type	_EcuabFee_GetStatus,@function
                         978 	.size	_EcuabFee_GetStatus,.-_EcuabFee_GetStatus
                         979 	.align	2
                         980 .LDW66:
                         981 
                         982 	.section ".bss","awb"
                         983 .L1441:
                         984 	.type	.L1441,@object
                         985 	.size	.L1441,0
                         986 	.data
                         987 	.text
                         988 	.align	2
                         989 	.align	2
                         990 ..gh.f.f.1.e.19:
                         991 	.type	..gh.f.f.1.e.19,@object
                         992 	.size	..gh.f.f.1.e.19,0
                         993 	.global	_EcuabFee_GetJobResult
                         994 _EcuabFee_GetJobResult:
                         995 --	    .bf
                         996 .LDW76:
00000306 840705500000*   997 	ld.b	sdaoff23(_EcuabFee_ComponentParameter)[gp],r10

                                                                      Page 20
                                                              C:\Users\nhuliyap\AppData\Local\Temp\gh_00008ik1.s
                         998 --	    .ef
                         999 .LDW86:
0000030c 7f00           1000 	jmp	[lp]
                        1001 	.type	_EcuabFee_GetJobResult,@function
                        1002 	.size	_EcuabFee_GetJobResult,.-_EcuabFee_GetJobResult
                        1003 	.align	2
                        1004 .LDW96:
                        1005 
                        1006 	.section ".bss","awb"
                        1007 .L1489:
                        1008 	.type	.L1489,@object
                        1009 	.size	.L1489,0
                        1010 	.data
                        1011 	.text
                        1012 	.align	2
                        1013 	.align	2
                        1014 ..gh.f.f.1.e.20:
                        1015 	.type	..gh.f.f.1.e.20,@object
                        1016 	.size	..gh.f.f.1.e.20,0
                        1017 	.global	_EcuabFee_SetMode
                        1018 _EcuabFee_SetMode:
                        1019 --	    .bf
                        1020 .LDW07:
                        1021 --	    .ef
                        1022 .LDW17:
0000030e 7f00           1023 	jmp	[lp]
                        1024 	.type	_EcuabFee_SetMode,@function
                        1025 	.size	_EcuabFee_SetMode,.-_EcuabFee_SetMode
                        1026 	.align	2
                        1027 .LDW27:
                        1028 
                        1029 --_Mode	none	param
                        1030 
                        1031 	.section ".bss","awb"
                        1032 .L1536:
                        1033 	.type	.L1536,@object
                        1034 	.size	.L1536,0
                        1035 	.data
                        1036 	.text
                        1037 	.align	2
                        1038 	.align	2
                        1039 ..gh.f.f.1.e.21:
                        1040 	.type	..gh.f.f.1.e.21,@object
                        1041 	.size	..gh.f.f.1.e.21,0
                        1042 	.global	_EcuabFee_SuspendWrites
                        1043 _EcuabFee_SuspendWrites:
                        1044 --	    .bf
                        1045 .LDW37:
00000310 80070000*      1046 	jr	_EcuabFee_Wr_SuspendWrites
                        1047 --	    .ef
                        1048 .LDW47:
                        1049 	.type	_EcuabFee_SuspendWrites,@function
                        1050 	.size	_EcuabFee_SuspendWrites,.-_EcuabFee_SuspendWrites
                        1051 	.align	2
                        1052 .LDW57:
                        1053 
                        1054 	.section ".bss","awb"
                        1055 .L1569:
                        1056 	.type	.L1569,@object
                        1057 	.size	.L1569,0
                        1058 	.data

                                                                      Page 21
                                                              C:\Users\nhuliyap\AppData\Local\Temp\gh_00008ik1.s
                        1059 	.text
                        1060 	.align	2
                        1061 	.align	2
                        1062 ..gh.f.f.1.e.22:
                        1063 	.type	..gh.f.f.1.e.22,@object
                        1064 	.size	..gh.f.f.1.e.22,0
                        1065 	.global	_EcuabFee_ResumeWrites
                        1066 _EcuabFee_ResumeWrites:
                        1067 --	    .bf
                        1068 .LDW67:
00000314 80070000*      1069 	jr	_EcuabFee_Wr_ResumeWrites
                        1070 --	    .ef
                        1071 .LDW77:
                        1072 	.type	_EcuabFee_ResumeWrites,@function
                        1073 	.size	_EcuabFee_ResumeWrites,.-_EcuabFee_ResumeWrites
                        1074 	.align	2
                        1075 .LDW87:
                        1076 
                        1077 	.section ".bss","awb"
                        1078 .L1617:
                        1079 	.type	.L1617,@object
                        1080 	.size	.L1617,0
                        1081 	.data
                        1082 	.text
                        1083 	.align	2
                        1084 	.align	2
                        1085 ..gh.f.f.1.e.23:
                        1086 	.type	..gh.f.f.1.e.23,@object
                        1087 	.size	..gh.f.f.1.e.23,0
                        1088 	.global	_EcuabFee_MainFunction
                        1089 _EcuabFee_MainFunction:
                        1090 --	    .bf
                        1091 .LDW97:
00000318 a40705900000*  1092 	ld.bu	sdaoff23(_EcuabFee_InternalFlags)[gp],r18
0000031e 6192           1093 	cmp	1,r18
00000320 ba05*          1094 	bne	.L1636
00000322 bf071cfe*      1095 	jr	_EcuabFee_ProcessStateMachine
                        1096 .L1636:
                        1097 --	    .ef
                        1098 .LDW08:
                        1099 --line698
                        1100 ..lin.C.3A.5C_ECU2.5CECU_Rivian_A1.5CTarget.5Crepo_projects.5CpFOTA.5CcL_R2023.2E09.2E01.5Cmake.5Cobj.5CEcuabFee.62::
                        1101 .LDWlin62:
00000326 7f00           1102 	jmp	[lp]
                        1103 	.type	_EcuabFee_MainFunction,@function
                        1104 	.size	_EcuabFee_MainFunction,.-_EcuabFee_MainFunction
                        1105 	.align	2
                        1106 .LDW18:
                        1107 
                        1108 	.section ".bss","awb"
                        1109 .L1670:
                        1110 	.type	.L1670,@object
                        1111 	.size	.L1670,0
                        1112 	.data
                        1113 	.text
                        1114 	.align	2
                        1115 	.align	2
                        1116 ..gh.f.f.1.e.24:
                        1117 	.type	..gh.f.f.1.e.24,@object
                        1118 	.size	..gh.f.f.1.e.24,0
                        1119 	.global	_EcuabFee_AlignValue

                                                                      Page 22
                                                              C:\Users\nhuliyap\AppData\Local\Temp\gh_00008ik1.s
                        1120 _EcuabFee_AlignValue:
00000328 0740           1121 	mov	r7,r8
0000032a c800           1122 	zxh	r8
                        1123 --	    .bf
                        1124 .LDW28:
0000032c 0650           1125 	mov	r6,r10
0000032e e837fe3a       1126 	divqu	r8,r6,r7
00000332 e039           1127 	cmp	zero,r7
00000334 e205*          1128 	be	.L1705
                        1129 --line707
                        1130 ..lin.C.3A.5C_ECU2.5CECU_Rivian_A1.5CTarget.5Crepo_projects.5CpFOTA.5CcL_R2023.2E09.2E01.5Cmake.5Cobj.5CEcuabFee.63::
                        1131 .LDWlin63:
00000336 06560100       1132 	addi	1,r6,r10
0000033a e8572202       1133 	mulu	r8,r10,zero
0000033e 7f00           1134 	jmp	[lp]
                        1135 .L1705:
                        1136 --	    .ef
                        1137 .LDW38:
                        1138 --line710
                        1139 ..lin.C.3A.5C_ECU2.5CECU_Rivian_A1.5CTarget.5Crepo_projects.5CpFOTA.5CcL_R2023.2E09.2E01.5Cmake.5Cobj.5CEcuabFee.64::
                        1140 .LDWlin64:
00000340 7f00           1141 	jmp	[lp]
                        1142 	.type	_EcuabFee_AlignValue,@function
                        1143 	.size	_EcuabFee_AlignValue,.-_EcuabFee_AlignValue
                        1144 	.align	2
                        1145 .LDW48:
                        1146 --_retVal	r10	local
                        1147 
                        1148 --_Value	r10	param
                        1149 --_Alignment	r8	param
                        1150 
                        1151 	.section ".bss","awb"
                        1152 .L1744:
                        1153 	.type	.L1744,@object
                        1154 	.size	.L1744,0
                        1155 	.data
                        1156 	.text
                        1157 	.align	2
                        1158 --_EcuabFee_ComponentParameter	sdaoff23(_EcuabFee_ComponentParameter)	static
                        1159 --_EcuabFee_StateMachine	sdaoff23(_EcuabFee_StateMachine)	static
                        1160 --_EcuabFee_UserJobParameter	sdaoff23(_EcuabFee_UserJobParameter)	static
                        1161 --_EcuabFee_InternalFlags	sdaoff23(_EcuabFee_InternalFlags)	static
                        1162 
                        1163 	.data
                        1164 	.ghsnote version,17
                        1165 	.ghsnote tools,3
                        1166 	.ghsnote options,144
                        1167 	.text
                        1168 	.align	2
                        1169 ..eof.C.3A.5C_ECU2.5CECU_Rivian_A1.5CTarget.5Crepo_projects.5CpFOTA.5CcL_R2023.2E09.2E01.5Cmake.5Cobj.5CEcuabFee...43.3A.5C_ECU2.5CECU_Rivian_A1.5CTarget.5Crepo_projects.5CpFOTA.5CcL_R2023.2E09.2E01.5Cmake..64F863AF..0::
                        1170 .rh850_flags REGMODE32,DATA_ALIGN8,GP_FIX,EP_NONFIX,TP_FIX,REG2_RESERVE,G3K,SDA_EXTRA_REGS_0
