                                                                      Page 1
                                                              C:\Users\nhuliyap\AppData\Local\Temp\gh_00009vs1.s
Command Line: C:\GHS\comp_201517\ease850.exe -w -stderr=err/EcuabFee_Layer2_InstanceFinder.err -elf -b0 -I../source/_common -I../source/common -I../source/ecuabcanif -I../source/ecuabcantrcv -I../source/ecuabcryif -I../source/ecuabfee -I../source/ecuabmemif -I../source/libautosar -I../source/mcalcan -I../source/mcalcry -I../source/mcaldio -I../source/mcaleep -I../source/mcalfls -I../source/mcalmcu -I../source/projectara -I../source/projectcfg -I../source/projectcompiler -I../source/swcservicebswm -I../source/swcservicecantp -I../source/swcservicecomm -I../source/swcservicecsm -I../source/swcservicedcm -I../source/swcservicedem -I../source/swcservicedet -I../source/swcserviceecum -I../source/swcservicenvm -I../source/swcserviceos -I../source/swcservicepdur -I../source/swcserviceschm -I../source/swcservicestartup -I../source/wrappers/swcservicesecm -I../source/wrappers/vsecprim -I../source/wrappers/vstdlib -Ic:/ghs/comp_201517/ansi -Ic:/ghs/comp_201517/include/v800 -Igendata -IC:\GHS\comp_201517\lib\rh850 -cg_underscore -cpu=rh850g3k -nofpu -no_v850_simd -rh850_fpsimd=none -nomacro -patch_dbo=C:\_ECU2\ECU_Rivian_A1\Target\repo_projects\pFOTA\cL_R2023.09.01\make\obj\EcuabFee_Layer2_InstanceFinder.dbo -source=EcuabFee_Layer2_InstanceFinder.c -o obj\gh_00009vs1.o -list=lst/EcuabFee_Layer2_InstanceFinder.lst C:\Users\nhuliyap\AppData\Local\Temp\gh_00009vs1.s 
Original File: C:\Users\nhuliyap\AppData\Local\Temp\gh_00009vs1.s
Source File: EcuabFee_Layer2_InstanceFinder.c
Directory: C:\_ECU2\ECU_Rivian_A1\Target\repo_projects\pFOTA\cL_R2023.09.01\make
Host OS: Windows
EASE: Copyright (C) 1983-2015 Green Hills Software.  All Rights Reserved.
Release: Compiler v2015.1.7
Build Directory: [Directory] BTOWORKER6:c:/build_2015_1_bto/2015-10-21.2100-2015_1_bto/win32-comp-ecom
Revision: [VCInfo] http://toolsvc/branches/release-branch-70-bto/src@544153 (built by build)
Revision Date: Thu Oct 22 07:50:13 2015

Release Date: Thu Oct 22 09:32:32 2015

                           1 --Driver Command: ccrh850 -DBRS_DERIVATIVE_701018 -DBRS_OSC_CLK=16
                           2 --		-DBRS_TIMEBASE_CLOCK=80 -DBRS_EVA_BOARD_
                           3 --		-DBRS_DERIVATIVE_GROUP_F1L -DBRS_OS_USECASE_BRS
                           4 --		-DBRS_PLATFORM_RH850 -DBRS_COMP_GHS
                           5 --		-DBRS_CPU_LOCAL_RAM_SIZE_CORE0=32
                           6 --		-DBRS_CPU_RAM_START_CORE0=0xFEDF8000
                           7 --		-list=lst/EcuabFee_Layer2_InstanceFinder.lst -object_dir=obj
                           8 --		-stderr=err/EcuabFee_Layer2_InstanceFinder.err -c -cpu=rh850
                           9 --		-sda=all -large_sda -prepare_dispose -pragma_asm_inline -no_callt
                          10 --		-inline_prologue -notda -reserve_r2 -fsoft
                          11 --		--unknown_pragma_warnings -list -g -Ogeneral -shortenum
                          12 --		-registermode=32 -I../source/_common -I../source/common
                          13 --		-I../source/ecuabcanif -I../source/ecuabcantrcv
                          14 --		-I../source/ecuabcryif -I../source/ecuabfee
                          15 --		-I../source/ecuabmemif -I../source/libautosar -I../source/mcalcan
                          16 --		-I../source/mcalcry -I../source/mcaldio -I../source/mcaleep
                          17 --		-I../source/mcalfls -I../source/mcalmcu -I../source/projectara
                          18 --		-I../source/projectcfg -I../source/projectcompiler
                          19 --		-I../source/swcservicebswm -I../source/swcservicecantp
                          20 --		-I../source/swcservicecomm -I../source/swcservicecsm
                          21 --		-I../source/swcservicedcm -I../source/swcservicedem
                          22 --		-I../source/swcservicedet -I../source/swcserviceecum
                          23 --		-I../source/swcservicenvm -I../source/swcserviceos
                          24 --		-I../source/swcservicepdur -I../source/swcserviceschm
                          25 --		-I../source/swcservicestartup -I../source/wrappers/swcservicesecm
                          26 --		-I../source/wrappers/vsecprim -I../source/wrappers/vstdlib
                          27 --		-Ic:/ghs/comp_201517/ansi -Ic:/ghs/comp_201517/include/v800
                          28 --		-Igendata ../source/EcuabFee/EcuabFee_Layer2_InstanceFinder.c
                          29 --Source File:   ../source/EcuabFee/EcuabFee_Layer2_InstanceFinder.c
                          30 --Directory:     
                          31 --		C:\_ECU2\ECU_Rivian_A1\Target\repo_projects\pFOTA\cL_R2023.09.01\make
                          32 --Compile Date:  Wed Sep 06 13:34:17 2023
                          33 --Host OS:       Win32
                          34 --Version:       C-RH850 2015.1.7 RELEASE VERSION
                          35 --Release:       Compiler v2015.1.7
                          36 --Revision Date: Thu Oct 22 08:06:12 2015
                          37 --Release Date:  Thu Oct 22 09:34:32 2015
                          38 -- ecom  -g -w -OM
                          39 	.text
                          40 ..bof.C.3A.5C_ECU2.5CECU_Rivian_A1.5CTarget.5Crepo_projects.5CpFOTA.5CcL_R2023.2E09.2E01.5Cmake.5Cobj.5CEcuabFee_Layer2_InstanceFinder...43.3A.5C_ECU2.5CECU_Rivian_A1.5CTarget.5Crepo_projects.5CpFOTA.5CcL_R2023.2E09.2E01.5Cmake..64F863BA..0::
                          41 	.align	2
                          42 ..gh.f.f.1.e.0:
                          43 	.type	..gh.f.f.1.e.0,@object
                          44 	.size	..gh.f.f.1.e.0,0
                          45 	.global	_EcuabFee_If_IsSearchFinished..C.3A.5C_ECU2.5CECU_Rivian_A1.5CTarget.5Crepo_projects.5CpFOTA.5CcL_R2023.2E09.2E01.5Cmake.5Cobj.5CEcuabFee_Layer2_InstanceFinder.
                          46 _EcuabFee_If_IsSearchFinished..C.3A.5C_ECU2.5CECU_Rivian_A1.5CTarget.5Crepo_projects.5CpFOTA.5CcL_R2023.2E09.2E01.5Cmake.5Cobj.5CEcuabFee_Layer2_InstanceFinder.:
                          47 _EcuabFee_If_IsSearchFinished:
00000000 8007e110         48 	prepare	{r27,r28,r29,r31},0
00000004 06e8             49 	mov	r6,r29
00000006 07e0             50 	mov	r7,r28

                                                                      Page 2
                                                              C:\Users\nhuliyap\AppData\Local\Temp\gh_00009vs1.s
                          51 --	    .bf
                          52 .LDW01:
                          53 	jarl	_EcuabFee_Ih_GetInstanceStatus,lp
                          53 <EXPANSION BEGIN>
                          53 jarl22 _EcuabFee_Ih_GetInstanceStatus , lp 
00000008 80ff0000*        53 <EXPANSION END>
0000000c e051             54 	cmp	zero,r10
0000000e a215*            55 	be	.L6
                          56 --line87
                          57 ..lin.C.3A.5C_ECU2.5CECU_Rivian_A1.5CTarget.5Crepo_projects.5CpFOTA.5CcL_R2023.2E09.2E01.5Cmake.5Cobj.5CEcuabFee_Layer2_InstanceFinder.1::
                          58 .LDWlin1:
00000010 bd0709800000     59 	ld.dw	0[r29],r16
00000016 bd0789700000     60 	ld.dw	8[r29],r14
0000001c 3d971100         61 	ld.w	16[r29],r18
00000020 1ce8             62 	mov	r28,r29
00000022 bc070f800000     63 	st.dw	r16,0[r28]
00000028 bc078f700000     64 	st.dw	r14,8[r28]
0000002e 00da             65 	mov	0,r27
00000030 8515*            66 	br	.L4
                          67 .L6:
                          68 --line82
                          69 ..lin.C.3A.5C_ECU2.5CECU_Rivian_A1.5CTarget.5Crepo_projects.5CpFOTA.5CcL_R2023.2E09.2E01.5Cmake.5Cobj.5CEcuabFee_Layer2_InstanceFinder.2::
                          70 .LDWlin2:
00000032 bc0709400000     71 	ld.dw	0[r28],r8
00000038 bc0789300000     72 	ld.dw	8[r28],r6
0000003e 3c971100         73 	ld.w	16[r28],r18
00000042 01da             74 	mov	1,r27
00000044 bd070f400000     75 	st.dw	r8,0[r29]
0000004a bd078f300000     76 	st.dw	r6,8[r29]
                          77 .L4:
00000050 7d971100         78 	st.w	r18,16[r29]
00000054 1b50             79 	mov	r27,r10
                          80 --	    .ef
                          81 .LDW11:
00000056 4006ff10         82 	dispose	0,{r27,r28,r29,r31},[lp]
                          83 	.type	_EcuabFee_If_IsSearchFinished,@function
                          84 	.size	_EcuabFee_If_IsSearchFinished,.-_EcuabFee_If_IsSearchFinished
                          85 	.type	_EcuabFee_If_IsSearchFinished..C.3A.5C_ECU2.5CECU_Rivian_A1.5CTarget.5Crepo_projects.5CpFOTA.5CcL_R2023.2E09.2E01.5Cmake.5Cobj.5CEcuabFee_Layer2_InstanceFinder.,@function
                          86 	.size	_EcuabFee_If_IsSearchFinished..C.3A.5C_ECU2.5CECU_Rivian_A1.5CTarget.5Crepo_projects.5CpFOTA.5CcL_R2023.2E09.2E01.5Cmake.5Cobj.5CEcuabFee_Layer2_InstanceFinder.,.-_EcuabFee_If_IsSearchFinished..C.3A.5C_ECU2.5CECU_Rivian_A1.5CTarget.5Crepo_projects.5CpFOTA.5CcL_R2023.2E09.2E01.5Cmake.5Cobj.5CEcuabFee_Layer2_InstanceFinder.
                          87 	.align	2
                          88 .LDW21:
                          89 --_retVal	r27	local
                          90 
                          91 --_Instance	r29	param
                          92 --_PreviousInstance	r28	param
                          93 
                          94 	.section ".bss","awb"
                          95 .L54:
                          96 	.type	.L54,@object
                          97 	.size	.L54,0
                          98 	.data
                          99 	.text
                         100 	.align	2
                         101 	.align	2
                         102 	.align	2
                         103 ..gh.f.f.1.e.1:
                         104 	.type	..gh.f.f.1.e.1,@object
                         105 	.size	..gh.f.f.1.e.1,0
                         106 	.global	_EcuabFee_If_ProcessIdleState..C.3A.5C_ECU2.5CECU_Rivian_A1.5CTarget.5Crepo_projects.5CpFOTA.5CcL_R2023.2E09.2E01.5Cmake.5Cobj.5CEcuabFee_Layer2_InstanceFinder.
                         107 _EcuabFee_If_ProcessIdleState..C.3A.5C_ECU2.5CECU_Rivian_A1.5CTarget.5Crepo_projects.5CpFOTA.5CcL_R2023.2E09.2E01.5Cmake.5Cobj.5CEcuabFee_Layer2_InstanceFinder.:
                         108 _EcuabFee_If_ProcessIdleState:

                                                                      Page 3
                                                              C:\Users\nhuliyap\AppData\Local\Temp\gh_00009vs1.s
0000005a 80072100        109 	prepare	{r31},0
                         110 --	    .bf
                         111 .LDW31:
                         112 	jarl	_EcuabFee_Dh_CheckErasePattern,lp
                         112 <EXPANSION BEGIN>
                         112 jarl22 _EcuabFee_Dh_CheckErasePattern , lp 
0000005e 80ff0000*       112 <EXPANSION END>
00000062 e051            113 	cmp	zero,r10
00000064 fa05*           114 	bne	.L105
                         115 --line106
                         116 ..lin.C.3A.5C_ECU2.5CECU_Rivian_A1.5CTarget.5Crepo_projects.5CpFOTA.5CcL_R2023.2E09.2E01.5Cmake.5Cobj.5CEcuabFee_Layer2_InstanceFinder.3::
                         117 .LDWlin3:
00000066 024a            118 	mov	2,r9
00000068 84070d480000*   119 	st.b	r9,sdaoff23(_EcuabFee_If_ComponentParameter+2)[gp]
0000006e 40063f00        120 	dispose	0,{r31},[lp]
                         121 .L105:
                         122 --line109
                         123 ..lin.C.3A.5C_ECU2.5CECU_Rivian_A1.5CTarget.5Crepo_projects.5CpFOTA.5CcL_R2023.2E09.2E01.5Cmake.5Cobj.5CEcuabFee_Layer2_InstanceFinder.4::
                         124 .LDWlin4:
00000072 0332            125 	mov	3,r6
                         126 	jarl	_EcuabFee_If_FinishJob,lp
                         126 <EXPANSION BEGIN>
                         126 jarl22 _EcuabFee_If_FinishJob , lp 
00000074 80ff0802*       126 <EXPANSION END>
                         127 --	    .ef
                         128 .LDW41:
                         129 --line111
                         130 ..lin.C.3A.5C_ECU2.5CECU_Rivian_A1.5CTarget.5Crepo_projects.5CpFOTA.5CcL_R2023.2E09.2E01.5Cmake.5Cobj.5CEcuabFee_Layer2_InstanceFinder.5::
                         131 .LDWlin5:
00000078 40063f00        132 	dispose	0,{r31},[lp]
                         133 	.type	_EcuabFee_If_ProcessIdleState,@function
                         134 	.size	_EcuabFee_If_ProcessIdleState,.-_EcuabFee_If_ProcessIdleState
                         135 	.type	_EcuabFee_If_ProcessIdleState..C.3A.5C_ECU2.5CECU_Rivian_A1.5CTarget.5Crepo_projects.5CpFOTA.5CcL_R2023.2E09.2E01.5Cmake.5Cobj.5CEcuabFee_Layer2_InstanceFinder.,@function
                         136 	.size	_EcuabFee_If_ProcessIdleState..C.3A.5C_ECU2.5CECU_Rivian_A1.5CTarget.5Crepo_projects.5CpFOTA.5CcL_R2023.2E09.2E01.5Cmake.5Cobj.5CEcuabFee_Layer2_InstanceFinder.,.-_EcuabFee_If_ProcessIdleState..C.3A.5C_ECU2.5CECU_Rivian_A1.5CTarget.5Crepo_projects.5CpFOTA.5CcL_R2023.2E09.2E01.5Cmake.5Cobj.5CEcuabFee_Layer2_InstanceFinder.
                         137 	.align	2
                         138 .LDW51:
                         139 
                         140 	.section ".bss","awb"
                         141 .L139:
                         142 	.type	.L139,@object
                         143 	.size	.L139,0
                         144 	.section ".sbss","awb"
                         145 	.align	4
                         146 	.global	_EcuabFee_If_Instance..C.3A.5C_ECU2.5CECU_Rivian_A1.5CTarget.5Crepo_projects.5CpFOTA.5CcL_R2023.2E09.2E01.5Cmake.5Cobj.5CEcuabFee_Layer2_InstanceFinder.
                         147 _EcuabFee_If_Instance..C.3A.5C_ECU2.5CECU_Rivian_A1.5CTarget.5Crepo_projects.5CpFOTA.5CcL_R2023.2E09.2E01.5Cmake.5Cobj.5CEcuabFee_Layer2_InstanceFinder.:
00000000 00000000        148 _EcuabFee_If_Instance:	.space	4
                         149 	.type	_EcuabFee_If_Instance..C.3A.5C_ECU2.5CECU_Rivian_A1.5CTarget.5Crepo_projects.5CpFOTA.5CcL_R2023.2E09.2E01.5Cmake.5Cobj.5CEcuabFee_Layer2_InstanceFinder.,@object
                         150 	.size	_EcuabFee_If_Instance..C.3A.5C_ECU2.5CECU_Rivian_A1.5CTarget.5Crepo_projects.5CpFOTA.5CcL_R2023.2E09.2E01.5Cmake.5Cobj.5CEcuabFee_Layer2_InstanceFinder.,4
                         151 	.type	_EcuabFee_If_Instance,@object
                         152 	.size	_EcuabFee_If_Instance,4
                         153 	.section ".sdata","aw"
                         154 	.global	_EcuabFee_If_ComponentParameter..C.3A.5C_ECU2.5CECU_Rivian_A1.5CTarget.5Crepo_projects.5CpFOTA.5CcL_R2023.2E09.2E01.5Cmake.5Cobj.5CEcuabFee_Layer2_InstanceFinder.
                         155 _EcuabFee_If_ComponentParameter..C.3A.5C_ECU2.5CECU_Rivian_A1.5CTarget.5Crepo_projects.5CpFOTA.5CcL_R2023.2E09.2E01.5Cmake.5Cobj.5CEcuabFee_Layer2_InstanceFinder.:
00000000 03              156 _EcuabFee_If_ComponentParameter:	.byte	3
00000001 00              157 	.space	1
00000002 00              158 	.space	1
                         159 	.type	_EcuabFee_If_ComponentParameter..C.3A.5C_ECU2.5CECU_Rivian_A1.5CTarget.5Crepo_projects.5CpFOTA.5CcL_R2023.2E09.2E01.5Cmake.5Cobj.5CEcuabFee_Layer2_InstanceFinder.,@object
                         160 	.size	_EcuabFee_If_ComponentParameter..C.3A.5C_ECU2.5CECU_Rivian_A1.5CTarget.5Crepo_projects.5CpFOTA.5CcL_R2023.2E09.2E01.5Cmake.5Cobj.5CEcuabFee_Layer2_InstanceFinder.,3
                         161 	.type	_EcuabFee_If_ComponentParameter,@object
                         162 	.size	_EcuabFee_If_ComponentParameter,3
                         163 	.section ".sbss","awb"

                                                                      Page 4
                                                              C:\Users\nhuliyap\AppData\Local\Temp\gh_00009vs1.s
                         164 	.global	_EcuabFee_If_InstancePrev..C.3A.5C_ECU2.5CECU_Rivian_A1.5CTarget.5Crepo_projects.5CpFOTA.5CcL_R2023.2E09.2E01.5Cmake.5Cobj.5CEcuabFee_Layer2_InstanceFinder.
                         165 _EcuabFee_If_InstancePrev..C.3A.5C_ECU2.5CECU_Rivian_A1.5CTarget.5Crepo_projects.5CpFOTA.5CcL_R2023.2E09.2E01.5Cmake.5Cobj.5CEcuabFee_Layer2_InstanceFinder.:
00000004 000000000000    166 _EcuabFee_If_InstancePrev:	.space	20
0000000a 000000000000 
00000010 000000000000 
00000016 0000 
                         167 	.type	_EcuabFee_If_InstancePrev..C.3A.5C_ECU2.5CECU_Rivian_A1.5CTarget.5Crepo_projects.5CpFOTA.5CcL_R2023.2E09.2E01.5Cmake.5Cobj.5CEcuabFee_Layer2_InstanceFinder.,@object
                         168 	.size	_EcuabFee_If_InstancePrev..C.3A.5C_ECU2.5CECU_Rivian_A1.5CTarget.5Crepo_projects.5CpFOTA.5CcL_R2023.2E09.2E01.5Cmake.5Cobj.5CEcuabFee_Layer2_InstanceFinder.,20
                         169 	.type	_EcuabFee_If_InstancePrev,@object
                         170 	.size	_EcuabFee_If_InstancePrev,20
                         171 	.data
                         172 	.text
                         173 	.align	2
                         174 	.align	2
                         175 ..gh.f.f.1.e.2:
                         176 	.type	..gh.f.f.1.e.2,@object
                         177 	.size	..gh.f.f.1.e.2,0
                         178 	.global	_EcuabFee_If_ProcessCheckErasePattern1..C.3A.5C_ECU2.5CECU_Rivian_A1.5CTarget.5Crepo_projects.5CpFOTA.5CcL_R2023.2E09.2E01.5Cmake.5Cobj.5CEcuabFee_Layer2_InstanceFinder.
                         179 _EcuabFee_If_ProcessCheckErasePattern1..C.3A.5C_ECU2.5CECU_Rivian_A1.5CTarget.5Crepo_projects.5CpFOTA.5CcL_R2023.2E09.2E01.5Cmake.5Cobj.5CEcuabFee_Layer2_InstanceFinder.:
                         180 _EcuabFee_If_ProcessCheckErasePattern1:
0000007c 80072100        181 	prepare	{r31},0
                         182 --	    .bf
                         183 .LDW61:
                         184 	jarl	_EcuabFee_Fls_GetJobResult,lp
                         184 <EXPANSION BEGIN>
                         184 jarl22 _EcuabFee_Fls_GetJobResult , lp 
00000080 80ff0000*       184 <EXPANSION END>
00000084 e051            185 	cmp	zero,r10
00000086 ea1d*           186 	bne	.L183
                         187 	jarl	_EcuabFee_Dh_IsErasePatternBlank,lp
                         187 <EXPANSION BEGIN>
                         187 jarl22 _EcuabFee_Dh_IsErasePatternBlank , lp 
00000088 80ff0000*       187 <EXPANSION END>
0000008c 6152            188 	cmp	1,r10
0000008e aa1d*           189 	bne	.L183
                         190 --line115
                         191 ..lin.C.3A.5C_ECU2.5CECU_Rivian_A1.5CTarget.5Crepo_projects.5CpFOTA.5CcL_R2023.2E09.2E01.5Cmake.5Cobj.5CEcuabFee_Layer2_InstanceFinder.6::
                         192 .LDWlin6:
                         193 	jarl	_EcuabFee_Ph_GetBlankCheckApi,lp
                         193 <EXPANSION BEGIN>
                         193 jarl22 _EcuabFee_Ph_GetBlankCheckApi , lp 
00000090 80ff0000*       193 <EXPANSION END>
00000094 0132            194 	mov	1,r6
00000096 6152            195 	cmp	1,r10
00000098 ba0d*           196 	bne	.L186
                         197 --line116
                         198 ..lin.C.3A.5C_ECU2.5CECU_Rivian_A1.5CTarget.5Crepo_projects.5CpFOTA.5CcL_R2023.2E09.2E01.5Cmake.5Cobj.5CEcuabFee_Layer2_InstanceFinder.7::
                         199 .LDWlin7:
                         200 	jarl	_EcuabFee_Dh_BlankCheckErasePattern,lp
                         200 <EXPANSION BEGIN>
                         200 jarl22 _EcuabFee_Dh_BlankCheckErasePattern , lp 
0000009a 80ff0000*       200 <EXPANSION END>
0000009e e051            201 	cmp	zero,r10
000000a0 aa1d*           202 	bne	.L198
                         203 --line118
                         204 ..lin.C.3A.5C_ECU2.5CECU_Rivian_A1.5CTarget.5Crepo_projects.5CpFOTA.5CcL_R2023.2E09.2E01.5Cmake.5Cobj.5CEcuabFee_Layer2_InstanceFinder.8::
                         205 .LDWlin8:
000000a2 034a            206 	mov	3,r9
000000a4 84070d480000*   207 	st.b	r9,sdaoff23(_EcuabFee_If_ComponentParameter+2)[gp]
000000aa 40063f00        208 	dispose	0,{r31},[lp]
                         209 .L186:

                                                                      Page 5
                                                              C:\Users\nhuliyap\AppData\Local\Temp\gh_00009vs1.s
                         210 --line126
                         211 ..lin.C.3A.5C_ECU2.5CECU_Rivian_A1.5CTarget.5Crepo_projects.5CpFOTA.5CcL_R2023.2E09.2E01.5Cmake.5Cobj.5CEcuabFee_Layer2_InstanceFinder.9::
                         212 .LDWlin9:
                         213 	jarl	_EcuabFee_Dh_ReadErasePattern,lp
                         213 <EXPANSION BEGIN>
                         213 jarl22 _EcuabFee_Dh_ReadErasePattern , lp 
000000ae 80ff0000*       213 <EXPANSION END>
000000b2 e051            214 	cmp	zero,r10
000000b4 8a15*           215 	bne	.L198
                         216 --line128
                         217 ..lin.C.3A.5C_ECU2.5CECU_Rivian_A1.5CTarget.5Crepo_projects.5CpFOTA.5CcL_R2023.2E09.2E01.5Cmake.5Cobj.5CEcuabFee_Layer2_InstanceFinder.10::
                         218 .LDWlin10:
000000b6 044a            219 	mov	4,r9
000000b8 84070d480000*   220 	st.b	r9,sdaoff23(_EcuabFee_If_ComponentParameter+2)[gp]
000000be 40063f00        221 	dispose	0,{r31},[lp]
                         222 .L183:
                         223 --line137
                         224 ..lin.C.3A.5C_ECU2.5CECU_Rivian_A1.5CTarget.5Crepo_projects.5CpFOTA.5CcL_R2023.2E09.2E01.5Cmake.5Cobj.5CEcuabFee_Layer2_InstanceFinder.11::
                         225 .LDWlin11:
                         226 	jarl	_EcuabFee_Fls_GetJobResult,lp
                         226 <EXPANSION BEGIN>
                         226 jarl22 _EcuabFee_Fls_GetJobResult , lp 
000000c2 80ff0000*       226 <EXPANSION END>
000000c6 6152            227 	cmp	1,r10
000000c8 e205*           228 	be	.L198
                         229 --line142
                         230 ..lin.C.3A.5C_ECU2.5CECU_Rivian_A1.5CTarget.5Crepo_projects.5CpFOTA.5CcL_R2023.2E09.2E01.5Cmake.5Cobj.5CEcuabFee_Layer2_InstanceFinder.12::
                         231 .LDWlin12:
000000ca 0632            232 	mov	6,r6
                         233 	jarl	_EcuabFee_If_FinishJob,lp
                         233 <EXPANSION BEGIN>
                         233 jarl22 _EcuabFee_If_FinishJob , lp 
000000cc 80ffb001*       233 <EXPANSION END>
                         234 --line143
                         235 ..lin.C.3A.5C_ECU2.5CECU_Rivian_A1.5CTarget.5Crepo_projects.5CpFOTA.5CcL_R2023.2E09.2E01.5Cmake.5Cobj.5CEcuabFee_Layer2_InstanceFinder.13::
                         236 .LDWlin13:
000000d0 40063f00        237 	dispose	0,{r31},[lp]
                         238 .L198:
                         239 --line139
                         240 ..lin.C.3A.5C_ECU2.5CECU_Rivian_A1.5CTarget.5Crepo_projects.5CpFOTA.5CcL_R2023.2E09.2E01.5Cmake.5Cobj.5CEcuabFee_Layer2_InstanceFinder.14::
                         241 .LDWlin14:
000000d4 0332            242 	mov	3,r6
                         243 	jarl	_EcuabFee_If_FinishJob,lp
                         243 <EXPANSION BEGIN>
                         243 jarl22 _EcuabFee_If_FinishJob , lp 
000000d6 80ffa601*       243 <EXPANSION END>
                         244 --	    .ef
                         245 .LDW71:
                         246 --line146
                         247 ..lin.C.3A.5C_ECU2.5CECU_Rivian_A1.5CTarget.5Crepo_projects.5CpFOTA.5CcL_R2023.2E09.2E01.5Cmake.5Cobj.5CEcuabFee_Layer2_InstanceFinder.15::
                         248 .LDWlin15:
000000da 40063f00        249 	dispose	0,{r31},[lp]
                         250 	.type	_EcuabFee_If_ProcessCheckErasePattern1,@function
                         251 	.size	_EcuabFee_If_ProcessCheckErasePattern1,.-_EcuabFee_If_ProcessCheckErasePattern1
                         252 	.type	_EcuabFee_If_ProcessCheckErasePattern1..C.3A.5C_ECU2.5CECU_Rivian_A1.5CTarget.5Crepo_projects.5CpFOTA.5CcL_R2023.2E09.2E01.5Cmake.5Cobj.5CEcuabFee_Layer2_InstanceFinder.,@function
                         253 	.size	_EcuabFee_If_ProcessCheckErasePattern1..C.3A.5C_ECU2.5CECU_Rivian_A1.5CTarget.5Crepo_projects.5CpFOTA.5CcL_R2023.2E09.2E01.5Cmake.5Cobj.5CEcuabFee_Layer2_InstanceFinder.,.-_EcuabFee_If_ProcessCheckErasePattern1..C.3A.5C_ECU2.5CECU_Rivian_A1.5CTarget.5Crepo_projects.5CpFOTA.5CcL_R2023.2E09.2E01.5Cmake.5Cobj.5CEcuabFee_Layer2_InstanceFinder.
                         254 	.align	2
                         255 .LDW81:
                         256 
                         257 	.section ".bss","awb"
                         258 .L286:

                                                                      Page 6
                                                              C:\Users\nhuliyap\AppData\Local\Temp\gh_00009vs1.s
                         259 	.type	.L286,@object
                         260 	.size	.L286,0
                         261 	.data
                         262 	.text
                         263 	.align	2
                         264 	.align	2
                         265 ..gh.f.f.1.e.3:
                         266 	.type	..gh.f.f.1.e.3,@object
                         267 	.size	..gh.f.f.1.e.3,0
                         268 	.global	_EcuabFee_If_ProcessBlankCheckErasePattern2..C.3A.5C_ECU2.5CECU_Rivian_A1.5CTarget.5Crepo_projects.5CpFOTA.5CcL_R2023.2E09.2E01.5Cmake.5Cobj.5CEcuabFee_Layer2_InstanceFinder.
                         269 _EcuabFee_If_ProcessBlankCheckErasePattern2..C.3A.5C_ECU2.5CECU_Rivian_A1.5CTarget.5Crepo_projects.5CpFOTA.5CcL_R2023.2E09.2E01.5Cmake.5Cobj.5CEcuabFee_Layer2_InstanceFinder.:
                         270 _EcuabFee_If_ProcessBlankCheckErasePattern2:
000000de 80072100        271 	prepare	{r31},0
                         272 --	    .bf
                         273 .LDW91:
                         274 	jarl	_EcuabFee_Fls_GetJobResult,lp
                         274 <EXPANSION BEGIN>
                         274 jarl22 _EcuabFee_Fls_GetJobResult , lp 
000000e2 80ff0000*       274 <EXPANSION END>
000000e6 6452            275 	cmp	4,r10
000000e8 ca0d*           276 	bne	.L397
                         277 --line150
                         278 ..lin.C.3A.5C_ECU2.5CECU_Rivian_A1.5CTarget.5Crepo_projects.5CpFOTA.5CcL_R2023.2E09.2E01.5Cmake.5Cobj.5CEcuabFee_Layer2_InstanceFinder.16::
                         279 .LDWlin16:
000000ea 0132            280 	mov	1,r6
                         281 	jarl	_EcuabFee_Dh_ReadErasePattern,lp
                         281 <EXPANSION BEGIN>
                         281 jarl22 _EcuabFee_Dh_ReadErasePattern , lp 
000000ec 80ff0000*       281 <EXPANSION END>
000000f0 e051            282 	cmp	zero,r10
000000f2 8a15*           283 	bne	.L405
                         284 --line151
                         285 ..lin.C.3A.5C_ECU2.5CECU_Rivian_A1.5CTarget.5Crepo_projects.5CpFOTA.5CcL_R2023.2E09.2E01.5Cmake.5Cobj.5CEcuabFee_Layer2_InstanceFinder.17::
                         286 .LDWlin17:
000000f4 044a            287 	mov	4,r9
000000f6 84070d480000*   288 	st.b	r9,sdaoff23(_EcuabFee_If_ComponentParameter+2)[gp]
000000fc 40063f00        289 	dispose	0,{r31},[lp]
                         290 .L397:
                         291 --line158
                         292 ..lin.C.3A.5C_ECU2.5CECU_Rivian_A1.5CTarget.5Crepo_projects.5CpFOTA.5CcL_R2023.2E09.2E01.5Cmake.5Cobj.5CEcuabFee_Layer2_InstanceFinder.18::
                         293 .LDWlin18:
                         294 	jarl	_EcuabFee_Fls_GetJobResult,lp
                         294 <EXPANSION BEGIN>
                         294 jarl22 _EcuabFee_Fls_GetJobResult , lp 
00000100 80ff0000*       294 <EXPANSION END>
00000104 6152            295 	cmp	1,r10
00000106 e205*           296 	be	.L405
                         297 --line163
                         298 ..lin.C.3A.5C_ECU2.5CECU_Rivian_A1.5CTarget.5Crepo_projects.5CpFOTA.5CcL_R2023.2E09.2E01.5Cmake.5Cobj.5CEcuabFee_Layer2_InstanceFinder.19::
                         299 .LDWlin19:
00000108 0732            300 	mov	7,r6
                         301 	jarl	_EcuabFee_If_FinishJob,lp
                         301 <EXPANSION BEGIN>
                         301 jarl22 _EcuabFee_If_FinishJob , lp 
0000010a 80ff7201*       301 <EXPANSION END>
                         302 --line164
                         303 ..lin.C.3A.5C_ECU2.5CECU_Rivian_A1.5CTarget.5Crepo_projects.5CpFOTA.5CcL_R2023.2E09.2E01.5Cmake.5Cobj.5CEcuabFee_Layer2_InstanceFinder.20::
                         304 .LDWlin20:
0000010e 40063f00        305 	dispose	0,{r31},[lp]
                         306 .L405:
                         307 --line160

                                                                      Page 7
                                                              C:\Users\nhuliyap\AppData\Local\Temp\gh_00009vs1.s
                         308 ..lin.C.3A.5C_ECU2.5CECU_Rivian_A1.5CTarget.5Crepo_projects.5CpFOTA.5CcL_R2023.2E09.2E01.5Cmake.5Cobj.5CEcuabFee_Layer2_InstanceFinder.21::
                         309 .LDWlin21:
00000112 0332            310 	mov	3,r6
                         311 	jarl	_EcuabFee_If_FinishJob,lp
                         311 <EXPANSION BEGIN>
                         311 jarl22 _EcuabFee_If_FinishJob , lp 
00000114 80ff6801*       311 <EXPANSION END>
                         312 --	    .ef
                         313 .LDW02:
                         314 --line167
                         315 ..lin.C.3A.5C_ECU2.5CECU_Rivian_A1.5CTarget.5Crepo_projects.5CpFOTA.5CcL_R2023.2E09.2E01.5Cmake.5Cobj.5CEcuabFee_Layer2_InstanceFinder.22::
                         316 .LDWlin22:
00000118 40063f00        317 	dispose	0,{r31},[lp]
                         318 	.type	_EcuabFee_If_ProcessBlankCheckErasePattern2,@function
                         319 	.size	_EcuabFee_If_ProcessBlankCheckErasePattern2,.-_EcuabFee_If_ProcessBlankCheckErasePattern2
                         320 	.type	_EcuabFee_If_ProcessBlankCheckErasePattern2..C.3A.5C_ECU2.5CECU_Rivian_A1.5CTarget.5Crepo_projects.5CpFOTA.5CcL_R2023.2E09.2E01.5Cmake.5Cobj.5CEcuabFee_Layer2_InstanceFinder.,@function
                         321 	.size	_EcuabFee_If_ProcessBlankCheckErasePattern2..C.3A.5C_ECU2.5CECU_Rivian_A1.5CTarget.5Crepo_projects.5CpFOTA.5CcL_R2023.2E09.2E01.5Cmake.5Cobj.5CEcuabFee_Layer2_InstanceFinder.,.-_EcuabFee_If_ProcessBlankCheckErasePattern2..C.3A.5C_ECU2.5CECU_Rivian_A1.5CTarget.5Crepo_projects.5CpFOTA.5CcL_R2023.2E09.2E01.5Cmake.5Cobj.5CEcuabFee_Layer2_InstanceFinder.
                         322 	.align	2
                         323 .LDW12:
                         324 
                         325 	.section ".bss","awb"
                         326 .L468:
                         327 	.type	.L468,@object
                         328 	.size	.L468,0
                         329 	.data
                         330 	.text
                         331 	.align	2
                         332 	.align	2
                         333 ..gh.f.f.1.e.4:
                         334 	.type	..gh.f.f.1.e.4,@object
                         335 	.size	..gh.f.f.1.e.4,0
                         336 	.global	_EcuabFee_If_ProcessReadErasePattern2..C.3A.5C_ECU2.5CECU_Rivian_A1.5CTarget.5Crepo_projects.5CpFOTA.5CcL_R2023.2E09.2E01.5Cmake.5Cobj.5CEcuabFee_Layer2_InstanceFinder.
                         337 _EcuabFee_If_ProcessReadErasePattern2..C.3A.5C_ECU2.5CECU_Rivian_A1.5CTarget.5Crepo_projects.5CpFOTA.5CcL_R2023.2E09.2E01.5Cmake.5Cobj.5CEcuabFee_Layer2_InstanceFinder.:
                         338 _EcuabFee_If_ProcessReadErasePattern2:
0000011c 80076100        339 	prepare	{r29,r31},0
                         340 --	    .bf
                         341 .LDW22:
                         342 	jarl	_EcuabFee_Fls_GetJobResult,lp
                         342 <EXPANSION BEGIN>
                         342 jarl22 _EcuabFee_Fls_GetJobResult , lp 
00000120 80ff0000*       342 <EXPANSION END>
00000124 e051            343 	cmp	zero,r10
00000126 8a35*           344 	bne	.L543
                         345 	jarl	_EcuabFee_Dh_IsErasePatternValid,lp
                         345 <EXPANSION BEGIN>
                         345 jarl22 _EcuabFee_Dh_IsErasePatternValid , lp 
00000128 80ff0000*       345 <EXPANSION END>
0000012c 6152            346 	cmp	1,r10
0000012e ca2d*           347 	bne	.L543
                         348 --line171
                         349 ..lin.C.3A.5C_ECU2.5CECU_Rivian_A1.5CTarget.5Crepo_projects.5CpFOTA.5CcL_R2023.2E09.2E01.5Cmake.5Cobj.5CEcuabFee_Layer2_InstanceFinder.23::
                         350 .LDWlin23:
                         351 	jarl	_EcuabFee_Dh_GetFirstInstanceAddress,lp
                         351 <EXPANSION BEGIN>
                         351 jarl22 _EcuabFee_Dh_GetFirstInstanceAddress , lp 
00000130 80ff0000*       351 <EXPANSION END>
00000134 0ae8            352 	mov	r10,r29
                         353 	jarl	_EcuabFee_Dh_GetDataLength,lp
                         353 <EXPANSION BEGIN>
                         353 jarl22 _EcuabFee_Dh_GetDataLength , lp 
00000136 80ff0000*       353 <EXPANSION END>

                                                                      Page 8
                                                              C:\Users\nhuliyap\AppData\Local\Temp\gh_00009vs1.s
0000013a 840709300000*   354 	ld.w	sdaoff23(_EcuabFee_If_Instance)[gp],r6
00000140 0a40            355 	mov	r10,r8
00000142 1d38            356 	mov	r29,r7
                         357 	jarl	_EcuabFee_Ih_CreateInstance,lp
                         357 <EXPANSION BEGIN>
                         357 jarl22 _EcuabFee_Ih_CreateInstance , lp 
00000144 80ff0000*       357 <EXPANSION END>
                         358 --line172
                         359 ..lin.C.3A.5C_ECU2.5CECU_Rivian_A1.5CTarget.5Crepo_projects.5CpFOTA.5CcL_R2023.2E09.2E01.5Cmake.5Cobj.5CEcuabFee_Layer2_InstanceFinder.24::
                         360 .LDWlin24:
00000148 840709300000*   361 	ld.w	sdaoff23(_EcuabFee_If_Instance)[gp],r6
0000014e 3e0600000000*   362 	mov	sdaoff23(_EcuabFee_If_InstancePrev),ep
00000154 a60709400000    363 	ld.dw	0[r6],r8
0000015a a60789900000    364 	ld.dw	8[r6],r18
00000160 268f1100        365 	ld.w	16[r6],r17
00000164 be070f400000    366 	st.dw	r8,0[ep]
0000016a be078f900000    367 	st.dw	r18,8[ep]
00000170 098d            368 	sst.w	r17,16[ep]
                         369 	jarl	_EcuabFee_RdMgmt_StartJob,lp
                         369 <EXPANSION BEGIN>
                         369 jarl22 _EcuabFee_RdMgmt_StartJob , lp 
00000172 80ff0000*       369 <EXPANSION END>
00000176 e051            370 	cmp	zero,r10
00000178 8a15*           371 	bne	.L552
                         372 --line175
                         373 ..lin.C.3A.5C_ECU2.5CECU_Rivian_A1.5CTarget.5Crepo_projects.5CpFOTA.5CcL_R2023.2E09.2E01.5Cmake.5Cobj.5CEcuabFee_Layer2_InstanceFinder.25::
                         374 .LDWlin25:
0000017a 054a            375 	mov	5,r9
0000017c 84070d480000*   376 	st.b	r9,sdaoff23(_EcuabFee_If_ComponentParameter+2)[gp]
00000182 40067f00        377 	dispose	0,{r29,r31},[lp]
                         378 .L543:
                         379 --line182
                         380 ..lin.C.3A.5C_ECU2.5CECU_Rivian_A1.5CTarget.5Crepo_projects.5CpFOTA.5CcL_R2023.2E09.2E01.5Cmake.5Cobj.5CEcuabFee_Layer2_InstanceFinder.26::
                         381 .LDWlin26:
                         382 	jarl	_EcuabFee_Fls_GetJobResult,lp
                         382 <EXPANSION BEGIN>
                         382 jarl22 _EcuabFee_Fls_GetJobResult , lp 
00000186 80ff0000*       382 <EXPANSION END>
0000018a 6152            383 	cmp	1,r10
0000018c e205*           384 	be	.L552
                         385 --line187
                         386 ..lin.C.3A.5C_ECU2.5CECU_Rivian_A1.5CTarget.5Crepo_projects.5CpFOTA.5CcL_R2023.2E09.2E01.5Cmake.5Cobj.5CEcuabFee_Layer2_InstanceFinder.27::
                         387 .LDWlin27:
0000018e 0732            388 	mov	7,r6
                         389 	jarl	_EcuabFee_If_FinishJob,lp
                         389 <EXPANSION BEGIN>
                         389 jarl22 _EcuabFee_If_FinishJob , lp 
00000190 80ffec00*       389 <EXPANSION END>
                         390 --line188
                         391 ..lin.C.3A.5C_ECU2.5CECU_Rivian_A1.5CTarget.5Crepo_projects.5CpFOTA.5CcL_R2023.2E09.2E01.5Cmake.5Cobj.5CEcuabFee_Layer2_InstanceFinder.28::
                         392 .LDWlin28:
00000194 40067f00        393 	dispose	0,{r29,r31},[lp]
                         394 .L552:
                         395 --line184
                         396 ..lin.C.3A.5C_ECU2.5CECU_Rivian_A1.5CTarget.5Crepo_projects.5CpFOTA.5CcL_R2023.2E09.2E01.5Cmake.5Cobj.5CEcuabFee_Layer2_InstanceFinder.29::
                         397 .LDWlin29:
00000198 0332            398 	mov	3,r6
                         399 	jarl	_EcuabFee_If_FinishJob,lp
                         399 <EXPANSION BEGIN>
                         399 jarl22 _EcuabFee_If_FinishJob , lp 
0000019a 80ffe200*       399 <EXPANSION END>

                                                                      Page 9
                                                              C:\Users\nhuliyap\AppData\Local\Temp\gh_00009vs1.s
                         400 --	    .ef
                         401 .LDW32:
                         402 --line191
                         403 ..lin.C.3A.5C_ECU2.5CECU_Rivian_A1.5CTarget.5Crepo_projects.5CpFOTA.5CcL_R2023.2E09.2E01.5Cmake.5Cobj.5CEcuabFee_Layer2_InstanceFinder.30::
                         404 .LDWlin30:
0000019e 40067f00        405 	dispose	0,{r29,r31},[lp]
                         406 	.type	_EcuabFee_If_ProcessReadErasePattern2,@function
                         407 	.size	_EcuabFee_If_ProcessReadErasePattern2,.-_EcuabFee_If_ProcessReadErasePattern2
                         408 	.type	_EcuabFee_If_ProcessReadErasePattern2..C.3A.5C_ECU2.5CECU_Rivian_A1.5CTarget.5Crepo_projects.5CpFOTA.5CcL_R2023.2E09.2E01.5Cmake.5Cobj.5CEcuabFee_Layer2_InstanceFinder.,@function
                         409 	.size	_EcuabFee_If_ProcessReadErasePattern2..C.3A.5C_ECU2.5CECU_Rivian_A1.5CTarget.5Crepo_projects.5CpFOTA.5CcL_R2023.2E09.2E01.5Cmake.5Cobj.5CEcuabFee_Layer2_InstanceFinder.,.-_EcuabFee_If_ProcessReadErasePattern2..C.3A.5C_ECU2.5CECU_Rivian_A1.5CTarget.5Crepo_projects.5CpFOTA.5CcL_R2023.2E09.2E01.5Cmake.5Cobj.5CEcuabFee_Layer2_InstanceFinder.
                         410 	.align	2
                         411 .LDW42:
                         412 
                         413 	.section ".bss","awb"
                         414 .L618:
                         415 	.type	.L618,@object
                         416 	.size	.L618,0
                         417 	.data
                         418 	.text
                         419 	.align	2
                         420 	.align	2
                         421 ..gh.f.f.1.e.5:
                         422 	.type	..gh.f.f.1.e.5,@object
                         423 	.size	..gh.f.f.1.e.5,0
                         424 	.global	_EcuabFee_If_ProcessExamineInstanceState..C.3A.5C_ECU2.5CECU_Rivian_A1.5CTarget.5Crepo_projects.5CpFOTA.5CcL_R2023.2E09.2E01.5Cmake.5Cobj.5CEcuabFee_Layer2_InstanceFinder.
                         425 _EcuabFee_If_ProcessExamineInstanceState..C.3A.5C_ECU2.5CECU_Rivian_A1.5CTarget.5Crepo_projects.5CpFOTA.5CcL_R2023.2E09.2E01.5Cmake.5Cobj.5CEcuabFee_Layer2_InstanceFinder.:
                         426 _EcuabFee_If_ProcessExamineInstanceState:
000001a2 80072100        427 	prepare	{r31},0
                         428 --	    .bf
                         429 .LDW52:
000001a6 840709300000*   430 	ld.w	sdaoff23(_EcuabFee_If_Instance)[gp],r6
                         431 	jarl	_EcuabFee_Ih_DetermineInstanceStatus,lp
                         431 <EXPANSION BEGIN>
                         431 jarl22 _EcuabFee_Ih_DetermineInstanceStatus , lp 
000001ac 80ff0000*       431 <EXPANSION END>
                         432 --line196
                         433 ..lin.C.3A.5C_ECU2.5CECU_Rivian_A1.5CTarget.5Crepo_projects.5CpFOTA.5CcL_R2023.2E09.2E01.5Cmake.5Cobj.5CEcuabFee_Layer2_InstanceFinder.31::
                         434 .LDWlin31:
000001b0 840709300000*   435 	ld.w	sdaoff23(_EcuabFee_If_Instance)[gp],r6
000001b6 270600000000*   436 	mov	sdaoff23(_EcuabFee_If_InstancePrev),r7
                         437 	jarl	_EcuabFee_If_IsSearchFinished,lp
                         437 <EXPANSION BEGIN>
                         437 jarl22 _EcuabFee_If_IsSearchFinished , lp 
000001bc bfff44fe*       437 <EXPANSION END>
000001c0 6152            438 	cmp	1,r10
000001c2 820d*           439 	be	.L706
                         440 --line200
                         441 ..lin.C.3A.5C_ECU2.5CECU_Rivian_A1.5CTarget.5Crepo_projects.5CpFOTA.5CcL_R2023.2E09.2E01.5Cmake.5Cobj.5CEcuabFee_Layer2_InstanceFinder.32::
                         442 .LDWlin32:
000001c4 840709300000*   443 	ld.w	sdaoff23(_EcuabFee_If_Instance)[gp],r6
                         444 	jarl	_EcuabFee_Dh_IsLastInstance,lp
                         444 <EXPANSION BEGIN>
                         444 jarl22 _EcuabFee_Dh_IsLastInstance , lp 
000001ca 80ff0000*       444 <EXPANSION END>
000001ce 6152            445 	cmp	1,r10
000001d0 ea05*           446 	bne	.L705
                         447 .L706:
                         448 --line201
                         449 ..lin.C.3A.5C_ECU2.5CECU_Rivian_A1.5CTarget.5Crepo_projects.5CpFOTA.5CcL_R2023.2E09.2E01.5Cmake.5Cobj.5CEcuabFee_Layer2_InstanceFinder.33::
                         450 .LDWlin33:
000001d2 0032            451 	mov	0,r6

                                                                      Page 10
                                                              C:\Users\nhuliyap\AppData\Local\Temp\gh_00009vs1.s
                         452 	jarl	_EcuabFee_If_FinishJob,lp
                         452 <EXPANSION BEGIN>
                         452 jarl22 _EcuabFee_If_FinishJob , lp 
000001d4 80ffa800*       452 <EXPANSION END>
000001d8 40063f00        453 	dispose	0,{r31},[lp]
                         454 .L705:
                         455 --line204
                         456 ..lin.C.3A.5C_ECU2.5CECU_Rivian_A1.5CTarget.5Crepo_projects.5CpFOTA.5CcL_R2023.2E09.2E01.5Cmake.5Cobj.5CEcuabFee_Layer2_InstanceFinder.34::
                         457 .LDWlin34:
000001dc 840709300000*   458 	ld.w	sdaoff23(_EcuabFee_If_Instance)[gp],r6
                         459 	jarl	_EcuabFee_Dh_PrepareNextInstance,lp
                         459 <EXPANSION BEGIN>
                         459 jarl22 _EcuabFee_Dh_PrepareNextInstance , lp 
000001e2 80ff0000*       459 <EXPANSION END>
                         460 --line206
                         461 ..lin.C.3A.5C_ECU2.5CECU_Rivian_A1.5CTarget.5Crepo_projects.5CpFOTA.5CcL_R2023.2E09.2E01.5Cmake.5Cobj.5CEcuabFee_Layer2_InstanceFinder.35::
                         462 .LDWlin35:
000001e6 840709300000*   463 	ld.w	sdaoff23(_EcuabFee_If_Instance)[gp],r6
                         464 	jarl	_EcuabFee_RdMgmt_StartJob,lp
                         464 <EXPANSION BEGIN>
                         464 jarl22 _EcuabFee_RdMgmt_StartJob , lp 
000001ec 80ff0000*       464 <EXPANSION END>
000001f0 e051            465 	cmp	zero,r10
000001f2 fa05*           466 	bne	.L708
                         467 --line208
                         468 ..lin.C.3A.5C_ECU2.5CECU_Rivian_A1.5CTarget.5Crepo_projects.5CpFOTA.5CcL_R2023.2E09.2E01.5Cmake.5Cobj.5CEcuabFee_Layer2_InstanceFinder.36::
                         469 .LDWlin36:
000001f4 054a            470 	mov	5,r9
000001f6 84070d480000*   471 	st.b	r9,sdaoff23(_EcuabFee_If_ComponentParameter+2)[gp]
000001fc 40063f00        472 	dispose	0,{r31},[lp]
                         473 .L708:
                         474 --line212
                         475 ..lin.C.3A.5C_ECU2.5CECU_Rivian_A1.5CTarget.5Crepo_projects.5CpFOTA.5CcL_R2023.2E09.2E01.5Cmake.5Cobj.5CEcuabFee_Layer2_InstanceFinder.37::
                         476 .LDWlin37:
00000200 0332            477 	mov	3,r6
                         478 	jarl	_EcuabFee_If_FinishJob,lp
                         478 <EXPANSION BEGIN>
                         478 jarl22 _EcuabFee_If_FinishJob , lp 
00000202 80ff7a00*       478 <EXPANSION END>
                         479 --	    .ef
                         480 .LDW62:
                         481 --line216
                         482 ..lin.C.3A.5C_ECU2.5CECU_Rivian_A1.5CTarget.5Crepo_projects.5CpFOTA.5CcL_R2023.2E09.2E01.5Cmake.5Cobj.5CEcuabFee_Layer2_InstanceFinder.38::
                         483 .LDWlin38:
00000206 40063f00        484 	dispose	0,{r31},[lp]
                         485 	.type	_EcuabFee_If_ProcessExamineInstanceState,@function
                         486 	.size	_EcuabFee_If_ProcessExamineInstanceState,.-_EcuabFee_If_ProcessExamineInstanceState
                         487 	.type	_EcuabFee_If_ProcessExamineInstanceState..C.3A.5C_ECU2.5CECU_Rivian_A1.5CTarget.5Crepo_projects.5CpFOTA.5CcL_R2023.2E09.2E01.5Cmake.5Cobj.5CEcuabFee_Layer2_InstanceFinder.,@function
                         488 	.size	_EcuabFee_If_ProcessExamineInstanceState..C.3A.5C_ECU2.5CECU_Rivian_A1.5CTarget.5Crepo_projects.5CpFOTA.5CcL_R2023.2E09.2E01.5Cmake.5Cobj.5CEcuabFee_Layer2_InstanceFinder.,.-_EcuabFee_If_ProcessExamineInstanceState..C.3A.5C_ECU2.5CECU_Rivian_A1.5CTarget.5Crepo_projects.5CpFOTA.5CcL_R2023.2E09.2E01.5Cmake.5Cobj.5CEcuabFee_Layer2_InstanceFinder.
                         489 	.align	2
                         490 .LDW72:
                         491 
                         492 	.section ".bss","awb"
                         493 .L772:
                         494 	.type	.L772,@object
                         495 	.size	.L772,0
                         496 	.data
                         497 	.text
                         498 	.align	2
                         499 	.align	2
                         500 ..gh.f.f.1.e.6:

                                                                      Page 11
                                                              C:\Users\nhuliyap\AppData\Local\Temp\gh_00009vs1.s
                         501 	.type	..gh.f.f.1.e.6,@object
                         502 	.size	..gh.f.f.1.e.6,0
                         503 	.global	_EcuabFee_If_ProcessStateMachine..C.3A.5C_ECU2.5CECU_Rivian_A1.5CTarget.5Crepo_projects.5CpFOTA.5CcL_R2023.2E09.2E01.5Cmake.5Cobj.5CEcuabFee_Layer2_InstanceFinder.
                         504 _EcuabFee_If_ProcessStateMachine..C.3A.5C_ECU2.5CECU_Rivian_A1.5CTarget.5Crepo_projects.5CpFOTA.5CcL_R2023.2E09.2E01.5Cmake.5Cobj.5CEcuabFee_Layer2_InstanceFinder.:
                         505 _EcuabFee_If_ProcessStateMachine:
0000020a 80072100        506 	prepare	{r31},0
                         507 --	    .bf
                         508 .LDW82:
0000020e 840705900000*   509 	ld.b	sdaoff23(_EcuabFee_If_ComponentParameter+2)[gp],r18
00000214 6392            510 	cmp	3,r18
00000216 e90d*           511 	bnl	.L930
00000218 6192            512 	cmp	1,r18
0000021a a215*           513 	be	.L845
0000021c 6292            514 	cmp	2,r18
0000021e da05*           515 	bne	.L853
                         516 --line228
                         517 ..lin.C.3A.5C_ECU2.5CECU_Rivian_A1.5CTarget.5Crepo_projects.5CpFOTA.5CcL_R2023.2E09.2E01.5Cmake.5Cobj.5CEcuabFee_Layer2_InstanceFinder.39::
                         518 .LDWlin39:
                         519 	jarl	_EcuabFee_If_ProcessCheckErasePattern1,lp
                         519 <EXPANSION BEGIN>
                         519 jarl22 _EcuabFee_If_ProcessCheckErasePattern1 , lp 
00000220 bfff5cfe*       519 <EXPANSION END>
                         520 --line230
                         521 ..lin.C.3A.5C_ECU2.5CECU_Rivian_A1.5CTarget.5Crepo_projects.5CpFOTA.5CcL_R2023.2E09.2E01.5Cmake.5Cobj.5CEcuabFee_Layer2_InstanceFinder.40::
                         522 .LDWlin40:
00000224 40063f00        523 	dispose	0,{r31},[lp]
                         524 .L853:
                         525 --line257
                         526 ..lin.C.3A.5C_ECU2.5CECU_Rivian_A1.5CTarget.5Crepo_projects.5CpFOTA.5CcL_R2023.2E09.2E01.5Cmake.5Cobj.5CEcuabFee_Layer2_InstanceFinder.41::
                         527 .LDWlin41:
00000228 0332            528 	mov	3,r6
                         529 	jarl	_EcuabFee_If_FinishJob,lp
                         529 <EXPANSION BEGIN>
                         529 jarl22 _EcuabFee_If_FinishJob , lp 
0000022a 80ff5200*       529 <EXPANSION END>
                         530 --line258
                         531 ..lin.C.3A.5C_ECU2.5CECU_Rivian_A1.5CTarget.5Crepo_projects.5CpFOTA.5CcL_R2023.2E09.2E01.5Cmake.5Cobj.5CEcuabFee_Layer2_InstanceFinder.42::
                         532 .LDWlin42:
0000022e 40063f00        533 	dispose	0,{r31},[lp]
                         534 .L930:
00000232 6492            535 	cmp	4,r18
00000234 910d*           536 	bl	.L847
00000236 c20d*           537 	be	.L848
00000238 6592            538 	cmp	5,r18
0000023a faf5*           539 	bne	.L853
0000023c d50d*           540 	br	.L849
                         541 .L845:
                         542 --line222
                         543 ..lin.C.3A.5C_ECU2.5CECU_Rivian_A1.5CTarget.5Crepo_projects.5CpFOTA.5CcL_R2023.2E09.2E01.5Cmake.5Cobj.5CEcuabFee_Layer2_InstanceFinder.43::
                         544 .LDWlin43:
                         545 	jarl	_EcuabFee_If_ProcessIdleState,lp
                         545 <EXPANSION BEGIN>
                         545 jarl22 _EcuabFee_If_ProcessIdleState , lp 
0000023e bfff1cfe*       545 <EXPANSION END>
                         546 --line224
                         547 ..lin.C.3A.5C_ECU2.5CECU_Rivian_A1.5CTarget.5Crepo_projects.5CpFOTA.5CcL_R2023.2E09.2E01.5Cmake.5Cobj.5CEcuabFee_Layer2_InstanceFinder.44::
                         548 .LDWlin44:
00000242 40063f00        549 	dispose	0,{r31},[lp]
                         550 .L847:
                         551 --line234
                         552 ..lin.C.3A.5C_ECU2.5CECU_Rivian_A1.5CTarget.5Crepo_projects.5CpFOTA.5CcL_R2023.2E09.2E01.5Cmake.5Cobj.5CEcuabFee_Layer2_InstanceFinder.45::

                                                                      Page 12
                                                              C:\Users\nhuliyap\AppData\Local\Temp\gh_00009vs1.s
                         553 .LDWlin45:
                         554 	jarl	_EcuabFee_If_ProcessBlankCheckErasePattern2,lp
                         554 <EXPANSION BEGIN>
                         554 jarl22 _EcuabFee_If_ProcessBlankCheckErasePattern2 , lp 
00000246 bfff98fe*       554 <EXPANSION END>
                         555 --line236
                         556 ..lin.C.3A.5C_ECU2.5CECU_Rivian_A1.5CTarget.5Crepo_projects.5CpFOTA.5CcL_R2023.2E09.2E01.5Cmake.5Cobj.5CEcuabFee_Layer2_InstanceFinder.46::
                         557 .LDWlin46:
0000024a 40063f00        558 	dispose	0,{r31},[lp]
                         559 .L848:
                         560 --line240
                         561 ..lin.C.3A.5C_ECU2.5CECU_Rivian_A1.5CTarget.5Crepo_projects.5CpFOTA.5CcL_R2023.2E09.2E01.5Cmake.5Cobj.5CEcuabFee_Layer2_InstanceFinder.47::
                         562 .LDWlin47:
                         563 	jarl	_EcuabFee_If_ProcessReadErasePattern2,lp
                         563 <EXPANSION BEGIN>
                         563 jarl22 _EcuabFee_If_ProcessReadErasePattern2 , lp 
0000024e bfffcefe*       563 <EXPANSION END>
                         564 --line242
                         565 ..lin.C.3A.5C_ECU2.5CECU_Rivian_A1.5CTarget.5Crepo_projects.5CpFOTA.5CcL_R2023.2E09.2E01.5Cmake.5Cobj.5CEcuabFee_Layer2_InstanceFinder.48::
                         566 .LDWlin48:
00000252 40063f00        567 	dispose	0,{r31},[lp]
                         568 .L849:
                         569 --line246
                         570 ..lin.C.3A.5C_ECU2.5CECU_Rivian_A1.5CTarget.5Crepo_projects.5CpFOTA.5CcL_R2023.2E09.2E01.5Cmake.5Cobj.5CEcuabFee_Layer2_InstanceFinder.49::
                         571 .LDWlin49:
                         572 	jarl	_EcuabFee_RdMgmt_GetJobResult,lp
                         572 <EXPANSION BEGIN>
                         572 jarl22 _EcuabFee_RdMgmt_GetJobResult , lp 
00000256 80ff0000*       572 <EXPANSION END>
0000025a e051            573 	cmp	zero,r10
0000025c eae5*           574 	bne	.L853
                         575 --line248
                         576 ..lin.C.3A.5C_ECU2.5CECU_Rivian_A1.5CTarget.5Crepo_projects.5CpFOTA.5CcL_R2023.2E09.2E01.5Cmake.5Cobj.5CEcuabFee_Layer2_InstanceFinder.50::
                         577 .LDWlin50:
                         578 	jarl	_EcuabFee_If_ProcessExamineInstanceState,lp
                         578 <EXPANSION BEGIN>
                         578 jarl22 _EcuabFee_If_ProcessExamineInstanceState , lp 
0000025e bfff44ff*       578 <EXPANSION END>
                         579 --	    .ef
                         580 .LDW92:
                         581 --line260
                         582 ..lin.C.3A.5C_ECU2.5CECU_Rivian_A1.5CTarget.5Crepo_projects.5CpFOTA.5CcL_R2023.2E09.2E01.5Cmake.5Cobj.5CEcuabFee_Layer2_InstanceFinder.51::
                         583 .LDWlin51:
00000262 40063f00        584 	dispose	0,{r31},[lp]
                         585 	.type	_EcuabFee_If_ProcessStateMachine,@function
                         586 	.size	_EcuabFee_If_ProcessStateMachine,.-_EcuabFee_If_ProcessStateMachine
                         587 	.type	_EcuabFee_If_ProcessStateMachine..C.3A.5C_ECU2.5CECU_Rivian_A1.5CTarget.5Crepo_projects.5CpFOTA.5CcL_R2023.2E09.2E01.5Cmake.5Cobj.5CEcuabFee_Layer2_InstanceFinder.,@function
                         588 	.size	_EcuabFee_If_ProcessStateMachine..C.3A.5C_ECU2.5CECU_Rivian_A1.5CTarget.5Crepo_projects.5CpFOTA.5CcL_R2023.2E09.2E01.5Cmake.5Cobj.5CEcuabFee_Layer2_InstanceFinder.,.-_EcuabFee_If_ProcessStateMachine..C.3A.5C_ECU2.5CECU_Rivian_A1.5CTarget.5Crepo_projects.5CpFOTA.5CcL_R2023.2E09.2E01.5Cmake.5Cobj.5CEcuabFee_Layer2_InstanceFinder.
                         589 	.align	2
                         590 .LDW03:
                         591 
                         592 	.section ".bss","awb"
                         593 .L928:
                         594 	.type	.L928,@object
                         595 	.size	.L928,0
                         596 	.data
                         597 	.text
                         598 	.align	2
                         599 	.align	2
                         600 ..gh.f.f.1.e.7:
                         601 	.type	..gh.f.f.1.e.7,@object

                                                                      Page 13
                                                              C:\Users\nhuliyap\AppData\Local\Temp\gh_00009vs1.s
                         602 	.size	..gh.f.f.1.e.7,0
                         603 	.global	_EcuabFee_If_Execute
                         604 _EcuabFee_If_Execute:
                         605 --	    .bf
                         606 .LDW13:
00000266 840705900000*   607 	ld.b	sdaoff23(_EcuabFee_If_ComponentParameter+1)[gp],r18
0000026c 6292            608 	cmp	2,r18
0000026e ba05*           609 	bne	.L1074
00000270 bf079aff*       610 	jr	_EcuabFee_If_ProcessStateMachine
                         611 .L1074:
                         612 --	    .ef
                         613 .LDW23:
                         614 --line302
                         615 ..lin.C.3A.5C_ECU2.5CECU_Rivian_A1.5CTarget.5Crepo_projects.5CpFOTA.5CcL_R2023.2E09.2E01.5Cmake.5Cobj.5CEcuabFee_Layer2_InstanceFinder.52::
                         616 .LDWlin52:
00000274 7f00            617 	jmp	[lp]
                         618 	.type	_EcuabFee_If_Execute,@function
                         619 	.size	_EcuabFee_If_Execute,.-_EcuabFee_If_Execute
                         620 	.align	2
                         621 .LDW33:
                         622 
                         623 	.section ".bss","awb"
                         624 .L1110:
                         625 	.type	.L1110,@object
                         626 	.size	.L1110,0
                         627 	.data
                         628 	.text
                         629 	.align	2
                         630 	.align	2
                         631 ..gh.f.f.1.e.8:
                         632 	.type	..gh.f.f.1.e.8,@object
                         633 	.size	..gh.f.f.1.e.8,0
                         634 	.global	_EcuabFee_If_Cancel
                         635 _EcuabFee_If_Cancel:
                         636 --	    .bf
                         637 .LDW43:
00000276 0232            638 	mov	2,r6
00000278 80070400*       639 	jr	_EcuabFee_If_FinishJob
                         640 --	    .ef
                         641 .LDW53:
                         642 	.type	_EcuabFee_If_Cancel,@function
                         643 	.size	_EcuabFee_If_Cancel,.-_EcuabFee_If_Cancel
                         644 	.align	2
                         645 .LDW63:
                         646 
                         647 	.section ".bss","awb"
                         648 .L1169:
                         649 	.type	.L1169,@object
                         650 	.size	.L1169,0
                         651 	.data
                         652 	.text
                         653 	.align	2
                         654 	.align	2
                         655 ..gh.f.f.1.e.9:
                         656 	.type	..gh.f.f.1.e.9,@object
                         657 	.size	..gh.f.f.1.e.9,0
                         658 	.global	_EcuabFee_If_FinishJob..C.3A.5C_ECU2.5CECU_Rivian_A1.5CTarget.5Crepo_projects.5CpFOTA.5CcL_R2023.2E09.2E01.5Cmake.5Cobj.5CEcuabFee_Layer2_InstanceFinder.
                         659 _EcuabFee_If_FinishJob..C.3A.5C_ECU2.5CECU_Rivian_A1.5CTarget.5Crepo_projects.5CpFOTA.5CcL_R2023.2E09.2E01.5Cmake.5Cobj.5CEcuabFee_Layer2_InstanceFinder.:
                         660 _EcuabFee_If_FinishJob:
0000027c 80076100        661 	prepare	{r29,r31},0
00000280 06e8            662 	mov	r6,r29

                                                                      Page 14
                                                              C:\Users\nhuliyap\AppData\Local\Temp\gh_00009vs1.s
                         663 --	    .bf
                         664 .LDW73:
00000282 260600000000*   665 	mov	_EcuabFee_If_Execute,r6
00000288 270600000000*   666 	mov	_EcuabFee_If_Cancel,r7
0000028e 0142            667 	mov	1,r8
                         668 	jarl	_EcuabFee_Tm_RemoveTask,lp
                         668 <EXPANSION BEGIN>
                         668 jarl22 _EcuabFee_Tm_RemoveTask , lp 
00000290 80ff0000*       668 <EXPANSION END>
                         669 --line99
                         670 ..lin.C.3A.5C_ECU2.5CECU_Rivian_A1.5CTarget.5Crepo_projects.5CpFOTA.5CcL_R2023.2E09.2E01.5Cmake.5Cobj.5CEcuabFee_Layer2_InstanceFinder.53::
                         671 .LDWlin53:
00000294 3e0600000000*   672 	mov	sdaoff23(_EcuabFee_If_ComponentParameter),ep
0000029a 0192            673 	mov	1,r18
0000029c 80eb            674 	sst.b	r29,0[ep]
0000029e 8193            675 	sst.b	r18,1[ep]
000002a0 8293            676 	sst.b	r18,2[ep]
                         677 --	    .ef
                         678 .LDW83:
000002a2 40067f00        679 	dispose	0,{r29,r31},[lp]
                         680 	.type	_EcuabFee_If_FinishJob,@function
                         681 	.size	_EcuabFee_If_FinishJob,.-_EcuabFee_If_FinishJob
                         682 	.type	_EcuabFee_If_FinishJob..C.3A.5C_ECU2.5CECU_Rivian_A1.5CTarget.5Crepo_projects.5CpFOTA.5CcL_R2023.2E09.2E01.5Cmake.5Cobj.5CEcuabFee_Layer2_InstanceFinder.,@function
                         683 	.size	_EcuabFee_If_FinishJob..C.3A.5C_ECU2.5CECU_Rivian_A1.5CTarget.5Crepo_projects.5CpFOTA.5CcL_R2023.2E09.2E01.5Cmake.5Cobj.5CEcuabFee_Layer2_InstanceFinder.,.-_EcuabFee_If_FinishJob..C.3A.5C_ECU2.5CECU_Rivian_A1.5CTarget.5Crepo_projects.5CpFOTA.5CcL_R2023.2E09.2E01.5Cmake.5Cobj.5CEcuabFee_Layer2_InstanceFinder.
                         684 	.align	2
                         685 .LDW93:
                         686 
                         687 --_JobResult	r29	param
                         688 
                         689 	.section ".bss","awb"
                         690 .L1217:
                         691 	.type	.L1217,@object
                         692 	.size	.L1217,0
                         693 	.data
                         694 	.text
                         695 	.align	2
                         696 	.align	2
                         697 ..gh.f.f.1.e.10:
                         698 	.type	..gh.f.f.1.e.10,@object
                         699 	.size	..gh.f.f.1.e.10,0
                         700 	.global	_EcuabFee_If_Init
                         701 _EcuabFee_If_Init:
000002a6 80077b000000*   702 	prepare	{r29,r31},0,sdaoff23(_EcuabFee_If_ComponentParameter)
000002ac 0000*
                         703 --	    .bf
                         704 .LDW04:
000002ae 01ea            705 	mov	1,r29
000002b0 81eb            706 	sst.b	r29,1[ep]
000002b2 8003            707 	sst.b	zero,0[ep]
000002b4 260600000000*   708 	mov	sdaoff23(_EcuabFee_If_InstancePrev),r6
                         709 	jarl	_EcuabFee_Ih_InitInstance,lp
                         709 <EXPANSION BEGIN>
                         709 jarl22 _EcuabFee_Ih_InitInstance , lp 
000002ba 80ff0000*       709 <EXPANSION END>
                         710 --line268
                         711 ..lin.C.3A.5C_ECU2.5CECU_Rivian_A1.5CTarget.5Crepo_projects.5CpFOTA.5CcL_R2023.2E09.2E01.5Cmake.5Cobj.5CEcuabFee_Layer2_InstanceFinder.54::
                         712 .LDWlin54:
000002be 84070de80000*   713 	st.b	r29,sdaoff23(_EcuabFee_If_ComponentParameter+2)[gp]
                         714 --	    .ef
                         715 .LDW14:
000002c4 40067f00        716 	dispose	0,{r29,r31},[lp]

                                                                      Page 15
                                                              C:\Users\nhuliyap\AppData\Local\Temp\gh_00009vs1.s
                         717 	.type	_EcuabFee_If_Init,@function
                         718 	.size	_EcuabFee_If_Init,.-_EcuabFee_If_Init
                         719 	.align	2
                         720 .LDW24:
                         721 
                         722 	.section ".bss","awb"
                         723 .L1265:
                         724 	.type	.L1265,@object
                         725 	.size	.L1265,0
                         726 	.data
                         727 	.text
                         728 	.align	2
                         729 	.align	2
                         730 ..gh.f.f.1.e.11:
                         731 	.type	..gh.f.f.1.e.11,@object
                         732 	.size	..gh.f.f.1.e.11,0
                         733 	.global	_EcuabFee_If_GetStatus
                         734 _EcuabFee_If_GetStatus:
                         735 --	    .bf
                         736 .LDW34:
000002c8 840705500000*   737 	ld.b	sdaoff23(_EcuabFee_If_ComponentParameter+1)[gp],r10
                         738 --	    .ef
                         739 .LDW44:
000002ce 7f00            740 	jmp	[lp]
                         741 	.type	_EcuabFee_If_GetStatus,@function
                         742 	.size	_EcuabFee_If_GetStatus,.-_EcuabFee_If_GetStatus
                         743 	.align	2
                         744 .LDW54:
                         745 
                         746 	.section ".bss","awb"
                         747 .L1313:
                         748 	.type	.L1313,@object
                         749 	.size	.L1313,0
                         750 	.data
                         751 	.text
                         752 	.align	2
                         753 	.align	2
                         754 ..gh.f.f.1.e.12:
                         755 	.type	..gh.f.f.1.e.12,@object
                         756 	.size	..gh.f.f.1.e.12,0
                         757 	.global	_EcuabFee_If_GetJobResult
                         758 _EcuabFee_If_GetJobResult:
                         759 --	    .bf
                         760 .LDW64:
000002d0 840705500000*   761 	ld.b	sdaoff23(_EcuabFee_If_ComponentParameter)[gp],r10
                         762 --	    .ef
                         763 .LDW74:
000002d6 7f00            764 	jmp	[lp]
                         765 	.type	_EcuabFee_If_GetJobResult,@function
                         766 	.size	_EcuabFee_If_GetJobResult,.-_EcuabFee_If_GetJobResult
                         767 	.align	2
                         768 .LDW84:
                         769 
                         770 	.section ".bss","awb"
                         771 .L1361:
                         772 	.type	.L1361,@object
                         773 	.size	.L1361,0
                         774 	.data
                         775 	.text
                         776 	.align	2
                         777 	.align	2

                                                                      Page 16
                                                              C:\Users\nhuliyap\AppData\Local\Temp\gh_00009vs1.s
                         778 ..gh.f.f.1.e.13:
                         779 	.type	..gh.f.f.1.e.13,@object
                         780 	.size	..gh.f.f.1.e.13,0
                         781 	.global	_EcuabFee_If_StartJob
                         782 _EcuabFee_If_StartJob:
000002d8 80076100        783 	prepare	{r29,r31},0
                         784 --	    .bf
                         785 .LDW94:
000002dc 840705480000*   786 	ld.b	sdaoff23(_EcuabFee_If_ComponentParameter+2)[gp],r9
000002e2 614a            787 	cmp	1,r9
000002e4 9a1d*           788 	bne	.L1381
000002e6 06e8            789 	mov	r6,r29
                         790 --line283
                         791 ..lin.C.3A.5C_ECU2.5CECU_Rivian_A1.5CTarget.5Crepo_projects.5CpFOTA.5CcL_R2023.2E09.2E01.5Cmake.5Cobj.5CEcuabFee_Layer2_InstanceFinder.55::
                         792 .LDWlin55:
000002e8 260600000000*   793 	mov	_EcuabFee_If_Execute,r6
000002ee 270600000000*   794 	mov	_EcuabFee_If_Cancel,r7
000002f4 0940            795 	mov	r9,r8
                         796 	jarl	_EcuabFee_Tm_AddTask,lp
                         796 <EXPANSION BEGIN>
                         796 jarl22 _EcuabFee_Tm_AddTask , lp 
000002f6 80ff0000*       796 <EXPANSION END>
                         797 --line285
                         798 ..lin.C.3A.5C_ECU2.5CECU_Rivian_A1.5CTarget.5Crepo_projects.5CpFOTA.5CcL_R2023.2E09.2E01.5Cmake.5Cobj.5CEcuabFee_Layer2_InstanceFinder.56::
                         799 .LDWlin56:
000002fa e051            800 	cmp	zero,r10
000002fc 8a15*           801 	bne	.L1379
                         802 --line286
                         803 ..lin.C.3A.5C_ECU2.5CECU_Rivian_A1.5CTarget.5Crepo_projects.5CpFOTA.5CcL_R2023.2E09.2E01.5Cmake.5Cobj.5CEcuabFee_Layer2_InstanceFinder.57::
                         804 .LDWlin57:
000002fe 0242            805 	mov	2,r8
00000300 3e0600000000*   806 	mov	sdaoff23(_EcuabFee_If_ComponentParameter),ep
00000306 013a            807 	mov	1,r7
00000308 8143            808 	sst.b	r8,1[ep]
0000030a 803b            809 	sst.b	r7,0[ep]
0000030c 84070fe80000*   810 	st.w	r29,sdaoff23(_EcuabFee_If_Instance)[gp]
00000312 40067f00        811 	dispose	0,{r29,r31},[lp]
                         812 .L1381:
                         813 --line293
                         814 ..lin.C.3A.5C_ECU2.5CECU_Rivian_A1.5CTarget.5Crepo_projects.5CpFOTA.5CcL_R2023.2E09.2E01.5Cmake.5Cobj.5CEcuabFee_Layer2_InstanceFinder.58::
                         815 .LDWlin58:
00000316 0152            816 	mov	1,r10
00000318 40067f00        817 	dispose	0,{r29,r31},[lp]
                         818 .L1379:
                         819 --	    .ef
                         820 .LDW05:
                         821 --line295
                         822 ..lin.C.3A.5C_ECU2.5CECU_Rivian_A1.5CTarget.5Crepo_projects.5CpFOTA.5CcL_R2023.2E09.2E01.5Cmake.5Cobj.5CEcuabFee_Layer2_InstanceFinder.59::
                         823 .LDWlin59:
0000031c 40067f00        824 	dispose	0,{r29,r31},[lp]
                         825 	.type	_EcuabFee_If_StartJob,@function
                         826 	.size	_EcuabFee_If_StartJob,.-_EcuabFee_If_StartJob
                         827 	.align	2
                         828 .LDW15:
                         829 --_retVal	r10	local
                         830 
                         831 --_Instance	r29	param
                         832 
                         833 	.section ".bss","awb"
                         834 .L1436:
                         835 	.type	.L1436,@object

                                                                      Page 17
                                                              C:\Users\nhuliyap\AppData\Local\Temp\gh_00009vs1.s
                         836 	.size	.L1436,0
                         837 	.data
                         838 	.text
                         839 	.align	2
                         840 	.align	2
                         841 ..gh.f.f.1.e.14:
                         842 	.type	..gh.f.f.1.e.14,@object
                         843 	.size	..gh.f.f.1.e.14,0
                         844 	.global	_EcuabFee_If_MapResult
                         845 _EcuabFee_If_MapResult:
00000320 a600            846 	sxb	r6
                         847 --	    .bf
                         848 .LDW25:
00000322 6332            849 	cmp	3,r6
00000324 0452            850 	mov	4,r10
00000326 eb05*           851 	bh	.L1495
                         852 --line313
                         853 ..lin.C.3A.5C_ECU2.5CECU_Rivian_A1.5CTarget.5Crepo_projects.5CpFOTA.5CcL_R2023.2E09.2E01.5Cmake.5Cobj.5CEcuabFee_Layer2_InstanceFinder.60::
                         854 .LDWlin60:
00000328 05f0            855 	mov	r5,ep
0000032a c6f1            856 	add	r6,ep
0000032c 9e0705500000*   857 	ld.b	rosdaoff23(.L1583)[ep],r10
                         858 .L1495:
                         859 --	    .ef
                         860 .LDW35:
00000332 7f00            861 	jmp	[lp]
                         862 	.type	_EcuabFee_If_MapResult,@function
                         863 	.size	_EcuabFee_If_MapResult,.-_EcuabFee_If_MapResult
                         864 	.align	2
                         865 .LDW45:
                         866 --_retVal	r10	local
                         867 --.L1558	rosdaoff23(.L1583)	static
                         868 
                         869 --_JobResult	r6	param
                         870 
                         871 	.section ".bss","awb"
                         872 .L1557:
                         873 	.type	.L1557,@object
                         874 	.size	.L1557,0
                         875 	.section ".rosdata","a"
                         876 	.align	4
00000000 00              877 .L1583:	.space	1
00000001 0203            878 	.byte	2,3
00000003 01              879 	.byte	1
                         880 	.type	.L1583,@object
                         881 	.size	.L1583,4
                         882 	.data
                         883 	.text
                         884 	.align	2
                         885 --_EcuabFee_If_Instance	sdaoff23(_EcuabFee_If_Instance)	static
                         886 --_EcuabFee_If_InstancePrev	sdaoff23(_EcuabFee_If_InstancePrev)	static
                         887 --_EcuabFee_If_ComponentParameter	sdaoff23(_EcuabFee_If_ComponentParameter)	static
                         888 
                         889 	.data
                         890 	.ghsnote version,17
                         891 	.ghsnote tools,3
                         892 	.ghsnote options,144
                         893 	.text
                         894 	.align	2
                         895 ..eof.C.3A.5C_ECU2.5CECU_Rivian_A1.5CTarget.5Crepo_projects.5CpFOTA.5CcL_R2023.2E09.2E01.5Cmake.5Cobj.5CEcuabFee_Layer2_InstanceFinder...43.3A.5C_ECU2.5CECU_Rivian_A1.5CTarget.5Crepo_projects.5CpFOTA.5CcL_R2023.2E09.2E01.5Cmake..64F863BA..0::
                         896 .rh850_flags REGMODE32,DATA_ALIGN8,GP_FIX,EP_NONFIX,TP_FIX,REG2_RESERVE,G3K,SDA_EXTRA_REGS_0

                                                                      Page 18
                                                              C:\Users\nhuliyap\AppData\Local\Temp\gh_00009vs1.s
