                                                                      Page 1
                                                              C:\Users\nhuliyap\AppData\Local\Temp\gh_00009bg1.s
Command Line: C:\GHS\comp_201517\ease850.exe -w -stderr=err/ESLib_RSA_V15_Sig_SHA256.err -elf -b0 -I../source/_common -I../source/common -I../source/ecuabcanif -I../source/ecuabcantrcv -I../source/ecuabcryif -I../source/ecuabfee -I../source/ecuabmemif -I../source/libautosar -I../source/mcalcan -I../source/mcalcry -I../source/mcaldio -I../source/mcaleep -I../source/mcalfls -I../source/mcalmcu -I../source/projectara -I../source/projectcfg -I../source/projectcompiler -I../source/swcservicebswm -I../source/swcservicecantp -I../source/swcservicecomm -I../source/swcservicecsm -I../source/swcservicedcm -I../source/swcservicedem -I../source/swcservicedet -I../source/swcserviceecum -I../source/swcservicenvm -I../source/swcserviceos -I../source/swcservicepdur -I../source/swcserviceschm -I../source/swcservicestartup -I../source/wrappers/swcservicesecm -I../source/wrappers/vsecprim -I../source/wrappers/vstdlib -Ic:/ghs/comp_201517/ansi -Ic:/ghs/comp_201517/include/v800 -Igendata -IC:\GHS\comp_201517\lib\rh850 -cg_underscore -cpu=rh850g3k -nofpu -no_v850_simd -rh850_fpsimd=none -nomacro -patch_dbo=C:\_ECU2\ECU_Rivian_A1\Target\repo_projects\pFOTA\cL_R2023.09.01\make\obj\ESLib_RSA_V15_Sig_SHA256.dbo -source=ESLib_RSA_V15_Sig_SHA256.c -o obj\gh_00009bg1.o -list=lst/ESLib_RSA_V15_Sig_SHA256.lst C:\Users\nhuliyap\AppData\Local\Temp\gh_00009bg1.s 
Original File: C:\Users\nhuliyap\AppData\Local\Temp\gh_00009bg1.s
Source File: ESLib_RSA_V15_Sig_SHA256.c
Directory: C:\_ECU2\ECU_Rivian_A1\Target\repo_projects\pFOTA\cL_R2023.09.01\make
Host OS: Windows
EASE: Copyright (C) 1983-2015 Green Hills Software.  All Rights Reserved.
Release: Compiler v2015.1.7
Build Directory: [Directory] BTOWORKER6:c:/build_2015_1_bto/2015-10-21.2100-2015_1_bto/win32-comp-ecom
Revision: [VCInfo] http://toolsvc/branches/release-branch-70-bto/src@544153 (built by build)
Revision Date: Thu Oct 22 07:50:13 2015

Release Date: Thu Oct 22 09:32:32 2015

                           1 --Driver Command: ccrh850 -DBRS_DERIVATIVE_701018 -DBRS_OSC_CLK=16
                           2 --		-DBRS_TIMEBASE_CLOCK=80 -DBRS_EVA_BOARD_
                           3 --		-DBRS_DERIVATIVE_GROUP_F1L -DBRS_OS_USECASE_BRS
                           4 --		-DBRS_PLATFORM_RH850 -DBRS_COMP_GHS
                           5 --		-DBRS_CPU_LOCAL_RAM_SIZE_CORE0=32
                           6 --		-DBRS_CPU_RAM_START_CORE0=0xFEDF8000
                           7 --		-list=lst/ESLib_RSA_V15_Sig_SHA256.lst -object_dir=obj
                           8 --		-stderr=err/ESLib_RSA_V15_Sig_SHA256.err -c -cpu=rh850 -sda=all
                           9 --		-large_sda -prepare_dispose -pragma_asm_inline -no_callt
                          10 --		-inline_prologue -notda -reserve_r2 -fsoft
                          11 --		--unknown_pragma_warnings -list -g -Ogeneral -shortenum
                          12 --		-registermode=32 -I../source/_common -I../source/common
                          13 --		-I../source/ecuabcanif -I../source/ecuabcantrcv
                          14 --		-I../source/ecuabcryif -I../source/ecuabfee
                          15 --		-I../source/ecuabmemif -I../source/libautosar -I../source/mcalcan
                          16 --		-I../source/mcalcry -I../source/mcaldio -I../source/mcaleep
                          17 --		-I../source/mcalfls -I../source/mcalmcu -I../source/projectara
                          18 --		-I../source/projectcfg -I../source/projectcompiler
                          19 --		-I../source/swcservicebswm -I../source/swcservicecantp
                          20 --		-I../source/swcservicecomm -I../source/swcservicecsm
                          21 --		-I../source/swcservicedcm -I../source/swcservicedem
                          22 --		-I../source/swcservicedet -I../source/swcserviceecum
                          23 --		-I../source/swcservicenvm -I../source/swcserviceos
                          24 --		-I../source/swcservicepdur -I../source/swcserviceschm
                          25 --		-I../source/swcservicestartup -I../source/wrappers/swcservicesecm
                          26 --		-I../source/wrappers/vsecprim -I../source/wrappers/vstdlib
                          27 --		-Ic:/ghs/comp_201517/ansi -Ic:/ghs/comp_201517/include/v800
                          28 --		-Igendata ../source/wrappers/vSecPrim/ESLib_RSA_V15_Sig_SHA256.c
                          29 --Source File:   ../source/wrappers/vSecPrim/ESLib_RSA_V15_Sig_SHA256.c
                          30 --Directory:     
                          31 --		C:\_ECU2\ECU_Rivian_A1\Target\repo_projects\pFOTA\cL_R2023.09.01\make
                          32 --Compile Date:  Wed Sep 06 13:33:34 2023
                          33 --Host OS:       Win32
                          34 --Version:       C-RH850 2015.1.7 RELEASE VERSION
                          35 --Release:       Compiler v2015.1.7
                          36 --Revision Date: Thu Oct 22 08:06:12 2015
                          37 --Release Date:  Thu Oct 22 09:34:32 2015
                          38 -- ecom  -g -w -OM
                          39 	.section ".MSR_CODE","ax"
                          40 	.align	2
                          41 ..bof.C.3A.5C_ECU2.5CECU_Rivian_A1.5CTarget.5Crepo_projects.5CpFOTA.5CcL_R2023.2E09.2E01.5Cmake.5Cobj.5CESLib_RSA_V15_Sig_SHA256...43.3A.5C_ECU2.5CECU_Rivian_A1.5CTarget.5Crepo_projects.5CpFOTA.5CcL_R2023.2E09.2E01.5Cmake..64F8638E..0::
                          42 	.align	2
                          43 ..gh.f.f.1.e.0:
                          44 	.type	..gh.f.f.1.e.0,@object
                          45 	.size	..gh.f.f.1.e.0,0
                          46 	.global	_esl_initSignRSASHA256_V15
                          47 _esl_initSignRSASHA256_V15:
00000000 8207e170         48 	prepare	{r25,r26,r27,r28,r29,r31},1
00000004 23cf1d00         49 	ld.w	28[sp],r25
                          50 --	    .bf

                                                                      Page 2
                                                              C:\Users\nhuliyap\AppData\Local\Temp\gh_00009bg1.s
                          51 .LDW01:
00000008 e031             52 	cmp	zero,r6
0000000a ca05*            53 	bne	.L4
                          54 --line36
                          55 ..lin.C.3A.5C_ECU2.5CECU_Rivian_A1.5CTarget.5Crepo_projects.5CpFOTA.5CcL_R2023.2E09.2E01.5Cmake.5Cobj.5CESLib_RSA_V15_Sig_SHA256.1::
                          56 .LDWlin1:
0000000c 20e60320         57 	movea	8195,zero,r28
00000010 a53d*            58 	br	.L6
                          59 .L4:
                          60 --line39
                          61 ..lin.C.3A.5C_ECU2.5CECU_Rivian_A1.5CTarget.5Crepo_projects.5CpFOTA.5CcL_R2023.2E09.2E01.5Cmake.5Cobj.5CESLib_RSA_V15_Sig_SHA256.2::
                          62 .LDWlin2:
00000012 26970100         63 	ld.w	0[r6],r18
00000016 06e8             64 	mov	r6,r29
00000018 07d8             65 	mov	r7,r27
0000001a 08e0             66 	mov	r8,r28
0000001c 09d0             67 	mov	r9,r26
0000001e 120648f8         68 	addi	-1976,r18,zero
00000022 c105*            69 	bl	.L7
                          70 --line40
                          71 ..lin.C.3A.5C_ECU2.5CECU_Rivian_A1.5CTarget.5Crepo_projects.5CpFOTA.5CcL_R2023.2E09.2E01.5Cmake.5Cobj.5CESLib_RSA_V15_Sig_SHA256.3::
                          72 .LDWlin3:
00000024 20e60220         73 	movea	8194,zero,r28
00000028 e52d*            74 	br	.L6
                          75 .L7:
                          76 --line43
                          77 ..lin.C.3A.5C_ECU2.5CECU_Rivian_A1.5CTarget.5Crepo_projects.5CpFOTA.5CcL_R2023.2E09.2E01.5Cmake.5Cobj.5CESLib_RSA_V15_Sig_SHA256.4::
                          78 .LDWlin4:
0000002a 0706c2ff         79 	addi	-62,r7,zero
0000002e c105*            80 	bl	.L10
                          81 --line45
                          82 ..lin.C.3A.5C_ECU2.5CECU_Rivian_A1.5CTarget.5Crepo_projects.5CpFOTA.5CcL_R2023.2E09.2E01.5Cmake.5Cobj.5CESLib_RSA_V15_Sig_SHA256.5::
                          83 .LDWlin5:
00000030 20e61920         84 	movea	8217,zero,r28
00000034 852d*            85 	br	.L6
                          86 .L10:
                          87 --line50
                          88 ..lin.C.3A.5C_ECU2.5CECU_Rivian_A1.5CTarget.5Crepo_projects.5CpFOTA.5CcL_R2023.2E09.2E01.5Cmake.5Cobj.5CESLib_RSA_V15_Sig_SHA256.6::
                          89 .LDWlin6:
00000036 26870900         90 	ld.w	8[r6],r16
0000003a 208e7000         91 	movea	112,zero,r17
0000003e 668f1101         92 	st.w	r17,272[r6]
00000042 66871901         93 	st.w	r16,280[r6]
00000046 06362001         94 	addi	288,r6,r6
                          95 	jarl	_actSHA256Init,lp
                          95 <EXPANSION BEGIN>
                          95 jarl22 _actSHA256Init , lp 
0000004a 80ff0000*        95 <EXPANSION END>
                          96 --line55
                          97 ..lin.C.3A.5C_ECU2.5CECU_Rivian_A1.5CTarget.5Crepo_projects.5CpFOTA.5CcL_R2023.2E09.2E01.5Cmake.5Cobj.5CESLib_RSA_V15_Sig_SHA256.7::
                          98 .LDWlin7:
0000004e 3d770900         99 	ld.w	8[r29],r14
00000052 207e2406        100 	movea	1572,zero,r15
00000056 7d7f9101        101 	st.w	r15,400[r29]
0000005a 1d369001        102 	addi	400,r29,r6
0000005e 7d779901        103 	st.w	r14,408[r29]
00000062 1b38            104 	mov	r27,r7
00000064 1c40            105 	mov	r28,r8
00000066 1a48            106 	mov	r26,r9
00000068 63cf0100        107 	st.w	r25,0[sp]
                         108 	jarl	_esl_initSignRSA_prim,lp

                                                                      Page 3
                                                              C:\Users\nhuliyap\AppData\Local\Temp\gh_00009bg1.s
                         108 <EXPANSION BEGIN>
                         108 jarl22 _esl_initSignRSA_prim , lp 
0000006c 80ff0000*       108 <EXPANSION END>
00000070 0ae0            109 	mov	r10,r28
                         110 --line59
                         111 ..lin.C.3A.5C_ECU2.5CECU_Rivian_A1.5CTarget.5Crepo_projects.5CpFOTA.5CcL_R2023.2E09.2E01.5Cmake.5Cobj.5CESLib_RSA_V15_Sig_SHA256.8::
                         112 .LDWlin8:
00000072 e051            113 	cmp	zero,r10
00000074 8a0d*           114 	bne	.L6
                         115 --line60
                         116 ..lin.C.3A.5C_ECU2.5CECU_Rivian_A1.5CTarget.5Crepo_projects.5CpFOTA.5CcL_R2023.2E09.2E01.5Cmake.5Cobj.5CESLib_RSA_V15_Sig_SHA256.9::
                         117 .LDWlin9:
00000076 1d30            118 	mov	r29,r6
00000078 203e0007        119 	movea	1792,zero,r7
                         120 	jarl	_esl_SetWorkspaceStatus,lp
                         120 <EXPANSION BEGIN>
                         120 jarl22 _esl_SetWorkspaceStatus , lp 
0000007c 80ff0000*       120 <EXPANSION END>
                         121 --line62
                         122 ..lin.C.3A.5C_ECU2.5CECU_Rivian_A1.5CTarget.5Crepo_projects.5CpFOTA.5CcL_R2023.2E09.2E01.5Cmake.5Cobj.5CESLib_RSA_V15_Sig_SHA256.10::
                         123 .LDWlin10:
00000080 7ddfc507        124 	st.w	r27,1988[r29]
                         125 .L6:
00000084 1c50            126 	mov	r28,r10
                         127 --	    .ef
                         128 .LDW11:
00000086 4206ff70        129 	dispose	1,{r25,r26,r27,r28,r29,r31},[lp]
                         130 	.type	_esl_initSignRSASHA256_V15,@function
                         131 	.size	_esl_initSignRSASHA256_V15,.-_esl_initSignRSASHA256_V15
                         132 	.align	2
                         133 .LDW21:
                         134 --_returnValue	r28	local
                         135 
                         136 --_workSpace	r29	param
                         137 --_keyPairModuleSize	r27	param
                         138 --_keyPairModule	r28	param
                         139 --_privateKeyExponentSize	r26	param
                         140 --_privateKeyExponent	r25	param
                         141 
                         142 	.section ".bss","awb"
                         143 .L102:
                         144 	.type	.L102,@object
                         145 	.size	.L102,0
                         146 	.data
                         147 	.section ".MSR_CODE","ax"
                         148 	.align	2
                         149 	.align	2
                         150 ..gh.f.f.1.e.1:
                         151 	.type	..gh.f.f.1.e.1,@object
                         152 	.size	..gh.f.f.1.e.1,0
                         153 	.global	_esl_updateSignRSASHA256_V15
                         154 _esl_updateSignRSASHA256_V15:
0000008a 80076100        155 	prepare	{r29,r31},0
                         156 --	    .bf
                         157 .LDW31:
0000008e e031            158 	cmp	zero,r6
00000090 ca05*           159 	bne	.L197
                         160 --line73
                         161 ..lin.C.3A.5C_ECU2.5CECU_Rivian_A1.5CTarget.5Crepo_projects.5CpFOTA.5CcL_R2023.2E09.2E01.5Cmake.5Cobj.5CESLib_RSA_V15_Sig_SHA256.11::
                         162 .LDWlin11:
00000092 20ee0320        163 	movea	8195,zero,r29

                                                                      Page 4
                                                              C:\Users\nhuliyap\AppData\Local\Temp\gh_00009bg1.s
00000096 b51d*           164 	br	.L199
                         165 .L197:
00000098 06f0            166 	mov	r6,ep
                         167 --line76
                         168 ..lin.C.3A.5C_ECU2.5CECU_Rivian_A1.5CTarget.5Crepo_projects.5CpFOTA.5CcL_R2023.2E09.2E01.5Cmake.5Cobj.5CESLib_RSA_V15_Sig_SHA256.12::
                         169 .LDWlin12:
0000009a 7290            170 	sld.hu	4[ep],r18
0000009c 0798            171 	mov	r7,r19
0000009e 00ea            172 	mov	0,r29
000000a0 d28e801f        173 	andi	8064,r18,r17
000000a4 110600f9        174 	addi	-1792,r17,zero
000000a8 ba05*           175 	bne	.L204
                         176 --line79
                         177 ..lin.C.3A.5C_ECU2.5CECU_Rivian_A1.5CTarget.5Crepo_projects.5CpFOTA.5CcL_R2023.2E09.2E01.5Cmake.5Cobj.5CESLib_RSA_V15_Sig_SHA256.13::
                         178 .LDWlin13:
000000aa 8f92            179 	shr	15,r18
000000ac c105*           180 	bl	.L203
                         181 .L204:
                         182 --line80
                         183 ..lin.C.3A.5C_ECU2.5CECU_Rivian_A1.5CTarget.5Crepo_projects.5CpFOTA.5CcL_R2023.2E09.2E01.5Cmake.5Cobj.5CESLib_RSA_V15_Sig_SHA256.14::
                         184 .LDWlin14:
000000ae 20ee0120        185 	movea	8193,zero,r29
000000b2 d50d*           186 	br	.L199
                         187 .L203:
                         188 --line83
                         189 ..lin.C.3A.5C_ECU2.5CECU_Rivian_A1.5CTarget.5Crepo_projects.5CpFOTA.5CcL_R2023.2E09.2E01.5Cmake.5Cobj.5CESLib_RSA_V15_Sig_SHA256.15::
                         190 .LDWlin15:
000000b4 3e4f1901        191 	ld.w	280[ep],r9
000000b8 0838            192 	mov	r8,r7
000000ba 06362001        193 	addi	288,r6,r6
000000be 1340            194 	mov	r19,r8
                         195 	jarl	_actSHA256Update,lp
                         195 <EXPANSION BEGIN>
                         195 jarl22 _actSHA256Update , lp 
000000c0 80ff0000*       195 <EXPANSION END>
000000c4 e051            196 	cmp	zero,r10
000000c6 b205*           197 	be	.L199
                         198 --line85
                         199 ..lin.C.3A.5C_ECU2.5CECU_Rivian_A1.5CTarget.5Crepo_projects.5CpFOTA.5CcL_R2023.2E09.2E01.5Cmake.5Cobj.5CESLib_RSA_V15_Sig_SHA256.16::
                         200 .LDWlin16:
000000c8 20ee2c20        201 	movea	8236,zero,r29
                         202 .L199:
000000cc 1d50            203 	mov	r29,r10
                         204 --	    .ef
                         205 .LDW41:
000000ce 40067f00        206 	dispose	0,{r29,r31},[lp]
                         207 	.type	_esl_updateSignRSASHA256_V15,@function
                         208 	.size	_esl_updateSignRSASHA256_V15,.-_esl_updateSignRSASHA256_V15
                         209 	.align	2
                         210 .LDW51:
                         211 --_returnValue	r29	local
                         212 
                         213 --_workSpace	ep	param
                         214 --_inputSize	r19	param
                         215 --_input	r8	param
                         216 
                         217 	.section ".bss","awb"
                         218 .L282:
                         219 	.type	.L282,@object
                         220 	.size	.L282,0
                         221 	.data

                                                                      Page 5
                                                              C:\Users\nhuliyap\AppData\Local\Temp\gh_00009bg1.s
                         222 	.section ".MSR_CODE","ax"
                         223 	.align	2
                         224 	.align	2
                         225 	.align	2
                         226 ..gh.f.f.1.e.2:
                         227 	.type	..gh.f.f.1.e.2,@object
                         228 	.size	..gh.f.f.1.e.2,0
                         229 	.global	_esl_finalizeSignRSASHA256_V15
                         230 _esl_finalizeSignRSASHA256_V15:
000000d2 8207e1f0        231 	prepare	{r24,r25,r26,r27,r28,r29,r31},1
                         232 --	    .bf
                         233 .LDW61:
000000d6 e031            234 	cmp	zero,r6
000000d8 da05*           235 	bne	.L365
                         236 --line99
                         237 ..lin.C.3A.5C_ECU2.5CECU_Rivian_A1.5CTarget.5Crepo_projects.5CpFOTA.5CcL_R2023.2E09.2E01.5Cmake.5Cobj.5CESLib_RSA_V15_Sig_SHA256.17::
                         238 .LDWlin17:
000000da 20560320        239 	movea	8195,zero,r10
000000de 4206fff0        240 	dispose	1,{r24,r25,r26,r27,r28,r29,r31},[lp]
                         241 .L365:
                         242 --line107
                         243 ..lin.C.3A.5C_ECU2.5CECU_Rivian_A1.5CTarget.5Crepo_projects.5CpFOTA.5CcL_R2023.2E09.2E01.5Cmake.5Cobj.5CESLib_RSA_V15_Sig_SHA256.18::
                         244 .LDWlin18:
000000e2 e64f0500        245 	ld.hu	4[r6],r9
000000e6 06e61000        246 	addi	16,r6,r28
000000ea 26d7c507        247 	ld.w	1988[r6],r26
000000ee 08c0            248 	mov	r8,r24
000000f0 07c8            249 	mov	r7,r25
000000f2 06e8            250 	mov	r6,r29
000000f4 c946801f        251 	andi	8064,r9,r8
000000f8 080600f9        252 	addi	-1792,r8,zero
000000fc ba05*           253 	bne	.L372
                         254 --line110
                         255 ..lin.C.3A.5C_ECU2.5CECU_Rivian_A1.5CTarget.5Crepo_projects.5CpFOTA.5CcL_R2023.2E09.2E01.5Cmake.5Cobj.5CESLib_RSA_V15_Sig_SHA256.19::
                         256 .LDWlin19:
000000fe 8f4a            257 	shr	15,r9
00000100 d105*           258 	bl	.L371
                         259 .L372:
                         260 --line111
                         261 ..lin.C.3A.5C_ECU2.5CECU_Rivian_A1.5CTarget.5Crepo_projects.5CpFOTA.5CcL_R2023.2E09.2E01.5Cmake.5Cobj.5CESLib_RSA_V15_Sig_SHA256.20::
                         262 .LDWlin20:
00000102 20560120        263 	movea	8193,zero,r10
00000106 4206fff0        264 	dispose	1,{r24,r25,r26,r27,r28,r29,r31},[lp]
                         265 .L371:
                         266 --line114
                         267 ..lin.C.3A.5C_ECU2.5CECU_Rivian_A1.5CTarget.5Crepo_projects.5CpFOTA.5CcL_R2023.2E09.2E01.5Cmake.5Cobj.5CESLib_RSA_V15_Sig_SHA256.21::
                         268 .LDWlin21:
0000010a 1cf0            269 	mov	r28,ep
0000010c 0132            270 	mov	1,r6
0000010e 8133            271 	sst.b	r6,1[ep]
00000110 1adecaff        272 	addi	-54,r26,r27
00000114 8003            273 	sst.b	zero,0[ep]
00000116 1c360200        274 	addi	2,r28,r6
0000011a 1b40            275 	mov	r27,r8
0000011c 203eff00        276 	movea	255,zero,r7
                         277 	jarl	_VStdLib_MemSet,lp
                         277 <EXPANSION BEGIN>
                         277 jarl22 _VStdLib_MemSet , lp 
00000120 80ff0000*       277 <EXPANSION END>
                         278 --line121
                         279 ..lin.C.3A.5C_ECU2.5CECU_Rivian_A1.5CTarget.5Crepo_projects.5CpFOTA.5CcL_R2023.2E09.2E01.5Cmake.5Cobj.5CESLib_RSA_V15_Sig_SHA256.22::

                                                                      Page 6
                                                              C:\Users\nhuliyap\AppData\Local\Temp\gh_00009bg1.s
                         280 .LDWlin22:
00000124 42da            281 	add	2,r27
00000126 1bf0            282 	mov	r27,ep
00000128 41da            283 	add	1,r27
0000012a dcf1            284 	add	r28,ep
0000012c 1b30            285 	mov	r27,r6
0000012e 8003            286 	sst.b	zero,0[ep]
00000130 dc31            287 	add	r28,r6
00000132 270600000000*   288 	mov	rosdaoff23(_eslt_SIGN_RSA_SHA256_V15_ASN1_DIGESTINFO),r7
00000138 20461300        289 	movea	19,zero,r8
                         290 	jarl	_VStdLib_MemCpy,lp
                         290 <EXPANSION BEGIN>
                         290 jarl22 _VStdLib_MemCpy , lp 
0000013c 80ff0000*       290 <EXPANSION END>
                         291 --line127
                         292 ..lin.C.3A.5C_ECU2.5CECU_Rivian_A1.5CTarget.5Crepo_projects.5CpFOTA.5CcL_R2023.2E09.2E01.5Cmake.5Cobj.5CESLib_RSA_V15_Sig_SHA256.23::
                         293 .LDWlin23:
00000140 3d471901        294 	ld.w	280[r29],r8
00000144 1b3e1300        295 	addi	19,r27,r7
00000148 1d362001        296 	addi	288,r29,r6
0000014c dc39            297 	add	r28,r7
                         298 	jarl	_actSHA256Finalize,lp
                         298 <EXPANSION BEGIN>
                         298 jarl22 _actSHA256Finalize , lp 
0000014e 80ff0000*       298 <EXPANSION END>
                         299 --line129
                         300 ..lin.C.3A.5C_ECU2.5CECU_Rivian_A1.5CTarget.5Crepo_projects.5CpFOTA.5CcL_R2023.2E09.2E01.5Cmake.5Cobj.5CESLib_RSA_V15_Sig_SHA256.24::
                         301 .LDWlin24:
00000152 1d369001        302 	addi	400,r29,r6
00000156 1a38            303 	mov	r26,r7
00000158 1c40            304 	mov	r28,r8
0000015a 1948            305 	mov	r25,r9
0000015c 63c70100        306 	st.w	r24,0[sp]
                         307 	jarl	_esl_signRSA_prim,lp
                         307 <EXPANSION BEGIN>
                         307 jarl22 _esl_signRSA_prim , lp 
00000160 80ff0000*       307 <EXPANSION END>
                         308 --	    .ef
                         309 .LDW71:
                         310 --line132
                         311 ..lin.C.3A.5C_ECU2.5CECU_Rivian_A1.5CTarget.5Crepo_projects.5CpFOTA.5CcL_R2023.2E09.2E01.5Cmake.5Cobj.5CESLib_RSA_V15_Sig_SHA256.25::
                         312 .LDWlin25:
00000164 4206fff0        313 	dispose	1,{r24,r25,r26,r27,r28,r29,r31},[lp]
                         314 	.type	_esl_finalizeSignRSASHA256_V15,@function
                         315 	.size	_esl_finalizeSignRSASHA256_V15,.-_esl_finalizeSignRSASHA256_V15
                         316 	.align	2
                         317 .LDW81:
                         318 --_returnValue	r10	local
                         319 --_keyPairModuleSize	r26	local
                         320 --_i	r27	local
                         321 --_padBytesNeeded	r27	local
                         322 --_messageBuf	r28	local
                         323 
                         324 --_workSpace	r29	param
                         325 --_signatureSize	r25	param
                         326 --_signature	r24	param
                         327 
                         328 	.section ".bss","awb"
                         329 .L451:
                         330 	.type	.L451,@object
                         331 	.size	.L451,0

                                                                      Page 7
                                                              C:\Users\nhuliyap\AppData\Local\Temp\gh_00009bg1.s
                         332 	.section ".rosdata","a"
                         333 	.align	4
                         334 	.global	_eslt_SIGN_RSA_SHA256_V15_ASN1_DIGESTINFO..C.3A.5C_ECU2.5CECU_Rivian_A1.5CTarget.5Crepo_projects.5CpFOTA.5CcL_R2023.2E09.2E01.5Cmake.5Cobj.5CESLib_RSA_V15_Sig_SHA256.
                         335 _eslt_SIGN_RSA_SHA256_V15_ASN1_DIGESTINFO..C.3A.5C_ECU2.5CECU_Rivian_A1.5CTarget.5Crepo_projects.5CpFOTA.5CcL_R2023.2E09.2E01.5Cmake.5Cobj.5CESLib_RSA_V15_Sig_SHA256.:
00000000 3031300d        336 _eslt_SIGN_RSA_SHA256_V15_ASN1_DIGESTINFO:	.byte	48,49,48,13
00000004 06096086        337 	.byte	6,9,96,134
00000008 48016503        338 	.byte	72,1,101,3
0000000c 04020105        339 	.byte	4,2,1,5
00000010 00              340 	.space	1
00000011 0420            341 	.byte	4,32
00000013 00              342 	.space	1
                         343 	.type	_eslt_SIGN_RSA_SHA256_V15_ASN1_DIGESTINFO..C.3A.5C_ECU2.5CECU_Rivian_A1.5CTarget.5Crepo_projects.5CpFOTA.5CcL_R2023.2E09.2E01.5Cmake.5Cobj.5CESLib_RSA_V15_Sig_SHA256.,@object
                         344 	.size	_eslt_SIGN_RSA_SHA256_V15_ASN1_DIGESTINFO..C.3A.5C_ECU2.5CECU_Rivian_A1.5CTarget.5Crepo_projects.5CpFOTA.5CcL_R2023.2E09.2E01.5Cmake.5Cobj.5CESLib_RSA_V15_Sig_SHA256.,20
                         345 	.type	_eslt_SIGN_RSA_SHA256_V15_ASN1_DIGESTINFO,@object
                         346 	.size	_eslt_SIGN_RSA_SHA256_V15_ASN1_DIGESTINFO,20
                         347 	.data
                         348 	.section ".MSR_CODE","ax"
                         349 	.align	2
                         350 --_eslt_SIGN_RSA_SHA256_V15_ASN1_DIGESTINFO	rosdaoff23(_eslt_SIGN_RSA_SHA256_V15_ASN1_DIGESTINFO)	static
                         351 
                         352 	.data
                         353 	.ghsnote version,17
                         354 	.ghsnote tools,3
                         355 	.ghsnote options,144
                         356 	.section ".MSR_CODE","ax"
                         357 	.align	2
                         358 ..eof.C.3A.5C_ECU2.5CECU_Rivian_A1.5CTarget.5Crepo_projects.5CpFOTA.5CcL_R2023.2E09.2E01.5Cmake.5Cobj.5CESLib_RSA_V15_Sig_SHA256...43.3A.5C_ECU2.5CECU_Rivian_A1.5CTarget.5Crepo_projects.5CpFOTA.5CcL_R2023.2E09.2E01.5Cmake..64F8638E..0::
                         359 .rh850_flags REGMODE32,DATA_ALIGN8,GP_FIX,EP_NONFIX,TP_FIX,REG2_RESERVE,G3K,SDA_EXTRA_REGS_0
