                                                                      Page 1
                                                              C:\Users\nhuliyap\AppData\Local\Temp\gh_00006281.s
Command Line: C:\GHS\comp_201517\ease850.exe -w -stderr=err/fbl_mem.err -elf -b0 -I../source/_common -I../source/common -I../source/ecuabcanif -I../source/ecuabcantrcv -I../source/ecuabcryif -I../source/ecuabfee -I../source/ecuabmemif -I../source/libautosar -I../source/mcalcan -I../source/mcalcry -I../source/mcaldio -I../source/mcaleep -I../source/mcalfls -I../source/mcalmcu -I../source/projectara -I../source/projectcfg -I../source/projectcompiler -I../source/swcservicebswm -I../source/swcservicecantp -I../source/swcservicecomm -I../source/swcservicecsm -I../source/swcservicedcm -I../source/swcservicedem -I../source/swcservicedet -I../source/swcserviceecum -I../source/swcservicenvm -I../source/swcserviceos -I../source/swcservicepdur -I../source/swcserviceschm -I../source/swcservicestartup -I../source/wrappers/swcservicesecm -I../source/wrappers/vsecprim -I../source/wrappers/vstdlib -Ic:/ghs/comp_201517/ansi -Ic:/ghs/comp_201517/include/v800 -Igendata -IC:\GHS\comp_201517\lib\rh850 -cg_underscore -cpu=rh850g3k -nofpu -no_v850_simd -rh850_fpsimd=none -nomacro -patch_dbo=C:\_ECU2\ECU_Rivian_A1\Target\repo_projects\pFOTA\cL_R2023.09.01\make\obj\fbl_mem.dbo -source=fbl_mem.c -o obj\gh_00006281.o -list=lst/fbl_mem.lst C:\Users\nhuliyap\AppData\Local\Temp\gh_00006281.s 
Original File: C:\Users\nhuliyap\AppData\Local\Temp\gh_00006281.s
Source File: fbl_mem.c
Directory: C:\_ECU2\ECU_Rivian_A1\Target\repo_projects\pFOTA\cL_R2023.09.01\make
Host OS: Windows
EASE: Copyright (C) 1983-2015 Green Hills Software.  All Rights Reserved.
Release: Compiler v2015.1.7
Build Directory: [Directory] BTOWORKER6:c:/build_2015_1_bto/2015-10-21.2100-2015_1_bto/win32-comp-ecom
Revision: [VCInfo] http://toolsvc/branches/release-branch-70-bto/src@544153 (built by build)
Revision Date: Thu Oct 22 07:50:13 2015

Release Date: Thu Oct 22 09:32:32 2015

                           1 --Driver Command: ccrh850 -DBRS_DERIVATIVE_701018 -DBRS_OSC_CLK=16
                           2 --		-DBRS_TIMEBASE_CLOCK=80 -DBRS_EVA_BOARD_
                           3 --		-DBRS_DERIVATIVE_GROUP_F1L -DBRS_OS_USECASE_BRS
                           4 --		-DBRS_PLATFORM_RH850 -DBRS_COMP_GHS
                           5 --		-DBRS_CPU_LOCAL_RAM_SIZE_CORE0=32
                           6 --		-DBRS_CPU_RAM_START_CORE0=0xFEDF8000 -list=lst/fbl_mem.lst
                           7 --		-object_dir=obj -stderr=err/fbl_mem.err -c -cpu=rh850 -sda=all
                           8 --		-large_sda -prepare_dispose -pragma_asm_inline -no_callt
                           9 --		-inline_prologue -notda -reserve_r2 -fsoft
                          10 --		--unknown_pragma_warnings -list -g -Ogeneral -shortenum
                          11 --		-registermode=32 -I../source/_common -I../source/common
                          12 --		-I../source/ecuabcanif -I../source/ecuabcantrcv
                          13 --		-I../source/ecuabcryif -I../source/ecuabfee
                          14 --		-I../source/ecuabmemif -I../source/libautosar -I../source/mcalcan
                          15 --		-I../source/mcalcry -I../source/mcaldio -I../source/mcaleep
                          16 --		-I../source/mcalfls -I../source/mcalmcu -I../source/projectara
                          17 --		-I../source/projectcfg -I../source/projectcompiler
                          18 --		-I../source/swcservicebswm -I../source/swcservicecantp
                          19 --		-I../source/swcservicecomm -I../source/swcservicecsm
                          20 --		-I../source/swcservicedcm -I../source/swcservicedem
                          21 --		-I../source/swcservicedet -I../source/swcserviceecum
                          22 --		-I../source/swcservicenvm -I../source/swcserviceos
                          23 --		-I../source/swcservicepdur -I../source/swcserviceschm
                          24 --		-I../source/swcservicestartup -I../source/wrappers/swcservicesecm
                          25 --		-I../source/wrappers/vsecprim -I../source/wrappers/vstdlib
                          26 --		-Ic:/ghs/comp_201517/ansi -Ic:/ghs/comp_201517/include/v800
                          27 --		-Igendata ../source/SwcServiceStartUp/fbl_mem.c
                          28 --Source File:   ../source/SwcServiceStartUp/fbl_mem.c
                          29 --Directory:     
                          30 --		C:\_ECU2\ECU_Rivian_A1\Target\repo_projects\pFOTA\cL_R2023.09.01\make
                          31 --Compile Date:  Wed Sep 06 13:37:32 2023
                          32 --Host OS:       Win32
                          33 --Version:       C-RH850 2015.1.7 RELEASE VERSION
                          34 --Release:       Compiler v2015.1.7
                          35 --Revision Date: Thu Oct 22 08:06:12 2015
                          36 --Release Date:  Thu Oct 22 09:34:32 2015
                          37 -- ecom  -g -w -OM
                          38 	.text
                          39 ..bof.C.3A.5C_ECU2.5CECU_Rivian_A1.5CTarget.5Crepo_projects.5CpFOTA.5CcL_R2023.2E09.2E01.5Cmake.5Cobj.5Cfbl_mem...43.3A.5C_ECU2.5CECU_Rivian_A1.5CTarget.5Crepo_projects.5CpFOTA.5CcL_R2023.2E09.2E01.5Cmake..64F8647C..0::
                          40 	.align	2
                          41 ..gh.f.f.1.e.0:
                          42 	.type	..gh.f.f.1.e.0,@object
                          43 	.size	..gh.f.f.1.e.0,0
                          44 	.global	_FblMemTriggerWatchdogExt..C.3A.5C_ECU2.5CECU_Rivian_A1.5CTarget.5Crepo_projects.5CpFOTA.5CcL_R2023.2E09.2E01.5Cmake.5Cobj.5Cfbl_mem.
                          45 _FblMemTriggerWatchdogExt..C.3A.5C_ECU2.5CECU_Rivian_A1.5CTarget.5Crepo_projects.5CpFOTA.5CcL_R2023.2E09.2E01.5Cmake.5Cobj.5Cfbl_mem.:
                          46 _FblMemTriggerWatchdogExt:
                          47 --	    .bf
                          48 .LDW01:
00000000 80070000*        49 	jr	_FblRealTimeSupport
                          50 --	    .ef

                                                                      Page 2
                                                              C:\Users\nhuliyap\AppData\Local\Temp\gh_00006281.s
                          51 .LDW11:
                          52 	.type	_FblMemTriggerWatchdogExt,@function
                          53 	.size	_FblMemTriggerWatchdogExt,.-_FblMemTriggerWatchdogExt
                          54 	.type	_FblMemTriggerWatchdogExt..C.3A.5C_ECU2.5CECU_Rivian_A1.5CTarget.5Crepo_projects.5CpFOTA.5CcL_R2023.2E09.2E01.5Cmake.5Cobj.5Cfbl_mem.,@function
                          55 	.size	_FblMemTriggerWatchdogExt..C.3A.5C_ECU2.5CECU_Rivian_A1.5CTarget.5Crepo_projects.5CpFOTA.5CcL_R2023.2E09.2E01.5Cmake.5Cobj.5Cfbl_mem.,.-_FblMemTriggerWatchdogExt..C.3A.5C_ECU2.5CECU_Rivian_A1.5CTarget.5Crepo_projects.5CpFOTA.5CcL_R2023.2E09.2E01.5Cmake.5Cobj.5Cfbl_mem.
                          56 	.align	2
                          57 .LDW21:
                          58 
                          59 	.section ".bss","awb"
                          60 .L36:
                          61 	.type	.L36,@object
                          62 	.size	.L36,0
                          63 	.data
                          64 	.text
                          65 	.align	2
                          66 	.align	2
                          67 ..gh.f.f.1.e.1:
                          68 	.type	..gh.f.f.1.e.1,@object
                          69 	.size	..gh.f.f.1.e.1,0
                          70 	.global	_FblMemTriggerWatchdog..C.3A.5C_ECU2.5CECU_Rivian_A1.5CTarget.5Crepo_projects.5CpFOTA.5CcL_R2023.2E09.2E01.5Cmake.5Cobj.5Cfbl_mem.
                          71 _FblMemTriggerWatchdog..C.3A.5C_ECU2.5CECU_Rivian_A1.5CTarget.5Crepo_projects.5CpFOTA.5CcL_R2023.2E09.2E01.5Cmake.5Cobj.5Cfbl_mem.:
                          72 _FblMemTriggerWatchdog:
                          73 --	    .bf
                          74 .LDW31:
00000004 bf07fcff*        75 	jr	_FblMemTriggerWatchdogExt
                          76 --	    .ef
                          77 .LDW41:
                          78 	.type	_FblMemTriggerWatchdog,@function
                          79 	.size	_FblMemTriggerWatchdog,.-_FblMemTriggerWatchdog
                          80 	.type	_FblMemTriggerWatchdog..C.3A.5C_ECU2.5CECU_Rivian_A1.5CTarget.5Crepo_projects.5CpFOTA.5CcL_R2023.2E09.2E01.5Cmake.5Cobj.5Cfbl_mem.,@function
                          81 	.size	_FblMemTriggerWatchdog..C.3A.5C_ECU2.5CECU_Rivian_A1.5CTarget.5Crepo_projects.5CpFOTA.5CcL_R2023.2E09.2E01.5Cmake.5Cobj.5Cfbl_mem.,.-_FblMemTriggerWatchdog..C.3A.5C_ECU2.5CECU_Rivian_A1.5CTarget.5Crepo_projects.5CpFOTA.5CcL_R2023.2E09.2E01.5Cmake.5Cobj.5Cfbl_mem.
                          82 	.align	2
                          83 .LDW51:
                          84 
                          85 	.section ".bss","awb"
                          86 .L81:
                          87 	.type	.L81,@object
                          88 	.size	.L81,0
                          89 	.data
                          90 	.text
                          91 	.align	2
                          92 	.align	2
                          93 	.align	2
                          94 ..gh.f.f.1.e.2:
                          95 	.type	..gh.f.f.1.e.2,@object
                          96 	.size	..gh.f.f.1.e.2,0
                          97 	.global	_FblMemResponsePending..C.3A.5C_ECU2.5CECU_Rivian_A1.5CTarget.5Crepo_projects.5CpFOTA.5CcL_R2023.2E09.2E01.5Cmake.5Cobj.5Cfbl_mem.
                          98 _FblMemResponsePending..C.3A.5C_ECU2.5CECU_Rivian_A1.5CTarget.5Crepo_projects.5CpFOTA.5CcL_R2023.2E09.2E01.5Cmake.5Cobj.5Cfbl_mem.:
                          99 _FblMemResponsePending:
                         100 --	    .bf
                         101 .LDW61:
00000008 840709900000*   102 	ld.w	sdaoff23(_fblDiagStates)[gp],r18
0000000e 8892            103 	shr	8,r18
00000010 8192            104 	shr	1,r18
00000012 c105*           105 	bl	.L100
                         106 --line898
                         107 ..lin.C.3A.5C_ECU2.5CECU_Rivian_A1.5CTarget.5Crepo_projects.5CpFOTA.5CcL_R2023.2E09.2E01.5Cmake.5Cobj.5Cfbl_mem.1::
                         108 .LDWlin1:
00000014 0132            109 	mov	1,r6
00000016 80070000*       110 	jr	_DiagExRCRResponsePending
                         111 .L100:

                                                                      Page 3
                                                              C:\Users\nhuliyap\AppData\Local\Temp\gh_00006281.s
                         112 --	    .ef
                         113 .LDW71:
                         114 --line902
                         115 ..lin.C.3A.5C_ECU2.5CECU_Rivian_A1.5CTarget.5Crepo_projects.5CpFOTA.5CcL_R2023.2E09.2E01.5Cmake.5Cobj.5Cfbl_mem.2::
                         116 .LDWlin2:
0000001a 7f00            117 	jmp	[lp]
                         118 	.type	_FblMemResponsePending,@function
                         119 	.size	_FblMemResponsePending,.-_FblMemResponsePending
                         120 	.type	_FblMemResponsePending..C.3A.5C_ECU2.5CECU_Rivian_A1.5CTarget.5Crepo_projects.5CpFOTA.5CcL_R2023.2E09.2E01.5Cmake.5Cobj.5Cfbl_mem.,@function
                         121 	.size	_FblMemResponsePending..C.3A.5C_ECU2.5CECU_Rivian_A1.5CTarget.5Crepo_projects.5CpFOTA.5CcL_R2023.2E09.2E01.5Cmake.5Cobj.5Cfbl_mem.,.-_FblMemResponsePending..C.3A.5C_ECU2.5CECU_Rivian_A1.5CTarget.5Crepo_projects.5CpFOTA.5CcL_R2023.2E09.2E01.5Cmake.5Cobj.5Cfbl_mem.
                         122 	.align	2
                         123 .LDW81:
                         124 
                         125 	.section ".bss","awb"
                         126 .L134:
                         127 	.type	.L134,@object
                         128 	.size	.L134,0
                         129 	.section ".sbss","awb"
                         130 	.align	4
                         131 	.global	_gAllowedInd..C.3A.5C_ECU2.5CECU_Rivian_A1.5CTarget.5Crepo_projects.5CpFOTA.5CcL_R2023.2E09.2E01.5Cmake.5Cobj.5Cfbl_mem.
                         132 _gAllowedInd..C.3A.5C_ECU2.5CECU_Rivian_A1.5CTarget.5Crepo_projects.5CpFOTA.5CcL_R2023.2E09.2E01.5Cmake.5Cobj.5Cfbl_mem.:
00000000 00000000        133 _gAllowedInd:	.space	4
                         134 	.type	_gAllowedInd..C.3A.5C_ECU2.5CECU_Rivian_A1.5CTarget.5Crepo_projects.5CpFOTA.5CcL_R2023.2E09.2E01.5Cmake.5Cobj.5Cfbl_mem.,@object
                         135 	.size	_gAllowedInd..C.3A.5C_ECU2.5CECU_Rivian_A1.5CTarget.5Crepo_projects.5CpFOTA.5CcL_R2023.2E09.2E01.5Cmake.5Cobj.5Cfbl_mem.,4
                         136 	.type	_gAllowedInd,@object
                         137 	.size	_gAllowedInd,4
                         138 	.section ".RAMCONST","a"
                         139 	.align	4
                         140 	.global	_gJobPrio..C.3A.5C_ECU2.5CECU_Rivian_A1.5CTarget.5Crepo_projects.5CpFOTA.5CcL_R2023.2E09.2E01.5Cmake.5Cobj.5Cfbl_mem.
                         141 _gJobPrio..C.3A.5C_ECU2.5CECU_Rivian_A1.5CTarget.5Crepo_projects.5CpFOTA.5CcL_R2023.2E09.2E01.5Cmake.5Cobj.5Cfbl_mem.:
00000000 0403            142 _gJobPrio:	.byte	4,3
00000002 02              143 	.byte	2
00000003 00              144 	.space	1
                         145 	.type	_gJobPrio..C.3A.5C_ECU2.5CECU_Rivian_A1.5CTarget.5Crepo_projects.5CpFOTA.5CcL_R2023.2E09.2E01.5Cmake.5Cobj.5Cfbl_mem.,@object
                         146 	.size	_gJobPrio..C.3A.5C_ECU2.5CECU_Rivian_A1.5CTarget.5Crepo_projects.5CpFOTA.5CcL_R2023.2E09.2E01.5Cmake.5Cobj.5Cfbl_mem.,4
                         147 	.type	_gJobPrio,@object
                         148 	.size	_gJobPrio,4
                         149 	.section ".sbss","awb"
                         150 	.global	_gPreambleBuffer..C.3A.5C_ECU2.5CECU_Rivian_A1.5CTarget.5Crepo_projects.5CpFOTA.5CcL_R2023.2E09.2E01.5Cmake.5Cobj.5Cfbl_mem.
                         151 _gPreambleBuffer..C.3A.5C_ECU2.5CECU_Rivian_A1.5CTarget.5Crepo_projects.5CpFOTA.5CcL_R2023.2E09.2E01.5Cmake.5Cobj.5Cfbl_mem.:
00000004 0000            152 _gPreambleBuffer:	.space	2
                         153 	.type	_gPreambleBuffer..C.3A.5C_ECU2.5CECU_Rivian_A1.5CTarget.5Crepo_projects.5CpFOTA.5CcL_R2023.2E09.2E01.5Cmake.5Cobj.5Cfbl_mem.,@object
                         154 	.size	_gPreambleBuffer..C.3A.5C_ECU2.5CECU_Rivian_A1.5CTarget.5Crepo_projects.5CpFOTA.5CcL_R2023.2E09.2E01.5Cmake.5Cobj.5Cfbl_mem.,2
                         155 	.type	_gPreambleBuffer,@object
                         156 	.size	_gPreambleBuffer,2
                         157 	.global	_gErrorStatus..C.3A.5C_ECU2.5CECU_Rivian_A1.5CTarget.5Crepo_projects.5CpFOTA.5CcL_R2023.2E09.2E01.5Cmake.5Cobj.5Cfbl_mem.
                         158 _gErrorStatus..C.3A.5C_ECU2.5CECU_Rivian_A1.5CTarget.5Crepo_projects.5CpFOTA.5CcL_R2023.2E09.2E01.5Cmake.5Cobj.5Cfbl_mem.:
00000006 00              159 _gErrorStatus:	.space	1
                         160 	.type	_gErrorStatus..C.3A.5C_ECU2.5CECU_Rivian_A1.5CTarget.5Crepo_projects.5CpFOTA.5CcL_R2023.2E09.2E01.5Cmake.5Cobj.5Cfbl_mem.,@object
                         161 	.size	_gErrorStatus..C.3A.5C_ECU2.5CECU_Rivian_A1.5CTarget.5Crepo_projects.5CpFOTA.5CcL_R2023.2E09.2E01.5Cmake.5Cobj.5Cfbl_mem.,1
                         162 	.type	_gErrorStatus,@object
                         163 	.size	_gErrorStatus,1
00000007 00              164 	.space	1
                         165 	.global	_gSegInfo..C.3A.5C_ECU2.5CECU_Rivian_A1.5CTarget.5Crepo_projects.5CpFOTA.5CcL_R2023.2E09.2E01.5Cmake.5Cobj.5Cfbl_mem.
                         166 _gSegInfo..C.3A.5C_ECU2.5CECU_Rivian_A1.5CTarget.5Crepo_projects.5CpFOTA.5CcL_R2023.2E09.2E01.5Cmake.5Cobj.5Cfbl_mem.:
00000008 000000000000    167 _gSegInfo:	.space	48
0000000e 000000000000 
00000014 000000000000 
0000001a 000000000000 
00000020 000000000000 
00000026 000000000000 

                                                                      Page 4
                                                              C:\Users\nhuliyap\AppData\Local\Temp\gh_00006281.s
0000002c 000000000000 
00000032 000000000000 
                         168 	.type	_gSegInfo..C.3A.5C_ECU2.5CECU_Rivian_A1.5CTarget.5Crepo_projects.5CpFOTA.5CcL_R2023.2E09.2E01.5Cmake.5Cobj.5Cfbl_mem.,@object
                         169 	.size	_gSegInfo..C.3A.5C_ECU2.5CECU_Rivian_A1.5CTarget.5Crepo_projects.5CpFOTA.5CcL_R2023.2E09.2E01.5Cmake.5Cobj.5Cfbl_mem.,48
                         170 	.type	_gSegInfo,@object
                         171 	.size	_gSegInfo,48
                         172 	.global	_gBlockInfo..C.3A.5C_ECU2.5CECU_Rivian_A1.5CTarget.5Crepo_projects.5CpFOTA.5CcL_R2023.2E09.2E01.5Cmake.5Cobj.5Cfbl_mem.
                         173 _gBlockInfo..C.3A.5C_ECU2.5CECU_Rivian_A1.5CTarget.5Crepo_projects.5CpFOTA.5CcL_R2023.2E09.2E01.5Cmake.5Cobj.5Cfbl_mem.:
00000038 000000000000    174 _gBlockInfo:	.space	60
0000003e 000000000000 
00000044 000000000000 
0000004a 000000000000 
00000050 000000000000 
00000056 000000000000 
0000005c 000000000000 
00000062 000000000000 
00000068 000000000000 
0000006e 000000000000 
                         175 	.type	_gBlockInfo..C.3A.5C_ECU2.5CECU_Rivian_A1.5CTarget.5Crepo_projects.5CpFOTA.5CcL_R2023.2E09.2E01.5Cmake.5Cobj.5Cfbl_mem.,@object
                         176 	.size	_gBlockInfo..C.3A.5C_ECU2.5CECU_Rivian_A1.5CTarget.5Crepo_projects.5CpFOTA.5CcL_R2023.2E09.2E01.5Cmake.5Cobj.5Cfbl_mem.,60
                         177 	.type	_gBlockInfo,@object
                         178 	.size	_gBlockInfo,60
                         179 	.global	_gInputJobs..C.3A.5C_ECU2.5CECU_Rivian_A1.5CTarget.5Crepo_projects.5CpFOTA.5CcL_R2023.2E09.2E01.5Cmake.5Cobj.5Cfbl_mem.
                         180 _gInputJobs..C.3A.5C_ECU2.5CECU_Rivian_A1.5CTarget.5Crepo_projects.5CpFOTA.5CcL_R2023.2E09.2E01.5Cmake.5Cobj.5Cfbl_mem.:
00000074 000000000000    181 _gInputJobs:	.space	36
0000007a 000000000000 
00000080 000000000000 
00000086 000000000000 
0000008c 000000000000 
00000092 000000000000 
                         182 	.type	_gInputJobs..C.3A.5C_ECU2.5CECU_Rivian_A1.5CTarget.5Crepo_projects.5CpFOTA.5CcL_R2023.2E09.2E01.5Cmake.5Cobj.5Cfbl_mem.,@object
                         183 	.size	_gInputJobs..C.3A.5C_ECU2.5CECU_Rivian_A1.5CTarget.5Crepo_projects.5CpFOTA.5CcL_R2023.2E09.2E01.5Cmake.5Cobj.5Cfbl_mem.,36
                         184 	.type	_gInputJobs,@object
                         185 	.size	_gInputJobs,36
                         186 	.global	_gWriteFinalizeJob..C.3A.5C_ECU2.5CECU_Rivian_A1.5CTarget.5Crepo_projects.5CpFOTA.5CcL_R2023.2E09.2E01.5Cmake.5Cobj.5Cfbl_mem.
                         187 _gWriteFinalizeJob..C.3A.5C_ECU2.5CECU_Rivian_A1.5CTarget.5Crepo_projects.5CpFOTA.5CcL_R2023.2E09.2E01.5Cmake.5Cobj.5Cfbl_mem.:
00000098 000000000000    188 _gWriteFinalizeJob:	.space	36
0000009e 000000000000 
000000a4 000000000000 
000000aa 000000000000 
000000b0 000000000000 
000000b6 000000000000 
                         189 	.type	_gWriteFinalizeJob..C.3A.5C_ECU2.5CECU_Rivian_A1.5CTarget.5Crepo_projects.5CpFOTA.5CcL_R2023.2E09.2E01.5Cmake.5Cobj.5Cfbl_mem.,@object
                         190 	.size	_gWriteFinalizeJob..C.3A.5C_ECU2.5CECU_Rivian_A1.5CTarget.5Crepo_projects.5CpFOTA.5CcL_R2023.2E09.2E01.5Cmake.5Cobj.5Cfbl_mem.,36
                         191 	.type	_gWriteFinalizeJob,@object
                         192 	.size	_gWriteFinalizeJob,36
                         193 	.global	_gGapFillJob..C.3A.5C_ECU2.5CECU_Rivian_A1.5CTarget.5Crepo_projects.5CpFOTA.5CcL_R2023.2E09.2E01.5Cmake.5Cobj.5Cfbl_mem.
                         194 _gGapFillJob..C.3A.5C_ECU2.5CECU_Rivian_A1.5CTarget.5Crepo_projects.5CpFOTA.5CcL_R2023.2E09.2E01.5Cmake.5Cobj.5Cfbl_mem.:
000000bc 000000000000    195 _gGapFillJob:	.space	36
000000c2 000000000000 
000000c8 000000000000 
000000ce 000000000000 
000000d4 000000000000 
000000da 000000000000 
                         196 	.type	_gGapFillJob..C.3A.5C_ECU2.5CECU_Rivian_A1.5CTarget.5Crepo_projects.5CpFOTA.5CcL_R2023.2E09.2E01.5Cmake.5Cobj.5Cfbl_mem.,@object
                         197 	.size	_gGapFillJob..C.3A.5C_ECU2.5CECU_Rivian_A1.5CTarget.5Crepo_projects.5CpFOTA.5CcL_R2023.2E09.2E01.5Cmake.5Cobj.5Cfbl_mem.,36
                         198 	.type	_gGapFillJob,@object
                         199 	.size	_gGapFillJob,36
                         200 	.global	_gRemainderBuffer..C.3A.5C_ECU2.5CECU_Rivian_A1.5CTarget.5Crepo_projects.5CpFOTA.5CcL_R2023.2E09.2E01.5Cmake.5Cobj.5Cfbl_mem.
                         201 _gRemainderBuffer..C.3A.5C_ECU2.5CECU_Rivian_A1.5CTarget.5Crepo_projects.5CpFOTA.5CcL_R2023.2E09.2E01.5Cmake.5Cobj.5Cfbl_mem.:
000000e0 000000000000    202 _gRemainderBuffer:	.space	264

                                                                      Page 5
                                                              C:\Users\nhuliyap\AppData\Local\Temp\gh_00006281.s
000000e6 000000000000 
000000ec 000000000000 
000000f2 000000000000 
000000f8 000000000000 
000000fe 000000000000 
00000104 000000000000 
0000010a 000000000000 
00000110 000000000000 
00000116 000000000000 
0000011c 000000000000 
00000122 000000000000 
00000128 000000000000 
0000012e 000000000000 
00000134 000000000000 
0000013a 000000000000 
00000140 000000000000 
00000146 000000000000 
0000014c 000000000000 
00000152 000000000000 
00000158 000000000000 
0000015e 000000000000 
00000164 000000000000 
0000016a 000000000000 
00000170 000000000000 
00000176 000000000000 
0000017c 000000000000 
00000182 000000000000 
00000188 000000000000 
0000018e 000000000000 
00000194 000000000000 
0000019a 000000000000 
000001a0 000000000000 
000001a6 000000000000 
000001ac 000000000000 
000001b2 000000000000 
000001b8 000000000000 
000001be 000000000000 
000001c4 000000000000 
000001ca 000000000000 
000001d0 000000000000 
000001d6 000000000000 
000001dc 00000000 
                         203 	.type	_gRemainderBuffer..C.3A.5C_ECU2.5CECU_Rivian_A1.5CTarget.5Crepo_projects.5CpFOTA.5CcL_R2023.2E09.2E01.5Cmake.5Cobj.5Cfbl_mem.,@object
                         204 	.size	_gRemainderBuffer..C.3A.5C_ECU2.5CECU_Rivian_A1.5CTarget.5Crepo_projects.5CpFOTA.5CcL_R2023.2E09.2E01.5Cmake.5Cobj.5Cfbl_mem.,264
                         205 	.type	_gRemainderBuffer,@object
                         206 	.size	_gRemainderBuffer,264
                         207 	.global	_gBasicInputBuffer..C.3A.5C_ECU2.5CECU_Rivian_A1.5CTarget.5Crepo_projects.5CpFOTA.5CcL_R2023.2E09.2E01.5Cmake.5Cobj.5Cfbl_mem.
                         208 _gBasicInputBuffer..C.3A.5C_ECU2.5CECU_Rivian_A1.5CTarget.5Crepo_projects.5CpFOTA.5CcL_R2023.2E09.2E01.5Cmake.5Cobj.5Cfbl_mem.:
000001e8 000000000000    209 _gBasicInputBuffer:	.space	4616
000001ee 000000000000 
000001f4 000000000000 
000001fa 000000000000 
00000200 000000000000 
00000206 000000000000 
0000020c 000000000000 
00000212 000000000000 
00000218 000000000000 
0000021e 000000000000 
00000224 000000000000 
0000022a 000000000000 
00000230 000000000000 

                                                                      Page 6
                                                              C:\Users\nhuliyap\AppData\Local\Temp\gh_00006281.s
00000236 000000000000 
0000023c 000000000000 
00000242 000000000000 
00000248 000000000000 
0000024e 000000000000 
00000254 000000000000 
0000025a 000000000000 
00000260 000000000000 
00000266 000000000000 
0000026c 000000000000 
00000272 000000000000 
00000278 000000000000 
0000027e 000000000000 
00000284 000000000000 
0000028a 000000000000 
00000290 000000000000 
00000296 000000000000 
0000029c 000000000000 
000002a2 000000000000 
000002a8 000000000000 
000002ae 000000000000 
000002b4 000000000000 
000002ba 000000000000 
000002c0 000000000000 
000002c6 000000000000 
000002cc 000000000000 
000002d2 000000000000 
000002d8 000000000000 
000002de 000000000000 
000002e4 00000000 
                         210 	.type	_gBasicInputBuffer..C.3A.5C_ECU2.5CECU_Rivian_A1.5CTarget.5Crepo_projects.5CpFOTA.5CcL_R2023.2E09.2E01.5Cmake.5Cobj.5Cfbl_mem.,@object
                         211 	.size	_gBasicInputBuffer..C.3A.5C_ECU2.5CECU_Rivian_A1.5CTarget.5Crepo_projects.5CpFOTA.5CcL_R2023.2E09.2E01.5Cmake.5Cobj.5Cfbl_mem.,4616
                         212 	.type	_gBasicInputBuffer,@object
                         213 	.size	_gBasicInputBuffer,4616
                         214 	.global	_gGapFillBuffer..C.3A.5C_ECU2.5CECU_Rivian_A1.5CTarget.5Crepo_projects.5CpFOTA.5CcL_R2023.2E09.2E01.5Cmake.5Cobj.5Cfbl_mem.
                         215 _gGapFillBuffer..C.3A.5C_ECU2.5CECU_Rivian_A1.5CTarget.5Crepo_projects.5CpFOTA.5CcL_R2023.2E09.2E01.5Cmake.5Cobj.5Cfbl_mem.:
000013f0 000000000000    216 _gGapFillBuffer:	.space	264
000013f6 000000000000 
000013fc 000000000000 
00001402 000000000000 
00001408 000000000000 
0000140e 000000000000 
00001414 000000000000 
0000141a 000000000000 
00001420 000000000000 
00001426 000000000000 
0000142c 000000000000 
00001432 000000000000 
00001438 000000000000 
0000143e 000000000000 
00001444 000000000000 
0000144a 000000000000 
00001450 000000000000 
00001456 000000000000 
0000145c 000000000000 
00001462 000000000000 
00001468 000000000000 
0000146e 000000000000 
00001474 000000000000 
0000147a 000000000000 
00001480 000000000000 

                                                                      Page 7
                                                              C:\Users\nhuliyap\AppData\Local\Temp\gh_00006281.s
00001486 000000000000 
0000148c 000000000000 
00001492 000000000000 
00001498 000000000000 
0000149e 000000000000 
000014a4 000000000000 
000014aa 000000000000 
000014b0 000000000000 
000014b6 000000000000 
000014bc 000000000000 
000014c2 000000000000 
000014c8 000000000000 
000014ce 000000000000 
000014d4 000000000000 
000014da 000000000000 
000014e0 000000000000 
000014e6 000000000000 
000014ec 00000000 
                         217 	.type	_gGapFillBuffer..C.3A.5C_ECU2.5CECU_Rivian_A1.5CTarget.5Crepo_projects.5CpFOTA.5CcL_R2023.2E09.2E01.5Cmake.5Cobj.5Cfbl_mem.,@object
                         218 	.size	_gGapFillBuffer..C.3A.5C_ECU2.5CECU_Rivian_A1.5CTarget.5Crepo_projects.5CpFOTA.5CcL_R2023.2E09.2E01.5Cmake.5Cobj.5Cfbl_mem.,264
                         219 	.type	_gGapFillBuffer,@object
                         220 	.size	_gGapFillBuffer,264
                         221 	.global	_gProcessingQueue..C.3A.5C_ECU2.5CECU_Rivian_A1.5CTarget.5Crepo_projects.5CpFOTA.5CcL_R2023.2E09.2E01.5Cmake.5Cobj.5Cfbl_mem.
                         222 _gProcessingQueue..C.3A.5C_ECU2.5CECU_Rivian_A1.5CTarget.5Crepo_projects.5CpFOTA.5CcL_R2023.2E09.2E01.5Cmake.5Cobj.5Cfbl_mem.:
000014f8 000000000000    223 _gProcessingQueue:	.space	80
000014fe 000000000000 
00001504 000000000000 
0000150a 000000000000 
00001510 000000000000 
00001516 000000000000 
0000151c 000000000000 
00001522 000000000000 
00001528 000000000000 
0000152e 000000000000 
00001534 000000000000 
0000153a 000000000000 
00001540 000000000000 
00001546 0000 
                         224 	.type	_gProcessingQueue..C.3A.5C_ECU2.5CECU_Rivian_A1.5CTarget.5Crepo_projects.5CpFOTA.5CcL_R2023.2E09.2E01.5Cmake.5Cobj.5Cfbl_mem.,@object
                         225 	.size	_gProcessingQueue..C.3A.5C_ECU2.5CECU_Rivian_A1.5CTarget.5Crepo_projects.5CpFOTA.5CcL_R2023.2E09.2E01.5Cmake.5Cobj.5Cfbl_mem.,80
                         226 	.type	_gProcessingQueue,@object
                         227 	.size	_gProcessingQueue,80
                         228 	.data
                         229 	.text
                         230 	.align	2
                         231 	.align	2
                         232 ..gh.f.f.1.e.3:
                         233 	.type	..gh.f.f.1.e.3,@object
                         234 	.size	..gh.f.f.1.e.3,0
                         235 	.global	_FblMemGetBuffer..C.3A.5C_ECU2.5CECU_Rivian_A1.5CTarget.5Crepo_projects.5CpFOTA.5CcL_R2023.2E09.2E01.5Cmake.5Cobj.5Cfbl_mem.
                         236 _FblMemGetBuffer..C.3A.5C_ECU2.5CECU_Rivian_A1.5CTarget.5Crepo_projects.5CpFOTA.5CcL_R2023.2E09.2E01.5Cmake.5Cobj.5Cfbl_mem.:
                         237 _FblMemGetBuffer:
0000001c 8007e100        238 	prepare	{r28,r29,r31},0
00000020 06e8            239 	mov	r6,r29
                         240 --	    .bf
                         241 .LDW91:
00000022 26e70100        242 	ld.w	0[r6],r28
00000026 e0e1            243 	cmp	zero,r28
00000028 821d*           244 	be	.L172
                         245 --line911
                         246 ..lin.C.3A.5C_ECU2.5CECU_Rivian_A1.5CTarget.5Crepo_projects.5CpFOTA.5CcL_R2023.2E09.2E01.5Cmake.5Cobj.5Cfbl_mem.3::

                                                                      Page 8
                                                              C:\Users\nhuliyap\AppData\Local\Temp\gh_00006281.s
                         247 .LDWlin3:
0000002a 06f0            248 	mov	r6,ep
0000002c 0295            249 	sld.w	4[ep],r18
0000002e 0485            250 	sld.w	8[ep],r16
00000030 067d            251 	sld.w	12[ep],r15
00000032 b091            252 	sub	r16,r18
00000034 f279            253 	cmp	r18,r15
00000036 c305*           254 	bnh	.L174
                         255 --line911
                         256 ..lin.C.3A.5C_ECU2.5CECU_Rivian_A1.5CTarget.5Crepo_projects.5CpFOTA.5CcL_R2023.2E09.2E01.5Cmake.5Cobj.5Cfbl_mem.4::
                         257 .LDWlin4:
00000038 0132            258 	mov	1,r6
                         259 	jarl	_ApplFblFatalError,lp
                         259 <EXPANSION BEGIN>
                         259 jarl22 _ApplFblFatalError , lp 
0000003a 80ff0000*       259 <EXPANSION END>
                         260 .L174:
                         261 --line912
                         262 ..lin.C.3A.5C_ECU2.5CECU_Rivian_A1.5CTarget.5Crepo_projects.5CpFOTA.5CcL_R2023.2E09.2E01.5Cmake.5Cobj.5Cfbl_mem.5::
                         263 .LDWlin5:
0000003e 1df0            264 	mov	r29,ep
00000040 028d            265 	sld.w	4[ep],r17
00000042 0675            266 	sld.w	12[ep],r14
00000044 0a6d            267 	sld.w	20[ep],r13
00000046 ae89            268 	sub	r14,r17
00000048 f169            269 	cmp	r17,r13
0000004a c305*           270 	bnh	.L176
                         271 --line912
                         272 ..lin.C.3A.5C_ECU2.5CECU_Rivian_A1.5CTarget.5Crepo_projects.5CpFOTA.5CcL_R2023.2E09.2E01.5Cmake.5Cobj.5Cfbl_mem.6::
                         273 .LDWlin6:
0000004c 0132            274 	mov	1,r6
                         275 	jarl	_ApplFblFatalError,lp
                         275 <EXPANSION BEGIN>
                         275 jarl22 _ApplFblFatalError , lp 
0000004e 80ff0000*       275 <EXPANSION END>
                         276 .L176:
                         277 --line914
                         278 ..lin.C.3A.5C_ECU2.5CECU_Rivian_A1.5CTarget.5Crepo_projects.5CpFOTA.5CcL_R2023.2E09.2E01.5Cmake.5Cobj.5Cfbl_mem.7::
                         279 .LDWlin7:
00000052 3d671100        280 	ld.w	16[r29],r12
00000056 cce1            281 	add	r12,r28
                         282 .L172:
00000058 1c50            283 	mov	r28,r10
                         284 --	    .ef
                         285 .LDW02:
0000005a 4006ff00        286 	dispose	0,{r28,r29,r31},[lp]
                         287 	.type	_FblMemGetBuffer,@function
                         288 	.size	_FblMemGetBuffer,.-_FblMemGetBuffer
                         289 	.type	_FblMemGetBuffer..C.3A.5C_ECU2.5CECU_Rivian_A1.5CTarget.5Crepo_projects.5CpFOTA.5CcL_R2023.2E09.2E01.5Cmake.5Cobj.5Cfbl_mem.,@function
                         290 	.size	_FblMemGetBuffer..C.3A.5C_ECU2.5CECU_Rivian_A1.5CTarget.5Crepo_projects.5CpFOTA.5CcL_R2023.2E09.2E01.5Cmake.5Cobj.5Cfbl_mem.,.-_FblMemGetBuffer..C.3A.5C_ECU2.5CECU_Rivian_A1.5CTarget.5Crepo_projects.5CpFOTA.5CcL_R2023.2E09.2E01.5Cmake.5Cobj.5Cfbl_mem.
                         291 	.align	2
                         292 .LDW12:
                         293 --_jobBuffer	r28	local
                         294 
                         295 --_job	r29	param
                         296 
                         297 	.section ".bss","awb"
                         298 .L239:
                         299 	.type	.L239,@object
                         300 	.size	.L239,0
                         301 	.data

                                                                      Page 9
                                                              C:\Users\nhuliyap\AppData\Local\Temp\gh_00006281.s
                         302 	.text
                         303 	.align	2
                         304 	.align	2
                         305 ..gh.f.f.1.e.4:
                         306 	.type	..gh.f.f.1.e.4,@object
                         307 	.size	..gh.f.f.1.e.4,0
                         308 	.global	_FblMemInitBufferIntegrity..C.3A.5C_ECU2.5CECU_Rivian_A1.5CTarget.5Crepo_projects.5CpFOTA.5CcL_R2023.2E09.2E01.5Cmake.5Cobj.5Cfbl_mem.
                         309 _FblMemInitBufferIntegrity..C.3A.5C_ECU2.5CECU_Rivian_A1.5CTarget.5Crepo_projects.5CpFOTA.5CcL_R2023.2E09.2E01.5Cmake.5Cobj.5Cfbl_mem.:
                         310 _FblMemInitBufferIntegrity:
                         311 --	    .bf
                         312 .LDW22:
0000005e 320664726942    313 	mov	1114206820,r18
00000064 84070f900000*   314 	st.w	r18,sdaoff23(_gBasicInputBuffer)[gp]
0000006a 84070f900000*   315 	st.w	r18,sdaoff23(_gBasicInputBuffer+4612)[gp]
00000070 84070f900000*   316 	st.w	r18,sdaoff23(_gRemainderBuffer)[gp]
00000076 84070f900000*   317 	st.w	r18,sdaoff23(_gRemainderBuffer+260)[gp]
0000007c 84070f900000*   318 	st.w	r18,sdaoff23(_gGapFillBuffer)[gp]
00000082 84070f900000*   319 	st.w	r18,sdaoff23(_gGapFillBuffer+260)[gp]
                         320 --	    .ef
                         321 .LDW32:
00000088 7f00            322 	jmp	[lp]
                         323 	.type	_FblMemInitBufferIntegrity,@function
                         324 	.size	_FblMemInitBufferIntegrity,.-_FblMemInitBufferIntegrity
                         325 	.type	_FblMemInitBufferIntegrity..C.3A.5C_ECU2.5CECU_Rivian_A1.5CTarget.5Crepo_projects.5CpFOTA.5CcL_R2023.2E09.2E01.5Cmake.5Cobj.5Cfbl_mem.,@function
                         326 	.size	_FblMemInitBufferIntegrity..C.3A.5C_ECU2.5CECU_Rivian_A1.5CTarget.5Crepo_projects.5CpFOTA.5CcL_R2023.2E09.2E01.5Cmake.5Cobj.5Cfbl_mem.,.-_FblMemInitBufferIntegrity..C.3A.5C_ECU2.5CECU_Rivian_A1.5CTarget.5Crepo_projects.5CpFOTA.5CcL_R2023.2E09.2E01.5Cmake.5Cobj.5Cfbl_mem.
                         327 	.align	2
                         328 .LDW42:
                         329 
                         330 	.section ".bss","awb"
                         331 .L358:
                         332 	.type	.L358,@object
                         333 	.size	.L358,0
                         334 	.data
                         335 	.text
                         336 	.align	2
                         337 	.align	2
                         338 ..gh.f.f.1.e.5:
                         339 	.type	..gh.f.f.1.e.5,@object
                         340 	.size	..gh.f.f.1.e.5,0
                         341 	.global	_FblMemVerifyBufferIntegrity..C.3A.5C_ECU2.5CECU_Rivian_A1.5CTarget.5Crepo_projects.5CpFOTA.5CcL_R2023.2E09.2E01.5Cmake.5Cobj.5Cfbl_mem.
                         342 _FblMemVerifyBufferIntegrity..C.3A.5C_ECU2.5CECU_Rivian_A1.5CTarget.5Crepo_projects.5CpFOTA.5CcL_R2023.2E09.2E01.5Cmake.5Cobj.5Cfbl_mem.:
                         343 _FblMemVerifyBufferIntegrity:
                         344 --	    .bf
                         345 .LDW52:
0000008a 840709480000*   346 	ld.w	sdaoff23(_gBasicInputBuffer)[gp],r9
00000090 840709900000*   347 	ld.w	sdaoff23(_gBasicInputBuffer+4612)[gp],r18
00000096 840709400000*   348 	ld.w	sdaoff23(_gRemainderBuffer)[gp],r8
0000009c 840709380000*   349 	ld.w	sdaoff23(_gRemainderBuffer+260)[gp],r7
000000a2 310664726942    350 	mov	1114206820,r17
000000a8 840709300000*   351 	ld.w	sdaoff23(_gGapFillBuffer)[gp],r6
000000ae 3149            352 	xor	r17,r9
000000b0 3191            353 	xor	r17,r18
000000b2 840709980000*   354 	ld.w	sdaoff23(_gGapFillBuffer+260)[gp],r19
000000b8 0991            355 	or	r9,r18
000000ba 3141            356 	xor	r17,r8
000000bc 0891            357 	or	r8,r18
000000be 3139            358 	xor	r17,r7
000000c0 0791            359 	or	r7,r18
000000c2 3131            360 	xor	r17,r6
000000c4 0691            361 	or	r6,r18
000000c6 3199            362 	xor	r17,r19

                                                                      Page 10
                                                              C:\Users\nhuliyap\AppData\Local\Temp\gh_00006281.s
000000c8 1391            363 	or	r19,r18
000000ca 208e2200        364 	movea	34,zero,r17
000000ce e08f0453        365 	cmove	0,r17,r10
                         366 --	    .ef
                         367 .LDW62:
000000d2 7f00            368 	jmp	[lp]
                         369 	.type	_FblMemVerifyBufferIntegrity,@function
                         370 	.size	_FblMemVerifyBufferIntegrity,.-_FblMemVerifyBufferIntegrity
                         371 	.type	_FblMemVerifyBufferIntegrity..C.3A.5C_ECU2.5CECU_Rivian_A1.5CTarget.5Crepo_projects.5CpFOTA.5CcL_R2023.2E09.2E01.5Cmake.5Cobj.5Cfbl_mem.,@function
                         372 	.size	_FblMemVerifyBufferIntegrity..C.3A.5C_ECU2.5CECU_Rivian_A1.5CTarget.5Crepo_projects.5CpFOTA.5CcL_R2023.2E09.2E01.5Cmake.5Cobj.5Cfbl_mem.,.-_FblMemVerifyBufferIntegrity..C.3A.5C_ECU2.5CECU_Rivian_A1.5CTarget.5Crepo_projects.5CpFOTA.5CcL_R2023.2E09.2E01.5Cmake.5Cobj.5Cfbl_mem.
                         373 	.align	2
                         374 .LDW72:
                         375 --_retVal	r10	local
                         376 --_aggregated	r18	local
                         377 
                         378 	.section ".bss","awb"
                         379 .L455:
                         380 	.type	.L455,@object
                         381 	.size	.L455,0
                         382 	.data
                         383 	.text
                         384 	.align	2
                         385 	.align	2
                         386 ..gh.f.f.1.e.6:
                         387 	.type	..gh.f.f.1.e.6,@object
                         388 	.size	..gh.f.f.1.e.6,0
                         389 	.global	_FblMemQueueInit..C.3A.5C_ECU2.5CECU_Rivian_A1.5CTarget.5Crepo_projects.5CpFOTA.5CcL_R2023.2E09.2E01.5Cmake.5Cobj.5Cfbl_mem.
                         390 _FblMemQueueInit..C.3A.5C_ECU2.5CECU_Rivian_A1.5CTarget.5Crepo_projects.5CpFOTA.5CcL_R2023.2E09.2E01.5Cmake.5Cobj.5Cfbl_mem.:
                         391 _FblMemQueueInit:
                         392 --	    .bf
                         393 .LDW82:
000000d4 06f0            394 	mov	r6,ep
000000d6 0192            395 	mov	1,r18
000000d8 0705            396 	sst.w	zero,12[ep]
000000da 0505            397 	sst.w	zero,8[ep]
000000dc 1f82            398 	mov	-1,r16
000000de 078effff        399 	addi	-1,r7,r17
000000e2 1298            400 	mov	r18,r19
000000e4 a50d*           401 	br	.L487
                         402 .L486:
                         403 --line1007
                         404 ..lin.C.3A.5C_ECU2.5CECU_Rivian_A1.5CTarget.5Crepo_projects.5CpFOTA.5CcL_R2023.2E09.2E01.5Cmake.5Cobj.5Cfbl_mem.8::
                         405 .LDWlin8:
000000e6 13f0            406 	mov	r19,ep
000000e8 c4f2            407 	shl	4,ep
000000ea c6f1            408 	add	r6,ep
000000ec 058d            409 	sst.w	r17,8[ep]
000000ee 4192            410 	add	1,r18
000000f0 1388            411 	mov	r19,r17
000000f2 0795            412 	sst.w	r18,12[ep]
000000f4 0082            413 	mov	0,r16
000000f6 1298            414 	mov	r18,r19
                         415 .L487:
000000f8 0105            416 	sst.w	zero,0[ep]
000000fa 8483            417 	sst.b	r16,4[ep]
000000fc e791            418 	cmp	r7,r18
000000fe c1f5*           419 	bl	.L486
                         420 --line1016
                         421 ..lin.C.3A.5C_ECU2.5CECU_Rivian_A1.5CTarget.5Crepo_projects.5CpFOTA.5CcL_R2023.2E09.2E01.5Cmake.5Cobj.5Cfbl_mem.9::
                         422 .LDWlin9:
00000100 c43a            423 	shl	4,r7

                                                                      Page 11
                                                              C:\Users\nhuliyap\AppData\Local\Temp\gh_00006281.s
00000102 c639            424 	add	r6,r7
00000104 017a            425 	mov	1,r15
00000106 677ffdff        426 	st.w	r15,-4[r7]
                         427 --	    .ef
                         428 .LDW92:
0000010a 7f00            429 	jmp	[lp]
                         430 	.type	_FblMemQueueInit,@function
                         431 	.size	_FblMemQueueInit,.-_FblMemQueueInit
                         432 	.type	_FblMemQueueInit..C.3A.5C_ECU2.5CECU_Rivian_A1.5CTarget.5Crepo_projects.5CpFOTA.5CcL_R2023.2E09.2E01.5Cmake.5Cobj.5Cfbl_mem.,@function
                         433 	.size	_FblMemQueueInit..C.3A.5C_ECU2.5CECU_Rivian_A1.5CTarget.5Crepo_projects.5CpFOTA.5CcL_R2023.2E09.2E01.5Cmake.5Cobj.5Cfbl_mem.,.-_FblMemQueueInit..C.3A.5C_ECU2.5CECU_Rivian_A1.5CTarget.5Crepo_projects.5CpFOTA.5CcL_R2023.2E09.2E01.5Cmake.5Cobj.5Cfbl_mem.
                         434 	.align	2
                         435 .LDW03:
                         436 --_handle	r19	local
                         437 --_prevHandle	r17	local
                         438 --_nextHandle	r18	local
                         439 
                         440 --_queue	r6	param
                         441 --_length	r7	param
                         442 
                         443 	.section ".bss","awb"
                         444 .L528:
                         445 	.type	.L528,@object
                         446 	.size	.L528,0
                         447 	.data
                         448 	.text
                         449 	.align	2
                         450 	.align	2
                         451 ..gh.f.f.1.e.7:
                         452 	.type	..gh.f.f.1.e.7,@object
                         453 	.size	..gh.f.f.1.e.7,0
                         454 	.global	_FblMemQueueMove..C.3A.5C_ECU2.5CECU_Rivian_A1.5CTarget.5Crepo_projects.5CpFOTA.5CcL_R2023.2E09.2E01.5Cmake.5Cobj.5Cfbl_mem.
                         455 _FblMemQueueMove..C.3A.5C_ECU2.5CECU_Rivian_A1.5CTarget.5Crepo_projects.5CpFOTA.5CcL_R2023.2E09.2E01.5Cmake.5Cobj.5Cfbl_mem.:
                         456 _FblMemQueueMove:
0000010c 8007e1f1        457 	prepare	{r23,r24,r25,r26,r27,r28,r29,r31},0
00000110 06d8            458 	mov	r6,r27
00000112 07d0            459 	mov	r7,r26
00000114 08c0            460 	mov	r8,r24
                         461 --	    .bf
                         462 .LDW13:
00000116 e839            463 	cmp	r8,r7
00000118 c225*           464 	be	.L577
                         465 --line1028
                         466 ..lin.C.3A.5C_ECU2.5CECU_Rivian_A1.5CTarget.5Crepo_projects.5CpFOTA.5CcL_R2023.2E09.2E01.5Cmake.5Cobj.5Cfbl_mem.10::
                         467 .LDWlin10:
0000011a 07e8            468 	mov	r7,r29
0000011c c4ea            469 	shl	4,r29
0000011e c6e9            470 	add	r6,r29
00000120 1df0            471 	mov	r29,ep
00000122 04cd            472 	sld.w	8[ep],r25
00000124 06bd            473 	sld.w	12[ep],r23
00000126 19e0            474 	mov	r25,r28
00000128 c4e2            475 	shl	4,r28
0000012a c6e1            476 	add	r6,r28
0000012c 3c8f0d00        477 	ld.w	12[r28],r17
00000130 f989            478 	cmp	r25,r17
00000132 ca05*           479 	bne	.L578
                         480 --line1031
                         481 ..lin.C.3A.5C_ECU2.5CECU_Rivian_A1.5CTarget.5Crepo_projects.5CpFOTA.5CcL_R2023.2E09.2E01.5Cmake.5Cobj.5Cfbl_mem.11::
                         482 .LDWlin11:
00000134 0132            483 	mov	1,r6
                         484 	jarl	_ApplFblFatalError,lp

                                                                      Page 12
                                                              C:\Users\nhuliyap\AppData\Local\Temp\gh_00006281.s
                         484 <EXPANSION BEGIN>
                         484 jarl22 _ApplFblFatalError , lp 
00000136 80ff0000*       484 <EXPANSION END>
                         485 .L578:
                         486 --line1034
                         487 ..lin.C.3A.5C_ECU2.5CECU_Rivian_A1.5CTarget.5Crepo_projects.5CpFOTA.5CcL_R2023.2E09.2E01.5Cmake.5Cobj.5Cfbl_mem.12::
                         488 .LDWlin12:
0000013a 17f0            489 	mov	r23,ep
0000013c c4f2            490 	shl	4,ep
0000013e 7cbf0d00        491 	st.w	r23,12[r28]
00000142 dbf1            492 	add	r27,ep
00000144 05cd            493 	sst.w	r25,8[ep]
00000146 18f0            494 	mov	r24,ep
00000148 c4f2            495 	shl	4,ep
0000014a dbf1            496 	add	r27,ep
0000014c 0695            497 	sld.w	12[ep],r18
0000014e 7dc70900        498 	st.w	r24,8[r29]
00000152 07d5            499 	sst.w	r26,12[ep]
00000154 7d970d00        500 	st.w	r18,12[r29]
00000158 c492            501 	shl	4,r18
0000015a db91            502 	add	r27,r18
0000015c 72d70900        503 	st.w	r26,8[r18]
                         504 .L577:
00000160 1a50            505 	mov	r26,r10
                         506 --	    .ef
                         507 .LDW23:
00000162 4006fff1        508 	dispose	0,{r23,r24,r25,r26,r27,r28,r29,r31},[lp]
                         509 	.type	_FblMemQueueMove,@function
                         510 	.size	_FblMemQueueMove,.-_FblMemQueueMove
                         511 	.type	_FblMemQueueMove..C.3A.5C_ECU2.5CECU_Rivian_A1.5CTarget.5Crepo_projects.5CpFOTA.5CcL_R2023.2E09.2E01.5Cmake.5Cobj.5Cfbl_mem.,@function
                         512 	.size	_FblMemQueueMove..C.3A.5C_ECU2.5CECU_Rivian_A1.5CTarget.5Crepo_projects.5CpFOTA.5CcL_R2023.2E09.2E01.5Cmake.5Cobj.5Cfbl_mem.,.-_FblMemQueueMove..C.3A.5C_ECU2.5CECU_Rivian_A1.5CTarget.5Crepo_projects.5CpFOTA.5CcL_R2023.2E09.2E01.5Cmake.5Cobj.5Cfbl_mem.
                         513 	.align	2
                         514 .LDW33:
                         515 --_prevOld	r25	local
                         516 --_nextOld	r23	local
                         517 
                         518 --_queue	r27	param
                         519 --_handle	r26	param
                         520 --_prevNew	r24	param
                         521 
                         522 	.section ".bss","awb"
                         523 .L629:
                         524 	.type	.L629,@object
                         525 	.size	.L629,0
                         526 	.data
                         527 	.text
                         528 	.align	2
                         529 	.align	2
                         530 ..gh.f.f.1.e.8:
                         531 	.type	..gh.f.f.1.e.8,@object
                         532 	.size	..gh.f.f.1.e.8,0
                         533 	.global	_FblMemQueueRemove..C.3A.5C_ECU2.5CECU_Rivian_A1.5CTarget.5Crepo_projects.5CpFOTA.5CcL_R2023.2E09.2E01.5Cmake.5Cobj.5Cfbl_mem.
                         534 _FblMemQueueRemove..C.3A.5C_ECU2.5CECU_Rivian_A1.5CTarget.5Crepo_projects.5CpFOTA.5CcL_R2023.2E09.2E01.5Cmake.5Cobj.5Cfbl_mem.:
                         535 _FblMemQueueRemove:
00000166 06f0            536 	mov	r6,ep
                         537 --	    .bf
                         538 .LDW43:
00000168 0c45            539 	sld.w	24[ep],r8
0000016a bf07a2ff*       540 	jr	_FblMemQueueMove
                         541 --	    .ef
                         542 .LDW53:

                                                                      Page 13
                                                              C:\Users\nhuliyap\AppData\Local\Temp\gh_00006281.s
                         543 	.type	_FblMemQueueRemove,@function
                         544 	.size	_FblMemQueueRemove,.-_FblMemQueueRemove
                         545 	.type	_FblMemQueueRemove..C.3A.5C_ECU2.5CECU_Rivian_A1.5CTarget.5Crepo_projects.5CpFOTA.5CcL_R2023.2E09.2E01.5Cmake.5Cobj.5Cfbl_mem.,@function
                         546 	.size	_FblMemQueueRemove..C.3A.5C_ECU2.5CECU_Rivian_A1.5CTarget.5Crepo_projects.5CpFOTA.5CcL_R2023.2E09.2E01.5Cmake.5Cobj.5Cfbl_mem.,.-_FblMemQueueRemove..C.3A.5C_ECU2.5CECU_Rivian_A1.5CTarget.5Crepo_projects.5CpFOTA.5CcL_R2023.2E09.2E01.5Cmake.5Cobj.5Cfbl_mem.
                         547 	.align	2
                         548 .LDW63:
                         549 
                         550 --_queue	ep	param
                         551 --_handle	r7	param
                         552 
                         553 	.section ".bss","awb"
                         554 .L705:
                         555 	.type	.L705,@object
                         556 	.size	.L705,0
                         557 	.data
                         558 	.text
                         559 	.align	2
                         560 	.align	2
                         561 ..gh.f.f.1.e.9:
                         562 	.type	..gh.f.f.1.e.9,@object
                         563 	.size	..gh.f.f.1.e.9,0
                         564 	.global	_FblMemQueuePrioUpdate..C.3A.5C_ECU2.5CECU_Rivian_A1.5CTarget.5Crepo_projects.5CpFOTA.5CcL_R2023.2E09.2E01.5Cmake.5Cobj.5Cfbl_mem.
                         565 _FblMemQueuePrioUpdate..C.3A.5C_ECU2.5CECU_Rivian_A1.5CTarget.5Crepo_projects.5CpFOTA.5CcL_R2023.2E09.2E01.5Cmake.5Cobj.5Cfbl_mem.:
                         566 _FblMemQueuePrioUpdate:
0000016e 8007e110        567 	prepare	{r27,r28,r29,r31},0
00000172 08d8            568 	mov	r8,r27
00000174 06e8            569 	mov	r6,r29
00000176 07e0            570 	mov	r7,r28
00000178 9b00            571 	zxb	r27
                         572 --	    .bf
                         573 .LDW73:
0000017a 26470900        574 	ld.w	8[r6],r8
0000017e a505*           575 	br	.L726
                         576 .L728:
                         577 --line1059
                         578 ..lin.C.3A.5C_ECU2.5CECU_Rivian_A1.5CTarget.5Crepo_projects.5CpFOTA.5CcL_R2023.2E09.2E01.5Cmake.5Cobj.5Cfbl_mem.13::
                         579 .LDWlin13:
00000180 0445            580 	sld.w	8[ep],r8
                         581 .L726:
00000182 08f0            582 	mov	r8,ep
00000184 c4f2            583 	shl	4,ep
00000186 c6f1            584 	add	r6,ep
00000188 6438            585 	sld.bu	4[ep],r7
0000018a fb39            586 	cmp	r27,r7
0000018c a1fd*           587 	bl	.L728
                         588 --line1062
                         589 ..lin.C.3A.5C_ECU2.5CECU_Rivian_A1.5CTarget.5Crepo_projects.5CpFOTA.5CcL_R2023.2E09.2E01.5Cmake.5Cobj.5Cfbl_mem.14::
                         590 .LDWlin14:
0000018e 1c38            591 	mov	r28,r7
                         592 	jarl	_FblMemQueueMove,lp
                         592 <EXPANSION BEGIN>
                         592 jarl22 _FblMemQueueMove , lp 
00000190 bfff7cff*       592 <EXPANSION END>
                         593 --line1064
                         594 ..lin.C.3A.5C_ECU2.5CECU_Rivian_A1.5CTarget.5Crepo_projects.5CpFOTA.5CcL_R2023.2E09.2E01.5Cmake.5Cobj.5Cfbl_mem.15::
                         595 .LDWlin15:
00000194 1cf0            596 	mov	r28,ep
00000196 c4f2            597 	shl	4,ep
00000198 ddf1            598 	add	r29,ep
0000019a 84db            599 	sst.b	r27,4[ep]
0000019c 1c50            600 	mov	r28,r10

                                                                      Page 14
                                                              C:\Users\nhuliyap\AppData\Local\Temp\gh_00006281.s
                         601 --	    .ef
                         602 .LDW83:
0000019e 4006ff10        603 	dispose	0,{r27,r28,r29,r31},[lp]
                         604 	.type	_FblMemQueuePrioUpdate,@function
                         605 	.size	_FblMemQueuePrioUpdate,.-_FblMemQueuePrioUpdate
                         606 	.type	_FblMemQueuePrioUpdate..C.3A.5C_ECU2.5CECU_Rivian_A1.5CTarget.5Crepo_projects.5CpFOTA.5CcL_R2023.2E09.2E01.5Cmake.5Cobj.5Cfbl_mem.,@function
                         607 	.size	_FblMemQueuePrioUpdate..C.3A.5C_ECU2.5CECU_Rivian_A1.5CTarget.5Crepo_projects.5CpFOTA.5CcL_R2023.2E09.2E01.5Cmake.5Cobj.5Cfbl_mem.,.-_FblMemQueuePrioUpdate..C.3A.5C_ECU2.5CECU_Rivian_A1.5CTarget.5Crepo_projects.5CpFOTA.5CcL_R2023.2E09.2E01.5Cmake.5Cobj.5Cfbl_mem.
                         608 	.align	2
                         609 .LDW93:
                         610 --_prevHandle	r8	local
                         611 
                         612 --_queue	r29	param
                         613 --_handle	r28	param
                         614 --_prio	r27	param
                         615 
                         616 	.section ".bss","awb"
                         617 .L768:
                         618 	.type	.L768,@object
                         619 	.size	.L768,0
                         620 	.data
                         621 	.text
                         622 	.align	2
                         623 	.align	2
                         624 ..gh.f.f.1.e.10:
                         625 	.type	..gh.f.f.1.e.10,@object
                         626 	.size	..gh.f.f.1.e.10,0
                         627 	.global	_FblMemQueuePrioInsert..C.3A.5C_ECU2.5CECU_Rivian_A1.5CTarget.5Crepo_projects.5CpFOTA.5CcL_R2023.2E09.2E01.5Cmake.5Cobj.5Cfbl_mem.
                         628 _FblMemQueuePrioInsert..C.3A.5C_ECU2.5CECU_Rivian_A1.5CTarget.5Crepo_projects.5CpFOTA.5CcL_R2023.2E09.2E01.5Cmake.5Cobj.5Cfbl_mem.:
                         629 _FblMemQueuePrioInsert:
000001a2 8007e110        630 	prepare	{r27,r28,r29,r31},0
000001a6 07e0            631 	mov	r7,r28
000001a8 06e8            632 	mov	r6,r29
000001aa 9c00            633 	zxb	r28
000001ac 08d8            634 	mov	r8,r27
                         635 --	    .bf
                         636 .LDW04:
000001ae 26971d00        637 	ld.w	28[r6],r18
000001b2 6192            638 	cmp	1,r18
000001b4 ca05*           639 	bne	.L815
                         640 --line1073
                         641 ..lin.C.3A.5C_ECU2.5CECU_Rivian_A1.5CTarget.5Crepo_projects.5CpFOTA.5CcL_R2023.2E09.2E01.5Cmake.5Cobj.5Cfbl_mem.16::
                         642 .LDWlin16:
000001b6 1230            643 	mov	r18,r6
                         644 	jarl	_ApplFblFatalError,lp
                         644 <EXPANSION BEGIN>
                         644 jarl22 _ApplFblFatalError , lp 
000001b8 80ff0000*       644 <EXPANSION END>
                         645 .L815:
                         646 --line1075
                         647 ..lin.C.3A.5C_ECU2.5CECU_Rivian_A1.5CTarget.5Crepo_projects.5CpFOTA.5CcL_R2023.2E09.2E01.5Cmake.5Cobj.5Cfbl_mem.17::
                         648 .LDWlin17:
000001bc 3d3f1d00        649 	ld.w	28[r29],r7
000001c0 1d30            650 	mov	r29,r6
000001c2 1c40            651 	mov	r28,r8
                         652 	jarl	_FblMemQueuePrioUpdate,lp
                         652 <EXPANSION BEGIN>
                         652 jarl22 _FblMemQueuePrioUpdate , lp 
000001c4 bfffaaff*       652 <EXPANSION END>
                         653 --line1077
                         654 ..lin.C.3A.5C_ECU2.5CECU_Rivian_A1.5CTarget.5Crepo_projects.5CpFOTA.5CcL_R2023.2E09.2E01.5Cmake.5Cobj.5Cfbl_mem.18::
                         655 .LDWlin18:

                                                                      Page 15
                                                              C:\Users\nhuliyap\AppData\Local\Temp\gh_00006281.s
000001c8 0af0            656 	mov	r10,ep
000001ca c4f2            657 	shl	4,ep
000001cc ddf1            658 	add	r29,ep
000001ce 01dd            659 	sst.w	r27,0[ep]
                         660 --	    .ef
                         661 .LDW14:
000001d0 4006ff10        662 	dispose	0,{r27,r28,r29,r31},[lp]
                         663 	.type	_FblMemQueuePrioInsert,@function
                         664 	.size	_FblMemQueuePrioInsert,.-_FblMemQueuePrioInsert
                         665 	.type	_FblMemQueuePrioInsert..C.3A.5C_ECU2.5CECU_Rivian_A1.5CTarget.5Crepo_projects.5CpFOTA.5CcL_R2023.2E09.2E01.5Cmake.5Cobj.5Cfbl_mem.,@function
                         666 	.size	_FblMemQueuePrioInsert..C.3A.5C_ECU2.5CECU_Rivian_A1.5CTarget.5Crepo_projects.5CpFOTA.5CcL_R2023.2E09.2E01.5Cmake.5Cobj.5Cfbl_mem.,.-_FblMemQueuePrioInsert..C.3A.5C_ECU2.5CECU_Rivian_A1.5CTarget.5Crepo_projects.5CpFOTA.5CcL_R2023.2E09.2E01.5Cmake.5Cobj.5Cfbl_mem.
                         667 	.align	2
                         668 .LDW24:
                         669 
                         670 --_queue	r29	param
                         671 --_prio	r28	param
                         672 --_job	r27	param
                         673 
                         674 	.section ".bss","awb"
                         675 .L843:
                         676 	.type	.L843,@object
                         677 	.size	.L843,0
                         678 	.data
                         679 	.text
                         680 	.align	2
                         681 	.align	2
                         682 ..gh.f.f.1.e.11:
                         683 	.type	..gh.f.f.1.e.11,@object
                         684 	.size	..gh.f.f.1.e.11,0
                         685 	.global	_FblMemQueueDefaultPrioInsert..C.3A.5C_ECU2.5CECU_Rivian_A1.5CTarget.5Crepo_projects.5CpFOTA.5CcL_R2023.2E09.2E01.5Cmake.5Cobj.5Cfbl_mem.
                         686 _FblMemQueueDefaultPrioInsert..C.3A.5C_ECU2.5CECU_Rivian_A1.5CTarget.5Crepo_projects.5CpFOTA.5CcL_R2023.2E09.2E01.5Cmake.5Cobj.5Cfbl_mem.:
                         687 _FblMemQueueDefaultPrioInsert:
000001d4 8007e110        688 	prepare	{r27,r28,r29,r31},0
000001d8 06e0            689 	mov	r6,r28
000001da 07e8            690 	mov	r7,r29
000001dc 08d8            691 	mov	r8,r27
                         692 --	    .bf
                         693 .LDW34:
000001de 07971c00        694 	ld.b	28[r7],r18
000001e2 6392            695 	cmp	3,r18
000001e4 c605*           696 	blt	.L881
                         697 --line1084
                         698 ..lin.C.3A.5C_ECU2.5CECU_Rivian_A1.5CTarget.5Crepo_projects.5CpFOTA.5CcL_R2023.2E09.2E01.5Cmake.5Cobj.5Cfbl_mem.19::
                         699 .LDWlin19:
000001e6 0132            700 	mov	1,r6
                         701 	jarl	_ApplFblFatalError,lp
                         701 <EXPANSION BEGIN>
                         701 jarl22 _ApplFblFatalError , lp 
000001e8 80ff0000*       701 <EXPANSION END>
                         702 .L881:
                         703 --line1088
                         704 ..lin.C.3A.5C_ECU2.5CECU_Rivian_A1.5CTarget.5Crepo_projects.5CpFOTA.5CcL_R2023.2E09.2E01.5Cmake.5Cobj.5Cfbl_mem.20::
                         705 .LDWlin20:
000001ec 1df71c00        706 	ld.b	28[r29],ep
000001f0 310600000000*   707 	mov	_gJobPrio,r17
000001f6 7ddf2100        708 	st.w	r27,32[r29]
000001fa 1c30            709 	mov	r28,r6
000001fc d1f1            710 	add	r17,ep
000001fe 6038            711 	sld.bu	0[ep],r7
00000200 1d40            712 	mov	r29,r8
                         713 	jarl	_FblMemQueuePrioInsert,lp

                                                                      Page 16
                                                              C:\Users\nhuliyap\AppData\Local\Temp\gh_00006281.s
                         713 <EXPANSION BEGIN>
                         713 jarl22 _FblMemQueuePrioInsert , lp 
00000202 bfffa0ff*       713 <EXPANSION END>
                         714 --	    .ef
                         715 .LDW44:
                         716 --line1088
                         717 ..lin.C.3A.5C_ECU2.5CECU_Rivian_A1.5CTarget.5Crepo_projects.5CpFOTA.5CcL_R2023.2E09.2E01.5Cmake.5Cobj.5Cfbl_mem.21::
                         718 .LDWlin21:
00000206 4006ff10        719 	dispose	0,{r27,r28,r29,r31},[lp]
                         720 	.type	_FblMemQueueDefaultPrioInsert,@function
                         721 	.size	_FblMemQueueDefaultPrioInsert,.-_FblMemQueueDefaultPrioInsert
                         722 	.type	_FblMemQueueDefaultPrioInsert..C.3A.5C_ECU2.5CECU_Rivian_A1.5CTarget.5Crepo_projects.5CpFOTA.5CcL_R2023.2E09.2E01.5Cmake.5Cobj.5Cfbl_mem.,@function
                         723 	.size	_FblMemQueueDefaultPrioInsert..C.3A.5C_ECU2.5CECU_Rivian_A1.5CTarget.5Crepo_projects.5CpFOTA.5CcL_R2023.2E09.2E01.5Cmake.5Cobj.5Cfbl_mem.,.-_FblMemQueueDefaultPrioInsert..C.3A.5C_ECU2.5CECU_Rivian_A1.5CTarget.5Crepo_projects.5CpFOTA.5CcL_R2023.2E09.2E01.5Cmake.5Cobj.5Cfbl_mem.
                         724 	.align	2
                         725 .LDW54:
                         726 
                         727 --_queue	r28	param
                         728 --_job	r29	param
                         729 --_segmentIndex	r27	param
                         730 
                         731 	.section ".bss","awb"
                         732 .L923:
                         733 	.type	.L923,@object
                         734 	.size	.L923,0
                         735 	.data
                         736 	.text
                         737 	.align	2
                         738 	.align	2
                         739 ..gh.f.f.1.e.12:
                         740 	.type	..gh.f.f.1.e.12,@object
                         741 	.size	..gh.f.f.1.e.12,0
                         742 	.global	_FblMemInitJob..C.3A.5C_ECU2.5CECU_Rivian_A1.5CTarget.5Crepo_projects.5CpFOTA.5CcL_R2023.2E09.2E01.5Cmake.5Cobj.5Cfbl_mem.
                         743 _FblMemInitJob..C.3A.5C_ECU2.5CECU_Rivian_A1.5CTarget.5Crepo_projects.5CpFOTA.5CcL_R2023.2E09.2E01.5Cmake.5Cobj.5Cfbl_mem.:
                         744 _FblMemInitJob:
0000020a 06f0            745 	mov	r6,ep
                         746 --	    .bf
                         747 .LDW64:
0000020c 013d            748 	sst.w	r7,0[ep]
0000020e 0345            749 	sst.w	r8,4[ep]
00000210 0545            750 	sst.w	r8,8[ep]
00000212 0705            751 	sst.w	zero,12[ep]
00000214 0905            752 	sst.w	zero,16[ep]
00000216 0b05            753 	sst.w	zero,20[ep]
00000218 9c4b            754 	sst.b	r9,28[ep]
0000021a 9d03            755 	sst.b	zero,29[ep]
                         756 --	    .ef
                         757 .LDW74:
0000021c 7f00            758 	jmp	[lp]
                         759 	.type	_FblMemInitJob,@function
                         760 	.size	_FblMemInitJob,.-_FblMemInitJob
                         761 	.type	_FblMemInitJob..C.3A.5C_ECU2.5CECU_Rivian_A1.5CTarget.5Crepo_projects.5CpFOTA.5CcL_R2023.2E09.2E01.5Cmake.5Cobj.5Cfbl_mem.,@function
                         762 	.size	_FblMemInitJob..C.3A.5C_ECU2.5CECU_Rivian_A1.5CTarget.5Crepo_projects.5CpFOTA.5CcL_R2023.2E09.2E01.5Cmake.5Cobj.5Cfbl_mem.,.-_FblMemInitJob..C.3A.5C_ECU2.5CECU_Rivian_A1.5CTarget.5Crepo_projects.5CpFOTA.5CcL_R2023.2E09.2E01.5Cmake.5Cobj.5Cfbl_mem.
                         763 	.align	2
                         764 .LDW84:
                         765 
                         766 --_job	ep	param
                         767 --_buffer	r7	param
                         768 --_size	r8	param
                         769 --_type	r9	param
                         770 
                         771 	.section ".bss","awb"

                                                                      Page 17
                                                              C:\Users\nhuliyap\AppData\Local\Temp\gh_00006281.s
                         772 .L977:
                         773 	.type	.L977,@object
                         774 	.size	.L977,0
                         775 	.data
                         776 	.text
                         777 	.align	2
                         778 	.align	2
                         779 ..gh.f.f.1.e.13:
                         780 	.type	..gh.f.f.1.e.13,@object
                         781 	.size	..gh.f.f.1.e.13,0
                         782 	.global	_FblMemInitInputQueue..C.3A.5C_ECU2.5CECU_Rivian_A1.5CTarget.5Crepo_projects.5CpFOTA.5CcL_R2023.2E09.2E01.5Cmake.5Cobj.5Cfbl_mem.
                         783 _FblMemInitInputQueue..C.3A.5C_ECU2.5CECU_Rivian_A1.5CTarget.5Crepo_projects.5CpFOTA.5CcL_R2023.2E09.2E01.5Cmake.5Cobj.5Cfbl_mem.:
                         784 _FblMemInitInputQueue:
0000021e 80072100        785 	prepare	{r31},0
                         786 --	    .bf
                         787 .LDW94:
00000222 260600000000*   788 	mov	sdaoff23(_gInputJobs),r6
00000228 270600000000*   789 	mov	sdaoff23(_gBasicInputBuffer+4),r7
0000022e 20460012        790 	movea	4608,zero,r8
00000232 004a            791 	mov	0,r9
                         792 	jarl	_FblMemInitJob,lp
                         792 <EXPANSION BEGIN>
                         792 jarl22 _FblMemInitJob , lp 
00000234 bfffd6ff*       792 <EXPANSION END>
                         793 --line1119
                         794 ..lin.C.3A.5C_ECU2.5CECU_Rivian_A1.5CTarget.5Crepo_projects.5CpFOTA.5CcL_R2023.2E09.2E01.5Cmake.5Cobj.5Cfbl_mem.22::
                         795 .LDWlin22:
00000238 2096ff0f        796 	movea	4095,zero,r18
0000023c 06f0            797 	mov	r6,ep
0000023e 028a            798 	mov	2,r17
00000240 0595            799 	sst.w	r18,8[ep]
00000242 078d            800 	sst.w	r17,12[ep]
                         801 --	    .ef
                         802 .LDW05:
00000244 40063f00        803 	dispose	0,{r31},[lp]
                         804 	.type	_FblMemInitInputQueue,@function
                         805 	.size	_FblMemInitInputQueue,.-_FblMemInitInputQueue
                         806 	.type	_FblMemInitInputQueue..C.3A.5C_ECU2.5CECU_Rivian_A1.5CTarget.5Crepo_projects.5CpFOTA.5CcL_R2023.2E09.2E01.5Cmake.5Cobj.5Cfbl_mem.,@function
                         807 	.size	_FblMemInitInputQueue..C.3A.5C_ECU2.5CECU_Rivian_A1.5CTarget.5Crepo_projects.5CpFOTA.5CcL_R2023.2E09.2E01.5Cmake.5Cobj.5Cfbl_mem.,.-_FblMemInitInputQueue..C.3A.5C_ECU2.5CECU_Rivian_A1.5CTarget.5Crepo_projects.5CpFOTA.5CcL_R2023.2E09.2E01.5Cmake.5Cobj.5Cfbl_mem.
                         808 	.align	2
                         809 .LDW15:
                         810 
                         811 	.section ".bss","awb"
                         812 .L1025:
                         813 	.type	.L1025,@object
                         814 	.size	.L1025,0
                         815 	.data
                         816 	.text
                         817 	.align	2
                         818 	.align	2
                         819 ..gh.f.f.1.e.14:
                         820 	.type	..gh.f.f.1.e.14,@object
                         821 	.size	..gh.f.f.1.e.14,0
                         822 	.global	_FblMemInitStates..C.3A.5C_ECU2.5CECU_Rivian_A1.5CTarget.5Crepo_projects.5CpFOTA.5CcL_R2023.2E09.2E01.5Cmake.5Cobj.5Cfbl_mem.
                         823 _FblMemInitStates..C.3A.5C_ECU2.5CECU_Rivian_A1.5CTarget.5Crepo_projects.5CpFOTA.5CcL_R2023.2E09.2E01.5Cmake.5Cobj.5Cfbl_mem.:
                         824 _FblMemInitStates:
                         825 --	    .bf
                         826 .LDW25:
00000248 84070d000000*   827 	st.b	zero,sdaoff23(_fblMemProgState)[gp]
0000024e 84070d000000*   828 	st.b	zero,sdaoff23(_gErrorStatus)[gp]
00000254 84070f000000*   829 	st.w	zero,sdaoff23(_gAllowedInd)[gp]

                                                                      Page 18
                                                              C:\Users\nhuliyap\AppData\Local\Temp\gh_00006281.s
                         830 --	    .ef
                         831 .LDW35:
0000025a 7f00            832 	jmp	[lp]
                         833 	.type	_FblMemInitStates,@function
                         834 	.size	_FblMemInitStates,.-_FblMemInitStates
                         835 	.type	_FblMemInitStates..C.3A.5C_ECU2.5CECU_Rivian_A1.5CTarget.5Crepo_projects.5CpFOTA.5CcL_R2023.2E09.2E01.5Cmake.5Cobj.5Cfbl_mem.,@function
                         836 	.size	_FblMemInitStates..C.3A.5C_ECU2.5CECU_Rivian_A1.5CTarget.5Crepo_projects.5CpFOTA.5CcL_R2023.2E09.2E01.5Cmake.5Cobj.5Cfbl_mem.,.-_FblMemInitStates..C.3A.5C_ECU2.5CECU_Rivian_A1.5CTarget.5Crepo_projects.5CpFOTA.5CcL_R2023.2E09.2E01.5Cmake.5Cobj.5Cfbl_mem.
                         837 	.align	2
                         838 .LDW45:
                         839 
                         840 	.section ".bss","awb"
                         841 .L1073:
                         842 	.type	.L1073,@object
                         843 	.size	.L1073,0
                         844 	.data
                         845 	.text
                         846 	.align	2
                         847 	.align	2
                         848 ..gh.f.f.1.e.15:
                         849 	.type	..gh.f.f.1.e.15,@object
                         850 	.size	..gh.f.f.1.e.15,0
                         851 	.global	_FblMemGetActiveBuffer
                         852 _FblMemGetActiveBuffer:
                         853 --	    .bf
                         854 .LDW55:
0000025c 3e0600000000*   855 	mov	sdaoff23(_gInputJobs),ep
00000262 0695            856 	sld.w	12[ep],r18
00000264 1e30            857 	mov	ep,r6
00000266 0995            858 	sst.w	r18,16[ep]
00000268 bf07b4fd*       859 	jr	_FblMemGetBuffer
                         860 --	    .ef
                         861 .LDW65:
                         862 	.type	_FblMemGetActiveBuffer,@function
                         863 	.size	_FblMemGetActiveBuffer,.-_FblMemGetActiveBuffer
                         864 	.align	2
                         865 .LDW75:
                         866 
                         867 	.section ".bss","awb"
                         868 .L1121:
                         869 	.type	.L1121,@object
                         870 	.size	.L1121,0
                         871 	.data
                         872 	.text
                         873 	.align	2
                         874 	.align	2
                         875 ..gh.f.f.1.e.16:
                         876 	.type	..gh.f.f.1.e.16,@object
                         877 	.size	..gh.f.f.1.e.16,0
                         878 	.global	_FblMemInitInternal..C.3A.5C_ECU2.5CECU_Rivian_A1.5CTarget.5Crepo_projects.5CpFOTA.5CcL_R2023.2E09.2E01.5Cmake.5Cobj.5Cfbl_mem.
                         879 _FblMemInitInternal..C.3A.5C_ECU2.5CECU_Rivian_A1.5CTarget.5Crepo_projects.5CpFOTA.5CcL_R2023.2E09.2E01.5Cmake.5Cobj.5Cfbl_mem.:
                         880 _FblMemInitInternal:
0000026c 80072100        881 	prepare	{r31},0
                         882 --	    .bf
                         883 .LDW85:
                         884 	jarl	_FblMemInitStates,lp
                         884 <EXPANSION BEGIN>
                         884 jarl22 _FblMemInitStates , lp 
00000270 bfffd8ff*       884 <EXPANSION END>
                         885 --line1138
                         886 ..lin.C.3A.5C_ECU2.5CECU_Rivian_A1.5CTarget.5Crepo_projects.5CpFOTA.5CcL_R2023.2E09.2E01.5Cmake.5Cobj.5Cfbl_mem.23::
                         887 .LDWlin23:

                                                                      Page 19
                                                              C:\Users\nhuliyap\AppData\Local\Temp\gh_00006281.s
00000274 260600000000*   888 	mov	sdaoff23(_gProcessingQueue),r6
0000027a 053a            889 	mov	5,r7
                         890 	jarl	_FblMemQueueInit,lp
                         890 <EXPANSION BEGIN>
                         890 jarl22 _FblMemQueueInit , lp 
0000027c bfff58fe*       890 <EXPANSION END>
                         891 --line1140
                         892 ..lin.C.3A.5C_ECU2.5CECU_Rivian_A1.5CTarget.5Crepo_projects.5CpFOTA.5CcL_R2023.2E09.2E01.5Cmake.5Cobj.5Cfbl_mem.24::
                         893 .LDWlin24:
                         894 	jarl	_FblMemInitInputQueue,lp
                         894 <EXPANSION BEGIN>
                         894 jarl22 _FblMemInitInputQueue , lp 
00000280 bfff9eff*       894 <EXPANSION END>
                         895 --line1143
                         896 ..lin.C.3A.5C_ECU2.5CECU_Rivian_A1.5CTarget.5Crepo_projects.5CpFOTA.5CcL_R2023.2E09.2E01.5Cmake.5Cobj.5Cfbl_mem.25::
                         897 .LDWlin25:
00000284 270600000000*   898 	mov	sdaoff23(_gRemainderBuffer+4),r7
0000028a 260600000000*   899 	mov	sdaoff23(_gWriteFinalizeJob),r6
00000290 20460001        900 	movea	256,zero,r8
00000294 014a            901 	mov	1,r9
                         902 	jarl	_FblMemInitJob,lp
                         902 <EXPANSION BEGIN>
                         902 jarl22 _FblMemInitJob , lp 
00000296 bfff74ff*       902 <EXPANSION END>
                         903 --line1158
                         904 ..lin.C.3A.5C_ECU2.5CECU_Rivian_A1.5CTarget.5Crepo_projects.5CpFOTA.5CcL_R2023.2E09.2E01.5Cmake.5Cobj.5Cfbl_mem.26::
                         905 .LDWlin26:
                         906 	jarl	_FblMemInitBufferIntegrity,lp
                         906 <EXPANSION BEGIN>
                         906 jarl22 _FblMemInitBufferIntegrity , lp 
0000029a bfffc4fd*       906 <EXPANSION END>
                         907 --line1165
                         908 ..lin.C.3A.5C_ECU2.5CECU_Rivian_A1.5CTarget.5Crepo_projects.5CpFOTA.5CcL_R2023.2E09.2E01.5Cmake.5Cobj.5Cfbl_mem.27::
                         909 .LDWlin27:
0000029e 20964100        910 	movea	65,zero,r18
000002a2 84070f900000*   911 	st.w	r18,sdaoff23(_gAllowedInd)[gp]
                         912 	jarl	_FblMemGetActiveBuffer,lp
                         912 <EXPANSION BEGIN>
                         912 jarl22 _FblMemGetActiveBuffer , lp 
000002a8 bfffb4ff*       912 <EXPANSION END>
                         913 --	    .ef
                         914 .LDW95:
                         915 --line1165
                         916 ..lin.C.3A.5C_ECU2.5CECU_Rivian_A1.5CTarget.5Crepo_projects.5CpFOTA.5CcL_R2023.2E09.2E01.5Cmake.5Cobj.5Cfbl_mem.28::
                         917 .LDWlin28:
000002ac 40063f00        918 	dispose	0,{r31},[lp]
                         919 	.type	_FblMemInitInternal,@function
                         920 	.size	_FblMemInitInternal,.-_FblMemInitInternal
                         921 	.type	_FblMemInitInternal..C.3A.5C_ECU2.5CECU_Rivian_A1.5CTarget.5Crepo_projects.5CpFOTA.5CcL_R2023.2E09.2E01.5Cmake.5Cobj.5Cfbl_mem.,@function
                         922 	.size	_FblMemInitInternal..C.3A.5C_ECU2.5CECU_Rivian_A1.5CTarget.5Crepo_projects.5CpFOTA.5CcL_R2023.2E09.2E01.5Cmake.5Cobj.5Cfbl_mem.,.-_FblMemInitInternal..C.3A.5C_ECU2.5CECU_Rivian_A1.5CTarget.5Crepo_projects.5CpFOTA.5CcL_R2023.2E09.2E01.5Cmake.5Cobj.5Cfbl_mem.
                         923 	.align	2
                         924 .LDW06:
                         925 
                         926 	.section ".bss","awb"
                         927 .L1169:
                         928 	.type	.L1169,@object
                         929 	.size	.L1169,0
                         930 	.data
                         931 	.text
                         932 	.align	2
                         933 	.align	2

                                                                      Page 20
                                                              C:\Users\nhuliyap\AppData\Local\Temp\gh_00006281.s
                         934 ..gh.f.f.1.e.17:
                         935 	.type	..gh.f.f.1.e.17,@object
                         936 	.size	..gh.f.f.1.e.17,0
                         937 	.global	_FblMemStorePreamble..C.3A.5C_ECU2.5CECU_Rivian_A1.5CTarget.5Crepo_projects.5CpFOTA.5CcL_R2023.2E09.2E01.5Cmake.5Cobj.5Cfbl_mem.
                         938 _FblMemStorePreamble..C.3A.5C_ECU2.5CECU_Rivian_A1.5CTarget.5Crepo_projects.5CpFOTA.5CcL_R2023.2E09.2E01.5Cmake.5Cobj.5Cfbl_mem.:
                         939 _FblMemStorePreamble:
000002b0 80072100        940 	prepare	{r31},0
                         941 --	    .bf
                         942 .LDW16:
                         943 	jarl	_FblMemGetActiveBuffer,lp
                         943 <EXPANSION BEGIN>
                         943 jarl22 _FblMemGetActiveBuffer , lp 
000002b4 bfffa8ff*       943 <EXPANSION END>
000002b8 260600000000*   944 	mov	sdaoff23(_gPreambleBuffer),r6
000002be 0a38            945 	mov	r10,r7
000002c0 0242            946 	mov	2,r8
                         947 	jarl	_ownmemcpy,lp
                         947 <EXPANSION BEGIN>
                         947 jarl22 _ownmemcpy , lp 
000002c2 80ff0000*       947 <EXPANSION END>
                         948 --	    .ef
                         949 .LDW26:
                         950 --line1179
                         951 ..lin.C.3A.5C_ECU2.5CECU_Rivian_A1.5CTarget.5Crepo_projects.5CpFOTA.5CcL_R2023.2E09.2E01.5Cmake.5Cobj.5Cfbl_mem.29::
                         952 .LDWlin29:
000002c6 40063f00        953 	dispose	0,{r31},[lp]
                         954 	.type	_FblMemStorePreamble,@function
                         955 	.size	_FblMemStorePreamble,.-_FblMemStorePreamble
                         956 	.type	_FblMemStorePreamble..C.3A.5C_ECU2.5CECU_Rivian_A1.5CTarget.5Crepo_projects.5CpFOTA.5CcL_R2023.2E09.2E01.5Cmake.5Cobj.5Cfbl_mem.,@function
                         957 	.size	_FblMemStorePreamble..C.3A.5C_ECU2.5CECU_Rivian_A1.5CTarget.5Crepo_projects.5CpFOTA.5CcL_R2023.2E09.2E01.5Cmake.5Cobj.5Cfbl_mem.,.-_FblMemStorePreamble..C.3A.5C_ECU2.5CECU_Rivian_A1.5CTarget.5Crepo_projects.5CpFOTA.5CcL_R2023.2E09.2E01.5Cmake.5Cobj.5Cfbl_mem.
                         958 	.align	2
                         959 .LDW36:
                         960 
                         961 	.section ".bss","awb"
                         962 .L1217:
                         963 	.type	.L1217,@object
                         964 	.size	.L1217,0
                         965 	.data
                         966 	.text
                         967 	.align	2
                         968 	.align	2
                         969 ..gh.f.f.1.e.18:
                         970 	.type	..gh.f.f.1.e.18,@object
                         971 	.size	..gh.f.f.1.e.18,0
                         972 	.global	_FblMemRestorePreamble..C.3A.5C_ECU2.5CECU_Rivian_A1.5CTarget.5Crepo_projects.5CpFOTA.5CcL_R2023.2E09.2E01.5Cmake.5Cobj.5Cfbl_mem.
                         973 _FblMemRestorePreamble..C.3A.5C_ECU2.5CECU_Rivian_A1.5CTarget.5Crepo_projects.5CpFOTA.5CcL_R2023.2E09.2E01.5Cmake.5Cobj.5Cfbl_mem.:
                         974 _FblMemRestorePreamble:
000002ca 80072100        975 	prepare	{r31},0
                         976 --	    .bf
                         977 .LDW46:
                         978 	jarl	_FblMemGetActiveBuffer,lp
                         978 <EXPANSION BEGIN>
                         978 jarl22 _FblMemGetActiveBuffer , lp 
000002ce bfff8eff*       978 <EXPANSION END>
000002d2 0a30            979 	mov	r10,r6
000002d4 270600000000*   980 	mov	sdaoff23(_gPreambleBuffer),r7
000002da 0242            981 	mov	2,r8
                         982 	jarl	_ownmemcpy,lp
                         982 <EXPANSION BEGIN>
                         982 jarl22 _ownmemcpy , lp 
000002dc 80ff0000*       982 <EXPANSION END>

                                                                      Page 21
                                                              C:\Users\nhuliyap\AppData\Local\Temp\gh_00006281.s
                         983 --	    .ef
                         984 .LDW56:
                         985 --line1183
                         986 ..lin.C.3A.5C_ECU2.5CECU_Rivian_A1.5CTarget.5Crepo_projects.5CpFOTA.5CcL_R2023.2E09.2E01.5Cmake.5Cobj.5Cfbl_mem.30::
                         987 .LDWlin30:
000002e0 40063f00        988 	dispose	0,{r31},[lp]
                         989 	.type	_FblMemRestorePreamble,@function
                         990 	.size	_FblMemRestorePreamble,.-_FblMemRestorePreamble
                         991 	.type	_FblMemRestorePreamble..C.3A.5C_ECU2.5CECU_Rivian_A1.5CTarget.5Crepo_projects.5CpFOTA.5CcL_R2023.2E09.2E01.5Cmake.5Cobj.5Cfbl_mem.,@function
                         992 	.size	_FblMemRestorePreamble..C.3A.5C_ECU2.5CECU_Rivian_A1.5CTarget.5Crepo_projects.5CpFOTA.5CcL_R2023.2E09.2E01.5Cmake.5Cobj.5Cfbl_mem.,.-_FblMemRestorePreamble..C.3A.5C_ECU2.5CECU_Rivian_A1.5CTarget.5Crepo_projects.5CpFOTA.5CcL_R2023.2E09.2E01.5Cmake.5Cobj.5Cfbl_mem.
                         993 	.align	2
                         994 .LDW66:
                         995 
                         996 	.section ".bss","awb"
                         997 .L1265:
                         998 	.type	.L1265,@object
                         999 	.size	.L1265,0
                        1000 	.data
                        1001 	.text
                        1002 	.align	2
                        1003 	.align	2
                        1004 ..gh.f.f.1.e.19:
                        1005 	.type	..gh.f.f.1.e.19,@object
                        1006 	.size	..gh.f.f.1.e.19,0
                        1007 	.global	_FblMemPadLength..C.3A.5C_ECU2.5CECU_Rivian_A1.5CTarget.5Crepo_projects.5CpFOTA.5CcL_R2023.2E09.2E01.5Cmake.5Cobj.5Cfbl_mem.
                        1008 _FblMemPadLength..C.3A.5C_ECU2.5CECU_Rivian_A1.5CTarget.5Crepo_projects.5CpFOTA.5CcL_R2023.2E09.2E01.5Cmake.5Cobj.5Cfbl_mem.:
                        1009 _FblMemPadLength:
000002e4 8007e130       1010 	prepare	{r26,r27,r28,r29,r31},0
000002e8 07d8           1011 	mov	r7,r27
                        1012 --	    .bf
                        1013 .LDW76:
000002ea 07e0           1014 	mov	r7,r28
000002ec e039           1015 	cmp	zero,r7
000002ee b205*          1016 	be	.L1285
                        1017 --line1230
                        1018 ..lin.C.3A.5C_ECU2.5CECU_Rivian_A1.5CTarget.5Crepo_projects.5CpFOTA.5CcL_R2023.2E09.2E01.5Cmake.5Cobj.5Cfbl_mem.31::
                        1019 .LDWlin31:
000002f0 07e6ffff       1020 	addi	-1,r7,r28
                        1021 .L1285:
000002f4 c6e1           1022 	add	r6,r28
000002f6 00ea           1023 	mov	0,r29
000002f8 840707d00000*  1024 	ld.h	sdaoff23(_memSegment)[gp],r26
000002fe 1c30           1025 	mov	r28,r6
                        1026 	jarl	_FblMemSegmentNrGet,lp
                        1026 <EXPANSION BEGIN>
                        1026 jarl22 _FblMemSegmentNrGet , lp 
00000300 80ff0000*      1026 <EXPANSION END>
                        1027 --line1241
                        1028 ..lin.C.3A.5C_ECU2.5CECU_Rivian_A1.5CTarget.5Crepo_projects.5CpFOTA.5CcL_R2023.2E09.2E01.5Cmake.5Cobj.5Cfbl_mem.32::
                        1029 .LDWlin32:
00000304 e051           1030 	cmp	zero,r10
00000306 f605*          1031 	blt	.L1287
                        1032 --line1244
                        1033 ..lin.C.3A.5C_ECU2.5CECU_Rivian_A1.5CTarget.5Crepo_projects.5CpFOTA.5CcL_R2023.2E09.2E01.5Cmake.5Cobj.5Cfbl_mem.33::
                        1034 .LDWlin33:
00000308 bceeff00       1035 	xori	255,r28,r29
0000030c e0d9           1036 	cmp	zero,r27
0000030e aa05*          1037 	bne	.L1289
                        1038 --line1248
                        1039 ..lin.C.3A.5C_ECU2.5CECU_Rivian_A1.5CTarget.5Crepo_projects.5CpFOTA.5CcL_R2023.2E09.2E01.5Cmake.5Cobj.5Cfbl_mem.34::
                        1040 .LDWlin34:

                                                                      Page 22
                                                              C:\Users\nhuliyap\AppData\Local\Temp\gh_00006281.s
00000310 41ea           1041 	add	1,r29
                        1042 .L1289:
00000312 9d00           1043 	zxb	r29
                        1044 .L1287:
00000314 a4070dd00000*  1045 	st.h	r26,sdaoff23(_memSegment)[gp]
0000031a 1d50           1046 	mov	r29,r10
                        1047 --	    .ef
                        1048 .LDW86:
0000031c 4006ff30       1049 	dispose	0,{r26,r27,r28,r29,r31},[lp]
                        1050 	.type	_FblMemPadLength,@function
                        1051 	.size	_FblMemPadLength,.-_FblMemPadLength
                        1052 	.type	_FblMemPadLength..C.3A.5C_ECU2.5CECU_Rivian_A1.5CTarget.5Crepo_projects.5CpFOTA.5CcL_R2023.2E09.2E01.5Cmake.5Cobj.5Cfbl_mem.,@function
                        1053 	.size	_FblMemPadLength..C.3A.5C_ECU2.5CECU_Rivian_A1.5CTarget.5Crepo_projects.5CpFOTA.5CcL_R2023.2E09.2E01.5Cmake.5Cobj.5Cfbl_mem.,.-_FblMemPadLength..C.3A.5C_ECU2.5CECU_Rivian_A1.5CTarget.5Crepo_projects.5CpFOTA.5CcL_R2023.2E09.2E01.5Cmake.5Cobj.5Cfbl_mem.
                        1054 	.align	2
                        1055 .LDW96:
                        1056 --_localAddress	r28	local
                        1057 --_localLength	r28	local
                        1058 --_padLen	r29	local
                        1059 --_oldSegment	r26	local
                        1060 
                        1061 --_address	r6	param
                        1062 --_length	r27	param
                        1063 
                        1064 	.section ".bss","awb"
                        1065 .L1343:
                        1066 	.type	.L1343,@object
                        1067 	.size	.L1343,0
                        1068 	.data
                        1069 	.text
                        1070 	.align	2
                        1071 	.align	2
                        1072 ..gh.f.f.1.e.20:
                        1073 	.type	..gh.f.f.1.e.20,@object
                        1074 	.size	..gh.f.f.1.e.20,0
                        1075 	.global	_FblMemPadBuffer..C.3A.5C_ECU2.5CECU_Rivian_A1.5CTarget.5Crepo_projects.5CpFOTA.5CcL_R2023.2E09.2E01.5Cmake.5Cobj.5Cfbl_mem.
                        1076 _FblMemPadBuffer..C.3A.5C_ECU2.5CECU_Rivian_A1.5CTarget.5Crepo_projects.5CpFOTA.5CcL_R2023.2E09.2E01.5Cmake.5Cobj.5Cfbl_mem.:
                        1077 _FblMemPadBuffer:
00000320 80076100       1078 	prepare	{r29,r31},0
00000324 08e8           1079 	mov	r8,r29
                        1080 --	    .bf
                        1081 .LDW07:
                        1082 	jarl	_FblMemPadLength,lp
                        1082 <EXPANSION BEGIN>
                        1082 jarl22 _FblMemPadLength , lp 
00000326 bfffbeff*      1082 <EXPANSION END>
                        1083 --line1266
                        1084 ..lin.C.3A.5C_ECU2.5CECU_Rivian_A1.5CTarget.5Crepo_projects.5CpFOTA.5CcL_R2023.2E09.2E01.5Cmake.5Cobj.5Cfbl_mem.35::
                        1085 .LDWlin35:
0000032a e051           1086 	cmp	zero,r10
0000032c d20d*          1087 	be	.L1415
                        1088 --line1267
                        1089 ..lin.C.3A.5C_ECU2.5CECU_Rivian_A1.5CTarget.5Crepo_projects.5CpFOTA.5CcL_R2023.2E09.2E01.5Cmake.5Cobj.5Cfbl_mem.36::
                        1090 .LDWlin36:
0000032e 1d4e0100       1091 	addi	1,r29,r9
00000332 0092           1092 	mov	0,r18
                        1093 .L1421:
00000334 12f0           1094 	mov	r18,ep
00000336 c9f1           1095 	add	r9,ep
00000338 1f32           1096 	mov	-1,r6
0000033a 4192           1097 	add	1,r18
0000033c 8033           1098 	sst.b	r6,0[ep]

                                                                      Page 23
                                                              C:\Users\nhuliyap\AppData\Local\Temp\gh_00006281.s
0000033e ea91           1099 	cmp	r10,r18
00000340 a1fd*          1100 	bl	.L1421
00000342 40067f00       1101 	dispose	0,{r29,r31},[lp]
                        1102 .L1415:
                        1103 --	    .ef
                        1104 .LDW17:
                        1105 --line1280
                        1106 ..lin.C.3A.5C_ECU2.5CECU_Rivian_A1.5CTarget.5Crepo_projects.5CpFOTA.5CcL_R2023.2E09.2E01.5Cmake.5Cobj.5Cfbl_mem.37::
                        1107 .LDWlin37:
00000346 40067f00       1108 	dispose	0,{r29,r31},[lp]
                        1109 	.type	_FblMemPadBuffer,@function
                        1110 	.size	_FblMemPadBuffer,.-_FblMemPadBuffer
                        1111 	.type	_FblMemPadBuffer..C.3A.5C_ECU2.5CECU_Rivian_A1.5CTarget.5Crepo_projects.5CpFOTA.5CcL_R2023.2E09.2E01.5Cmake.5Cobj.5Cfbl_mem.,@function
                        1112 	.size	_FblMemPadBuffer..C.3A.5C_ECU2.5CECU_Rivian_A1.5CTarget.5Crepo_projects.5CpFOTA.5CcL_R2023.2E09.2E01.5Cmake.5Cobj.5Cfbl_mem.,.-_FblMemPadBuffer..C.3A.5C_ECU2.5CECU_Rivian_A1.5CTarget.5Crepo_projects.5CpFOTA.5CcL_R2023.2E09.2E01.5Cmake.5Cobj.5Cfbl_mem.
                        1113 	.align	2
                        1114 .LDW27:
                        1115 --_padBuffer	r9	local
                        1116 --_padLen	r10	local
                        1117 --_idx	r18	local
                        1118 
                        1119 --_address	r6	param
                        1120 --_length	r7	param
                        1121 --_data	r29	param
                        1122 
                        1123 	.section ".bss","awb"
                        1124 .L1784:
                        1125 	.type	.L1784,@object
                        1126 	.size	.L1784,0
                        1127 	.data
                        1128 	.text
                        1129 	.align	2
                        1130 	.align	2
                        1131 ..gh.f.f.1.e.21:
                        1132 	.type	..gh.f.f.1.e.21,@object
                        1133 	.size	..gh.f.f.1.e.21,0
                        1134 	.global	_FblMemCopyBuffer..C.3A.5C_ECU2.5CECU_Rivian_A1.5CTarget.5Crepo_projects.5CpFOTA.5CcL_R2023.2E09.2E01.5Cmake.5Cobj.5Cfbl_mem.
                        1135 _FblMemCopyBuffer..C.3A.5C_ECU2.5CECU_Rivian_A1.5CTarget.5Crepo_projects.5CpFOTA.5CcL_R2023.2E09.2E01.5Cmake.5Cobj.5Cfbl_mem.:
                        1136 _FblMemCopyBuffer:
0000034a 80072100       1137 	prepare	{r31},0
0000034e 07f0           1138 	mov	r7,ep
                        1139 --	    .bf
                        1140 .LDW37:
00000350 0838           1141 	mov	r8,r7
00000352 0045           1142 	sld.w	0[ep],r8
                        1143 	jarl	_ownmemcpy,lp
                        1143 <EXPANSION BEGIN>
                        1143 jarl22 _ownmemcpy , lp 
00000354 80ff0000*      1143 <EXPANSION END>
                        1144 --line1296
                        1145 ..lin.C.3A.5C_ECU2.5CECU_Rivian_A1.5CTarget.5Crepo_projects.5CpFOTA.5CcL_R2023.2E09.2E01.5Cmake.5Cobj.5Cfbl_mem.38::
                        1146 .LDWlin38:
00000358 0052           1147 	mov	0,r10
                        1148 --	    .ef
                        1149 .LDW47:
0000035a 40063f00       1150 	dispose	0,{r31},[lp]
                        1151 	.type	_FblMemCopyBuffer,@function
                        1152 	.size	_FblMemCopyBuffer,.-_FblMemCopyBuffer
                        1153 	.type	_FblMemCopyBuffer..C.3A.5C_ECU2.5CECU_Rivian_A1.5CTarget.5Crepo_projects.5CpFOTA.5CcL_R2023.2E09.2E01.5Cmake.5Cobj.5Cfbl_mem.,@function
                        1154 	.size	_FblMemCopyBuffer..C.3A.5C_ECU2.5CECU_Rivian_A1.5CTarget.5Crepo_projects.5CpFOTA.5CcL_R2023.2E09.2E01.5Cmake.5Cobj.5Cfbl_mem.,.-_FblMemCopyBuffer..C.3A.5C_ECU2.5CECU_Rivian_A1.5CTarget.5Crepo_projects.5CpFOTA.5CcL_R2023.2E09.2E01.5Cmake.5Cobj.5Cfbl_mem.
                        1155 	.align	2
                        1156 .LDW57:

                                                                      Page 24
                                                              C:\Users\nhuliyap\AppData\Local\Temp\gh_00006281.s
                        1157 
                        1158 --_programAddress	r6	param
                        1159 --_programLength	ep	param
                        1160 --_programData	r8	param
                        1161 
                        1162 	.section ".bss","awb"
                        1163 .L1873:
                        1164 	.type	.L1873,@object
                        1165 	.size	.L1873,0
                        1166 	.data
                        1167 	.text
                        1168 	.align	2
                        1169 	.align	2
                        1170 ..gh.f.f.1.e.22:
                        1171 	.type	..gh.f.f.1.e.22,@object
                        1172 	.size	..gh.f.f.1.e.22,0
                        1173 	.global	_FblMemEraseRegionInternal..C.3A.5C_ECU2.5CECU_Rivian_A1.5CTarget.5Crepo_projects.5CpFOTA.5CcL_R2023.2E09.2E01.5Cmake.5Cobj.5Cfbl_mem.
                        1174 _FblMemEraseRegionInternal..C.3A.5C_ECU2.5CECU_Rivian_A1.5CTarget.5Crepo_projects.5CpFOTA.5CcL_R2023.2E09.2E01.5Cmake.5Cobj.5Cfbl_mem.:
                        1175 _FblMemEraseRegionInternal:
0000035e 8007e170       1176 	prepare	{r25,r26,r27,r28,r29,r31},0
00000362 06d8           1177 	mov	r6,r27
                        1178 --	    .bf
                        1179 .LDW67:
00000364 07e8           1180 	mov	r7,r29
                        1181 	jarl	_FblMemSegmentNrGet,lp
                        1181 <EXPANSION BEGIN>
                        1181 jarl22 _FblMemSegmentNrGet , lp 
00000366 80ff0000*      1181 <EXPANSION END>
0000036a a4070d500000*  1182 	st.h	r10,sdaoff23(_memSegment)[gp]
                        1183 --line1315
                        1184 ..lin.C.3A.5C_ECU2.5CECU_Rivian_A1.5CTarget.5Crepo_projects.5CpFOTA.5CcL_R2023.2E09.2E01.5Cmake.5Cobj.5Cfbl_mem.39::
                        1185 .LDWlin39:
00000370 e051           1186 	cmp	zero,r10
00000372 ce0d*          1187 	bge	.L1893
                        1188 --line1317
                        1189 ..lin.C.3A.5C_ECU2.5CECU_Rivian_A1.5CTarget.5Crepo_projects.5CpFOTA.5CcL_R2023.2E09.2E01.5Cmake.5Cobj.5Cfbl_mem.40::
                        1190 .LDWlin40:
00000374 20362300       1191 	movea	35,zero,r6
00000378 84070fd80000*  1192 	st.w	r27,sdaoff23(_errStatDescriptor+4)[gp]
0000037e a4070d300000*  1193 	st.h	r6,sdaoff23(_errStatErrorCode)[gp]
00000384 20d63100       1194 	movea	49,zero,r26
00000388 d55d*          1195 	br	.L1964
                        1196 .L1893:
0000038a 00d2           1197 	mov	0,r26
                        1198 --line1320
                        1199 ..lin.C.3A.5C_ECU2.5CECU_Rivian_A1.5CTarget.5Crepo_projects.5CpFOTA.5CcL_R2023.2E09.2E01.5Cmake.5Cobj.5Cfbl_mem.41::
                        1200 .LDWlin41:
0000038c 0ae0           1201 	mov	r10,r28
0000038e 855d*          1202 	br	.L1896
                        1203 .L1898:
                        1204 --line1324
                        1205 ..lin.C.3A.5C_ECU2.5CECU_Rivian_A1.5CTarget.5Crepo_projects.5CpFOTA.5CcL_R2023.2E09.2E01.5Cmake.5Cobj.5Cfbl_mem.42::
                        1206 .LDWlin42:
                        1207 	jarl	_FblMemTriggerWatchdog,lp
                        1207 <EXPANSION BEGIN>
                        1207 jarl22 _FblMemTriggerWatchdog , lp 
00000390 bfff74fc*      1207 <EXPANSION END>
                        1208 --line1326
                        1209 ..lin.C.3A.5C_ECU2.5CECU_Rivian_A1.5CTarget.5Crepo_projects.5CpFOTA.5CcL_R2023.2E09.2E01.5Cmake.5Cobj.5Cfbl_mem.43::
                        1210 .LDWlin43:
                        1211 	jarl	_FblMemResponsePending,lp

                                                                      Page 25
                                                              C:\Users\nhuliyap\AppData\Local\Temp\gh_00006281.s
                        1211 <EXPANSION BEGIN>
                        1211 jarl22 _FblMemResponsePending , lp 
00000394 bfff74fc*      1211 <EXPANSION END>
                        1212 --line1339
                        1213 ..lin.C.3A.5C_ECU2.5CECU_Rivian_A1.5CTarget.5Crepo_projects.5CpFOTA.5CcL_R2023.2E09.2E01.5Cmake.5Cobj.5Cfbl_mem.44::
                        1214 .LDWlin44:
00000398 840707500000*  1215 	ld.h	sdaoff23(_memSegment)[gp],r10
0000039e 330600000000*  1216 	mov	rosdaoff23(_FlashBlock),r19
000003a4 84070fd80000*  1217 	st.w	r27,sdaoff23(_errStatDescriptor+4)[gp]
000003aa 0af0           1218 	mov	r10,ep
000003ac c3f2           1219 	shl	3,ep
000003ae d3f1           1220 	add	r19,ep
000003b0 0245           1221 	sld.w	4[ep],r8
000003b2 bb41           1222 	sub	r27,r8
000003b4 08ce0100       1223 	addi	1,r8,r25
000003b8 f9e9           1224 	cmp	r25,r29
000003ba a31d*          1225 	bnh	.L1899
                        1226 --line1344
                        1227 ..lin.C.3A.5C_ECU2.5CECU_Rivian_A1.5CTarget.5Crepo_projects.5CpFOTA.5CcL_R2023.2E09.2E01.5Cmake.5Cobj.5Cfbl_mem.45::
                        1228 .LDWlin45:
000003bc a50705900000*  1229 	ld.bu	rosdaoff23(_kNrOfFlashBlock)[r5],r18
000003c2 0ae60100       1230 	addi	1,r10,r28
000003c6 fc00           1231 	sxh	r28
000003c8 f2e1           1232 	cmp	r18,r28
000003ca ae0d*          1233 	bge	.L1904
                        1234 --line1350
                        1235 ..lin.C.3A.5C_ECU2.5CECU_Rivian_A1.5CTarget.5Crepo_projects.5CpFOTA.5CcL_R2023.2E09.2E01.5Cmake.5Cobj.5Cfbl_mem.46::
                        1236 .LDWlin46:
000003cc 1cf0           1237 	mov	r28,ep
000003ce c3f2           1238 	shl	3,ep
000003d0 d3f1           1239 	add	r19,ep
000003d2 004d           1240 	sld.w	0[ep],r9
000003d4 bb49           1241 	sub	r27,r9
000003d6 fd49           1242 	cmp	r29,r9
000003d8 bb05*          1243 	bh	.L1904
                        1244 --line1353
                        1245 ..lin.C.3A.5C_ECU2.5CECU_Rivian_A1.5CTarget.5Crepo_projects.5CpFOTA.5CcL_R2023.2E09.2E01.5Cmake.5Cobj.5Cfbl_mem.47::
                        1246 .LDWlin47:
000003da a9e9           1247 	sub	r9,r29
000003dc b50d*          1248 	br	.L1908
                        1249 .L1904:
                        1250 --line1357
                        1251 ..lin.C.3A.5C_ECU2.5CECU_Rivian_A1.5CTarget.5Crepo_projects.5CpFOTA.5CcL_R2023.2E09.2E01.5Cmake.5Cobj.5Cfbl_mem.48::
                        1252 .LDWlin48:
000003de 20862300       1253 	movea	35,zero,r16
000003e2 a4070d800000*  1254 	st.h	r16,sdaoff23(_errStatErrorCode)[gp]
000003e8 20d63100       1255 	movea	49,zero,r26
000003ec b52d*          1256 	br	.L1964
                        1257 .L1899:
                        1258 --line1363
                        1259 ..lin.C.3A.5C_ECU2.5CECU_Rivian_A1.5CTarget.5Crepo_projects.5CpFOTA.5CcL_R2023.2E09.2E01.5Cmake.5Cobj.5Cfbl_mem.49::
                        1260 .LDWlin49:
000003ee 1dc8           1261 	mov	r29,r25
000003f0 1ae8           1262 	mov	r26,r29
                        1263 .L1908:
                        1264 	jarl	_FblDiagMemPreWrite,lp
                        1264 <EXPANSION BEGIN>
                        1264 jarl22 _FblDiagMemPreWrite , lp 
000003f2 80ff0000*      1264 <EXPANSION END>
000003f6 e051           1265 	cmp	zero,r10
000003f8 aa0d*          1266 	bne	.L1913

                                                                      Page 26
                                                              C:\Users\nhuliyap\AppData\Local\Temp\gh_00006281.s
                        1267 --line1386
                        1268 ..lin.C.3A.5C_ECU2.5CECU_Rivian_A1.5CTarget.5Crepo_projects.5CpFOTA.5CcL_R2023.2E09.2E01.5Cmake.5Cobj.5Cfbl_mem.50::
                        1269 .LDWlin50:
000003fa 1930           1270 	mov	r25,r6
000003fc 1b38           1271 	mov	r27,r7
                        1272 	jarl	_MemDriver_REraseSync,lp
                        1272 <EXPANSION BEGIN>
                        1272 jarl22 _MemDriver_REraseSync , lp 
000003fe 80ff0000*      1272 <EXPANSION END>
00000402 0ad8           1273 	mov	r10,r27
                        1274 --line1390
                        1275 ..lin.C.3A.5C_ECU2.5CECU_Rivian_A1.5CTarget.5Crepo_projects.5CpFOTA.5CcL_R2023.2E09.2E01.5Cmake.5Cobj.5Cfbl_mem.51::
                        1276 .LDWlin51:
                        1277 	jarl	_FblDiagMemPostWrite,lp
                        1277 <EXPANSION BEGIN>
                        1277 jarl22 _FblDiagMemPostWrite , lp 
00000404 80ff0000*      1277 <EXPANSION END>
00000408 e051           1278 	cmp	zero,r10
0000040a c205*          1279 	be	.L1912
                        1280 .L1913:
                        1281 --line1392
                        1282 ..lin.C.3A.5C_ECU2.5CECU_Rivian_A1.5CTarget.5Crepo_projects.5CpFOTA.5CcL_R2023.2E09.2E01.5Cmake.5Cobj.5Cfbl_mem.52::
                        1283 .LDWlin52:
0000040c 20d62200       1284 	movea	34,zero,r26
00000410 951d*          1285 	br	.L1964
                        1286 .L1912:
                        1287 --line1407
                        1288 ..lin.C.3A.5C_ECU2.5CECU_Rivian_A1.5CTarget.5Crepo_projects.5CpFOTA.5CcL_R2023.2E09.2E01.5Cmake.5Cobj.5Cfbl_mem.53::
                        1289 .LDWlin53:
00000412 e0d9           1290 	cmp	zero,r27
00000414 c20d*          1291 	be	.L1915
                        1292 --line1409
                        1293 ..lin.C.3A.5C_ECU2.5CECU_Rivian_A1.5CTarget.5Crepo_projects.5CpFOTA.5CcL_R2023.2E09.2E01.5Cmake.5Cobj.5Cfbl_mem.54::
                        1294 .LDWlin54:
00000416 204e1000       1295 	movea	16,zero,r9
0000041a a4070dd80000*  1296 	st.h	r27,sdaoff23(_errStatFlashDrvErrorCode)[gp]
00000420 a4070d480000*  1297 	st.h	r9,sdaoff23(_errStatErrorCode)[gp]
00000426 20d67200       1298 	movea	114,zero,r26
0000042a c50d*          1299 	br	.L1964
                        1300 .L1915:
                        1301 --line1422
                        1302 ..lin.C.3A.5C_ECU2.5CECU_Rivian_A1.5CTarget.5Crepo_projects.5CpFOTA.5CcL_R2023.2E09.2E01.5Cmake.5Cobj.5Cfbl_mem.55::
                        1303 .LDWlin55:
0000042c 1cf0           1304 	mov	r28,ep
0000042e c3f2           1305 	shl	3,ep
00000430 c5f1           1306 	add	r5,ep
00000432 a4070de00000*  1307 	st.h	r28,sdaoff23(_memSegment)[gp]
00000438 9e0709d80000*  1308 	ld.w	rosdaoff23(_FlashBlock)[ep],r27
                        1309 .L1896:
0000043e e0e9           1310 	cmp	zero,r29
00000440 8aad*          1311 	bne	.L1898
                        1312 .L1964:
                        1313 --line1422
                        1314 ..lin.C.3A.5C_ECU2.5CECU_Rivian_A1.5CTarget.5Crepo_projects.5CpFOTA.5CcL_R2023.2E09.2E01.5Cmake.5Cobj.5Cfbl_mem.56::
                        1315 .LDWlin56:
00000442 1a50           1316 	mov	r26,r10
                        1317 --	    .ef
                        1318 .LDW77:
00000444 4006ff70       1319 	dispose	0,{r25,r26,r27,r28,r29,r31},[lp]
                        1320 	.type	_FblMemEraseRegionInternal,@function
                        1321 	.size	_FblMemEraseRegionInternal,.-_FblMemEraseRegionInternal

                                                                      Page 27
                                                              C:\Users\nhuliyap\AppData\Local\Temp\gh_00006281.s
                        1322 	.type	_FblMemEraseRegionInternal..C.3A.5C_ECU2.5CECU_Rivian_A1.5CTarget.5Crepo_projects.5CpFOTA.5CcL_R2023.2E09.2E01.5Cmake.5Cobj.5Cfbl_mem.,@function
                        1323 	.size	_FblMemEraseRegionInternal..C.3A.5C_ECU2.5CECU_Rivian_A1.5CTarget.5Crepo_projects.5CpFOTA.5CcL_R2023.2E09.2E01.5Cmake.5Cobj.5Cfbl_mem.,.-_FblMemEraseRegionInternal..C.3A.5C_ECU2.5CECU_Rivian_A1.5CTarget.5Crepo_projects.5CpFOTA.5CcL_R2023.2E09.2E01.5Cmake.5Cobj.5Cfbl_mem.
                        1324 	.align	2
                        1325 .LDW87:
                        1326 --_retVal	r26	local
                        1327 --_flashErrorCode	r27	local
                        1328 --_eraseRemainder	r29	local
                        1329 --_currentLength	r25	local
                        1330 --_distance	r9	local
                        1331 --_nextMemSegment	r28	local
                        1332 
                        1333 --_eraseAddress	r27	param
                        1334 --_eraseLength	r7	param
                        1335 
                        1336 	.section ".bss","awb"
                        1337 .L2041:
                        1338 	.type	.L2041,@object
                        1339 	.size	.L2041,0
                        1340 	.data
                        1341 	.text
                        1342 	.align	2
                        1343 	.align	2
                        1344 ..gh.f.f.1.e.23:
                        1345 	.type	..gh.f.f.1.e.23,@object
                        1346 	.size	..gh.f.f.1.e.23,0
                        1347 	.global	_FblMemProgramBufferInternal..C.3A.5C_ECU2.5CECU_Rivian_A1.5CTarget.5Crepo_projects.5CpFOTA.5CcL_R2023.2E09.2E01.5Cmake.5Cobj.5Cfbl_mem.
                        1348 _FblMemProgramBufferInternal..C.3A.5C_ECU2.5CECU_Rivian_A1.5CTarget.5Crepo_projects.5CpFOTA.5CcL_R2023.2E09.2E01.5Cmake.5Cobj.5Cfbl_mem.:
                        1349 _FblMemProgramBufferInternal:
00000448 8007e1f7       1350 	prepare	{r21,r22,r23,r24,r25,r26,r27,r28,r29,r31},0
0000044c 08a8           1351 	mov	r8,r21
0000044e 07b8           1352 	mov	r7,r23
00000450 06d8           1353 	mov	r6,r27
                        1354 --	    .bf
                        1355 .LDW97:
00000452 27e70100       1356 	ld.w	0[r7],r28
00000456 00d2           1357 	mov	0,r26
00000458 1ac0           1358 	mov	r26,r24
0000045a 18c8           1359 	mov	r24,r25
0000045c f565*          1360 	br	.L2205
                        1361 .L2207:
                        1362 --line1457
                        1363 ..lin.C.3A.5C_ECU2.5CECU_Rivian_A1.5CTarget.5Crepo_projects.5CpFOTA.5CcL_R2023.2E09.2E01.5Cmake.5Cobj.5Cfbl_mem.57::
                        1364 .LDWlin57:
                        1365 	jarl	_FblMemTriggerWatchdog,lp
                        1365 <EXPANSION BEGIN>
                        1365 jarl22 _FblMemTriggerWatchdog , lp 
0000045e bfffa6fb*      1365 <EXPANSION END>
                        1366 --line1462
                        1367 ..lin.C.3A.5C_ECU2.5CECU_Rivian_A1.5CTarget.5Crepo_projects.5CpFOTA.5CcL_R2023.2E09.2E01.5Cmake.5Cobj.5Cfbl_mem.58::
                        1368 .LDWlin58:
                        1369 	jarl	_FblMemResponsePending,lp
                        1369 <EXPANSION BEGIN>
                        1369 jarl22 _FblMemResponsePending , lp 
00000462 bfffa6fb*      1369 <EXPANSION END>
                        1370 --line1465
                        1371 ..lin.C.3A.5C_ECU2.5CECU_Rivian_A1.5CTarget.5Crepo_projects.5CpFOTA.5CcL_R2023.2E09.2E01.5Cmake.5Cobj.5Cfbl_mem.59::
                        1372 .LDWlin59:
00000466 84070fd80000*  1373 	st.w	r27,sdaoff23(_errStatDescriptor+4)[gp]
0000046c 1b30           1374 	mov	r27,r6
                        1375 	jarl	_FblMemSegmentNrGet,lp
                        1375 <EXPANSION BEGIN>

                                                                      Page 28
                                                              C:\Users\nhuliyap\AppData\Local\Temp\gh_00006281.s
                        1375 jarl22 _FblMemSegmentNrGet , lp 
0000046e 80ff0000*      1375 <EXPANSION END>
00000472 a4070d500000*  1376 	st.h	r10,sdaoff23(_memSegment)[gp]
                        1377 --line1471
                        1378 ..lin.C.3A.5C_ECU2.5CECU_Rivian_A1.5CTarget.5Crepo_projects.5CpFOTA.5CcL_R2023.2E09.2E01.5Cmake.5Cobj.5Cfbl_mem.60::
                        1379 .LDWlin60:
00000478 e051           1380 	cmp	zero,r10
0000047a 9e0d*          1381 	bge	.L2208
                        1382 --line1473
                        1383 ..lin.C.3A.5C_ECU2.5CECU_Rivian_A1.5CTarget.5Crepo_projects.5CpFOTA.5CcL_R2023.2E09.2E01.5Cmake.5Cobj.5Cfbl_mem.61::
                        1384 .LDWlin61:
0000047c 20762300       1385 	movea	35,zero,r14
00000480 a4070d700000*  1386 	st.h	r14,sdaoff23(_errStatErrorCode)[gp]
00000486 20d67100       1387 	movea	113,zero,r26
0000048a b55d*          1388 	br	.L2290
                        1389 .L2208:
                        1390 --line1486
                        1391 ..lin.C.3A.5C_ECU2.5CECU_Rivian_A1.5CTarget.5Crepo_projects.5CpFOTA.5CcL_R2023.2E09.2E01.5Cmake.5Cobj.5Cfbl_mem.62::
                        1392 .LDWlin62:
0000048c 1b68           1393 	mov	r27,r13
0000048e 0af0           1394 	mov	r10,ep
00000490 d86a           1395 	shl	24,r13
00000492 920d*          1396 	be	.L2211
                        1397 --line1488
                        1398 ..lin.C.3A.5C_ECU2.5CECU_Rivian_A1.5CTarget.5Crepo_projects.5CpFOTA.5CcL_R2023.2E09.2E01.5Cmake.5Cobj.5Cfbl_mem.63::
                        1399 .LDWlin63:
00000494 20661100       1400 	movea	17,zero,r12
00000498 a4070d600000*  1401 	st.h	r12,sdaoff23(_errStatErrorCode)[gp]
0000049e 20d67200       1402 	movea	114,zero,r26
000004a2 f54d*          1403 	br	.L2290
                        1404 .L2211:
                        1405 --line1492
                        1406 ..lin.C.3A.5C_ECU2.5CECU_Rivian_A1.5CTarget.5Crepo_projects.5CpFOTA.5CcL_R2023.2E09.2E01.5Cmake.5Cobj.5Cfbl_mem.64::
                        1407 .LDWlin64:
000004a4 c3f2           1408 	shl	3,ep
000004a6 c5f1           1409 	add	r5,ep
000004a8 9e0709900000*  1410 	ld.w	rosdaoff23(_FlashBlock+4)[ep],r18
000004ae bb91           1411 	sub	r27,r18
000004b0 127e0100       1412 	addi	1,r18,r15
000004b4 fc79           1413 	cmp	r28,r15
000004b6 efe722eb       1414 	cmovl	r15,r28,r29
000004ba c10d*          1415 	bl	.L2216
                        1416 --line1502
                        1417 ..lin.C.3A.5C_ECU2.5CECU_Rivian_A1.5CTarget.5Crepo_projects.5CpFOTA.5CcL_R2023.2E09.2E01.5Cmake.5Cobj.5Cfbl_mem.65::
                        1418 .LDWlin65:
000004bc 1c88           1419 	mov	r28,r17
000004be d989           1420 	add	r25,r17
000004c0 1146ffff       1421 	addi	-1,r17,r8
000004c4 1b30           1422 	mov	r27,r6
000004c6 1c38           1423 	mov	r28,r7
000004c8 d541           1424 	add	r21,r8
                        1425 	jarl	_FblMemPadBuffer,lp
                        1425 <EXPANSION BEGIN>
                        1425 jarl22 _FblMemPadBuffer , lp 
000004ca bfff56fe*      1425 <EXPANSION END>
000004ce 0ac0           1426 	mov	r10,r24
                        1427 --line1503
                        1428 ..lin.C.3A.5C_ECU2.5CECU_Rivian_A1.5CTarget.5Crepo_projects.5CpFOTA.5CcL_R2023.2E09.2E01.5Cmake.5Cobj.5Cfbl_mem.66::
                        1429 .LDWlin66:
000004d0 cae9           1430 	add	r10,r29
                        1431 .L2216:

                                                                      Page 29
                                                              C:\Users\nhuliyap\AppData\Local\Temp\gh_00006281.s
                        1432 	jarl	_FblDiagMemPreWrite,lp
                        1432 <EXPANSION BEGIN>
                        1432 jarl22 _FblDiagMemPreWrite , lp 
000004d2 80ff0000*      1432 <EXPANSION END>
000004d6 e051           1433 	cmp	zero,r10
000004d8 ca0d*          1434 	bne	.L2221
                        1435 --line1525
                        1436 ..lin.C.3A.5C_ECU2.5CECU_Rivian_A1.5CTarget.5Crepo_projects.5CpFOTA.5CcL_R2023.2E09.2E01.5Cmake.5Cobj.5Cfbl_mem.67::
                        1437 .LDWlin67:
000004da 1930           1438 	mov	r25,r6
000004dc d531           1439 	add	r21,r6
000004de 1d38           1440 	mov	r29,r7
000004e0 1b40           1441 	mov	r27,r8
                        1442 	jarl	_MemDriver_RWriteSync,lp
                        1442 <EXPANSION BEGIN>
                        1442 jarl22 _MemDriver_RWriteSync , lp 
000004e2 80ff0000*      1442 <EXPANSION END>
000004e6 0ab0           1443 	mov	r10,r22
                        1444 --line1534
                        1445 ..lin.C.3A.5C_ECU2.5CECU_Rivian_A1.5CTarget.5Crepo_projects.5CpFOTA.5CcL_R2023.2E09.2E01.5Cmake.5Cobj.5Cfbl_mem.68::
                        1446 .LDWlin68:
                        1447 	jarl	_FblDiagMemPostWrite,lp
                        1447 <EXPANSION BEGIN>
                        1447 jarl22 _FblDiagMemPostWrite , lp 
000004e8 80ff0000*      1447 <EXPANSION END>
000004ec e051           1448 	cmp	zero,r10
000004ee c205*          1449 	be	.L2220
                        1450 .L2221:
                        1451 --line1536
                        1452 ..lin.C.3A.5C_ECU2.5CECU_Rivian_A1.5CTarget.5Crepo_projects.5CpFOTA.5CcL_R2023.2E09.2E01.5Cmake.5Cobj.5Cfbl_mem.69::
                        1453 .LDWlin69:
000004f0 20d67200       1454 	movea	114,zero,r26
000004f4 e525*          1455 	br	.L2290
                        1456 .L2220:
                        1457 --line1551
                        1458 ..lin.C.3A.5C_ECU2.5CECU_Rivian_A1.5CTarget.5Crepo_projects.5CpFOTA.5CcL_R2023.2E09.2E01.5Cmake.5Cobj.5Cfbl_mem.70::
                        1459 .LDWlin70:
000004f6 e0b1           1460 	cmp	zero,r22
000004f8 c215*          1461 	be	.L2223
                        1462 --line1553
                        1463 ..lin.C.3A.5C_ECU2.5CECU_Rivian_A1.5CTarget.5Crepo_projects.5CpFOTA.5CcL_R2023.2E09.2E01.5Cmake.5Cobj.5Cfbl_mem.71::
                        1464 .LDWlin71:
000004fa 204e1100       1465 	movea	17,zero,r9
000004fe a4070db00000*  1466 	st.h	r22,sdaoff23(_errStatFlashDrvErrorCode)[gp]
00000504 a4070d480000*  1467 	st.h	r9,sdaoff23(_errStatErrorCode)[gp]
0000050a 20d67200       1468 	movea	114,zero,r26
0000050e 951d*          1469 	br	.L2290
                        1470 .L2226:
                        1471 --line1566
                        1472 ..lin.C.3A.5C_ECU2.5CECU_Rivian_A1.5CTarget.5Crepo_projects.5CpFOTA.5CcL_R2023.2E09.2E01.5Cmake.5Cobj.5Cfbl_mem.72::
                        1473 .LDWlin72:
00000510 b8e9           1474 	sub	r24,r29
00000512 fce9           1475 	cmp	r28,r29
00000514 c205*          1476 	be	.L2229
                        1477 --line1566
                        1478 ..lin.C.3A.5C_ECU2.5CECU_Rivian_A1.5CTarget.5Crepo_projects.5CpFOTA.5CcL_R2023.2E09.2E01.5Cmake.5Cobj.5Cfbl_mem.73::
                        1479 .LDWlin73:
00000516 0132           1480 	mov	1,r6
                        1481 	jarl	_ApplFblFatalError,lp
                        1481 <EXPANSION BEGIN>
                        1481 jarl22 _ApplFblFatalError , lp 

                                                                      Page 30
                                                              C:\Users\nhuliyap\AppData\Local\Temp\gh_00006281.s
00000518 80ff0000*      1481 <EXPANSION END>
                        1482 .L2229:
                        1483 --line1568
                        1484 ..lin.C.3A.5C_ECU2.5CECU_Rivian_A1.5CTarget.5Crepo_projects.5CpFOTA.5CcL_R2023.2E09.2E01.5Cmake.5Cobj.5Cfbl_mem.74::
                        1485 .LDWlin74:
0000051c 16e0           1486 	mov	r22,r28
0000051e d50d*          1487 	br	.L2206
                        1488 .L2223:
                        1489 --line1559
                        1490 ..lin.C.3A.5C_ECU2.5CECU_Rivian_A1.5CTarget.5Crepo_projects.5CpFOTA.5CcL_R2023.2E09.2E01.5Cmake.5Cobj.5Cfbl_mem.75::
                        1491 .LDWlin75:
00000520 fde1           1492 	cmp	r29,r28
00000522 f3f5*          1493 	bnh	.L2226
00000524 ddd9           1494 	add	r29,r27
                        1495 --line1561
                        1496 ..lin.C.3A.5C_ECU2.5CECU_Rivian_A1.5CTarget.5Crepo_projects.5CpFOTA.5CcL_R2023.2E09.2E01.5Cmake.5Cobj.5Cfbl_mem.76::
                        1497 .LDWlin76:
00000526 ddc9           1498 	add	r29,r25
00000528 bde1           1499 	sub	r29,r28
                        1500 .L2205:
0000052a e0e1           1501 	cmp	zero,r28
0000052c e205*          1502 	be	.L2206
0000052e 840705400000*  1503 	ld.b	sdaoff23(_fblMemProgState)[gp],r8
00000534 6542           1504 	cmp	5,r8
00000536 c295*          1505 	be	.L2207
                        1506 .L2206:
                        1507 --line1573
                        1508 ..lin.C.3A.5C_ECU2.5CECU_Rivian_A1.5CTarget.5Crepo_projects.5CpFOTA.5CcL_R2023.2E09.2E01.5Cmake.5Cobj.5Cfbl_mem.77::
                        1509 .LDWlin77:
00000538 17f0           1510 	mov	r23,ep
0000053a 0085           1511 	sld.w	0[ep],r16
0000053c bc81           1512 	sub	r28,r16
0000053e 0185           1513 	sst.w	r16,0[ep]
                        1514 .L2290:
00000540 1a50           1515 	mov	r26,r10
                        1516 --	    .ef
                        1517 .LDW08:
00000542 4006fff7       1518 	dispose	0,{r21,r22,r23,r24,r25,r26,r27,r28,r29,r31},[lp]
                        1519 	.type	_FblMemProgramBufferInternal,@function
                        1520 	.size	_FblMemProgramBufferInternal,.-_FblMemProgramBufferInternal
                        1521 	.type	_FblMemProgramBufferInternal..C.3A.5C_ECU2.5CECU_Rivian_A1.5CTarget.5Crepo_projects.5CpFOTA.5CcL_R2023.2E09.2E01.5Cmake.5Cobj.5Cfbl_mem.,@function
                        1522 	.size	_FblMemProgramBufferInternal..C.3A.5C_ECU2.5CECU_Rivian_A1.5CTarget.5Crepo_projects.5CpFOTA.5CcL_R2023.2E09.2E01.5Cmake.5Cobj.5Cfbl_mem.,.-_FblMemProgramBufferInternal..C.3A.5C_ECU2.5CECU_Rivian_A1.5CTarget.5Crepo_projects.5CpFOTA.5CcL_R2023.2E09.2E01.5Cmake.5Cobj.5Cfbl_mem.
                        1523 	.align	2
                        1524 .LDW18:
                        1525 --_retVal	r26	local
                        1526 --_currentLength	r29	local
                        1527 --_localLength	r28	local
                        1528 --_segLength	r15	local
                        1529 --_padLength	r24	local
                        1530 --_bufferIndex	r25	local
                        1531 --_flashErrorCode	r22	local
                        1532 
                        1533 --_programAddress	r27	param
                        1534 --_programLength	r23	param
                        1535 --_programData	r21	param
                        1536 --_checkPointState	none	param
                        1537 
                        1538 	.section ".bss","awb"
                        1539 .L2387:
                        1540 	.type	.L2387,@object
                        1541 	.size	.L2387,0

                                                                      Page 31
                                                              C:\Users\nhuliyap\AppData\Local\Temp\gh_00006281.s
                        1542 	.data
                        1543 	.text
                        1544 	.align	2
                        1545 	.align	2
                        1546 ..gh.f.f.1.e.24:
                        1547 	.type	..gh.f.f.1.e.24,@object
                        1548 	.size	..gh.f.f.1.e.24,0
                        1549 	.global	_FblMemProgramStream..C.3A.5C_ECU2.5CECU_Rivian_A1.5CTarget.5Crepo_projects.5CpFOTA.5CcL_R2023.2E09.2E01.5Cmake.5Cobj.5Cfbl_mem.
                        1550 _FblMemProgramStream..C.3A.5C_ECU2.5CECU_Rivian_A1.5CTarget.5Crepo_projects.5CpFOTA.5CcL_R2023.2E09.2E01.5Cmake.5Cobj.5Cfbl_mem.:
                        1551 _FblMemProgramStream:
00000546 8207e170       1552 	prepare	{r25,r26,r27,r28,r29,r31},1
0000054a 08c8           1553 	mov	r8,r25
0000054c 06d8           1554 	mov	r6,r27
0000054e 07d0           1555 	mov	r7,r26
00000550 b900           1556 	sxb	r25
                        1557 --	    .bf
                        1558 .LDW28:
                        1559 	jarl	_FblMemTriggerWatchdog,lp
                        1559 <EXPANSION BEGIN>
                        1559 jarl22 _FblMemTriggerWatchdog , lp 
00000552 bfffb2fa*      1559 <EXPANSION END>
                        1560 --line1654
                        1561 ..lin.C.3A.5C_ECU2.5CECU_Rivian_A1.5CTarget.5Crepo_projects.5CpFOTA.5CcL_R2023.2E09.2E01.5Cmake.5Cobj.5Cfbl_mem.78::
                        1562 .LDWlin78:
00000556 3a8f0100       1563 	ld.w	0[r26],r17
0000055a 1b30           1564 	mov	r27,r6
0000055c 638f0100       1565 	st.w	r17,0[sp]
                        1566 	jarl	_FblMemGetBuffer,lp
                        1566 <EXPANSION BEGIN>
                        1566 jarl22 _FblMemGetBuffer , lp 
00000560 bfffbcfa*      1566 <EXPANSION END>
                        1567 --line1661
                        1568 ..lin.C.3A.5C_ECU2.5CECU_Rivian_A1.5CTarget.5Crepo_projects.5CpFOTA.5CcL_R2023.2E09.2E01.5Cmake.5Cobj.5Cfbl_mem.79::
                        1569 .LDWlin79:
00000564 840705800000*  1570 	ld.b	sdaoff23(_gSegInfo+16)[gp],r16
0000056a 0ae8           1571 	mov	r10,r29
0000056c 00e2           1572 	mov	0,r28
0000056e e081           1573 	cmp	zero,r16
00000570 a235*          1574 	be	.L2592
                        1575 --line1662
                        1576 ..lin.C.3A.5C_ECU2.5CECU_Rivian_A1.5CTarget.5Crepo_projects.5CpFOTA.5CcL_R2023.2E09.2E01.5Cmake.5Cobj.5Cfbl_mem.80::
                        1577 .LDWlin80:
00000572 3b7f1100       1578 	ld.w	16[r27],r15
00000576 840709700000*  1579 	ld.w	sdaoff23(_gSegInfo+24)[gp],r14
0000057c ef71           1580 	cmp	r15,r14
0000057e c305*          1581 	bnh	.L2594
                        1582 --line1662
                        1583 ..lin.C.3A.5C_ECU2.5CECU_Rivian_A1.5CTarget.5Crepo_projects.5CpFOTA.5CcL_R2023.2E09.2E01.5Cmake.5Cobj.5Cfbl_mem.81::
                        1584 .LDWlin81:
00000580 0132           1585 	mov	1,r6
                        1586 	jarl	_ApplFblFatalError,lp
                        1586 <EXPANSION BEGIN>
                        1586 jarl22 _ApplFblFatalError , lp 
00000582 80ff0000*      1586 <EXPANSION END>
                        1587 .L2594:
                        1588 --line1664
                        1589 ..lin.C.3A.5C_ECU2.5CECU_Rivian_A1.5CTarget.5Crepo_projects.5CpFOTA.5CcL_R2023.2E09.2E01.5Cmake.5Cobj.5Cfbl_mem.82::
                        1590 .LDWlin82:
00000586 1bf0           1591 	mov	r27,ep
00000588 840709400000*  1592 	ld.w	sdaoff23(_gSegInfo+24)[gp],r8
0000058e 08ed           1593 	sld.w	16[ep],r29

                                                                      Page 32
                                                              C:\Users\nhuliyap\AppData\Local\Temp\gh_00006281.s
00000590 006d           1594 	sld.w	0[ep],r13
00000592 270600000000*  1595 	mov	sdaoff23(_gRemainderBuffer+4),r7
00000598 a8e9           1596 	sub	r8,r29
0000059a cde9           1597 	add	r13,r29
0000059c 1d30           1598 	mov	r29,r6
                        1599 	jarl	_ownmemcpy,lp
                        1599 <EXPANSION BEGIN>
                        1599 jarl22 _ownmemcpy , lp 
0000059e 80ff0000*      1599 <EXPANSION END>
                        1600 --line1668
                        1601 ..lin.C.3A.5C_ECU2.5CECU_Rivian_A1.5CTarget.5Crepo_projects.5CpFOTA.5CcL_R2023.2E09.2E01.5Cmake.5Cobj.5Cfbl_mem.83::
                        1602 .LDWlin83:
000005a2 03f0           1603 	mov	sp,ep
000005a4 003d           1604 	sld.w	0[ep],r7
000005a6 840709600000*  1605 	ld.w	sdaoff23(_gSegInfo+24)[gp],r12
000005ac cc39           1606 	add	r12,r7
000005ae 013d           1607 	sst.w	r7,0[ep]
000005b0 61ca           1608 	cmp	1,r25
000005b2 9215*          1609 	be	.L2592
000005b4 840709580000*  1610 	ld.w	sdaoff23(_gSegInfo+28)[gp],r11
000005ba eb39           1611 	cmp	r11,r7
000005bc c20d*          1612 	be	.L2592
                        1613 --line1681
                        1614 ..lin.C.3A.5C_ECU2.5CECU_Rivian_A1.5CTarget.5Crepo_projects.5CpFOTA.5CcL_R2023.2E09.2E01.5Cmake.5Cobj.5Cfbl_mem.84::
                        1615 .LDWlin84:
000005be 840709e00000*  1616 	ld.w	sdaoff23(_gSegInfo+20)[gp],r28
000005c4 c7e1           1617 	add	r7,r28
000005c6 9c00           1618 	zxb	r28
000005c8 e7e1           1619 	cmp	r7,r28
000005ca e0e716e3       1620 	cmovh	0,r28,r28
000005ce bc39           1621 	sub	r28,r7
000005d0 633f0100       1622 	st.w	r7,0[sp]
                        1623 .L2592:
000005d4 23cf0100       1624 	ld.w	0[sp],r25
000005d8 840709500000*  1625 	ld.w	sdaoff23(_gSegInfo+28)[gp],r10
000005de 1c30           1626 	mov	r28,r6
000005e0 d931           1627 	add	r25,r6
000005e2 ea31           1628 	cmp	r10,r6
000005e4 930d*          1629 	bnh	.L2602
                        1630 --line1702
                        1631 ..lin.C.3A.5C_ECU2.5CECU_Rivian_A1.5CTarget.5Crepo_projects.5CpFOTA.5CcL_R2023.2E09.2E01.5Cmake.5Cobj.5Cfbl_mem.85::
                        1632 .LDWlin85:
000005e6 204e5000       1633 	movea	80,zero,r9
000005ea a4070d480000*  1634 	st.h	r9,sdaoff23(_errStatFblStates)[gp]
000005f0 20de7100       1635 	movea	113,zero,r27
000005f4 f53d*          1636 	br	.L2608
                        1637 .L2602:
                        1638 --line1705
                        1639 ..lin.C.3A.5C_ECU2.5CECU_Rivian_A1.5CTarget.5Crepo_projects.5CpFOTA.5CcL_R2023.2E09.2E01.5Cmake.5Cobj.5Cfbl_mem.86::
                        1640 .LDWlin86:
000005f6 3e0600000000*  1641 	mov	sdaoff23(_gSegInfo),ep
000005fc 103b           1642 	sld.b	16[ep],r7
000005fe 0a35           1643 	sld.w	20[ep],r6
00000600 1d40           1644 	mov	r29,r8
00000602 e039           1645 	cmp	zero,r7
00000604 0338           1646 	mov	sp,r7
00000606 ca05*          1647 	bne	.L2605
                        1648 --line1707
                        1649 ..lin.C.3A.5C_ECU2.5CECU_Rivian_A1.5CTarget.5Crepo_projects.5CpFOTA.5CcL_R2023.2E09.2E01.5Cmake.5Cobj.5Cfbl_mem.87::
                        1650 .LDWlin87:
                        1651 	jarl	_FblMemCopyBuffer,lp

                                                                      Page 33
                                                              C:\Users\nhuliyap\AppData\Local\Temp\gh_00006281.s
                        1651 <EXPANSION BEGIN>
                        1651 jarl22 _FblMemCopyBuffer , lp 
00000608 bfff42fd*      1651 <EXPANSION END>
0000060c c505*          1652 	br	.L2604
                        1653 .L2605:
                        1654 --line1711
                        1655 ..lin.C.3A.5C_ECU2.5CECU_Rivian_A1.5CTarget.5Crepo_projects.5CpFOTA.5CcL_R2023.2E09.2E01.5Cmake.5Cobj.5Cfbl_mem.88::
                        1656 .LDWlin88:
0000060e 044a           1657 	mov	4,r9
                        1658 	jarl	_FblMemProgramBufferInternal,lp
                        1658 <EXPANSION BEGIN>
                        1658 jarl22 _FblMemProgramBufferInternal , lp 
00000610 bfff38fe*      1658 <EXPANSION END>
                        1659 .L2604:
00000614 0ad8           1660 	mov	r10,r27
                        1661 --line1715
                        1662 ..lin.C.3A.5C_ECU2.5CECU_Rivian_A1.5CTarget.5Crepo_projects.5CpFOTA.5CcL_R2023.2E09.2E01.5Cmake.5Cobj.5Cfbl_mem.89::
                        1663 .LDWlin89:
00000616 e051           1664 	cmp	zero,r10
00000618 da2d*          1665 	bne	.L2608
                        1666 --line1716
                        1667 ..lin.C.3A.5C_ECU2.5CECU_Rivian_A1.5CTarget.5Crepo_projects.5CpFOTA.5CcL_R2023.2E09.2E01.5Cmake.5Cobj.5Cfbl_mem.90::
                        1668 .LDWlin90:
0000061a 840709300000*  1669 	ld.w	sdaoff23(_gSegInfo+28)[gp],r6
00000620 239f0100       1670 	ld.w	0[sp],r19
00000624 e699           1671 	cmp	r6,r19
00000626 c305*          1672 	bnh	.L2610
                        1673 --line1716
                        1674 ..lin.C.3A.5C_ECU2.5CECU_Rivian_A1.5CTarget.5Crepo_projects.5CpFOTA.5CcL_R2023.2E09.2E01.5Cmake.5Cobj.5Cfbl_mem.91::
                        1675 .LDWlin91:
00000628 0132           1676 	mov	1,r6
                        1677 	jarl	_ApplFblFatalError,lp
                        1677 <EXPANSION BEGIN>
                        1677 jarl22 _ApplFblFatalError , lp 
0000062a 80ff0000*      1677 <EXPANSION END>
                        1678 .L2610:
                        1679 --line1718
                        1680 ..lin.C.3A.5C_ECU2.5CECU_Rivian_A1.5CTarget.5Crepo_projects.5CpFOTA.5CcL_R2023.2E09.2E01.5Cmake.5Cobj.5Cfbl_mem.92::
                        1681 .LDWlin92:
0000062e 233f0100       1682 	ld.w	0[sp],r7
00000632 3e0600000000*  1683 	mov	sdaoff23(_gSegInfo),ep
00000638 0a9d           1684 	sld.w	20[ep],r19
0000063a 0e95           1685 	sld.w	28[ep],r18
0000063c c799           1686 	add	r7,r19
0000063e a791           1687 	sub	r7,r18
00000640 0b9d           1688 	sst.w	r19,20[ep]
00000642 0f95           1689 	sst.w	r18,28[ep]
00000644 e7c9           1690 	cmp	r7,r25
00000646 ca0d*          1691 	bne	.L2612
                        1692 --line1730
                        1693 ..lin.C.3A.5C_ECU2.5CECU_Rivian_A1.5CTarget.5Crepo_projects.5CpFOTA.5CcL_R2023.2E09.2E01.5Cmake.5Cobj.5Cfbl_mem.93::
                        1694 .LDWlin93:
00000648 84070fe00000*  1695 	st.w	r28,sdaoff23(_gSegInfo+24)[gp]
0000064e 260600000000*  1696 	mov	sdaoff23(_gRemainderBuffer+4),r6
00000654 dd39           1697 	add	r29,r7
00000656 1c40           1698 	mov	r28,r8
                        1699 	jarl	_ownmemcpy,lp
                        1699 <EXPANSION BEGIN>
                        1699 jarl22 _ownmemcpy , lp 
00000658 80ff0000*      1699 <EXPANSION END>
0000065c b50d*          1700 	br	.L2608

                                                                      Page 34
                                                              C:\Users\nhuliyap\AppData\Local\Temp\gh_00006281.s
                        1701 .L2612:
                        1702 --line1735
                        1703 ..lin.C.3A.5C_ECU2.5CECU_Rivian_A1.5CTarget.5Crepo_projects.5CpFOTA.5CcL_R2023.2E09.2E01.5Cmake.5Cobj.5Cfbl_mem.94::
                        1704 .LDWlin94:
0000065e e039           1705 	cmp	zero,r7
00000660 f205*          1706 	be	.L2615
                        1707 --line1737
                        1708 ..lin.C.3A.5C_ECU2.5CECU_Rivian_A1.5CTarget.5Crepo_projects.5CpFOTA.5CcL_R2023.2E09.2E01.5Cmake.5Cobj.5Cfbl_mem.95::
                        1709 .LDWlin95:
00000662 0c95           1710 	sld.w	24[ep],r18
00000664 b239           1711 	sub	r18,r7
00000666 7a3f0100       1712 	st.w	r7,0[r26]
0000066a 0d05           1713 	sst.w	zero,24[ep]
0000066c b505*          1714 	br	.L2608
                        1715 .L2615:
                        1716 --line1743
                        1717 ..lin.C.3A.5C_ECU2.5CECU_Rivian_A1.5CTarget.5Crepo_projects.5CpFOTA.5CcL_R2023.2E09.2E01.5Cmake.5Cobj.5Cfbl_mem.96::
                        1718 .LDWlin96:
0000066e 7a070100       1719 	st.w	zero,0[r26]
                        1720 .L2608:
00000672 1b50           1721 	mov	r27,r10
                        1722 --	    .ef
                        1723 .LDW38:
00000674 4206ff70       1724 	dispose	1,{r25,r26,r27,r28,r29,r31},[lp]
                        1725 	.type	_FblMemProgramStream,@function
                        1726 	.size	_FblMemProgramStream,.-_FblMemProgramStream
                        1727 	.type	_FblMemProgramStream..C.3A.5C_ECU2.5CECU_Rivian_A1.5CTarget.5Crepo_projects.5CpFOTA.5CcL_R2023.2E09.2E01.5Cmake.5Cobj.5Cfbl_mem.,@function
                        1728 	.size	_FblMemProgramStream..C.3A.5C_ECU2.5CECU_Rivian_A1.5CTarget.5Crepo_projects.5CpFOTA.5CcL_R2023.2E09.2E01.5Cmake.5Cobj.5Cfbl_mem.,.-_FblMemProgramStream..C.3A.5C_ECU2.5CECU_Rivian_A1.5CTarget.5Crepo_projects.5CpFOTA.5CcL_R2023.2E09.2E01.5Cmake.5Cobj.5Cfbl_mem.
                        1729 	.align	2
                        1730 .LDW48:
                        1731 --_retVal	r27	local
                        1732 --_programData	r29	local
                        1733 --_localLength	0[sp]	local
                        1734 --_requestLength	r25	local
                        1735 --_remainder	r28	local
                        1736 
                        1737 --_programJob	r27	param
                        1738 --_programLength	r26	param
                        1739 --_mode	r25	param
                        1740 
                        1741 	.section ".bss","awb"
                        1742 .L2813:
                        1743 	.type	.L2813,@object
                        1744 	.size	.L2813,0
                        1745 	.data
                        1746 	.text
                        1747 	.align	2
                        1748 	.align	2
                        1749 ..gh.f.f.1.e.25:
                        1750 	.type	..gh.f.f.1.e.25,@object
                        1751 	.size	..gh.f.f.1.e.25,0
                        1752 	.global	_FblMemProcessJob..C.3A.5C_ECU2.5CECU_Rivian_A1.5CTarget.5Crepo_projects.5CpFOTA.5CcL_R2023.2E09.2E01.5Cmake.5Cobj.5Cfbl_mem.
                        1753 _FblMemProcessJob..C.3A.5C_ECU2.5CECU_Rivian_A1.5CTarget.5Crepo_projects.5CpFOTA.5CcL_R2023.2E09.2E01.5Cmake.5Cobj.5Cfbl_mem.:
                        1754 _FblMemProcessJob:
00000678 8407e110       1755 	prepare	{r27,r28,r29,r31},2
0000067c 06d8           1756 	mov	r6,r27
                        1757 --	    .bf
                        1758 .LDW58:
                        1759 	jarl	_FblMemTriggerWatchdog,lp
                        1759 <EXPANSION BEGIN>
                        1759 jarl22 _FblMemTriggerWatchdog , lp 

                                                                      Page 35
                                                              C:\Users\nhuliyap\AppData\Local\Temp\gh_00006281.s
0000067e bfff86f9*      1759 <EXPANSION END>
                        1760 --line1843
                        1761 ..lin.C.3A.5C_ECU2.5CECU_Rivian_A1.5CTarget.5Crepo_projects.5CpFOTA.5CcL_R2023.2E09.2E01.5Cmake.5Cobj.5Cfbl_mem.97::
                        1762 .LDWlin97:
00000682 1bf0           1763 	mov	r27,ep
00000684 0a45           1764 	sld.w	20[ep],r8
00000686 1c9b           1765 	sld.b	28[ep],r19
00000688 63470100       1766 	st.w	r8,0[sp]
0000068c 629a           1767 	cmp	2,r19
0000068e 910d*          1768 	bl	.L3009
00000690 b21d*          1769 	be	.L3015
                        1770 --line2129
                        1771 ..lin.C.3A.5C_ECU2.5CECU_Rivian_A1.5CTarget.5Crepo_projects.5CpFOTA.5CcL_R2023.2E09.2E01.5Cmake.5Cobj.5Cfbl_mem.98::
                        1772 .LDWlin98:
00000692 20ee2200       1773 	movea	34,zero,r29
00000696 84070de80000*  1774 	st.b	r29,sdaoff23(_gErrorStatus)[gp]
0000069c 80070a01*      1775 	br	.L3013
                        1776 .L3009:
                        1777 --line1942
                        1778 ..lin.C.3A.5C_ECU2.5CECU_Rivian_A1.5CTarget.5Crepo_projects.5CpFOTA.5CcL_R2023.2E09.2E01.5Cmake.5Cobj.5Cfbl_mem.99::
                        1779 .LDWlin99:
000006a0 619a           1780 	cmp	1,r19
000006a2 fa05*          1781 	bne	.L3010
                        1782 --line1946
                        1783 ..lin.C.3A.5C_ECU2.5CECU_Rivian_A1.5CTarget.5Crepo_projects.5CpFOTA.5CcL_R2023.2E09.2E01.5Cmake.5Cobj.5Cfbl_mem.100::
                        1784 .LDWlin100:
000006a4 840709300000*  1785 	ld.w	sdaoff23(_gSegInfo+24)[gp],r6
000006aa 7b371100       1786 	st.w	r6,16[r27]
000006ae a505*          1787 	br	.L3012
                        1788 .L3010:
                        1789 --line1958
                        1790 ..lin.C.3A.5C_ECU2.5CECU_Rivian_A1.5CTarget.5Crepo_projects.5CpFOTA.5CcL_R2023.2E09.2E01.5Cmake.5Cobj.5Cfbl_mem.101::
                        1791 .LDWlin101:
000006b0 009a           1792 	mov	0,r19
                        1793 .L3012:
000006b2 1340           1794 	mov	r19,r8
000006b4 1b30           1795 	mov	r27,r6
000006b6 0338           1796 	mov	sp,r7
                        1797 	jarl	_FblMemProgramStream,lp
                        1797 <EXPANSION BEGIN>
                        1797 jarl22 _FblMemProgramStream , lp 
000006b8 bfff8efe*      1797 <EXPANSION END>
000006bc 0ae8           1798 	mov	r10,r29
000006be 84070d500000*  1799 	st.b	r10,sdaoff23(_gErrorStatus)[gp]
                        1800 --line1975
                        1801 ..lin.C.3A.5C_ECU2.5CECU_Rivian_A1.5CTarget.5Crepo_projects.5CpFOTA.5CcL_R2023.2E09.2E01.5Cmake.5Cobj.5Cfbl_mem.102::
                        1802 .LDWlin102:
000006c4 9575*          1803 	br	.L3013
                        1804 .L3015:
                        1805 --line2052
                        1806 ..lin.C.3A.5C_ECU2.5CECU_Rivian_A1.5CTarget.5Crepo_projects.5CpFOTA.5CcL_R2023.2E09.2E01.5Cmake.5Cobj.5Cfbl_mem.103::
                        1807 .LDWlin103:
000006c6 08e5           1808 	sld.w	16[ep],r28
000006c8 0c9d           1809 	sld.w	24[ep],r19
000006ca 03f0           1810 	mov	sp,ep
000006cc 0345           1811 	sst.w	r8,4[ep]
000006ce 0105           1812 	sst.w	zero,0[ep]
000006d0 d3e1           1813 	add	r19,r28
000006d2 1c30           1814 	mov	r28,r6
                        1815 	jarl	_FblMemSegmentNrGet,lp
                        1815 <EXPANSION BEGIN>

                                                                      Page 36
                                                              C:\Users\nhuliyap\AppData\Local\Temp\gh_00006281.s
                        1815 jarl22 _FblMemSegmentNrGet , lp 
000006d4 80ff0000*      1815 <EXPANSION END>
000006d8 a4070d500000*  1816 	st.h	r10,sdaoff23(_memSegment)[gp]
                        1817 --line2060
                        1818 ..lin.C.3A.5C_ECU2.5CECU_Rivian_A1.5CTarget.5Crepo_projects.5CpFOTA.5CcL_R2023.2E09.2E01.5Cmake.5Cobj.5Cfbl_mem.104::
                        1819 .LDWlin104:
000006de e051           1820 	cmp	zero,r10
000006e0 ce35*          1821 	bge	.L3016
                        1822 --line2062
                        1823 ..lin.C.3A.5C_ECU2.5CECU_Rivian_A1.5CTarget.5Crepo_projects.5CpFOTA.5CcL_R2023.2E09.2E01.5Cmake.5Cobj.5Cfbl_mem.105::
                        1824 .LDWlin105:
000006e2 1c36ffff       1825 	addi	-1,r28,r6
                        1826 	jarl	_FblMemSegmentNrGet,lp
                        1826 <EXPANSION BEGIN>
                        1826 jarl22 _FblMemSegmentNrGet , lp 
000006e6 80ff0000*      1826 <EXPANSION END>
                        1827 --line2064
                        1828 ..lin.C.3A.5C_ECU2.5CECU_Rivian_A1.5CTarget.5Crepo_projects.5CpFOTA.5CcL_R2023.2E09.2E01.5Cmake.5Cobj.5Cfbl_mem.106::
                        1829 .LDWlin106:
000006ea a50705900000*  1830 	ld.bu	rosdaoff23(_kNrOfFlashBlock)[r5],r18
000006f0 4152           1831 	add	1,r10
000006f2 ea00           1832 	sxh	r10
000006f4 a4070d500000*  1833 	st.h	r10,sdaoff23(_memSegment)[gp]
000006fa f251           1834 	cmp	r18,r10
000006fc be05*          1835 	bge	.L3019
000006fe e051           1836 	cmp	zero,r10
00000700 cf0d*          1837 	bgt	.L3018
                        1838 .L3019:
                        1839 --line2066
                        1840 ..lin.C.3A.5C_ECU2.5CECU_Rivian_A1.5CTarget.5Crepo_projects.5CpFOTA.5CcL_R2023.2E09.2E01.5Cmake.5Cobj.5Cfbl_mem.107::
                        1841 .LDWlin107:
00000702 208e2300       1842 	movea	35,zero,r17
00000706 20ee7100       1843 	movea	113,zero,r29
0000070a a4070d880000*  1844 	st.h	r17,sdaoff23(_errStatErrorCode)[gp]
00000710 84070de80000*  1845 	st.b	r29,sdaoff23(_gErrorStatus)[gp]
00000716 854d*          1846 	br	.L3013
                        1847 .L3018:
                        1848 --line2070
                        1849 ..lin.C.3A.5C_ECU2.5CECU_Rivian_A1.5CTarget.5Crepo_projects.5CpFOTA.5CcL_R2023.2E09.2E01.5Cmake.5Cobj.5Cfbl_mem.108::
                        1850 .LDWlin108:
00000718 0af0           1851 	mov	r10,ep
0000071a c3f2           1852 	shl	3,ep
0000071c c5f1           1853 	add	r5,ep
0000071e 9e0709300000*  1854 	ld.w	rosdaoff23(_FlashBlock)[ep],r6
00000724 fc31           1855 	cmp	r28,r6
00000726 d30d*          1856 	bnh	.L3022
                        1857 --line2074
                        1858 ..lin.C.3A.5C_ECU2.5CECU_Rivian_A1.5CTarget.5Crepo_projects.5CpFOTA.5CcL_R2023.2E09.2E01.5Cmake.5Cobj.5Cfbl_mem.109::
                        1859 .LDWlin109:
00000728 23970500       1860 	ld.w	4[sp],r18
0000072c 0648           1861 	mov	r6,r9
0000072e bc49           1862 	sub	r28,r9
00000730 f249           1863 	cmp	r18,r9
00000732 f905*          1864 	bnl	.L3022
                        1865 --line2076
                        1866 ..lin.C.3A.5C_ECU2.5CECU_Rivian_A1.5CTarget.5Crepo_projects.5CpFOTA.5CcL_R2023.2E09.2E01.5Cmake.5Cobj.5Cfbl_mem.110::
                        1867 .LDWlin110:
00000734 03f0           1868 	mov	sp,ep
00000736 a991           1869 	sub	r9,r18
00000738 014d           1870 	sst.w	r9,0[ep]
0000073a 0395           1871 	sst.w	r18,4[ep]

                                                                      Page 37
                                                              C:\Users\nhuliyap\AppData\Local\Temp\gh_00006281.s
0000073c 06e0           1872 	mov	r6,r28
0000073e d505*          1873 	br	.L3016
                        1874 .L3022:
                        1875 --line2088
                        1876 ..lin.C.3A.5C_ECU2.5CECU_Rivian_A1.5CTarget.5Crepo_projects.5CpFOTA.5CcL_R2023.2E09.2E01.5Cmake.5Cobj.5Cfbl_mem.111::
                        1877 .LDWlin111:
00000740 03f0           1878 	mov	sp,ep
00000742 027d           1879 	sld.w	4[ep],r15
00000744 0305           1880 	sst.w	zero,4[ep]
00000746 017d           1881 	sst.w	r15,0[ep]
                        1882 .L3016:
00000748 840705e80000*  1883 	ld.b	sdaoff23(_gErrorStatus)[gp],r29
0000074e e0e9           1884 	cmp	zero,r29
00000750 ba2d*          1885 	bne	.L3013
                        1886 --line2096
                        1887 ..lin.C.3A.5C_ECU2.5CECU_Rivian_A1.5CTarget.5Crepo_projects.5CpFOTA.5CcL_R2023.2E09.2E01.5Cmake.5Cobj.5Cfbl_mem.112::
                        1888 .LDWlin112:
00000752 23970500       1889 	ld.w	4[sp],r18
00000756 1206fffe       1890 	addi	-257,r18,zero
0000075a d905*          1891 	bnl	.L3030
                        1892 --line2098
                        1893 ..lin.C.3A.5C_ECU2.5CECU_Rivian_A1.5CTarget.5Crepo_projects.5CpFOTA.5CcL_R2023.2E09.2E01.5Cmake.5Cobj.5Cfbl_mem.113::
                        1894 .LDWlin113:
0000075c 20960001       1895 	movea	256,zero,r18
00000760 63970500       1896 	st.w	r18,4[sp]
                        1897 .L3030:
00000764 c352           1898 	shl	3,r10
00000766 c551           1899 	add	r5,r10
00000768 8a0709380000*  1900 	ld.w	rosdaoff23(_FlashBlock+4)[r10],r7
0000076e bc39           1901 	sub	r28,r7
00000770 074e0100       1902 	addi	1,r7,r9
00000774 e991           1903 	cmp	r9,r18
00000776 c305*          1904 	bnh	.L3032
                        1905 --line2105
                        1906 ..lin.C.3A.5C_ECU2.5CECU_Rivian_A1.5CTarget.5Crepo_projects.5CpFOTA.5CcL_R2023.2E09.2E01.5Cmake.5Cobj.5Cfbl_mem.114::
                        1907 .LDWlin114:
00000778 0990           1908 	mov	r9,r18
0000077a 634f0500       1909 	st.w	r9,4[sp]
                        1910 .L3032:
0000077e e091           1911 	cmp	zero,r18
00000780 b215*          1912 	be	.L3013
                        1913 --line2110
                        1914 ..lin.C.3A.5C_ECU2.5CECU_Rivian_A1.5CTarget.5Crepo_projects.5CpFOTA.5CcL_R2023.2E09.2E01.5Cmake.5Cobj.5Cfbl_mem.115::
                        1915 .LDWlin115:
00000782 1c30           1916 	mov	r28,r6
00000784 280600000000*  1917 	mov	sdaoff23(_gGapFillBuffer+4),r8
0000078a 233e0400       1918 	movea	4,sp,r7
0000078e 054a           1919 	mov	5,r9
                        1920 	jarl	_FblMemProgramBufferInternal,lp
                        1920 <EXPANSION BEGIN>
                        1920 jarl22 _FblMemProgramBufferInternal , lp 
00000790 bfffb8fc*      1920 <EXPANSION END>
                        1921 --line2112
                        1922 ..lin.C.3A.5C_ECU2.5CECU_Rivian_A1.5CTarget.5Crepo_projects.5CpFOTA.5CcL_R2023.2E09.2E01.5Cmake.5Cobj.5Cfbl_mem.116::
                        1923 .LDWlin116:
00000794 03f0           1924 	mov	sp,ep
00000796 0095           1925 	sld.w	0[ep],r18
00000798 026d           1926 	sld.w	4[ep],r13
0000079a 0ae8           1927 	mov	r10,r29
0000079c 84070d500000*  1928 	st.b	r10,sdaoff23(_gErrorStatus)[gp]
000007a2 cd91           1929 	add	r13,r18

                                                                      Page 38
                                                              C:\Users\nhuliyap\AppData\Local\Temp\gh_00006281.s
000007a4 0195           1930 	sst.w	r18,0[ep]
                        1931 .L3013:
000007a6 23470100       1932 	ld.w	0[sp],r8
000007aa 1bf0           1933 	mov	r27,ep
000007ac 088d           1934 	sld.w	16[ep],r17
000007ae 0a85           1935 	sld.w	20[ep],r16
000007b0 c889           1936 	add	r8,r17
000007b2 a881           1937 	sub	r8,r16
000007b4 098d           1938 	sst.w	r17,16[ep]
000007b6 0b85           1939 	sst.w	r16,20[ep]
000007b8 e0e9           1940 	cmp	zero,r29
000007ba aa0d*          1941 	bne	.L3039
                        1942 --line2140
                        1943 ..lin.C.3A.5C_ECU2.5CECU_Rivian_A1.5CTarget.5Crepo_projects.5CpFOTA.5CcL_R2023.2E09.2E01.5Cmake.5Cobj.5Cfbl_mem.117::
                        1944 .LDWlin117:
                        1945 	jarl	_FblMemVerifyBufferIntegrity,lp
                        1945 <EXPANSION BEGIN>
                        1945 jarl22 _FblMemVerifyBufferIntegrity , lp 
000007bc bfffcef8*      1945 <EXPANSION END>
000007c0 e051           1946 	cmp	zero,r10
000007c2 e205*          1947 	be	.L3039
                        1948 --line2142
                        1949 ..lin.C.3A.5C_ECU2.5CECU_Rivian_A1.5CTarget.5Crepo_projects.5CpFOTA.5CcL_R2023.2E09.2E01.5Cmake.5Cobj.5Cfbl_mem.118::
                        1950 .LDWlin118:
000007c4 20ee2200       1951 	movea	34,zero,r29
000007c8 84070de80000*  1952 	st.b	r29,sdaoff23(_gErrorStatus)[gp]
                        1953 .L3039:
000007ce 1d50           1954 	mov	r29,r10
                        1955 --	    .ef
                        1956 .LDW68:
000007d0 4406ff10       1957 	dispose	2,{r27,r28,r29,r31},[lp]
                        1958 	.type	_FblMemProcessJob,@function
                        1959 	.size	_FblMemProcessJob,.-_FblMemProcessJob
                        1960 	.type	_FblMemProcessJob..C.3A.5C_ECU2.5CECU_Rivian_A1.5CTarget.5Crepo_projects.5CpFOTA.5CcL_R2023.2E09.2E01.5Cmake.5Cobj.5Cfbl_mem.,@function
                        1961 	.size	_FblMemProcessJob..C.3A.5C_ECU2.5CECU_Rivian_A1.5CTarget.5Crepo_projects.5CpFOTA.5CcL_R2023.2E09.2E01.5Cmake.5Cobj.5Cfbl_mem.,.-_FblMemProcessJob..C.3A.5C_ECU2.5CECU_Rivian_A1.5CTarget.5Crepo_projects.5CpFOTA.5CcL_R2023.2E09.2E01.5Cmake.5Cobj.5Cfbl_mem.
                        1962 	.align	2
                        1963 .LDW78:
                        1964 --_actualLength	0[sp]	local
                        1965 --_fillAddress	r28	local
                        1966 --_fillLength	4[sp]	local
                        1967 --_tempLength	r9	local
                        1968 --_finalizeStream	r8	local
                        1969 
                        1970 --_activeJob	r27	param
                        1971 --_mode	none	param
                        1972 
                        1973 	.section ".bss","awb"
                        1974 .L3303:
                        1975 	.type	.L3303,@object
                        1976 	.size	.L3303,0
                        1977 	.data
                        1978 	.text
                        1979 	.align	2
                        1980 	.align	2
                        1981 ..gh.f.f.1.e.26:
                        1982 	.type	..gh.f.f.1.e.26,@object
                        1983 	.size	..gh.f.f.1.e.26,0
                        1984 	.global	_FblMemProcessQueue..C.3A.5C_ECU2.5CECU_Rivian_A1.5CTarget.5Crepo_projects.5CpFOTA.5CcL_R2023.2E09.2E01.5Cmake.5Cobj.5Cfbl_mem.
                        1985 _FblMemProcessQueue..C.3A.5C_ECU2.5CECU_Rivian_A1.5CTarget.5Crepo_projects.5CpFOTA.5CcL_R2023.2E09.2E01.5Cmake.5Cobj.5Cfbl_mem.:
                        1986 _FblMemProcessQueue:
000007d4 8007e110       1987 	prepare	{r27,r28,r29,r31},0

                                                                      Page 39
                                                              C:\Users\nhuliyap\AppData\Local\Temp\gh_00006281.s
000007d8 06d8           1988 	mov	r6,r27
000007da bb00           1989 	sxb	r27
                        1990 --	    .bf
                        1991 .LDW88:
                        1992 	jarl	_FblMemTriggerWatchdog,lp
                        1992 <EXPANSION BEGIN>
                        1992 jarl22 _FblMemTriggerWatchdog , lp 
000007dc bfff28f8*      1992 <EXPANSION END>
                        1993 --line2160
                        1994 ..lin.C.3A.5C_ECU2.5CECU_Rivian_A1.5CTarget.5Crepo_projects.5CpFOTA.5CcL_R2023.2E09.2E01.5Cmake.5Cobj.5Cfbl_mem.119::
                        1995 .LDWlin119:
000007e0 840705800000*  1996 	ld.b	sdaoff23(_fblMemProgState)[gp],r16
000007e6 6282           1997 	cmp	2,r16
000007e8 e62d*          1998 	blt	.L3541
                        1999 --line2171
                        2000 ..lin.C.3A.5C_ECU2.5CECU_Rivian_A1.5CTarget.5Crepo_projects.5CpFOTA.5CcL_R2023.2E09.2E01.5Cmake.5Cobj.5Cfbl_mem.120::
                        2001 .LDWlin120:
000007ea 840709e00000*  2002 	ld.w	sdaoff23(_gProcessingQueue+12)[gp],r28
000007f0 057a           2003 	mov	5,r15
000007f2 84070d780000*  2004 	st.b	r15,sdaoff23(_fblMemProgState)[gp]
000007f8 1b38           2005 	mov	r27,r7
000007fa 1cf0           2006 	mov	r28,ep
000007fc c4f2           2007 	shl	4,ep
000007fe c4f1           2008 	add	gp,ep
00000800 9e0709e80000*  2009 	ld.w	sdaoff23(_gProcessingQueue)[ep],r29
00000806 1d30           2010 	mov	r29,r6
                        2011 	jarl	_FblMemProcessJob,lp
                        2011 <EXPANSION BEGIN>
                        2011 jarl22 _FblMemProcessJob , lp 
00000808 bfff70fe*      2011 <EXPANSION END>
0000080c e051           2012 	cmp	zero,r10
0000080e fa15*          2013 	bne	.L3548
                        2014 --line2180
                        2015 ..lin.C.3A.5C_ECU2.5CECU_Rivian_A1.5CTarget.5Crepo_projects.5CpFOTA.5CcL_R2023.2E09.2E01.5Cmake.5Cobj.5Cfbl_mem.121::
                        2016 .LDWlin121:
00000810 1d8f1d00       2017 	ld.b	29[r29],r17
00000814 628a           2018 	cmp	2,r17
00000816 f205*          2019 	be	.L3551
00000818 e089           2020 	cmp	zero,r17
0000081a da15*          2021 	bne	.L3541
0000081c 3d4f1500       2022 	ld.w	20[r29],r9
00000820 e049           2023 	cmp	zero,r9
00000822 9a15*          2024 	bne	.L3541
                        2025 .L3551:
                        2026 --line2185
                        2027 ..lin.C.3A.5C_ECU2.5CECU_Rivian_A1.5CTarget.5Crepo_projects.5CpFOTA.5CcL_R2023.2E09.2E01.5Cmake.5Cobj.5Cfbl_mem.122::
                        2028 .LDWlin122:
00000824 1c38           2029 	mov	r28,r7
00000826 260600000000*  2030 	mov	sdaoff23(_gProcessingQueue),r6
                        2031 	jarl	_FblMemQueueRemove,lp
                        2031 <EXPANSION BEGIN>
                        2031 jarl22 _FblMemQueueRemove , lp 
0000082c bfff3af9*      2031 <EXPANSION END>
                        2032 --line2187
                        2033 ..lin.C.3A.5C_ECU2.5CECU_Rivian_A1.5CTarget.5Crepo_projects.5CpFOTA.5CcL_R2023.2E09.2E01.5Cmake.5Cobj.5Cfbl_mem.123::
                        2034 .LDWlin123:
00000830 840709900000*  2035 	ld.w	sdaoff23(_gProcessingQueue+12)[gp],r18
00000836 e091           2036 	cmp	zero,r18
00000838 ea05*          2037 	bne	.L3541
                        2038 --line2190
                        2039 ..lin.C.3A.5C_ECU2.5CECU_Rivian_A1.5CTarget.5Crepo_projects.5CpFOTA.5CcL_R2023.2E09.2E01.5Cmake.5Cobj.5Cfbl_mem.124::

                                                                      Page 40
                                                              C:\Users\nhuliyap\AppData\Local\Temp\gh_00006281.s
                        2040 .LDWlin124:
0000083a a505*          2041 	br	.L3594
                        2042 .L3548:
                        2043 --line2197
                        2044 ..lin.C.3A.5C_ECU2.5CECU_Rivian_A1.5CTarget.5Crepo_projects.5CpFOTA.5CcL_R2023.2E09.2E01.5Cmake.5Cobj.5Cfbl_mem.125::
                        2045 .LDWlin125:
0000083c 0192           2046 	mov	1,r18
                        2047 .L3594:
0000083e 84070d900000*  2048 	st.b	r18,sdaoff23(_fblMemProgState)[gp]
                        2049 .L3541:
                        2050 --	    .ef
                        2051 .LDW98:
00000844 4006ff10       2052 	dispose	0,{r27,r28,r29,r31},[lp]
                        2053 	.type	_FblMemProcessQueue,@function
                        2054 	.size	_FblMemProcessQueue,.-_FblMemProcessQueue
                        2055 	.type	_FblMemProcessQueue..C.3A.5C_ECU2.5CECU_Rivian_A1.5CTarget.5Crepo_projects.5CpFOTA.5CcL_R2023.2E09.2E01.5Cmake.5Cobj.5Cfbl_mem.,@function
                        2056 	.size	_FblMemProcessQueue..C.3A.5C_ECU2.5CECU_Rivian_A1.5CTarget.5Crepo_projects.5CpFOTA.5CcL_R2023.2E09.2E01.5Cmake.5Cobj.5Cfbl_mem.,.-_FblMemProcessQueue..C.3A.5C_ECU2.5CECU_Rivian_A1.5CTarget.5Crepo_projects.5CpFOTA.5CcL_R2023.2E09.2E01.5Cmake.5Cobj.5Cfbl_mem.
                        2057 	.align	2
                        2058 .LDW09:
                        2059 --_activeHandle	r28	local
                        2060 --_activeJob	r29	local
                        2061 
                        2062 --_mode	r27	param
                        2063 
                        2064 	.section ".bss","awb"
                        2065 .L3937:
                        2066 	.type	.L3937,@object
                        2067 	.size	.L3937,0
                        2068 	.data
                        2069 	.text
                        2070 	.align	2
                        2071 	.align	2
                        2072 ..gh.f.f.1.e.27:
                        2073 	.type	..gh.f.f.1.e.27,@object
                        2074 	.size	..gh.f.f.1.e.27,0
                        2075 	.global	_FblMemFlushQueueByPrio..C.3A.5C_ECU2.5CECU_Rivian_A1.5CTarget.5Crepo_projects.5CpFOTA.5CcL_R2023.2E09.2E01.5Cmake.5Cobj.5Cfbl_mem.
                        2076 _FblMemFlushQueueByPrio..C.3A.5C_ECU2.5CECU_Rivian_A1.5CTarget.5Crepo_projects.5CpFOTA.5CcL_R2023.2E09.2E01.5Cmake.5Cobj.5Cfbl_mem.:
                        2077 _FblMemFlushQueueByPrio:
00000848 80076100       2078 	prepare	{r29,r31},0
0000084c 06e8           2079 	mov	r6,r29
0000084e 9d00           2080 	zxb	r29
                        2081 --	    .bf
                        2082 .LDW19:
00000850 c505*          2083 	br	.L4038
                        2084 .L4040:
                        2085 --line2219
                        2086 ..lin.C.3A.5C_ECU2.5CECU_Rivian_A1.5CTarget.5Crepo_projects.5CpFOTA.5CcL_R2023.2E09.2E01.5Cmake.5Cobj.5Cfbl_mem.126::
                        2087 .LDWlin126:
00000852 0132           2088 	mov	1,r6
                        2089 	jarl	_FblMemProcessQueue,lp
                        2089 <EXPANSION BEGIN>
                        2089 jarl22 _FblMemProcessQueue , lp 
00000854 bfff80ff*      2089 <EXPANSION END>
                        2090 .L4038:
                        2091 --line2213
                        2092 ..lin.C.3A.5C_ECU2.5CECU_Rivian_A1.5CTarget.5Crepo_projects.5CpFOTA.5CcL_R2023.2E09.2E01.5Cmake.5Cobj.5Cfbl_mem.127::
                        2093 .LDWlin127:
00000858 840705900000*  2094 	ld.b	sdaoff23(_fblMemProgState)[gp],r18
0000085e 6292           2095 	cmp	2,r18
00000860 b60d*          2096 	blt	.L4036
00000862 840709f00000*  2097 	ld.w	sdaoff23(_gProcessingQueue+12)[gp],ep

                                                                      Page 41
                                                              C:\Users\nhuliyap\AppData\Local\Temp\gh_00006281.s
00000868 c4f2           2098 	shl	4,ep
0000086a c4f1           2099 	add	gp,ep
0000086c be0705800000*  2100 	ld.bu	sdaoff23(_gProcessingQueue+4)[ep],r16
00000872 fd81           2101 	cmp	r29,r16
00000874 f9ed*          2102 	bnl	.L4040
                        2103 .L4036:
                        2104 --	    .ef
                        2105 .LDW29:
                        2106 --line2221
                        2107 ..lin.C.3A.5C_ECU2.5CECU_Rivian_A1.5CTarget.5Crepo_projects.5CpFOTA.5CcL_R2023.2E09.2E01.5Cmake.5Cobj.5Cfbl_mem.128::
                        2108 .LDWlin128:
00000876 40067f00       2109 	dispose	0,{r29,r31},[lp]
                        2110 	.type	_FblMemFlushQueueByPrio,@function
                        2111 	.size	_FblMemFlushQueueByPrio,.-_FblMemFlushQueueByPrio
                        2112 	.type	_FblMemFlushQueueByPrio..C.3A.5C_ECU2.5CECU_Rivian_A1.5CTarget.5Crepo_projects.5CpFOTA.5CcL_R2023.2E09.2E01.5Cmake.5Cobj.5Cfbl_mem.,@function
                        2113 	.size	_FblMemFlushQueueByPrio..C.3A.5C_ECU2.5CECU_Rivian_A1.5CTarget.5Crepo_projects.5CpFOTA.5CcL_R2023.2E09.2E01.5Cmake.5Cobj.5Cfbl_mem.,.-_FblMemFlushQueueByPrio..C.3A.5C_ECU2.5CECU_Rivian_A1.5CTarget.5Crepo_projects.5CpFOTA.5CcL_R2023.2E09.2E01.5Cmake.5Cobj.5Cfbl_mem.
                        2114 	.align	2
                        2115 .LDW39:
                        2116 
                        2117 --_prio	r29	param
                        2118 
                        2119 	.section ".bss","awb"
                        2120 .L4082:
                        2121 	.type	.L4082,@object
                        2122 	.size	.L4082,0
                        2123 	.data
                        2124 	.text
                        2125 	.align	2
                        2126 	.align	2
                        2127 ..gh.f.f.1.e.28:
                        2128 	.type	..gh.f.f.1.e.28,@object
                        2129 	.size	..gh.f.f.1.e.28,0
                        2130 	.global	_FblMemQueueBuffer..C.3A.5C_ECU2.5CECU_Rivian_A1.5CTarget.5Crepo_projects.5CpFOTA.5CcL_R2023.2E09.2E01.5Cmake.5Cobj.5Cfbl_mem.
                        2131 _FblMemQueueBuffer..C.3A.5C_ECU2.5CECU_Rivian_A1.5CTarget.5Crepo_projects.5CpFOTA.5CcL_R2023.2E09.2E01.5Cmake.5Cobj.5Cfbl_mem.:
                        2132 _FblMemQueueBuffer:
0000087a 8007e110       2133 	prepare	{r27,r28,r29,r31},0
0000087e 06d8           2134 	mov	r6,r27
00000880 07e8           2135 	mov	r7,r29
00000882 08e0           2136 	mov	r8,r28
                        2137 --	    .bf
                        2138 .LDW49:
00000884 260600000000*  2139 	mov	sdaoff23(_gInputJobs),r6
                        2140 	jarl	_FblMemGetBuffer,lp
                        2140 <EXPANSION BEGIN>
                        2140 jarl22 _FblMemGetBuffer , lp 
0000088a bfff92f7*      2140 <EXPANSION END>
0000088e ead9           2141 	cmp	r10,r27
00000890 9a0d*          2142 	bne	.L4133
00000892 840709900000*  2143 	ld.w	sdaoff23(_gInputJobs+8)[gp],r18
00000898 f2e9           2144 	cmp	r18,r29
0000089a c905*          2145 	bnl	.L4133
0000089c bd91           2146 	sub	r29,r18
0000089e f2e1           2147 	cmp	r18,r28
000008a0 d305*          2148 	bnh	.L4132
                        2149 .L4133:
                        2150 --line2250
                        2151 ..lin.C.3A.5C_ECU2.5CECU_Rivian_A1.5CTarget.5Crepo_projects.5CpFOTA.5CcL_R2023.2E09.2E01.5Cmake.5Cobj.5Cfbl_mem.129::
                        2152 .LDWlin129:
000008a2 20567200       2153 	movea	114,zero,r10
000008a6 4006ff10       2154 	dispose	0,{r27,r28,r29,r31},[lp]
                        2155 .L4132:

                                                                      Page 42
                                                              C:\Users\nhuliyap\AppData\Local\Temp\gh_00006281.s
                        2156 --line2259
                        2157 ..lin.C.3A.5C_ECU2.5CECU_Rivian_A1.5CTarget.5Crepo_projects.5CpFOTA.5CcL_R2023.2E09.2E01.5Cmake.5Cobj.5Cfbl_mem.130::
                        2158 .LDWlin130:
000008aa 840705480000*  2159 	ld.b	sdaoff23(_fblMemProgState)[gp],r9
000008b0 614a           2160 	cmp	1,r9
000008b2 921d*          2161 	be	.L4137
                        2162 --line2261
                        2163 ..lin.C.3A.5C_ECU2.5CECU_Rivian_A1.5CTarget.5Crepo_projects.5CpFOTA.5CcL_R2023.2E09.2E01.5Cmake.5Cobj.5Cfbl_mem.131::
                        2164 .LDWlin131:
000008b4 3e0600000000*  2165 	mov	sdaoff23(_gInputJobs),ep
000008ba 0645           2166 	sld.w	12[ep],r8
000008bc 840705380000*  2167 	ld.b	sdaoff23(_gSegInfo+36)[gp],r7
000008c2 0be5           2168 	sst.w	r28,20[ep]
000008c4 260600000000*  2169 	mov	sdaoff23(_gProcessingQueue),r6
000008ca c8e9           2170 	add	r8,r29
000008cc 840709400000*  2171 	ld.w	sdaoff23(_gSegInfo+40)[gp],r8
000008d2 9c3b           2172 	sst.b	r7,28[ep]
000008d4 09ed           2173 	sst.w	r29,16[ep]
000008d6 1e38           2174 	mov	ep,r7
                        2175 	jarl	_FblMemQueueDefaultPrioInsert,lp
                        2175 <EXPANSION BEGIN>
                        2175 jarl22 _FblMemQueueDefaultPrioInsert , lp 
000008d8 bffffcf8*      2175 <EXPANSION END>
                        2176 --line2281
                        2177 ..lin.C.3A.5C_ECU2.5CECU_Rivian_A1.5CTarget.5Crepo_projects.5CpFOTA.5CcL_R2023.2E09.2E01.5Cmake.5Cobj.5Cfbl_mem.132::
                        2178 .LDWlin132:
000008dc 0532           2179 	mov	5,r6
000008de 84070d300000*  2180 	st.b	r6,sdaoff23(_fblMemProgState)[gp]
                        2181 .L4137:
000008e4 840705500000*  2182 	ld.b	sdaoff23(_gErrorStatus)[gp],r10
                        2183 --	    .ef
                        2184 .LDW59:
000008ea 4006ff10       2185 	dispose	0,{r27,r28,r29,r31},[lp]
                        2186 	.type	_FblMemQueueBuffer,@function
                        2187 	.size	_FblMemQueueBuffer,.-_FblMemQueueBuffer
                        2188 	.type	_FblMemQueueBuffer..C.3A.5C_ECU2.5CECU_Rivian_A1.5CTarget.5Crepo_projects.5CpFOTA.5CcL_R2023.2E09.2E01.5Cmake.5Cobj.5Cfbl_mem.,@function
                        2189 	.size	_FblMemQueueBuffer..C.3A.5C_ECU2.5CECU_Rivian_A1.5CTarget.5Crepo_projects.5CpFOTA.5CcL_R2023.2E09.2E01.5Cmake.5Cobj.5Cfbl_mem.,.-_FblMemQueueBuffer..C.3A.5C_ECU2.5CECU_Rivian_A1.5CTarget.5Crepo_projects.5CpFOTA.5CcL_R2023.2E09.2E01.5Cmake.5Cobj.5Cfbl_mem.
                        2190 	.align	2
                        2191 .LDW69:
                        2192 --_retVal	r10	local
                        2193 
                        2194 --_buffer	r27	param
                        2195 --_offset	r29	param
                        2196 --_length	r28	param
                        2197 
                        2198 	.section ".bss","awb"
                        2199 .L4196:
                        2200 	.type	.L4196,@object
                        2201 	.size	.L4196,0
                        2202 	.data
                        2203 	.text
                        2204 	.align	2
                        2205 	.align	2
                        2206 ..gh.f.f.1.e.29:
                        2207 	.type	..gh.f.f.1.e.29,@object
                        2208 	.size	..gh.f.f.1.e.29,0
                        2209 	.global	_FblMemCheckAllowed..C.3A.5C_ECU2.5CECU_Rivian_A1.5CTarget.5Crepo_projects.5CpFOTA.5CcL_R2023.2E09.2E01.5Cmake.5Cobj.5Cfbl_mem.
                        2210 _FblMemCheckAllowed..C.3A.5C_ECU2.5CECU_Rivian_A1.5CTarget.5Crepo_projects.5CpFOTA.5CcL_R2023.2E09.2E01.5Cmake.5Cobj.5Cfbl_mem.:
                        2211 _FblMemCheckAllowed:
000008ee 8007e100       2212 	prepare	{r28,r29,r31},0
000008f2 06e8           2213 	mov	r6,r29

                                                                      Page 43
                                                              C:\Users\nhuliyap\AppData\Local\Temp\gh_00006281.s
000008f4 07e0           2214 	mov	r7,r28
                        2215 --	    .bf
                        2216 .LDW79:
                        2217 	jarl	_FblMemTriggerWatchdog,lp
                        2217 <EXPANSION BEGIN>
                        2217 jarl22 _FblMemTriggerWatchdog , lp 
000008f6 bfff0ef7*      2217 <EXPANSION END>
                        2218 --line2296
                        2219 ..lin.C.3A.5C_ECU2.5CECU_Rivian_A1.5CTarget.5Crepo_projects.5CpFOTA.5CcL_R2023.2E09.2E01.5Cmake.5Cobj.5Cfbl_mem.133::
                        2220 .LDWlin133:
000008fa 840709480000*  2221 	ld.w	sdaoff23(_gAllowedInd)[gp],r9
00000900 1d90           2222 	mov	r29,r18
00000902 4991           2223 	and	r9,r18
00000904 fd91           2224 	cmp	r29,r18
00000906 da05*          2225 	bne	.L4279
                        2226 --line2297
                        2227 ..lin.C.3A.5C_ECU2.5CECU_Rivian_A1.5CTarget.5Crepo_projects.5CpFOTA.5CcL_R2023.2E09.2E01.5Cmake.5Cobj.5Cfbl_mem.134::
                        2228 .LDWlin134:
00000908 3c88           2229 	not	r28,r17
0000090a 4989           2230 	and	r9,r17
0000090c 0052           2231 	mov	0,r10
0000090e b505*          2232 	br	.L4277
                        2233 .L4279:
                        2234 --line2301
                        2235 ..lin.C.3A.5C_ECU2.5CECU_Rivian_A1.5CTarget.5Crepo_projects.5CpFOTA.5CcL_R2023.2E09.2E01.5Cmake.5Cobj.5Cfbl_mem.135::
                        2236 .LDWlin135:
00000910 008a           2237 	mov	0,r17
00000912 0152           2238 	mov	1,r10
                        2239 .L4277:
00000914 84070f880000*  2240 	st.w	r17,sdaoff23(_gAllowedInd)[gp]
                        2241 --	    .ef
                        2242 .LDW89:
0000091a 4006ff00       2243 	dispose	0,{r28,r29,r31},[lp]
                        2244 	.type	_FblMemCheckAllowed,@function
                        2245 	.size	_FblMemCheckAllowed,.-_FblMemCheckAllowed
                        2246 	.type	_FblMemCheckAllowed..C.3A.5C_ECU2.5CECU_Rivian_A1.5CTarget.5Crepo_projects.5CpFOTA.5CcL_R2023.2E09.2E01.5Cmake.5Cobj.5Cfbl_mem.,@function
                        2247 	.size	_FblMemCheckAllowed..C.3A.5C_ECU2.5CECU_Rivian_A1.5CTarget.5Crepo_projects.5CpFOTA.5CcL_R2023.2E09.2E01.5Cmake.5Cobj.5Cfbl_mem.,.-_FblMemCheckAllowed..C.3A.5C_ECU2.5CECU_Rivian_A1.5CTarget.5Crepo_projects.5CpFOTA.5CcL_R2023.2E09.2E01.5Cmake.5Cobj.5Cfbl_mem.
                        2248 	.align	2
                        2249 .LDW99:
                        2250 --_retVal	r10	local
                        2251 
                        2252 --_check	r29	param
                        2253 --_clear	r28	param
                        2254 
                        2255 	.section ".bss","awb"
                        2256 .L4326:
                        2257 	.type	.L4326,@object
                        2258 	.size	.L4326,0
                        2259 	.data
                        2260 	.text
                        2261 	.align	2
                        2262 	.align	2
                        2263 ..gh.f.f.1.e.30:
                        2264 	.type	..gh.f.f.1.e.30,@object
                        2265 	.size	..gh.f.f.1.e.30,0
                        2266 	.global	_FblMemInitPowerOnExt
                        2267 _FblMemInitPowerOnExt:
0000091e 80072100       2268 	prepare	{r31},0
                        2269 --	    .bf
                        2270 .LDW001:
00000922 260600000000*  2271 	mov	sdaoff23(_gGapFillJob),r6

                                                                      Page 44
                                                              C:\Users\nhuliyap\AppData\Local\Temp\gh_00006281.s
00000928 003a           2272 	mov	0,r7
0000092a 20460001       2273 	movea	256,zero,r8
0000092e 024a           2274 	mov	2,r9
                        2275 	jarl	_FblMemInitJob,lp
                        2275 <EXPANSION BEGIN>
                        2275 jarl22 _FblMemInitJob , lp 
00000930 bfffdaf8*      2275 <EXPANSION END>
                        2276 --line2492
                        2277 ..lin.C.3A.5C_ECU2.5CECU_Rivian_A1.5CTarget.5Crepo_projects.5CpFOTA.5CcL_R2023.2E09.2E01.5Cmake.5Cobj.5Cfbl_mem.136::
                        2278 .LDWlin136:
00000934 0790           2279 	mov	r7,r18
                        2280 .L4377:
00000936 04f0           2281 	mov	gp,ep
00000938 d2f1           2282 	add	r18,ep
0000093a 1f8a           2283 	mov	-1,r17
0000093c 4192           2284 	add	1,r18
0000093e 9e070d880000*  2285 	st.b	r17,sdaoff23(_gGapFillBuffer+4)[ep]
00000944 120600ff       2286 	addi	-256,r18,zero
00000948 f9f5*          2287 	bnl	.L4377
                        2288 --line2505
                        2289 ..lin.C.3A.5C_ECU2.5CECU_Rivian_A1.5CTarget.5Crepo_projects.5CpFOTA.5CcL_R2023.2E09.2E01.5Cmake.5Cobj.5Cfbl_mem.137::
                        2290 .LDWlin137:
                        2291 	jarl	_FblMemInitInternal,lp
                        2291 <EXPANSION BEGIN>
                        2291 jarl22 _FblMemInitInternal , lp 
0000094a bfff22f9*      2291 <EXPANSION END>
                        2292 --	    .ef
                        2293 .LDW101:
                        2294 --line2505
                        2295 ..lin.C.3A.5C_ECU2.5CECU_Rivian_A1.5CTarget.5Crepo_projects.5CpFOTA.5CcL_R2023.2E09.2E01.5Cmake.5Cobj.5Cfbl_mem.138::
                        2296 .LDWlin138:
0000094e 40063f00       2297 	dispose	0,{r31},[lp]
                        2298 	.type	_FblMemInitPowerOnExt,@function
                        2299 	.size	_FblMemInitPowerOnExt,.-_FblMemInitPowerOnExt
                        2300 	.align	2
                        2301 .LDW201:
                        2302 --_idx	r18	local
                        2303 
                        2304 --_preambleLen	none	param
                        2305 --_sourceHandle	none	param
                        2306 
                        2307 	.section ".bss","awb"
                        2308 .L4411:
                        2309 	.type	.L4411,@object
                        2310 	.size	.L4411,0
                        2311 	.data
                        2312 	.text
                        2313 	.align	2
                        2314 	.align	2
                        2315 ..gh.f.f.1.e.31:
                        2316 	.type	..gh.f.f.1.e.31,@object
                        2317 	.size	..gh.f.f.1.e.31,0
                        2318 	.global	_FblMemInitPowerOn
                        2319 _FblMemInitPowerOn:
                        2320 --	    .bf
                        2321 .LDW301:
00000952 0232           2322 	mov	2,r6
00000954 003a           2323 	mov	0,r7
00000956 bf07c8ff*      2324 	jr	_FblMemInitPowerOnExt
                        2325 --	    .ef
                        2326 .LDW401:

                                                                      Page 45
                                                              C:\Users\nhuliyap\AppData\Local\Temp\gh_00006281.s
                        2327 	.type	_FblMemInitPowerOn,@function
                        2328 	.size	_FblMemInitPowerOn,.-_FblMemInitPowerOn
                        2329 	.align	2
                        2330 .LDW501:
                        2331 
                        2332 	.section ".bss","awb"
                        2333 .L4465:
                        2334 	.type	.L4465,@object
                        2335 	.size	.L4465,0
                        2336 	.data
                        2337 	.text
                        2338 	.align	2
                        2339 	.align	2
                        2340 ..gh.f.f.1.e.32:
                        2341 	.type	..gh.f.f.1.e.32,@object
                        2342 	.size	..gh.f.f.1.e.32,0
                        2343 	.global	_FblMemInit
                        2344 _FblMemInit:
0000095a 80076100       2345 	prepare	{r29,r31},0
                        2346 --	    .bf
                        2347 .LDW601:
                        2348 	jarl	_FblMemStorePreamble,lp
                        2348 <EXPANSION BEGIN>
                        2348 jarl22 _FblMemStorePreamble , lp 
0000095e bfff52f9*      2348 <EXPANSION END>
                        2349 --line2520
                        2350 ..lin.C.3A.5C_ECU2.5CECU_Rivian_A1.5CTarget.5Crepo_projects.5CpFOTA.5CcL_R2023.2E09.2E01.5Cmake.5Cobj.5Cfbl_mem.139::
                        2351 .LDWlin139:
                        2352 	jarl	_FblMemInitInternal,lp
                        2352 <EXPANSION BEGIN>
                        2352 jarl22 _FblMemInitInternal , lp 
00000962 bfff0af9*      2352 <EXPANSION END>
00000966 0ae8           2353 	mov	r10,r29
                        2354 --line2524
                        2355 ..lin.C.3A.5C_ECU2.5CECU_Rivian_A1.5CTarget.5Crepo_projects.5CpFOTA.5CcL_R2023.2E09.2E01.5Cmake.5Cobj.5Cfbl_mem.140::
                        2356 .LDWlin140:
                        2357 	jarl	_FblMemRestorePreamble,lp
                        2357 <EXPANSION BEGIN>
                        2357 jarl22 _FblMemRestorePreamble , lp 
00000968 bfff62f9*      2357 <EXPANSION END>
                        2358 --	    .ef
                        2359 .LDW701:
                        2360 --line2527
                        2361 ..lin.C.3A.5C_ECU2.5CECU_Rivian_A1.5CTarget.5Crepo_projects.5CpFOTA.5CcL_R2023.2E09.2E01.5Cmake.5Cobj.5Cfbl_mem.141::
                        2362 .LDWlin141:
0000096c 1d50           2363 	mov	r29,r10
0000096e 40067f00       2364 	dispose	0,{r29,r31},[lp]
                        2365 	.type	_FblMemInit,@function
                        2366 	.size	_FblMemInit,.-_FblMemInit
                        2367 	.align	2
                        2368 .LDW801:
                        2369 
                        2370 	.section ".bss","awb"
                        2371 .L4513:
                        2372 	.type	.L4513,@object
                        2373 	.size	.L4513,0
                        2374 	.data
                        2375 	.text
                        2376 	.align	2
                        2377 	.align	2
                        2378 ..gh.f.f.1.e.33:

                                                                      Page 46
                                                              C:\Users\nhuliyap\AppData\Local\Temp\gh_00006281.s
                        2379 	.type	..gh.f.f.1.e.33,@object
                        2380 	.size	..gh.f.f.1.e.33,0
                        2381 	.global	_FblMemDeinit
                        2382 _FblMemDeinit:
                        2383 --	    .bf
                        2384 .LDW901:
00000972 bf07d6f8*      2385 	jr	_FblMemInitStates
                        2386 --	    .ef
                        2387 .LDW011:
                        2388 	.type	_FblMemDeinit,@function
                        2389 	.size	_FblMemDeinit,.-_FblMemDeinit
                        2390 	.align	2
                        2391 .LDW111:
                        2392 
                        2393 	.section ".bss","awb"
                        2394 .L4561:
                        2395 	.type	.L4561,@object
                        2396 	.size	.L4561,0
                        2397 	.data
                        2398 	.text
                        2399 	.align	2
                        2400 	.align	2
                        2401 ..gh.f.f.1.e.34:
                        2402 	.type	..gh.f.f.1.e.34,@object
                        2403 	.size	..gh.f.f.1.e.34,0
                        2404 	.global	_FblMemBlockEraseIndication
                        2405 _FblMemBlockEraseIndication:
00000976 80076100       2406 	prepare	{r29,r31},0
0000097a 06e8           2407 	mov	r6,r29
                        2408 --	    .bf
                        2409 .LDW211:
0000097c 20364000       2410 	movea	64,zero,r6
00000980 003a           2411 	mov	0,r7
                        2412 	jarl	_FblMemCheckAllowed,lp
                        2412 <EXPANSION BEGIN>
                        2412 jarl22 _FblMemCheckAllowed , lp 
00000982 bfff6cff*      2412 <EXPANSION END>
00000986 e051           2413 	cmp	zero,r10
00000988 d205*          2414 	be	.L4582
                        2415 --line2557
                        2416 ..lin.C.3A.5C_ECU2.5CECU_Rivian_A1.5CTarget.5Crepo_projects.5CpFOTA.5CcL_R2023.2E09.2E01.5Cmake.5Cobj.5Cfbl_mem.142::
                        2417 .LDWlin142:
0000098a 20562400       2418 	movea	36,zero,r10
0000098e 40067f00       2419 	dispose	0,{r29,r31},[lp]
                        2420 .L4582:
                        2421 --line2570
                        2422 ..lin.C.3A.5C_ECU2.5CECU_Rivian_A1.5CTarget.5Crepo_projects.5CpFOTA.5CcL_R2023.2E09.2E01.5Cmake.5Cobj.5Cfbl_mem.143::
                        2423 .LDWlin143:
00000992 1df0           2424 	mov	r29,ep
00000994 0035           2425 	sld.w	0[ep],r6
00000996 023d           2426 	sld.w	4[ep],r7
                        2427 	jarl	_FblMemEraseRegionInternal,lp
                        2427 <EXPANSION BEGIN>
                        2427 jarl22 _FblMemEraseRegionInternal , lp 
00000998 bfffc6f9*      2427 <EXPANSION END>
                        2428 --line2578
                        2429 ..lin.C.3A.5C_ECU2.5CECU_Rivian_A1.5CTarget.5Crepo_projects.5CpFOTA.5CcL_R2023.2E09.2E01.5Cmake.5Cobj.5Cfbl_mem.144::
                        2430 .LDWlin144:
0000099c e051           2431 	cmp	zero,r10
0000099e 8a0d*          2432 	bne	.L4580
                        2433 --line2579

                                                                      Page 47
                                                              C:\Users\nhuliyap\AppData\Local\Temp\gh_00006281.s
                        2434 ..lin.C.3A.5C_ECU2.5CECU_Rivian_A1.5CTarget.5Crepo_projects.5CpFOTA.5CcL_R2023.2E09.2E01.5Cmake.5Cobj.5Cfbl_mem.145::
                        2435 .LDWlin145:
000009a0 204e4100       2436 	movea	65,zero,r9
000009a4 84070f480000*  2437 	st.w	r9,sdaoff23(_gAllowedInd)[gp]
000009aa 40067f00       2438 	dispose	0,{r29,r31},[lp]
                        2439 .L4580:
                        2440 --	    .ef
                        2441 .LDW311:
                        2442 --line2582
                        2443 ..lin.C.3A.5C_ECU2.5CECU_Rivian_A1.5CTarget.5Crepo_projects.5CpFOTA.5CcL_R2023.2E09.2E01.5Cmake.5Cobj.5Cfbl_mem.146::
                        2444 .LDWlin146:
000009ae 40067f00       2445 	dispose	0,{r29,r31},[lp]
                        2446 	.type	_FblMemBlockEraseIndication,@function
                        2447 	.size	_FblMemBlockEraseIndication,.-_FblMemBlockEraseIndication
                        2448 	.align	2
                        2449 .LDW411:
                        2450 --_retVal	r10	local
                        2451 
                        2452 --_block	r29	param
                        2453 
                        2454 	.section ".bss","awb"
                        2455 .L4642:
                        2456 	.type	.L4642,@object
                        2457 	.size	.L4642,0
                        2458 	.data
                        2459 	.text
                        2460 	.align	2
                        2461 	.align	2
                        2462 ..gh.f.f.1.e.35:
                        2463 	.type	..gh.f.f.1.e.35,@object
                        2464 	.size	..gh.f.f.1.e.35,0
                        2465 	.global	_FblMemBlockStartIndication
                        2466 _FblMemBlockStartIndication:
000009b2 8007e100       2467 	prepare	{r28,r29,r31},0
000009b6 06e0           2468 	mov	r6,r28
                        2469 --	    .bf
                        2470 .LDW511:
000009b8 0132           2471 	mov	1,r6
000009ba 0638           2472 	mov	r6,r7
                        2473 	jarl	_FblMemCheckAllowed,lp
                        2473 <EXPANSION BEGIN>
                        2473 jarl22 _FblMemCheckAllowed , lp 
000009bc bfff32ff*      2473 <EXPANSION END>
000009c0 e051           2474 	cmp	zero,r10
000009c2 c205*          2475 	be	.L4706
                        2476 --line2599
                        2477 ..lin.C.3A.5C_ECU2.5CECU_Rivian_A1.5CTarget.5Crepo_projects.5CpFOTA.5CcL_R2023.2E09.2E01.5Cmake.5Cobj.5Cfbl_mem.147::
                        2478 .LDWlin147:
000009c4 20ee2400       2479 	movea	36,zero,r29
000009c8 f525*          2480 	br	.L4712
                        2481 .L4706:
                        2482 --line2606
                        2483 ..lin.C.3A.5C_ECU2.5CECU_Rivian_A1.5CTarget.5Crepo_projects.5CpFOTA.5CcL_R2023.2E09.2E01.5Cmake.5Cobj.5Cfbl_mem.148::
                        2484 .LDWlin148:
000009ca 3c4f2900       2485 	ld.w	40[r28],r9
000009ce 0ae8           2486 	mov	r10,r29
000009d0 e049           2487 	cmp	zero,r9
000009d2 ca05*          2488 	bne	.L4713
                        2489 --line2612
                        2490 ..lin.C.3A.5C_ECU2.5CECU_Rivian_A1.5CTarget.5Crepo_projects.5CpFOTA.5CcL_R2023.2E09.2E01.5Cmake.5Cobj.5Cfbl_mem.149::
                        2491 .LDWlin149:

                                                                      Page 48
                                                              C:\Users\nhuliyap\AppData\Local\Temp\gh_00006281.s
000009d4 20ee2200       2492 	movea	34,zero,r29
000009d8 f51d*          2493 	br	.L4712
                        2494 .L4713:
                        2495 --line2619
                        2496 ..lin.C.3A.5C_ECU2.5CECU_Rivian_A1.5CTarget.5Crepo_projects.5CpFOTA.5CcL_R2023.2E09.2E01.5Cmake.5Cobj.5Cfbl_mem.150::
                        2497 .LDWlin150:
000009da 1cf0           2498 	mov	r28,ep
000009dc 320600000000*  2499 	mov	sdaoff23(_gBlockInfo),r18
000009e2 1c463800       2500 	addi	56,r28,r8
                        2501 .L4773:
000009e6 be0709300000   2502 	ld.dw	0[ep],r6
000009ec 48f2           2503 	add	8,ep
000009ee b2070f300000   2504 	st.dw	r6,0[r18]
000009f4 4892           2505 	add	8,r18
000009f6 fe41           2506 	cmp	ep,r8
000009f8 faf5*          2507 	bne	.L4773
000009fa 009d           2508 	sld.w	0[ep],r19
000009fc 729f0100       2509 	st.w	r19,0[r18]
                        2510 --line2623
                        2511 ..lin.C.3A.5C_ECU2.5CECU_Rivian_A1.5CTarget.5Crepo_projects.5CpFOTA.5CcL_R2023.2E09.2E01.5Cmake.5Cobj.5Cfbl_mem.151::
                        2512 .LDWlin151:
00000a00 840709f00000*  2513 	ld.w	sdaoff23(_gBlockInfo+52)[gp],ep
00000a06 0292           2514 	mov	2,r18
00000a08 84070f900000*  2515 	st.w	r18,sdaoff23(_gAllowedInd)[gp]
00000a0e 0105           2516 	sst.w	zero,0[ep]
00000a10 84070f000000*  2517 	st.w	zero,sdaoff23(_gSegInfo+44)[gp]
                        2518 .L4712:
00000a16 1d50           2519 	mov	r29,r10
                        2520 --	    .ef
                        2521 .LDW611:
00000a18 4006ff00       2522 	dispose	0,{r28,r29,r31},[lp]
                        2523 	.type	_FblMemBlockStartIndication,@function
                        2524 	.size	_FblMemBlockStartIndication,.-_FblMemBlockStartIndication
                        2525 	.align	2
                        2526 .LDW711:
                        2527 --_retVal	r29	local
                        2528 
                        2529 --_block	r28	param
                        2530 
                        2531 	.section ".bss","awb"
                        2532 .L4772:
                        2533 	.type	.L4772,@object
                        2534 	.size	.L4772,0
                        2535 	.data
                        2536 	.text
                        2537 	.align	2
                        2538 	.align	2
                        2539 ..gh.f.f.1.e.36:
                        2540 	.type	..gh.f.f.1.e.36,@object
                        2541 	.size	..gh.f.f.1.e.36,0
                        2542 	.global	_FblMemBlockEndIndication
                        2543 _FblMemBlockEndIndication:
00000a1c 8007e110       2544 	prepare	{r27,r28,r29,r31},0
                        2545 --	    .bf
                        2546 .LDW811:
00000a20 20361000       2547 	movea	16,zero,r6
00000a24 0638           2548 	mov	r6,r7
                        2549 	jarl	_FblMemCheckAllowed,lp
                        2549 <EXPANSION BEGIN>
                        2549 jarl22 _FblMemCheckAllowed , lp 
00000a26 bfffc8fe*      2549 <EXPANSION END>

                                                                      Page 49
                                                              C:\Users\nhuliyap\AppData\Local\Temp\gh_00006281.s
00000a2a e051           2550 	cmp	zero,r10
00000a2c c205*          2551 	be	.L4857
                        2552 --line2644
                        2553 ..lin.C.3A.5C_ECU2.5CECU_Rivian_A1.5CTarget.5Crepo_projects.5CpFOTA.5CcL_R2023.2E09.2E01.5Cmake.5Cobj.5Cfbl_mem.152::
                        2554 .LDWlin152:
00000a2e 20de2400       2555 	movea	36,zero,r27
00000a32 8545*          2556 	br	.L4864
                        2557 .L4857:
                        2558 --line2649
                        2559 ..lin.C.3A.5C_ECU2.5CECU_Rivian_A1.5CTarget.5Crepo_projects.5CpFOTA.5CcL_R2023.2E09.2E01.5Cmake.5Cobj.5Cfbl_mem.153::
                        2560 .LDWlin153:
00000a34 840705480000*  2561 	ld.b	sdaoff23(_gSegInfo+16)[gp],r9
00000a3a 0ad8           2562 	mov	r10,r27
00000a3c e049           2563 	cmp	zero,r9
00000a3e d235*          2564 	be	.L4865
                        2565 --line2651
                        2566 ..lin.C.3A.5C_ECU2.5CECU_Rivian_A1.5CTarget.5Crepo_projects.5CpFOTA.5CcL_R2023.2E09.2E01.5Cmake.5Cobj.5Cfbl_mem.154::
                        2567 .LDWlin154:
00000a40 840709380000*  2568 	ld.w	sdaoff23(_gBlockInfo+52)[gp],r7
00000a46 840709f00000*  2569 	ld.w	sdaoff23(_gSegInfo+40)[gp],ep
00000a4c 273f0500       2570 	ld.w	4[r7],r7
00000a50 ecf74202       2571 	mulu	12,ep,zero
00000a54 c7f1           2572 	add	r7,ep
00000a56 02e5           2573 	sld.w	4[ep],r28
00000a58 04ed           2574 	sld.w	8[ep],r29
00000a5a 1c30           2575 	mov	r28,r6
00000a5c 1d38           2576 	mov	r29,r7
                        2577 	jarl	_FblMemPadLength,lp
                        2577 <EXPANSION BEGIN>
                        2577 jarl22 _FblMemPadLength , lp 
00000a5e bfff86f8*      2577 <EXPANSION END>
                        2578 --line2656
                        2579 ..lin.C.3A.5C_ECU2.5CECU_Rivian_A1.5CTarget.5Crepo_projects.5CpFOTA.5CcL_R2023.2E09.2E01.5Cmake.5Cobj.5Cfbl_mem.155::
                        2580 .LDWlin155:
00000a62 3e0600000000*  2581 	mov	sdaoff23(_gBlockInfo),ep
00000a68 0095           2582 	sld.w	0[ep],r18
00000a6a 0235           2583 	sld.w	4[ep],r6
00000a6c cae9           2584 	add	r10,r29
00000a6e c691           2585 	add	r6,r18
00000a70 bc91           2586 	sub	r28,r18
00000a72 bd91           2587 	sub	r29,r18
00000a74 84070f900000*  2588 	st.w	r18,sdaoff23(_gGapFillJob+20)[gp]
00000a7a f215*          2589 	be	.L4865
                        2590 --line2674
                        2591 ..lin.C.3A.5C_ECU2.5CECU_Rivian_A1.5CTarget.5Crepo_projects.5CpFOTA.5CcL_R2023.2E09.2E01.5Cmake.5Cobj.5Cfbl_mem.156::
                        2592 .LDWlin156:
00000a7c 840709400000*  2593 	ld.w	sdaoff23(_gSegInfo+40)[gp],r8
00000a82 3e0600000000*  2594 	mov	sdaoff23(_gGapFillJob),ep
00000a88 dce9           2595 	add	r28,r29
00000a8a 0905           2596 	sst.w	zero,16[ep]
00000a8c 0ded           2597 	sst.w	r29,24[ep]
00000a8e 260600000000*  2598 	mov	sdaoff23(_gProcessingQueue),r6
00000a94 1e38           2599 	mov	ep,r7
                        2600 	jarl	_FblMemQueueDefaultPrioInsert,lp
                        2600 <EXPANSION BEGIN>
                        2600 jarl22 _FblMemQueueDefaultPrioInsert , lp 
00000a96 bfff3ef7*      2600 <EXPANSION END>
                        2601 --line2676
                        2602 ..lin.C.3A.5C_ECU2.5CECU_Rivian_A1.5CTarget.5Crepo_projects.5CpFOTA.5CcL_R2023.2E09.2E01.5Cmake.5Cobj.5Cfbl_mem.157::
                        2603 .LDWlin157:
00000a9a 059a           2604 	mov	5,r19

                                                                      Page 50
                                                              C:\Users\nhuliyap\AppData\Local\Temp\gh_00006281.s
00000a9c 84070d980000*  2605 	st.b	r19,sdaoff23(_fblMemProgState)[gp]
00000aa2 0132           2606 	mov	1,r6
                        2607 	jarl	_FblMemFlushQueueByPrio,lp
                        2607 <EXPANSION BEGIN>
                        2607 jarl22 _FblMemFlushQueueByPrio , lp 
00000aa4 bfffa4fd*      2607 <EXPANSION END>
                        2608 .L4865:
                        2609 --line2693
                        2610 ..lin.C.3A.5C_ECU2.5CECU_Rivian_A1.5CTarget.5Crepo_projects.5CpFOTA.5CcL_R2023.2E09.2E01.5Cmake.5Cobj.5Cfbl_mem.158::
                        2611 .LDWlin158:
00000aa8 20962000       2612 	movea	32,zero,r18
00000aac 84070f900000*  2613 	st.w	r18,sdaoff23(_gAllowedInd)[gp]
                        2614 .L4864:
00000ab2 1b50           2615 	mov	r27,r10
                        2616 --	    .ef
                        2617 .LDW911:
00000ab4 4006ff10       2618 	dispose	0,{r27,r28,r29,r31},[lp]
                        2619 	.type	_FblMemBlockEndIndication,@function
                        2620 	.size	_FblMemBlockEndIndication,.-_FblMemBlockEndIndication
                        2621 	.align	2
                        2622 .LDW021:
                        2623 --_retVal	r27	local
                        2624 --_baseAddress	r28	local
                        2625 --_baseLength	r29	local
                        2626 
                        2627 	.section ".bss","awb"
                        2628 .L4958:
                        2629 	.type	.L4958,@object
                        2630 	.size	.L4958,0
                        2631 	.data
                        2632 	.text
                        2633 	.align	2
                        2634 	.align	2
                        2635 ..gh.f.f.1.e.37:
                        2636 	.type	..gh.f.f.1.e.37,@object
                        2637 	.size	..gh.f.f.1.e.37,0
                        2638 	.global	_FblMemBlockVerify
                        2639 _FblMemBlockVerify:
00000ab8 8007e170       2640 	prepare	{r25,r26,r27,r28,r29,r31},0
00000abc 06c8           2641 	mov	r6,r25
00000abe 07d0           2642 	mov	r7,r26
                        2643 --	    .bf
                        2644 .LDW121:
00000ac0 00e2           2645 	mov	0,r28
00000ac2 20362000       2646 	movea	32,zero,r6
00000ac6 1c38           2647 	mov	r28,r7
                        2648 	jarl	_FblMemCheckAllowed,lp
                        2648 <EXPANSION BEGIN>
                        2648 jarl22 _FblMemCheckAllowed , lp 
00000ac8 bfff26fe*      2648 <EXPANSION END>
00000acc e051           2649 	cmp	zero,r10
00000ace c205*          2650 	be	.L5032
                        2651 --line2722
                        2652 ..lin.C.3A.5C_ECU2.5CECU_Rivian_A1.5CTarget.5Crepo_projects.5CpFOTA.5CcL_R2023.2E09.2E01.5Cmake.5Cobj.5Cfbl_mem.159::
                        2653 .LDWlin159:
00000ad0 20ee2400       2654 	movea	36,zero,r29
00000ad4 953d*          2655 	br	.L5039
                        2656 .L5032:
                        2657 --line2728
                        2658 ..lin.C.3A.5C_ECU2.5CECU_Rivian_A1.5CTarget.5Crepo_projects.5CpFOTA.5CcL_R2023.2E09.2E01.5Cmake.5Cobj.5Cfbl_mem.160::
                        2659 .LDWlin160:

                                                                      Page 51
                                                              C:\Users\nhuliyap\AppData\Local\Temp\gh_00006281.s
00000ad6 840709d80000*  2660 	ld.w	sdaoff23(_gBlockInfo+40)[gp],r27
00000adc 0ae8           2661 	mov	r10,r29
00000ade e0d9           2662 	cmp	zero,r27
00000ae0 c22d*          2663 	be	.L5040
                        2664 --line2731
                        2665 ..lin.C.3A.5C_ECU2.5CECU_Rivian_A1.5CTarget.5Crepo_projects.5CpFOTA.5CcL_R2023.2E09.2E01.5Cmake.5Cobj.5Cfbl_mem.161::
                        2666 .LDWlin161:
00000ae2 3e0600000000*  2667 	mov	sdaoff23(_gBlockInfo),ep
00000ae8 1635           2668 	sld.w	44[ep],r6
00000aea 290600000000*  2669 	mov	_FblMemTriggerWatchdogExt,r9
00000af0 0075           2670 	sld.w	0[ep],r14
00000af2 393f1900       2671 	ld.w	24[r25],r7
00000af6 664f1900       2672 	st.w	r9,24[r6]
00000afa 1845           2673 	sld.w	48[ep],r8
00000afc 840709f00000*  2674 	ld.w	sdaoff23(_gBlockInfo+52)[gp],ep
00000b02 66770900       2675 	st.w	r14,8[r6]
00000b06 663f1100       2676 	st.w	r7,16[r6]
00000b0a 66471d00       2677 	st.w	r8,28[r6]
00000b0e 0095           2678 	sld.w	0[ep],r18
00000b10 029d           2679 	sld.w	4[ep],r19
00000b12 ec974202       2680 	mulu	12,r18,zero
00000b16 d391           2681 	add	r19,r18
00000b18 32f6f8ff       2682 	movea	-8,r18,ep
00000b1c 008d           2683 	sld.w	0[ep],r17
00000b1e 0285           2684 	sld.w	4[ep],r16
00000b20 ae89           2685 	sub	r14,r17
00000b22 d181           2686 	add	r17,r16
00000b24 66870d00       2687 	st.w	r16,12[r6]
00000b28 fbc760f9       2688 	jarl	[r27],lp
00000b2c 0ae0           2689 	mov	r10,r28
                        2690 --line2761
                        2691 ..lin.C.3A.5C_ECU2.5CECU_Rivian_A1.5CTarget.5Crepo_projects.5CpFOTA.5CcL_R2023.2E09.2E01.5Cmake.5Cobj.5Cfbl_mem.162::
                        2692 .LDWlin162:
00000b2e e051           2693 	cmp	zero,r10
00000b30 c205*          2694 	be	.L5040
                        2695 --line2763
                        2696 ..lin.C.3A.5C_ECU2.5CECU_Rivian_A1.5CTarget.5Crepo_projects.5CpFOTA.5CcL_R2023.2E09.2E01.5Cmake.5Cobj.5Cfbl_mem.163::
                        2697 .LDWlin163:
00000b32 20ee1000       2698 	movea	16,zero,r29
00000b36 850d*          2699 	br	.L5039
                        2700 .L5040:
                        2701 --line2780
                        2702 ..lin.C.3A.5C_ECU2.5CECU_Rivian_A1.5CTarget.5Crepo_projects.5CpFOTA.5CcL_R2023.2E09.2E01.5Cmake.5Cobj.5Cfbl_mem.164::
                        2703 .LDWlin164:
00000b38 3e0600000000*  2704 	mov	sdaoff23(_gAllowedInd),ep
00000b3e de370000       2705 	set1	6,0[ep]
00000b42 de070000       2706 	set1	0,0[ep]
                        2707 .L5039:
00000b46 e0d1           2708 	cmp	zero,r26
00000b48 b205*          2709 	be	.L5041
                        2710 --line2784
                        2711 ..lin.C.3A.5C_ECU2.5CECU_Rivian_A1.5CTarget.5Crepo_projects.5CpFOTA.5CcL_R2023.2E09.2E01.5Cmake.5Cobj.5Cfbl_mem.165::
                        2712 .LDWlin165:
00000b4a 5ae70000       2713 	st.b	r28,0[r26]
                        2714 .L5041:
00000b4e 1d50           2715 	mov	r29,r10
                        2716 --	    .ef
                        2717 .LDW221:
00000b50 4006ff70       2718 	dispose	0,{r25,r26,r27,r28,r29,r31},[lp]
                        2719 	.type	_FblMemBlockVerify,@function
                        2720 	.size	_FblMemBlockVerify,.-_FblMemBlockVerify

                                                                      Page 52
                                                              C:\Users\nhuliyap\AppData\Local\Temp\gh_00006281.s
                        2721 	.align	2
                        2722 .LDW321:
                        2723 --_retVal	r29	local
                        2724 --_localResult	r28	local
                        2725 
                        2726 --_verifyData	r25	param
                        2727 --_verifyResult	r26	param
                        2728 
                        2729 	.section ".bss","awb"
                        2730 .L5138:
                        2731 	.type	.L5138,@object
                        2732 	.size	.L5138,0
                        2733 	.data
                        2734 	.text
                        2735 	.align	2
                        2736 	.align	2
                        2737 ..gh.f.f.1.e.38:
                        2738 	.type	..gh.f.f.1.e.38,@object
                        2739 	.size	..gh.f.f.1.e.38,0
                        2740 	.global	_FblMemSegmentStartIndication
                        2741 _FblMemSegmentStartIndication:
00000b54 8007e130       2742 	prepare	{r26,r27,r28,r29,r31},0
00000b58 06e8           2743 	mov	r6,r29
                        2744 --	    .bf
                        2745 .LDW421:
00000b5a 0232           2746 	mov	2,r6
00000b5c 84070d000000*  2747 	st.b	zero,sdaoff23(_gSegInfo+36)[gp]
00000b62 0638           2748 	mov	r6,r7
                        2749 	jarl	_FblMemCheckAllowed,lp
                        2749 <EXPANSION BEGIN>
                        2749 jarl22 _FblMemCheckAllowed , lp 
00000b64 bfff8afd*      2749 <EXPANSION END>
00000b68 e051           2750 	cmp	zero,r10
00000b6a d205*          2751 	be	.L5230
                        2752 --line2811
                        2753 ..lin.C.3A.5C_ECU2.5CECU_Rivian_A1.5CTarget.5Crepo_projects.5CpFOTA.5CcL_R2023.2E09.2E01.5Cmake.5Cobj.5Cfbl_mem.166::
                        2754 .LDWlin166:
00000b6c 20d62400       2755 	movea	36,zero,r26
00000b70 80070c01*      2756 	br	.L5251
                        2757 .L5230:
                        2758 --line2814
                        2759 ..lin.C.3A.5C_ECU2.5CECU_Rivian_A1.5CTarget.5Crepo_projects.5CpFOTA.5CcL_R2023.2E09.2E01.5Cmake.5Cobj.5Cfbl_mem.167::
                        2760 .LDWlin167:
00000b74 3e0600000000*  2761 	mov	sdaoff23(_gBlockInfo+52),ep
00000b7a 007d           2762 	sld.w	0[ep],r15
00000b7c 6448           2763 	sld.bu	4[ep],r9
00000b7e 0ad0           2764 	mov	r10,r26
00000b80 2f470100       2765 	ld.w	0[r15],r8
00000b84 e941           2766 	cmp	r9,r8
00000b86 910d*          2767 	bl	.L5233
                        2768 --line2815
                        2769 ..lin.C.3A.5C_ECU2.5CECU_Rivian_A1.5CTarget.5Crepo_projects.5CpFOTA.5CcL_R2023.2E09.2E01.5Cmake.5Cobj.5Cfbl_mem.168::
                        2770 .LDWlin168:
00000b88 203e2200       2771 	movea	34,zero,r7
00000b8c a4070d380000*  2772 	st.h	r7,sdaoff23(_errStatErrorCode)[gp]
00000b92 20d63100       2773 	movea	49,zero,r26
00000b96 b575*          2774 	br	.L5251
                        2775 .L5233:
                        2776 --line2840
                        2777 ..lin.C.3A.5C_ECU2.5CECU_Rivian_A1.5CTarget.5Crepo_projects.5CpFOTA.5CcL_R2023.2E09.2E01.5Cmake.5Cobj.5Cfbl_mem.169::
                        2778 .LDWlin169:

                                                                      Page 53
                                                              C:\Users\nhuliyap\AppData\Local\Temp\gh_00006281.s
00000b98 bd9f1100       2779 	ld.bu	17[r29],r19
00000b9c e099           2780 	cmp	zero,r19
00000b9e c205*          2781 	be	.L5239
                        2782 --line2854
                        2783 ..lin.C.3A.5C_ECU2.5CECU_Rivian_A1.5CTarget.5Crepo_projects.5CpFOTA.5CcL_R2023.2E09.2E01.5Cmake.5Cobj.5Cfbl_mem.170::
                        2784 .LDWlin170:
00000ba0 20d67000       2785 	movea	112,zero,r26
00000ba4 c56d*          2786 	br	.L5251
                        2787 .L5239:
                        2788 --line2900
                        2789 ..lin.C.3A.5C_ECU2.5CECU_Rivian_A1.5CTarget.5Crepo_projects.5CpFOTA.5CcL_R2023.2E09.2E01.5Cmake.5Cobj.5Cfbl_mem.171::
                        2790 .LDWlin171:
00000ba6 1d971000       2791 	ld.b	16[r29],r18
00000baa e091           2792 	cmp	zero,r18
00000bac 8245*          2793 	be	.L5252
                        2794 --line2902
                        2795 ..lin.C.3A.5C_ECU2.5CECU_Rivian_A1.5CTarget.5Crepo_projects.5CpFOTA.5CcL_R2023.2E09.2E01.5Cmake.5Cobj.5Cfbl_mem.172::
                        2796 .LDWlin172:
00000bae 840709880000*  2797 	ld.w	sdaoff23(_gSegInfo+44)[gp],r17
00000bb4 e089           2798 	cmp	zero,r17
00000bb6 ea05*          2799 	bne	.L5242
                        2800 --line2904
                        2801 ..lin.C.3A.5C_ECU2.5CECU_Rivian_A1.5CTarget.5Crepo_projects.5CpFOTA.5CcL_R2023.2E09.2E01.5Cmake.5Cobj.5Cfbl_mem.173::
                        2802 .LDWlin173:
00000bb8 840709d80000*  2803 	ld.w	sdaoff23(_gBlockInfo)[gp],r27
00000bbe 0ae0           2804 	mov	r10,r28
00000bc0 b50d*          2805 	br	.L5244
                        2806 .L5242:
                        2807 --line2909
                        2808 ..lin.C.3A.5C_ECU2.5CECU_Rivian_A1.5CTarget.5Crepo_projects.5CpFOTA.5CcL_R2023.2E09.2E01.5Cmake.5Cobj.5Cfbl_mem.174::
                        2809 .LDWlin174:
00000bc2 840709f00000*  2810 	ld.w	sdaoff23(_gSegInfo+40)[gp],ep
00000bc8 2f870500       2811 	ld.w	4[r15],r16
00000bcc ecf74202       2812 	mulu	12,ep,zero
00000bd0 d0f1           2813 	add	r16,ep
00000bd2 02dd           2814 	sld.w	4[ep],r27
00000bd4 04e5           2815 	sld.w	8[ep],r28
                        2816 .L5244:
00000bd6 1b30           2817 	mov	r27,r6
00000bd8 1c38           2818 	mov	r28,r7
                        2819 	jarl	_FblMemPadLength,lp
                        2819 <EXPANSION BEGIN>
                        2819 jarl22 _FblMemPadLength , lp 
00000bda bfff0af7*      2819 <EXPANSION END>
                        2820 --line2915
                        2821 ..lin.C.3A.5C_ECU2.5CECU_Rivian_A1.5CTarget.5Crepo_projects.5CpFOTA.5CcL_R2023.2E09.2E01.5Cmake.5Cobj.5Cfbl_mem.175::
                        2822 .LDWlin175:
00000bde 3d7f0100       2823 	ld.w	0[r29],r15
00000be2 cae1           2824 	add	r10,r28
00000be4 fb79           2825 	cmp	r27,r15
00000be6 c905*          2826 	bnl	.L5245
                        2827 --line2915
                        2828 ..lin.C.3A.5C_ECU2.5CECU_Rivian_A1.5CTarget.5Crepo_projects.5CpFOTA.5CcL_R2023.2E09.2E01.5Cmake.5Cobj.5Cfbl_mem.176::
                        2829 .LDWlin176:
00000be8 0132           2830 	mov	1,r6
                        2831 	jarl	_ApplFblFatalError,lp
                        2831 <EXPANSION BEGIN>
                        2831 jarl22 _ApplFblFatalError , lp 
00000bea 80ff0000*      2831 <EXPANSION END>
                        2832 .L5245:
                        2833 --line2916

                                                                      Page 54
                                                              C:\Users\nhuliyap\AppData\Local\Temp\gh_00006281.s
                        2834 ..lin.C.3A.5C_ECU2.5CECU_Rivian_A1.5CTarget.5Crepo_projects.5CpFOTA.5CcL_R2023.2E09.2E01.5Cmake.5Cobj.5Cfbl_mem.177::
                        2835 .LDWlin177:
00000bee 3d870100       2836 	ld.w	0[r29],r16
00000bf2 bb81           2837 	sub	r27,r16
00000bf4 fc81           2838 	cmp	r28,r16
00000bf6 c905*          2839 	bnl	.L5247
                        2840 --line2916
                        2841 ..lin.C.3A.5C_ECU2.5CECU_Rivian_A1.5CTarget.5Crepo_projects.5CpFOTA.5CcL_R2023.2E09.2E01.5Cmake.5Cobj.5Cfbl_mem.178::
                        2842 .LDWlin178:
00000bf8 0132           2843 	mov	1,r6
                        2844 	jarl	_ApplFblFatalError,lp
                        2844 <EXPANSION BEGIN>
                        2844 jarl22 _ApplFblFatalError , lp 
00000bfa 80ff0000*      2844 <EXPANSION END>
                        2845 .L5247:
                        2846 --line2918
                        2847 ..lin.C.3A.5C_ECU2.5CECU_Rivian_A1.5CTarget.5Crepo_projects.5CpFOTA.5CcL_R2023.2E09.2E01.5Cmake.5Cobj.5Cfbl_mem.179::
                        2848 .LDWlin179:
00000bfe 3d970100       2849 	ld.w	0[r29],r18
00000c02 bb91           2850 	sub	r27,r18
00000c04 bc91           2851 	sub	r28,r18
00000c06 84070f900000*  2852 	st.w	r18,sdaoff23(_gGapFillJob+20)[gp]
00000c0c 8215*          2853 	be	.L5252
                        2854 --line2932
                        2855 ..lin.C.3A.5C_ECU2.5CECU_Rivian_A1.5CTarget.5Crepo_projects.5CpFOTA.5CcL_R2023.2E09.2E01.5Cmake.5Cobj.5Cfbl_mem.180::
                        2856 .LDWlin180:
00000c0e 840709400000*  2857 	ld.w	sdaoff23(_gSegInfo+44)[gp],r8
00000c14 3e0600000000*  2858 	mov	sdaoff23(_gGapFillJob),ep
00000c1a dbe1           2859 	add	r27,r28
00000c1c 0905           2860 	sst.w	zero,16[ep]
00000c1e 0de5           2861 	sst.w	r28,24[ep]
00000c20 260600000000*  2862 	mov	sdaoff23(_gProcessingQueue),r6
00000c26 1e38           2863 	mov	ep,r7
                        2864 	jarl	_FblMemQueueDefaultPrioInsert,lp
                        2864 <EXPANSION BEGIN>
                        2864 jarl22 _FblMemQueueDefaultPrioInsert , lp 
00000c28 bfffacf5*      2864 <EXPANSION END>
                        2865 .L5252:
                        2866 --line2951
                        2867 ..lin.C.3A.5C_ECU2.5CECU_Rivian_A1.5CTarget.5Crepo_projects.5CpFOTA.5CcL_R2023.2E09.2E01.5Cmake.5Cobj.5Cfbl_mem.181::
                        2868 .LDWlin181:
00000c2c bd0709700000   2869 	ld.dw	0[r29],r14
00000c32 bd0789600000   2870 	ld.dw	8[r29],r12
00000c38 3d5f1100       2871 	ld.w	16[r29],r11
00000c3c 1df0           2872 	mov	r29,ep
00000c3e a4070f700000*  2873 	st.dw	r14,sdaoff23(_gSegInfo)[gp]
00000c44 a4070f600000*  2874 	st.dw	r12,sdaoff23(_gSegInfo+8)[gp]
00000c4a 84070f580000*  2875 	st.w	r11,sdaoff23(_gSegInfo+16)[gp]
00000c50 0075           2876 	sld.w	0[ep],r14
00000c52 84070f000000*  2877 	st.w	zero,sdaoff23(_gSegInfo+24)[gp]
00000c58 0442           2878 	mov	4,r8
00000c5a 84070f400000*  2879 	st.w	r8,sdaoff23(_gAllowedInd)[gp]
00000c60 84070f700000*  2880 	st.w	r14,sdaoff23(_gSegInfo+20)[gp]
00000c66 0255           2881 	sld.w	4[ep],r10
00000c68 3e0600000000*  2882 	mov	sdaoff23(_gSegInfo),ep
00000c6e 168d           2883 	sld.w	44[ep],r17
00000c70 1175           2884 	sst.w	r14,32[ep]
00000c72 0f55           2885 	sst.w	r10,28[ep]
00000c74 114e0100       2886 	addi	1,r17,r9
00000c78 158d           2887 	sst.w	r17,40[ep]
00000c7a 174d           2888 	sst.w	r9,44[ep]

                                                                      Page 55
                                                              C:\Users\nhuliyap\AppData\Local\Temp\gh_00006281.s
                        2889 .L5251:
00000c7c 1a50           2890 	mov	r26,r10
                        2891 --	    .ef
                        2892 .LDW521:
00000c7e 4006ff30       2893 	dispose	0,{r26,r27,r28,r29,r31},[lp]
                        2894 	.type	_FblMemSegmentStartIndication,@function
                        2895 	.size	_FblMemSegmentStartIndication,.-_FblMemSegmentStartIndication
                        2896 	.align	2
                        2897 .LDW621:
                        2898 --_retVal	r26	local
                        2899 --_baseAddress	r27	local
                        2900 --_baseLength	r28	local
                        2901 
                        2902 --_segment	r29	param
                        2903 
                        2904 	.section ".bss","awb"
                        2905 .L5411:
                        2906 	.type	.L5411,@object
                        2907 	.size	.L5411,0
                        2908 	.data
                        2909 	.text
                        2910 	.align	2
                        2911 	.align	2
                        2912 ..gh.f.f.1.e.39:
                        2913 	.type	..gh.f.f.1.e.39,@object
                        2914 	.size	..gh.f.f.1.e.39,0
                        2915 	.global	_FblMemSegmentEndIndication
                        2916 _FblMemSegmentEndIndication:
00000c82 80076110       2917 	prepare	{r27,r29,r31},0
00000c86 06d8           2918 	mov	r6,r27
                        2919 --	    .bf
                        2920 .LDW721:
00000c88 0832           2921 	mov	8,r6
00000c8a 0c3a           2922 	mov	12,r7
                        2923 	jarl	_FblMemCheckAllowed,lp
                        2923 <EXPANSION BEGIN>
                        2923 jarl22 _FblMemCheckAllowed , lp 
00000c8c bfff62fc*      2923 <EXPANSION END>
00000c90 e051           2924 	cmp	zero,r10
00000c92 c205*          2925 	be	.L5584
                        2926 --line2994
                        2927 ..lin.C.3A.5C_ECU2.5CECU_Rivian_A1.5CTarget.5Crepo_projects.5CpFOTA.5CcL_R2023.2E09.2E01.5Cmake.5Cobj.5Cfbl_mem.182::
                        2928 .LDWlin182:
00000c94 20ee2400       2929 	movea	36,zero,r29
00000c98 f55d*          2930 	br	.L5598
                        2931 .L5584:
00000c9a 0ae8           2932 	mov	r10,r29
                        2933 --line2999
                        2934 ..lin.C.3A.5C_ECU2.5CECU_Rivian_A1.5CTarget.5Crepo_projects.5CpFOTA.5CcL_R2023.2E09.2E01.5Cmake.5Cobj.5Cfbl_mem.183::
                        2935 .LDWlin183:
                        2936 	jarl	_FblMemStorePreamble,lp
                        2936 <EXPANSION BEGIN>
                        2936 jarl22 _FblMemStorePreamble , lp 
00000c9c bfff14f6*      2936 <EXPANSION END>
                        2937 --line3011
                        2938 ..lin.C.3A.5C_ECU2.5CECU_Rivian_A1.5CTarget.5Crepo_projects.5CpFOTA.5CcL_R2023.2E09.2E01.5Cmake.5Cobj.5Cfbl_mem.184::
                        2939 .LDWlin184:
00000ca0 840705480000*  2940 	ld.b	sdaoff23(_fblMemProgState)[gp],r9
00000ca6 614a           2941 	cmp	1,r9
00000ca8 d215*          2942 	be	.L5587
                        2943 --line3038

                                                                      Page 56
                                                              C:\Users\nhuliyap\AppData\Local\Temp\gh_00006281.s
                        2944 ..lin.C.3A.5C_ECU2.5CECU_Rivian_A1.5CTarget.5Crepo_projects.5CpFOTA.5CcL_R2023.2E09.2E01.5Cmake.5Cobj.5Cfbl_mem.185::
                        2945 .LDWlin185:
00000caa 840709400000*  2946 	ld.w	sdaoff23(_gSegInfo+40)[gp],r8
00000cb0 260600000000*  2947 	mov	sdaoff23(_gProcessingQueue),r6
00000cb6 270600000000*  2948 	mov	sdaoff23(_gWriteFinalizeJob),r7
                        2949 	jarl	_FblMemQueueDefaultPrioInsert,lp
                        2949 <EXPANSION BEGIN>
                        2949 jarl22 _FblMemQueueDefaultPrioInsert , lp 
00000cbc bfff18f5*      2949 <EXPANSION END>
                        2950 --line3047
                        2951 ..lin.C.3A.5C_ECU2.5CECU_Rivian_A1.5CTarget.5Crepo_projects.5CpFOTA.5CcL_R2023.2E09.2E01.5Cmake.5Cobj.5Cfbl_mem.186::
                        2952 .LDWlin186:
00000cc0 840709400000*  2953 	ld.w	sdaoff23(_gProcessingQueue+12)[gp],r8
00000cc6 e041           2954 	cmp	zero,r8
00000cc8 d205*          2955 	be	.L5587
                        2956 --line3050
                        2957 ..lin.C.3A.5C_ECU2.5CECU_Rivian_A1.5CTarget.5Crepo_projects.5CpFOTA.5CcL_R2023.2E09.2E01.5Cmake.5Cobj.5Cfbl_mem.187::
                        2958 .LDWlin187:
00000cca 053a           2959 	mov	5,r7
00000ccc 84070d380000*  2960 	st.b	r7,sdaoff23(_fblMemProgState)[gp]
                        2961 .L5587:
00000cd2 0132           2962 	mov	1,r6
                        2963 	jarl	_FblMemFlushQueueByPrio,lp
                        2963 <EXPANSION BEGIN>
                        2963 jarl22 _FblMemFlushQueueByPrio , lp 
00000cd4 bfff74fb*      2963 <EXPANSION END>
                        2964 --line3061
                        2965 ..lin.C.3A.5C_ECU2.5CECU_Rivian_A1.5CTarget.5Crepo_projects.5CpFOTA.5CcL_R2023.2E09.2E01.5Cmake.5Cobj.5Cfbl_mem.188::
                        2966 .LDWlin188:
00000cd8 840705300000*  2967 	ld.b	sdaoff23(_fblMemProgState)[gp],r6
00000cde 6132           2968 	cmp	1,r6
00000ce0 da05*          2969 	bne	.L5591
                        2970 --line3063
                        2971 ..lin.C.3A.5C_ECU2.5CECU_Rivian_A1.5CTarget.5Crepo_projects.5CpFOTA.5CcL_R2023.2E09.2E01.5Cmake.5Cobj.5Cfbl_mem.189::
                        2972 .LDWlin189:
00000ce2 840705e80000*  2973 	ld.b	sdaoff23(_gErrorStatus)[gp],r29
00000ce8 e50d*          2974 	br	.L5593
                        2975 .L5591:
                        2976 --line3078
                        2977 ..lin.C.3A.5C_ECU2.5CECU_Rivian_A1.5CTarget.5Crepo_projects.5CpFOTA.5CcL_R2023.2E09.2E01.5Cmake.5Cobj.5Cfbl_mem.190::
                        2978 .LDWlin190:
00000cea 840709780000*  2979 	ld.w	sdaoff23(_gSegInfo+28)[gp],r15
00000cf0 e079           2980 	cmp	zero,r15
00000cf2 b205*          2981 	be	.L5594
                        2982 --line3081
                        2983 ..lin.C.3A.5C_ECU2.5CECU_Rivian_A1.5CTarget.5Crepo_projects.5CpFOTA.5CcL_R2023.2E09.2E01.5Cmake.5Cobj.5Cfbl_mem.191::
                        2984 .LDWlin191:
00000cf4 20ee2400       2985 	movea	36,zero,r29
                        2986 .L5594:
00000cf8 840709800000*  2987 	ld.w	sdaoff23(_gSegInfo+4)[gp],r16
00000cfe af81           2988 	sub	r15,r16
00000d00 7b870100       2989 	st.w	r16,0[r27]
                        2990 .L5593:
00000d04 e0e9           2991 	cmp	zero,r29
00000d06 ba1d*          2992 	bne	.L5596
                        2993 --line3108
                        2994 ..lin.C.3A.5C_ECU2.5CECU_Rivian_A1.5CTarget.5Crepo_projects.5CpFOTA.5CcL_R2023.2E09.2E01.5Cmake.5Cobj.5Cfbl_mem.192::
                        2995 .LDWlin192:
00000d08 840709900000*  2996 	ld.w	sdaoff23(_gBlockInfo+52)[gp],r18
00000d0e 840709800000*  2997 	ld.w	sdaoff23(_gSegInfo)[gp],r16
00000d14 328f0100       2998 	ld.w	0[r18],r17

                                                                      Page 57
                                                              C:\Users\nhuliyap\AppData\Local\Temp\gh_00006281.s
00000d18 329f0500       2999 	ld.w	4[r18],r19
00000d1c 11f0           3000 	mov	r17,ep
00000d1e ecf74202       3001 	mulu	12,ep,zero
00000d22 116e0100       3002 	addi	1,r17,r13
00000d26 d3f1           3003 	add	r19,ep
00000d28 0385           3004 	sst.w	r16,4[ep]
00000d2a 840709780000*  3005 	ld.w	sdaoff23(_gSegInfo+8)[gp],r15
00000d30 017d           3006 	sst.w	r15,0[ep]
00000d32 3b770100       3007 	ld.w	0[r27],r14
00000d36 0575           3008 	sst.w	r14,8[ep]
00000d38 726f0100       3009 	st.w	r13,0[r18]
                        3010 .L5596:
00000d3c 0262           3011 	mov	2,r12
00000d3e 84070f600000*  3012 	st.w	r12,sdaoff23(_gInputJobs+12)[gp]
                        3013 	jarl	_FblMemRestorePreamble,lp
                        3013 <EXPANSION BEGIN>
                        3013 jarl22 _FblMemRestorePreamble , lp 
00000d44 bfff86f5*      3013 <EXPANSION END>
                        3014 --line3129
                        3015 ..lin.C.3A.5C_ECU2.5CECU_Rivian_A1.5CTarget.5Crepo_projects.5CpFOTA.5CcL_R2023.2E09.2E01.5Cmake.5Cobj.5Cfbl_mem.193::
                        3016 .LDWlin193:
00000d48 e0e9           3017 	cmp	zero,r29
00000d4a ea05*          3018 	bne	.L5598
                        3019 --line3130
                        3020 ..lin.C.3A.5C_ECU2.5CECU_Rivian_A1.5CTarget.5Crepo_projects.5CpFOTA.5CcL_R2023.2E09.2E01.5Cmake.5Cobj.5Cfbl_mem.194::
                        3021 .LDWlin194:
00000d4c 205e1200       3022 	movea	18,zero,r11
00000d50 84070f580000*  3023 	st.w	r11,sdaoff23(_gAllowedInd)[gp]
                        3024 .L5598:
00000d56 1d50           3025 	mov	r29,r10
                        3026 --	    .ef
                        3027 .LDW821:
00000d58 40067f10       3028 	dispose	0,{r27,r29,r31},[lp]
                        3029 	.type	_FblMemSegmentEndIndication,@function
                        3030 	.size	_FblMemSegmentEndIndication,.-_FblMemSegmentEndIndication
                        3031 	.align	2
                        3032 .LDW921:
                        3033 --_retVal	r29	local
                        3034 --_activeSegment	ep	local
                        3035 
                        3036 --_writeLength	r27	param
                        3037 
                        3038 	.section ".bss","awb"
                        3039 .L5710:
                        3040 	.type	.L5710,@object
                        3041 	.size	.L5710,0
                        3042 	.data
                        3043 	.text
                        3044 	.align	2
                        3045 	.align	2
                        3046 ..gh.f.f.1.e.40:
                        3047 	.type	..gh.f.f.1.e.40,@object
                        3048 	.size	..gh.f.f.1.e.40,0
                        3049 	.global	_FblMemDataIndication
                        3050 _FblMemDataIndication:
00000d5c 8007e110       3051 	prepare	{r27,r28,r29,r31},0
00000d60 06e8           3052 	mov	r6,r29
00000d62 07d8           3053 	mov	r7,r27
00000d64 08e0           3054 	mov	r8,r28
                        3055 --	    .bf
                        3056 .LDW031:

                                                                      Page 58
                                                              C:\Users\nhuliyap\AppData\Local\Temp\gh_00006281.s
00000d66 0432           3057 	mov	4,r6
00000d68 0c3a           3058 	mov	12,r7
                        3059 	jarl	_FblMemCheckAllowed,lp
                        3059 <EXPANSION BEGIN>
                        3059 jarl22 _FblMemCheckAllowed , lp 
00000d6a bfff84fb*      3059 <EXPANSION END>
00000d6e e051           3060 	cmp	zero,r10
00000d70 c205*          3061 	be	.L5859
                        3062 --line3151
                        3063 ..lin.C.3A.5C_ECU2.5CECU_Rivian_A1.5CTarget.5Crepo_projects.5CpFOTA.5CcL_R2023.2E09.2E01.5Cmake.5Cobj.5Cfbl_mem.195::
                        3064 .LDWlin195:
00000d72 20ee2400       3065 	movea	36,zero,r29
00000d76 a545*          3066 	br	.L5874
                        3067 .L5859:
                        3068 --line3186
                        3069 ..lin.C.3A.5C_ECU2.5CECU_Rivian_A1.5CTarget.5Crepo_projects.5CpFOTA.5CcL_R2023.2E09.2E01.5Cmake.5Cobj.5Cfbl_mem.196::
                        3070 .LDWlin196:
00000d78 840709480000*  3071 	ld.w	sdaoff23(_gSegInfo+28)[gp],r9
00000d7e fc49           3072 	cmp	r28,r9
00000d80 990d*          3073 	bnl	.L5865
                        3074 --line3189
                        3075 ..lin.C.3A.5C_ECU2.5CECU_Rivian_A1.5CTarget.5Crepo_projects.5CpFOTA.5CcL_R2023.2E09.2E01.5Cmake.5Cobj.5Cfbl_mem.197::
                        3076 .LDWlin197:
00000d82 20465000       3077 	movea	80,zero,r8
00000d86 a4070d400000*  3078 	st.h	r8,sdaoff23(_errStatFblStates)[gp]
00000d8c 20ee7100       3079 	movea	113,zero,r29
00000d90 d535*          3080 	br	.L5874
                        3081 .L5865:
                        3082 --line3199
                        3083 ..lin.C.3A.5C_ECU2.5CECU_Rivian_A1.5CTarget.5Crepo_projects.5CpFOTA.5CcL_R2023.2E09.2E01.5Cmake.5Cobj.5Cfbl_mem.198::
                        3084 .LDWlin198:
                        3085 	jarl	_FblMemStorePreamble,lp
                        3085 <EXPANSION BEGIN>
                        3085 jarl22 _FblMemStorePreamble , lp 
00000d92 bfff1ef5*      3085 <EXPANSION END>
                        3086 --line3202
                        3087 ..lin.C.3A.5C_ECU2.5CECU_Rivian_A1.5CTarget.5Crepo_projects.5CpFOTA.5CcL_R2023.2E09.2E01.5Cmake.5Cobj.5Cfbl_mem.199::
                        3088 .LDWlin199:
00000d96 1d30           3089 	mov	r29,r6
00000d98 1b38           3090 	mov	r27,r7
00000d9a 1c40           3091 	mov	r28,r8
                        3092 	jarl	_FblMemQueueBuffer,lp
                        3092 <EXPANSION BEGIN>
                        3092 jarl22 _FblMemQueueBuffer , lp 
00000d9c bfffdefa*      3092 <EXPANSION END>
00000da0 0ae8           3093 	mov	r10,r29
                        3094 --line3203
                        3095 ..lin.C.3A.5C_ECU2.5CECU_Rivian_A1.5CTarget.5Crepo_projects.5CpFOTA.5CcL_R2023.2E09.2E01.5Cmake.5Cobj.5Cfbl_mem.200::
                        3096 .LDWlin200:
00000da2 e051           3097 	cmp	zero,r10
00000da4 ba25*          3098 	bne	.L5866
                        3099 --line3212
                        3100 ..lin.C.3A.5C_ECU2.5CECU_Rivian_A1.5CTarget.5Crepo_projects.5CpFOTA.5CcL_R2023.2E09.2E01.5Cmake.5Cobj.5Cfbl_mem.201::
                        3101 .LDWlin201:
00000da6 0132           3102 	mov	1,r6
                        3103 	jarl	_FblMemFlushQueueByPrio,lp
                        3103 <EXPANSION BEGIN>
                        3103 jarl22 _FblMemFlushQueueByPrio , lp 
00000da8 bfffa0fa*      3103 <EXPANSION END>
                        3104 --line3215
                        3105 ..lin.C.3A.5C_ECU2.5CECU_Rivian_A1.5CTarget.5Crepo_projects.5CpFOTA.5CcL_R2023.2E09.2E01.5Cmake.5Cobj.5Cfbl_mem.202::

                                                                      Page 59
                                                              C:\Users\nhuliyap\AppData\Local\Temp\gh_00006281.s
                        3106 .LDWlin202:
00000dac 840705380000*  3107 	ld.b	sdaoff23(_fblMemProgState)[gp],r7
00000db2 613a           3108 	cmp	1,r7
00000db4 da05*          3109 	bne	.L5868
                        3110 --line3217
                        3111 ..lin.C.3A.5C_ECU2.5CECU_Rivian_A1.5CTarget.5Crepo_projects.5CpFOTA.5CcL_R2023.2E09.2E01.5Cmake.5Cobj.5Cfbl_mem.203::
                        3112 .LDWlin203:
00000db6 840705e80000*  3113 	ld.b	sdaoff23(_gErrorStatus)[gp],r29
00000dbc f515*          3114 	br	.L5866
                        3115 .L5868:
                        3116 --line3230
                        3117 ..lin.C.3A.5C_ECU2.5CECU_Rivian_A1.5CTarget.5Crepo_projects.5CpFOTA.5CcL_R2023.2E09.2E01.5Cmake.5Cobj.5Cfbl_mem.204::
                        3118 .LDWlin204:
00000dbe 840705980000*  3119 	ld.b	sdaoff23(_gSegInfo+16)[gp],r19
00000dc4 0232           3120 	mov	2,r6
00000dc6 84070f300000*  3121 	st.w	r6,sdaoff23(_gInputJobs+12)[gp]
00000dcc e099           3122 	cmp	zero,r19
00000dce e20d*          3123 	be	.L5866
                        3124 --line3247
                        3125 ..lin.C.3A.5C_ECU2.5CECU_Rivian_A1.5CTarget.5Crepo_projects.5CpFOTA.5CcL_R2023.2E09.2E01.5Cmake.5Cobj.5Cfbl_mem.205::
                        3126 .LDWlin205:
00000dd0 3e0600000000*  3127 	mov	sdaoff23(_gSegInfo),ep
00000dd6 1095           3128 	sld.w	32[ep],r18
00000dd8 d2e1           3129 	add	r18,r28
00000dda 1c90           3130 	mov	r28,r18
00000ddc 9200           3131 	zxb	r18
00000dde 128e0200       3132 	addi	2,r18,r17
00000de2 84070f880000*  3133 	st.w	r17,sdaoff23(_gInputJobs+12)[gp]
00000de8 11e5           3134 	sst.w	r28,32[ep]
                        3135 .L5866:
                        3136 	jarl	_FblMemRestorePreamble,lp
                        3136 <EXPANSION BEGIN>
                        3136 jarl22 _FblMemRestorePreamble , lp 
00000dea bfffe0f4*      3136 <EXPANSION END>
                        3137 --line3262
                        3138 ..lin.C.3A.5C_ECU2.5CECU_Rivian_A1.5CTarget.5Crepo_projects.5CpFOTA.5CcL_R2023.2E09.2E01.5Cmake.5Cobj.5Cfbl_mem.206::
                        3139 .LDWlin206:
00000dee e0e9           3140 	cmp	zero,r29
00000df0 da05*          3141 	bne	.L5874
                        3142 --line3272
                        3143 ..lin.C.3A.5C_ECU2.5CECU_Rivian_A1.5CTarget.5Crepo_projects.5CpFOTA.5CcL_R2023.2E09.2E01.5Cmake.5Cobj.5Cfbl_mem.207::
                        3144 .LDWlin207:
00000df2 0c82           3145 	mov	12,r16
00000df4 84070f800000*  3146 	st.w	r16,sdaoff23(_gAllowedInd)[gp]
                        3147 .L5874:
00000dfa 1d50           3148 	mov	r29,r10
                        3149 --	    .ef
                        3150 .LDW131:
00000dfc 4006ff10       3151 	dispose	0,{r27,r28,r29,r31},[lp]
                        3152 	.type	_FblMemDataIndication,@function
                        3153 	.size	_FblMemDataIndication,.-_FblMemDataIndication
                        3154 	.align	2
                        3155 .LDW231:
                        3156 --_retVal	r29	local
                        3157 
                        3158 --_buffer	r29	param
                        3159 --_offset	r27	param
                        3160 --_length	r28	param
                        3161 
                        3162 	.section ".bss","awb"
                        3163 .L5982:

                                                                      Page 60
                                                              C:\Users\nhuliyap\AppData\Local\Temp\gh_00006281.s
                        3164 	.type	.L5982,@object
                        3165 	.size	.L5982,0
                        3166 	.data
                        3167 	.text
                        3168 	.align	2
                        3169 	.align	2
                        3170 ..gh.f.f.1.e.41:
                        3171 	.type	..gh.f.f.1.e.41,@object
                        3172 	.size	..gh.f.f.1.e.41,0
                        3173 	.global	_FblMemTask
                        3174 _FblMemTask:
                        3175 --	    .bf
                        3176 .LDW331:
                        3177 --	    .ef
                        3178 .LDW431:
00000e00 7f00           3179 	jmp	[lp]
                        3180 	.type	_FblMemTask,@function
                        3181 	.size	_FblMemTask,.-_FblMemTask
                        3182 	.align	2
                        3183 .LDW531:
                        3184 
                        3185 	.section ".bss","awb"
                        3186 .L6128:
                        3187 	.type	.L6128,@object
                        3188 	.size	.L6128,0
                        3189 	.data
                        3190 	.text
                        3191 	.align	2
                        3192 	.align	2
                        3193 ..gh.f.f.1.e.42:
                        3194 	.type	..gh.f.f.1.e.42,@object
                        3195 	.size	..gh.f.f.1.e.42,0
                        3196 	.global	_FblMemFlushInputData
                        3197 _FblMemFlushInputData:
                        3198 --	    .bf
                        3199 .LDW631:
00000e02 0132           3200 	mov	1,r6
00000e04 bf0744fa*      3201 	jr	_FblMemFlushQueueByPrio
                        3202 --	    .ef
                        3203 .LDW731:
                        3204 	.type	_FblMemFlushInputData,@function
                        3205 	.size	_FblMemFlushInputData,.-_FblMemFlushInputData
                        3206 	.align	2
                        3207 .LDW831:
                        3208 
                        3209 	.section ".bss","awb"
                        3210 .L6161:
                        3211 	.type	.L6161,@object
                        3212 	.size	.L6161,0
                        3213 	.data
                        3214 	.text
                        3215 	.section ".RAMCODE","ax"
                        3216 	.align	2
                        3217 ..bof.C.3A.5C_ECU2.5CECU_Rivian_A1.5CTarget.5Crepo_projects.5CpFOTA.5CcL_R2023.2E09.2E01.5Cmake.5Cobj.5Cfbl_mem...43.3A.5C_ECU2.5CECU_Rivian_A1.5CTarget.5Crepo_projects.5CpFOTA.5CcL_R2023.2E09.2E01.5Cmake..64F8647C..1::
                        3218 	.align	2
                        3219 ..gh.f.f.1.e.43:
                        3220 	.type	..gh.f.f.1.e.43,@object
                        3221 	.size	..gh.f.f.1.e.43,0
                        3222 	.global	_FblMemResumeIndication
                        3223 _FblMemResumeIndication:
                        3224 --	    .bf

                                                                      Page 61
                                                              C:\Users\nhuliyap\AppData\Local\Temp\gh_00006281.s
                        3225 .LDW931:
                        3226 --	    .ef
                        3227 .LDW041:
00000000 7f00           3228 	jmp	[lp]
                        3229 	.type	_FblMemResumeIndication,@function
                        3230 	.size	_FblMemResumeIndication,.-_FblMemResumeIndication
                        3231 	.align	2
                        3232 .LDW141:
                        3233 
                        3234 	.section ".bss","awb"
                        3235 .L6208:
                        3236 	.type	.L6208,@object
                        3237 	.size	.L6208,0
                        3238 	.data
                        3239 	.section ".RAMCODE","ax"
                        3240 	.text
                        3241 	.align	2
                        3242 	.align	2
                        3243 ..gh.f.f.1.e.44:
                        3244 	.type	..gh.f.f.1.e.44,@object
                        3245 	.size	..gh.f.f.1.e.44,0
                        3246 	.global	_FblMemEraseRegion
                        3247 _FblMemEraseRegion:
                        3248 --	    .bf
                        3249 .LDW241:
00000e08 bf0756f5*      3250 	jr	_FblMemEraseRegionInternal
                        3251 --	    .ef
                        3252 .LDW341:
                        3253 	.type	_FblMemEraseRegion,@function
                        3254 	.size	_FblMemEraseRegion,.-_FblMemEraseRegion
                        3255 	.align	2
                        3256 .LDW441:
                        3257 
                        3258 --_eraseAddress	r6	param
                        3259 --_eraseLength	r7	param
                        3260 
                        3261 	.section ".bss","awb"
                        3262 .L6241:
                        3263 	.type	.L6241,@object
                        3264 	.size	.L6241,0
                        3265 	.data
                        3266 	.text
                        3267 	.align	2
                        3268 	.align	2
                        3269 ..gh.f.f.1.e.45:
                        3270 	.type	..gh.f.f.1.e.45,@object
                        3271 	.size	..gh.f.f.1.e.45,0
                        3272 	.global	_FblMemProgramBuffer
                        3273 _FblMemProgramBuffer:
00000e0c 80077b000000*  3274 	prepare	{r29,r31},0,sdaoff23(_fblMemProgState)
00000e12 0000*
                        3275 --	    .bf
                        3276 .LDW541:
00000e14 00eb           3277 	sld.b	0[ep],r29
00000e16 054a           3278 	mov	5,r9
00000e18 804b           3279 	sst.b	r9,0[ep]
                        3280 	jarl	_FblMemProgramBufferInternal,lp
                        3280 <EXPANSION BEGIN>
                        3280 jarl22 _FblMemProgramBufferInternal , lp 
00000e1a bfff2ef6*      3280 <EXPANSION END>
                        3281 --line3320

                                                                      Page 62
                                                              C:\Users\nhuliyap\AppData\Local\Temp\gh_00006281.s
                        3282 ..lin.C.3A.5C_ECU2.5CECU_Rivian_A1.5CTarget.5Crepo_projects.5CpFOTA.5CcL_R2023.2E09.2E01.5Cmake.5Cobj.5Cfbl_mem.208::
                        3283 .LDWlin208:
00000e1e 84070de80000*  3284 	st.b	r29,sdaoff23(_fblMemProgState)[gp]
                        3285 --	    .ef
                        3286 .LDW641:
00000e24 40067f00       3287 	dispose	0,{r29,r31},[lp]
                        3288 	.type	_FblMemProgramBuffer,@function
                        3289 	.size	_FblMemProgramBuffer,.-_FblMemProgramBuffer
                        3290 	.align	2
                        3291 .LDW741:
                        3292 --_activeProgState	r29	local
                        3293 
                        3294 --_programAddress	r6	param
                        3295 --_programLength	r7	param
                        3296 --_programData	r8	param
                        3297 
                        3298 	.section ".bss","awb"
                        3299 .L6289:
                        3300 	.type	.L6289,@object
                        3301 	.size	.L6289,0
                        3302 	.data
                        3303 	.text
                        3304 	.align	2
                        3305 	.align	2
                        3306 ..gh.f.f.1.e.46:
                        3307 	.type	..gh.f.f.1.e.46,@object
                        3308 	.size	..gh.f.f.1.e.46,0
                        3309 	.global	_FblMemSetInteger
                        3310 _FblMemSetInteger:
                        3311 --	    .bf
                        3312 .LDW841:
00000e28 e505*          3313 	br	.L6309
                        3314 .L6311:
                        3315 --line3328
                        3316 ..lin.C.3A.5C_ECU2.5CECU_Rivian_A1.5CTarget.5Crepo_projects.5CpFOTA.5CcL_R2023.2E09.2E01.5Cmake.5Cobj.5Cfbl_mem.209::
                        3317 .LDWlin209:
00000e2a 5f32           3318 	add	-1,r6
00000e2c 06f0           3319 	mov	r6,ep
00000e2e c8f1           3320 	add	r8,ep
00000e30 803b           3321 	sst.b	r7,0[ep]
00000e32 883a           3322 	shr	8,r7
                        3323 .L6309:
00000e34 e031           3324 	cmp	zero,r6
00000e36 aafd*          3325 	bne	.L6311
                        3326 --	    .ef
                        3327 .LDW941:
                        3328 --line3334
                        3329 ..lin.C.3A.5C_ECU2.5CECU_Rivian_A1.5CTarget.5Crepo_projects.5CpFOTA.5CcL_R2023.2E09.2E01.5Cmake.5Cobj.5Cfbl_mem.210::
                        3330 .LDWlin210:
00000e38 7f00           3331 	jmp	[lp]
                        3332 	.type	_FblMemSetInteger,@function
                        3333 	.size	_FblMemSetInteger,.-_FblMemSetInteger
                        3334 	.align	2
                        3335 .LDW051:
                        3336 
                        3337 --_count	r6	param
                        3338 --_input	r7	param
                        3339 --_buffer	r8	param
                        3340 
                        3341 	.section ".bss","awb"
                        3342 .L6348:

                                                                      Page 63
                                                              C:\Users\nhuliyap\AppData\Local\Temp\gh_00006281.s
                        3343 	.type	.L6348,@object
                        3344 	.size	.L6348,0
                        3345 	.data
                        3346 	.text
                        3347 	.align	2
                        3348 	.align	2
                        3349 ..gh.f.f.1.e.47:
                        3350 	.type	..gh.f.f.1.e.47,@object
                        3351 	.size	..gh.f.f.1.e.47,0
                        3352 	.global	_FblMemGetInteger
                        3353 _FblMemGetInteger:
                        3354 --	    .bf
                        3355 .LDW151:
00000e3a 0052           3356 	mov	0,r10
00000e3c 0a48           3357 	mov	r10,r9
00000e3e 850d*          3358 	br	.L6389
                        3359 .L6391:
                        3360 --line3346
                        3361 ..lin.C.3A.5C_ECU2.5CECU_Rivian_A1.5CTarget.5Crepo_projects.5CpFOTA.5CcL_R2023.2E09.2E01.5Cmake.5Cobj.5Cfbl_mem.211::
                        3362 .LDWlin211:
00000e40 09f0           3363 	mov	r9,ep
00000e42 c7f1           3364 	add	r7,ep
00000e44 6098           3365 	sld.bu	0[ep],r19
00000e46 c852           3366 	shl	8,r10
00000e48 414a           3367 	add	1,r9
00000e4a 5f32           3368 	add	-1,r6
00000e4c 1351           3369 	or	r19,r10
                        3370 .L6389:
00000e4e e031           3371 	cmp	zero,r6
00000e50 8afd*          3372 	bne	.L6391
                        3373 --	    .ef
                        3374 .LDW251:
                        3375 --line3352
                        3376 ..lin.C.3A.5C_ECU2.5CECU_Rivian_A1.5CTarget.5Crepo_projects.5CpFOTA.5CcL_R2023.2E09.2E01.5Cmake.5Cobj.5Cfbl_mem.212::
                        3377 .LDWlin212:
00000e52 7f00           3378 	jmp	[lp]
                        3379 	.type	_FblMemGetInteger,@function
                        3380 	.size	_FblMemGetInteger,.-_FblMemGetInteger
                        3381 	.align	2
                        3382 .LDW351:
                        3383 --_output	r10	local
                        3384 --_idx	r9	local
                        3385 
                        3386 --_count	r6	param
                        3387 --_buffer	r7	param
                        3388 
                        3389 	.section ".bss","awb"
                        3390 .L6432:
                        3391 	.type	.L6432,@object
                        3392 	.size	.L6432,0
                        3393 	.data
                        3394 	.text
                        3395 	.align	2
                        3396 --_kNrOfFlashBlock	rosdaoff23(_kNrOfFlashBlock)	import
                        3397 --_FlashBlock	rosdaoff23(_FlashBlock)	import
                        3398 --_memSegment	sdaoff23(_memSegment)	import
                        3399 --_errStatErrorCode	sdaoff23(_errStatErrorCode)	import
                        3400 --_errStatFblStates	sdaoff23(_errStatFblStates)	import
                        3401 --_errStatFlashDrvErrorCode	sdaoff23(_errStatFlashDrvErrorCode)	import
                        3402 --_errStatDescriptor	sdaoff23(_errStatDescriptor)	import
                        3403 --_fblDiagStates	sdaoff23(_fblDiagStates)	import

                                                                      Page 64
                                                              C:\Users\nhuliyap\AppData\Local\Temp\gh_00006281.s
                        3404 --_gAllowedInd	sdaoff23(_gAllowedInd)	static
                        3405 --_gErrorStatus	sdaoff23(_gErrorStatus)	static
                        3406 --_gBlockInfo	sdaoff23(_gBlockInfo)	static
                        3407 --_gSegInfo	sdaoff23(_gSegInfo)	static
                        3408 --_gPreambleBuffer	sdaoff23(_gPreambleBuffer)	static
                        3409 --_gRemainderBuffer	sdaoff23(_gRemainderBuffer)	static
                        3410 --_gBasicInputBuffer	sdaoff23(_gBasicInputBuffer)	static
                        3411 --_gInputJobs	sdaoff23(_gInputJobs)	static
                        3412 --_gWriteFinalizeJob	sdaoff23(_gWriteFinalizeJob)	static
                        3413 --_gGapFillJob	sdaoff23(_gGapFillJob)	static
                        3414 --_gGapFillBuffer	sdaoff23(_gGapFillBuffer)	static
                        3415 --_gProcessingQueue	sdaoff23(_gProcessingQueue)	static
                        3416 --_gJobPrio	_gJobPrio	static
                        3417 
                        3418 	.data
                        3419 	.sbss	_fblMemProgState,1,1
                        3420 	.type	_fblMemProgState,@object
                        3421 	.size	_fblMemProgState,1
                        3422 	.ghsnote version,17
                        3423 	.ghsnote tools,3
                        3424 	.ghsnote options,144
                        3425 	.text
                        3426 	.align	2
                        3427 	.section ".RAMCODE","ax"
                        3428 	.align	2
                        3429 	.text
                        3430 ..eof.C.3A.5C_ECU2.5CECU_Rivian_A1.5CTarget.5Crepo_projects.5CpFOTA.5CcL_R2023.2E09.2E01.5Cmake.5Cobj.5Cfbl_mem...43.3A.5C_ECU2.5CECU_Rivian_A1.5CTarget.5Crepo_projects.5CpFOTA.5CcL_R2023.2E09.2E01.5Cmake..64F8647C..0::
                        3431 	.section ".RAMCODE","ax"
                        3432 ..eof.C.3A.5C_ECU2.5CECU_Rivian_A1.5CTarget.5Crepo_projects.5CpFOTA.5CcL_R2023.2E09.2E01.5Cmake.5Cobj.5Cfbl_mem...43.3A.5C_ECU2.5CECU_Rivian_A1.5CTarget.5Crepo_projects.5CpFOTA.5CcL_R2023.2E09.2E01.5Cmake..64F8647C..1::
                        3433 .rh850_flags REGMODE32,DATA_ALIGN8,GP_FIX,EP_NONFIX,TP_FIX,REG2_RESERVE,G3K,SDA_EXTRA_REGS_0
