                                                                      Page 1
                                                              C:\Users\nhuliyap\AppData\Local\Temp\gh_00007ds1.s
Command Line: C:\GHS\comp_201517\ease850.exe -w -stderr=err/fbl_apnv_fee.err -elf -b0 -I../source/_common -I../source/common -I../source/ecuabcanif -I../source/ecuabcantrcv -I../source/ecuabcryif -I../source/ecuabfee -I../source/ecuabmemif -I../source/libautosar -I../source/mcalcan -I../source/mcalcry -I../source/mcaldio -I../source/mcaleep -I../source/mcalfls -I../source/mcalmcu -I../source/projectara -I../source/projectcfg -I../source/projectcompiler -I../source/swcservicebswm -I../source/swcservicecantp -I../source/swcservicecomm -I../source/swcservicecsm -I../source/swcservicedcm -I../source/swcservicedem -I../source/swcservicedet -I../source/swcserviceecum -I../source/swcservicenvm -I../source/swcserviceos -I../source/swcservicepdur -I../source/swcserviceschm -I../source/swcservicestartup -I../source/wrappers/swcservicesecm -I../source/wrappers/vsecprim -I../source/wrappers/vstdlib -Ic:/ghs/comp_201517/ansi -Ic:/ghs/comp_201517/include/v800 -Igendata -IC:\GHS\comp_201517\lib\rh850 -cg_underscore -cpu=rh850g3k -nofpu -no_v850_simd -rh850_fpsimd=none -nomacro -patch_dbo=C:\_ECU2\ECU_Rivian_A1\Target\repo_projects\pFOTA\cL_R2023.09.01\make\obj\fbl_apnv_fee.dbo -source=fbl_apnv_fee.c -o obj\gh_00007ds1.o -list=lst/fbl_apnv_fee.lst C:\Users\nhuliyap\AppData\Local\Temp\gh_00007ds1.s 
Original File: C:\Users\nhuliyap\AppData\Local\Temp\gh_00007ds1.s
Source File: fbl_apnv_fee.c
Directory: C:\_ECU2\ECU_Rivian_A1\Target\repo_projects\pFOTA\cL_R2023.09.01\make
Host OS: Windows
EASE: Copyright (C) 1983-2015 Green Hills Software.  All Rights Reserved.
Release: Compiler v2015.1.7
Build Directory: [Directory] BTOWORKER6:c:/build_2015_1_bto/2015-10-21.2100-2015_1_bto/win32-comp-ecom
Revision: [VCInfo] http://toolsvc/branches/release-branch-70-bto/src@544153 (built by build)
Revision Date: Thu Oct 22 07:50:13 2015

Release Date: Thu Oct 22 09:32:32 2015

                           1 --Driver Command: ccrh850 -DBRS_DERIVATIVE_701018 -DBRS_OSC_CLK=16
                           2 --		-DBRS_TIMEBASE_CLOCK=80 -DBRS_EVA_BOARD_
                           3 --		-DBRS_DERIVATIVE_GROUP_F1L -DBRS_OS_USECASE_BRS
                           4 --		-DBRS_PLATFORM_RH850 -DBRS_COMP_GHS
                           5 --		-DBRS_CPU_LOCAL_RAM_SIZE_CORE0=32
                           6 --		-DBRS_CPU_RAM_START_CORE0=0xFEDF8000 -list=lst/fbl_apnv_fee.lst
                           7 --		-object_dir=obj -stderr=err/fbl_apnv_fee.err -c -cpu=rh850
                           8 --		-sda=all -large_sda -prepare_dispose -pragma_asm_inline -no_callt
                           9 --		-inline_prologue -notda -reserve_r2 -fsoft
                          10 --		--unknown_pragma_warnings -list -g -Ogeneral -shortenum
                          11 --		-registermode=32 -I../source/_common -I../source/common
                          12 --		-I../source/ecuabcanif -I../source/ecuabcantrcv
                          13 --		-I../source/ecuabcryif -I../source/ecuabfee
                          14 --		-I../source/ecuabmemif -I../source/libautosar -I../source/mcalcan
                          15 --		-I../source/mcalcry -I../source/mcaldio -I../source/mcaleep
                          16 --		-I../source/mcalfls -I../source/mcalmcu -I../source/projectara
                          17 --		-I../source/projectcfg -I../source/projectcompiler
                          18 --		-I../source/swcservicebswm -I../source/swcservicecantp
                          19 --		-I../source/swcservicecomm -I../source/swcservicecsm
                          20 --		-I../source/swcservicedcm -I../source/swcservicedem
                          21 --		-I../source/swcservicedet -I../source/swcserviceecum
                          22 --		-I../source/swcservicenvm -I../source/swcserviceos
                          23 --		-I../source/swcservicepdur -I../source/swcserviceschm
                          24 --		-I../source/swcservicestartup -I../source/wrappers/swcservicesecm
                          25 --		-I../source/wrappers/vsecprim -I../source/wrappers/vstdlib
                          26 --		-Ic:/ghs/comp_201517/ansi -Ic:/ghs/comp_201517/include/v800
                          27 --		-Igendata ../source/SwcServiceStartUp/fbl_apnv_fee.c
                          28 --Source File:   ../source/SwcServiceStartUp/fbl_apnv_fee.c
                          29 --Directory:     
                          30 --		C:\_ECU2\ECU_Rivian_A1\Target\repo_projects\pFOTA\cL_R2023.09.01\make
                          31 --Compile Date:  Wed Sep 06 13:37:18 2023
                          32 --Host OS:       Win32
                          33 --Version:       C-RH850 2015.1.7 RELEASE VERSION
                          34 --Release:       Compiler v2015.1.7
                          35 --Revision Date: Thu Oct 22 08:06:12 2015
                          36 --Release Date:  Thu Oct 22 09:34:32 2015
                          37 -- ecom  -g -w -OM
                          38 	.text
                          39 ..bof.C.3A.5C_ECU2.5CECU_Rivian_A1.5CTarget.5Crepo_projects.5CpFOTA.5CcL_R2023.2E09.2E01.5Cmake.5Cobj.5Cfbl_apnv_fee...43.3A.5C_ECU2.5CECU_Rivian_A1.5CTarget.5Crepo_projects.5CpFOTA.5CcL_R2023.2E09.2E01.5Cmake..64F8646E..0::
                          40 	.align	2
                          41 ..gh.f.f.1.e.0:
                          42 	.type	..gh.f.f.1.e.0,@object
                          43 	.size	..gh.f.f.1.e.0,0
                          44 	.global	_ApplFblNvRead..C.3A.5C_ECU2.5CECU_Rivian_A1.5CTarget.5Crepo_projects.5CpFOTA.5CcL_R2023.2E09.2E01.5Cmake.5Cobj.5Cfbl_apnv_fee.
                          45 _ApplFblNvRead..C.3A.5C_ECU2.5CECU_Rivian_A1.5CTarget.5Crepo_projects.5CpFOTA.5CcL_R2023.2E09.2E01.5Cmake.5Cobj.5Cfbl_apnv_fee.:
                          46 _ApplFblNvRead:
00000000 8007e130         47 	prepare	{r26,r27,r28,r29,r31},0
00000004 06d8             48 	mov	r6,r27
00000006 09e0             49 	mov	r9,r28
00000008 db00             50 	zxh	r27

                                                                      Page 2
                                                              C:\Users\nhuliyap\AppData\Local\Temp\gh_00007ds1.s
0000000a c7d6ffff         51 	andi	65535,r7,r26
0000000e 08e8             52 	mov	r8,r29
00000010 dc00             53 	zxh	r28
                          54 --	    .bf
                          55 .LDW01:
00000012 f505*            56 	br	.L4
                          57 .L6:
                          58 --line60
                          59 ..lin.C.3A.5C_ECU2.5CECU_Rivian_A1.5CTarget.5Crepo_projects.5CpFOTA.5CcL_R2023.2E09.2E01.5Cmake.5Cobj.5Cfbl_apnv_fee.1::
                          60 .LDWlin1:
                          61 	jarl	_FblRealTimeSupport,lp
                          61 <EXPANSION BEGIN>
                          61 jarl22 _FblRealTimeSupport , lp 
00000014 80ff0000*        61 <EXPANSION END>
                          62 --line62
                          63 ..lin.C.3A.5C_ECU2.5CECU_Rivian_A1.5CTarget.5Crepo_projects.5CpFOTA.5CcL_R2023.2E09.2E01.5Cmake.5Cobj.5Cfbl_apnv_fee.2::
                          64 .LDWlin2:
                          65 	jarl	_EcuabFee_MainFunction,lp
                          65 <EXPANSION BEGIN>
                          65 jarl22 _EcuabFee_MainFunction , lp 
00000018 80ff0000*        65 <EXPANSION END>
                          66 --line63
                          67 ..lin.C.3A.5C_ECU2.5CECU_Rivian_A1.5CTarget.5Crepo_projects.5CpFOTA.5CcL_R2023.2E09.2E01.5Cmake.5Cobj.5Cfbl_apnv_fee.3::
                          68 .LDWlin3:
                          69 	jarl	_Fls_MainFunction,lp
                          69 <EXPANSION BEGIN>
                          69 jarl22 _Fls_MainFunction , lp 
0000001c 80ff0000*        69 <EXPANSION END>
                          70 .L4:
                          71 --line57
                          72 ..lin.C.3A.5C_ECU2.5CECU_Rivian_A1.5CTarget.5Crepo_projects.5CpFOTA.5CcL_R2023.2E09.2E01.5Cmake.5Cobj.5Cfbl_apnv_fee.4::
                          73 .LDWlin4:
                          74 	jarl	_Fls_GetStatus,lp
                          74 <EXPANSION BEGIN>
                          74 jarl22 _Fls_GetStatus , lp 
00000020 80ff0000*        74 <EXPANSION END>
00000024 6152             75 	cmp	1,r10
00000026 faf5*            76 	bne	.L6
                          77 	jarl	_EcuabFee_GetStatus,lp
                          77 <EXPANSION BEGIN>
                          77 jarl22 _EcuabFee_GetStatus , lp 
00000028 80ff0000*        77 <EXPANSION END>
0000002c 6152             78 	cmp	1,r10
0000002e baf5*            79 	bne	.L6
                          80 	jarl	_EcuabFee_GetJobResult,lp
                          80 <EXPANSION BEGIN>
                          80 jarl22 _EcuabFee_GetJobResult , lp 
00000030 80ff0000*        80 <EXPANSION END>
00000034 6252             81 	cmp	2,r10
00000036 f2ed*            82 	be	.L6
                          83 --line65
                          84 ..lin.C.3A.5C_ECU2.5CECU_Rivian_A1.5CTarget.5Crepo_projects.5CpFOTA.5CcL_R2023.2E09.2E01.5Cmake.5Cobj.5Cfbl_apnv_fee.5::
                          85 .LDWlin5:
00000038 1b30             86 	mov	r27,r6
0000003a 1a38             87 	mov	r26,r7
0000003c 1d40             88 	mov	r29,r8
0000003e 1c48             89 	mov	r28,r9
                          90 	jarl	_EcuabFee_Read,lp
                          90 <EXPANSION BEGIN>
                          90 jarl22 _EcuabFee_Read , lp 
00000040 80ff0000*        90 <EXPANSION END>

                                                                      Page 3
                                                              C:\Users\nhuliyap\AppData\Local\Temp\gh_00007ds1.s
00000044 e051             91 	cmp	zero,r10
00000046 a20d*            92 	be	.L11
                          93 .L9:
                          94 --line98
                          95 ..lin.C.3A.5C_ECU2.5CECU_Rivian_A1.5CTarget.5Crepo_projects.5CpFOTA.5CcL_R2023.2E09.2E01.5Cmake.5Cobj.5Cfbl_apnv_fee.6::
                          96 .LDWlin6:
00000048 0152             97 	mov	1,r10
0000004a 4006ff30         98 	dispose	0,{r26,r27,r28,r29,r31},[lp]
                          99 .L13:
                         100 --line70
                         101 ..lin.C.3A.5C_ECU2.5CECU_Rivian_A1.5CTarget.5Crepo_projects.5CpFOTA.5CcL_R2023.2E09.2E01.5Cmake.5Cobj.5Cfbl_apnv_fee.7::
                         102 .LDWlin7:
                         103 	jarl	_FblRealTimeSupport,lp
                         103 <EXPANSION BEGIN>
                         103 jarl22 _FblRealTimeSupport , lp 
0000004e 80ff0000*       103 <EXPANSION END>
                         104 --line72
                         105 ..lin.C.3A.5C_ECU2.5CECU_Rivian_A1.5CTarget.5Crepo_projects.5CpFOTA.5CcL_R2023.2E09.2E01.5Cmake.5Cobj.5Cfbl_apnv_fee.8::
                         106 .LDWlin8:
                         107 	jarl	_EcuabFee_MainFunction,lp
                         107 <EXPANSION BEGIN>
                         107 jarl22 _EcuabFee_MainFunction , lp 
00000052 80ff0000*       107 <EXPANSION END>
                         108 --line73
                         109 ..lin.C.3A.5C_ECU2.5CECU_Rivian_A1.5CTarget.5Crepo_projects.5CpFOTA.5CcL_R2023.2E09.2E01.5Cmake.5Cobj.5Cfbl_apnv_fee.9::
                         110 .LDWlin9:
                         111 	jarl	_Fls_MainFunction,lp
                         111 <EXPANSION BEGIN>
                         111 jarl22 _Fls_MainFunction , lp 
00000056 80ff0000*       111 <EXPANSION END>
                         112 .L11:
                         113 --line66
                         114 ..lin.C.3A.5C_ECU2.5CECU_Rivian_A1.5CTarget.5Crepo_projects.5CpFOTA.5CcL_R2023.2E09.2E01.5Cmake.5Cobj.5Cfbl_apnv_fee.10::
                         115 .LDWlin10:
                         116 	jarl	_Fls_GetStatus,lp
                         116 <EXPANSION BEGIN>
                         116 jarl22 _Fls_GetStatus , lp 
0000005a 80ff0000*       116 <EXPANSION END>
0000005e 6152            117 	cmp	1,r10
00000060 faf5*           118 	bne	.L13
                         119 	jarl	_EcuabFee_GetStatus,lp
                         119 <EXPANSION BEGIN>
                         119 jarl22 _EcuabFee_GetStatus , lp 
00000062 80ff0000*       119 <EXPANSION END>
00000066 6152            120 	cmp	1,r10
00000068 baf5*           121 	bne	.L13
                         122 	jarl	_EcuabFee_GetJobResult,lp
                         122 <EXPANSION BEGIN>
                         122 jarl22 _EcuabFee_GetJobResult , lp 
0000006a 80ff0000*       122 <EXPANSION END>
0000006e 6252            123 	cmp	2,r10
00000070 f2ed*           124 	be	.L13
                         125 --line77
                         126 ..lin.C.3A.5C_ECU2.5CECU_Rivian_A1.5CTarget.5Crepo_projects.5CpFOTA.5CcL_R2023.2E09.2E01.5Cmake.5Cobj.5Cfbl_apnv_fee.11::
                         127 .LDWlin11:
                         128 	jarl	_EcuabFee_GetJobResult,lp
                         128 <EXPANSION BEGIN>
                         128 jarl22 _EcuabFee_GetJobResult , lp 
00000072 80ff0000*       128 <EXPANSION END>
                         129 --line78
                         130 ..lin.C.3A.5C_ECU2.5CECU_Rivian_A1.5CTarget.5Crepo_projects.5CpFOTA.5CcL_R2023.2E09.2E01.5Cmake.5Cobj.5Cfbl_apnv_fee.12::

                                                                      Page 4
                                                              C:\Users\nhuliyap\AppData\Local\Temp\gh_00007ds1.s
                         131 .LDWlin12:
00000076 0092            132 	mov	0,r18
00000078 e051            133 	cmp	zero,r10
0000007a e20d*           134 	be	.L2
                         135 --line82
                         136 ..lin.C.3A.5C_ECU2.5CECU_Rivian_A1.5CTarget.5Crepo_projects.5CpFOTA.5CcL_R2023.2E09.2E01.5Cmake.5Cobj.5Cfbl_apnv_fee.13::
                         137 .LDWlin13:
0000007c 6452            138 	cmp	4,r10
0000007e 920d*           139 	be	.L25
00000080 6552            140 	cmp	5,r10
00000082 bae5*           141 	bne	.L9
                         142 --line85
                         143 ..lin.C.3A.5C_ECU2.5CECU_Rivian_A1.5CTarget.5Crepo_projects.5CpFOTA.5CcL_R2023.2E09.2E01.5Cmake.5Cobj.5Cfbl_apnv_fee.14::
                         144 .LDWlin14:
00000084 e505*           145 	br	.L25
                         146 .L24:
                         147 --line87
                         148 ..lin.C.3A.5C_ECU2.5CECU_Rivian_A1.5CTarget.5Crepo_projects.5CpFOTA.5CcL_R2023.2E09.2E01.5Cmake.5Cobj.5Cfbl_apnv_fee.15::
                         149 .LDWlin15:
00000086 12f0            150 	mov	r18,ep
00000088 ddf1            151 	add	r29,ep
0000008a 1f4a            152 	mov	-1,r9
0000008c 804b            153 	sst.b	r9,0[ep]
0000008e 4192            154 	add	1,r18
                         155 .L25:
00000090 fc91            156 	cmp	r28,r18
00000092 0052            157 	mov	0,r10
00000094 91fd*           158 	bl	.L24
                         159 .L2:
                         160 --	    .ef
                         161 .LDW11:
                         162 --line90
                         163 ..lin.C.3A.5C_ECU2.5CECU_Rivian_A1.5CTarget.5Crepo_projects.5CpFOTA.5CcL_R2023.2E09.2E01.5Cmake.5Cobj.5Cfbl_apnv_fee.16::
                         164 .LDWlin16:
00000096 4006ff30        165 	dispose	0,{r26,r27,r28,r29,r31},[lp]
                         166 	.type	_ApplFblNvRead,@function
                         167 	.size	_ApplFblNvRead,.-_ApplFblNvRead
                         168 	.type	_ApplFblNvRead..C.3A.5C_ECU2.5CECU_Rivian_A1.5CTarget.5Crepo_projects.5CpFOTA.5CcL_R2023.2E09.2E01.5Cmake.5Cobj.5Cfbl_apnv_fee.,@function
                         169 	.size	_ApplFblNvRead..C.3A.5C_ECU2.5CECU_Rivian_A1.5CTarget.5Crepo_projects.5CpFOTA.5CcL_R2023.2E09.2E01.5Cmake.5Cobj.5Cfbl_apnv_fee.,.-_ApplFblNvRead..C.3A.5C_ECU2.5CECU_Rivian_A1.5CTarget.5Crepo_projects.5CpFOTA.5CcL_R2023.2E09.2E01.5Cmake.5Cobj.5Cfbl_apnv_fee.
                         170 	.align	2
                         171 .LDW21:
                         172 --_result	r10	local
                         173 --_i	r18	local
                         174 --_feeJobResult	r10	local
                         175 
                         176 --_blockNumber	r27	param
                         177 --_blockOffset	r26	param
                         178 --_pBuffer	r29	param
                         179 --_length	r28	param
                         180 
                         181 	.section ".bss","awb"
                         182 .L254:
                         183 	.type	.L254,@object
                         184 	.size	.L254,0
                         185 	.data
                         186 	.text
                         187 	.align	2
                         188 	.align	2
                         189 ..gh.f.f.1.e.1:
                         190 	.type	..gh.f.f.1.e.1,@object
                         191 	.size	..gh.f.f.1.e.1,0

                                                                      Page 5
                                                              C:\Users\nhuliyap\AppData\Local\Temp\gh_00007ds1.s
                         192 	.global	_ApplFblNvWrite..C.3A.5C_ECU2.5CECU_Rivian_A1.5CTarget.5Crepo_projects.5CpFOTA.5CcL_R2023.2E09.2E01.5Cmake.5Cobj.5Cfbl_apnv_fee.
                         193 _ApplFblNvWrite..C.3A.5C_ECU2.5CECU_Rivian_A1.5CTarget.5Crepo_projects.5CpFOTA.5CcL_R2023.2E09.2E01.5Cmake.5Cobj.5Cfbl_apnv_fee.:
                         194 _ApplFblNvWrite:
0000009a 8007e100        195 	prepare	{r28,r29,r31},0
0000009e 06e8            196 	mov	r6,r29
000000a0 dd00            197 	zxh	r29
000000a2 07e0            198 	mov	r7,r28
                         199 --	    .bf
                         200 .LDW31:
000000a4 f505*           201 	br	.L442
                         202 .L444:
                         203 --line111
                         204 ..lin.C.3A.5C_ECU2.5CECU_Rivian_A1.5CTarget.5Crepo_projects.5CpFOTA.5CcL_R2023.2E09.2E01.5Cmake.5Cobj.5Cfbl_apnv_fee.17::
                         205 .LDWlin17:
                         206 	jarl	_FblRealTimeSupport,lp
                         206 <EXPANSION BEGIN>
                         206 jarl22 _FblRealTimeSupport , lp 
000000a6 80ff0000*       206 <EXPANSION END>
                         207 --line113
                         208 ..lin.C.3A.5C_ECU2.5CECU_Rivian_A1.5CTarget.5Crepo_projects.5CpFOTA.5CcL_R2023.2E09.2E01.5Cmake.5Cobj.5Cfbl_apnv_fee.18::
                         209 .LDWlin18:
                         210 	jarl	_EcuabFee_MainFunction,lp
                         210 <EXPANSION BEGIN>
                         210 jarl22 _EcuabFee_MainFunction , lp 
000000aa 80ff0000*       210 <EXPANSION END>
                         211 --line114
                         212 ..lin.C.3A.5C_ECU2.5CECU_Rivian_A1.5CTarget.5Crepo_projects.5CpFOTA.5CcL_R2023.2E09.2E01.5Cmake.5Cobj.5Cfbl_apnv_fee.19::
                         213 .LDWlin19:
                         214 	jarl	_Fls_MainFunction,lp
                         214 <EXPANSION BEGIN>
                         214 jarl22 _Fls_MainFunction , lp 
000000ae 80ff0000*       214 <EXPANSION END>
                         215 .L442:
                         216 --line108
                         217 ..lin.C.3A.5C_ECU2.5CECU_Rivian_A1.5CTarget.5Crepo_projects.5CpFOTA.5CcL_R2023.2E09.2E01.5Cmake.5Cobj.5Cfbl_apnv_fee.20::
                         218 .LDWlin20:
                         219 	jarl	_Fls_GetStatus,lp
                         219 <EXPANSION BEGIN>
                         219 jarl22 _Fls_GetStatus , lp 
000000b2 80ff0000*       219 <EXPANSION END>
000000b6 6152            220 	cmp	1,r10
000000b8 faf5*           221 	bne	.L444
                         222 	jarl	_EcuabFee_GetStatus,lp
                         222 <EXPANSION BEGIN>
                         222 jarl22 _EcuabFee_GetStatus , lp 
000000ba 80ff0000*       222 <EXPANSION END>
000000be 6152            223 	cmp	1,r10
000000c0 baf5*           224 	bne	.L444
                         225 	jarl	_EcuabFee_GetJobResult,lp
                         225 <EXPANSION BEGIN>
                         225 jarl22 _EcuabFee_GetJobResult , lp 
000000c2 80ff0000*       225 <EXPANSION END>
000000c6 6252            226 	cmp	2,r10
000000c8 f2ed*           227 	be	.L444
                         228 --line117
                         229 ..lin.C.3A.5C_ECU2.5CECU_Rivian_A1.5CTarget.5Crepo_projects.5CpFOTA.5CcL_R2023.2E09.2E01.5Cmake.5Cobj.5Cfbl_apnv_fee.21::
                         230 .LDWlin21:
000000ca 1d30            231 	mov	r29,r6
000000cc 1c38            232 	mov	r28,r7
                         233 	jarl	_EcuabFee_Write,lp
                         233 <EXPANSION BEGIN>

                                                                      Page 6
                                                              C:\Users\nhuliyap\AppData\Local\Temp\gh_00007ds1.s
                         233 jarl22 _EcuabFee_Write , lp 
000000ce 80ff0000*       233 <EXPANSION END>
000000d2 e051            234 	cmp	zero,r10
000000d4 fa15*           235 	bne	.L447
000000d6 f505*           236 	br	.L449
                         237 .L451:
                         238 --line122
                         239 ..lin.C.3A.5C_ECU2.5CECU_Rivian_A1.5CTarget.5Crepo_projects.5CpFOTA.5CcL_R2023.2E09.2E01.5Cmake.5Cobj.5Cfbl_apnv_fee.22::
                         240 .LDWlin22:
                         241 	jarl	_FblRealTimeSupport,lp
                         241 <EXPANSION BEGIN>
                         241 jarl22 _FblRealTimeSupport , lp 
000000d8 80ff0000*       241 <EXPANSION END>
                         242 --line124
                         243 ..lin.C.3A.5C_ECU2.5CECU_Rivian_A1.5CTarget.5Crepo_projects.5CpFOTA.5CcL_R2023.2E09.2E01.5Cmake.5Cobj.5Cfbl_apnv_fee.23::
                         244 .LDWlin23:
                         245 	jarl	_EcuabFee_MainFunction,lp
                         245 <EXPANSION BEGIN>
                         245 jarl22 _EcuabFee_MainFunction , lp 
000000dc 80ff0000*       245 <EXPANSION END>
                         246 --line125
                         247 ..lin.C.3A.5C_ECU2.5CECU_Rivian_A1.5CTarget.5Crepo_projects.5CpFOTA.5CcL_R2023.2E09.2E01.5Cmake.5Cobj.5Cfbl_apnv_fee.24::
                         248 .LDWlin24:
                         249 	jarl	_Fls_MainFunction,lp
                         249 <EXPANSION BEGIN>
                         249 jarl22 _Fls_MainFunction , lp 
000000e0 80ff0000*       249 <EXPANSION END>
                         250 .L449:
                         251 --line118
                         252 ..lin.C.3A.5C_ECU2.5CECU_Rivian_A1.5CTarget.5Crepo_projects.5CpFOTA.5CcL_R2023.2E09.2E01.5Cmake.5Cobj.5Cfbl_apnv_fee.25::
                         253 .LDWlin25:
                         254 	jarl	_Fls_GetStatus,lp
                         254 <EXPANSION BEGIN>
                         254 jarl22 _Fls_GetStatus , lp 
000000e4 80ff0000*       254 <EXPANSION END>
000000e8 6152            255 	cmp	1,r10
000000ea faf5*           256 	bne	.L451
                         257 	jarl	_EcuabFee_GetStatus,lp
                         257 <EXPANSION BEGIN>
                         257 jarl22 _EcuabFee_GetStatus , lp 
000000ec 80ff0000*       257 <EXPANSION END>
000000f0 6152            258 	cmp	1,r10
000000f2 baf5*           259 	bne	.L451
                         260 	jarl	_EcuabFee_GetJobResult,lp
                         260 <EXPANSION BEGIN>
                         260 jarl22 _EcuabFee_GetJobResult , lp 
000000f4 80ff0000*       260 <EXPANSION END>
000000f8 6252            261 	cmp	2,r10
000000fa f2ed*           262 	be	.L451
                         263 --line128
                         264 ..lin.C.3A.5C_ECU2.5CECU_Rivian_A1.5CTarget.5Crepo_projects.5CpFOTA.5CcL_R2023.2E09.2E01.5Cmake.5Cobj.5Cfbl_apnv_fee.26::
                         265 .LDWlin26:
                         266 	jarl	_EcuabFee_GetJobResult,lp
                         266 <EXPANSION BEGIN>
                         266 jarl22 _EcuabFee_GetJobResult , lp 
000000fc 80ff0000*       266 <EXPANSION END>
00000100 e051            267 	cmp	zero,r10
                         268 .L447:
                         269 --line138
                         270 ..lin.C.3A.5C_ECU2.5CECU_Rivian_A1.5CTarget.5Crepo_projects.5CpFOTA.5CcL_R2023.2E09.2E01.5Cmake.5Cobj.5Cfbl_apnv_fee.27::
                         271 .LDWlin27:

                                                                      Page 7
                                                              C:\Users\nhuliyap\AppData\Local\Temp\gh_00007ds1.s
00000102 e1571453        272 	cmovne	1,r10,r10
                         273 .L440:
                         274 --	    .ef
                         275 .LDW41:
00000106 4006ff00        276 	dispose	0,{r28,r29,r31},[lp]
                         277 	.type	_ApplFblNvWrite,@function
                         278 	.size	_ApplFblNvWrite,.-_ApplFblNvWrite
                         279 	.type	_ApplFblNvWrite..C.3A.5C_ECU2.5CECU_Rivian_A1.5CTarget.5Crepo_projects.5CpFOTA.5CcL_R2023.2E09.2E01.5Cmake.5Cobj.5Cfbl_apnv_fee.,@function
                         280 	.size	_ApplFblNvWrite..C.3A.5C_ECU2.5CECU_Rivian_A1.5CTarget.5Crepo_projects.5CpFOTA.5CcL_R2023.2E09.2E01.5Cmake.5Cobj.5Cfbl_apnv_fee.,.-_ApplFblNvWrite..C.3A.5C_ECU2.5CECU_Rivian_A1.5CTarget.5Crepo_projects.5CpFOTA.5CcL_R2023.2E09.2E01.5Cmake.5Cobj.5Cfbl_apnv_fee.
                         281 	.align	2
                         282 .LDW51:
                         283 --_result	r10	local
                         284 
                         285 --_blockNumber	r29	param
                         286 --_pBuffer	r28	param
                         287 
                         288 	.section ".bss","awb"
                         289 .L1102:
                         290 	.type	.L1102,@object
                         291 	.size	.L1102,0
                         292 	.data
                         293 	.text
                         294 	.align	2
                         295 	.align	2
                         296 	.align	2
                         297 ..gh.f.f.1.e.2:
                         298 	.type	..gh.f.f.1.e.2,@object
                         299 	.size	..gh.f.f.1.e.2,0
                         300 	.global	_ApplFblNvWriteProcessData
                         301 _ApplFblNvWriteProcessData:
0000010a 8007e110        302 	prepare	{r27,r28,r29,r31},0
0000010e 06e8            303 	mov	r6,r29
00000110 08d8            304 	mov	r8,r27
00000112 dd00            305 	zxh	r29
00000114 07e0            306 	mov	r7,r28
00000116 db00            307 	zxh	r27
                         308 --	    .bf
                         309 .LDW61:
00000118 a40705400000*   310 	ld.bu	sdaoff23(_g_FblNvDataCached)[gp],r8
0000011e e041            311 	cmp	zero,r8
00000120 8a15*           312 	bne	.L1247
                         313 --line153
                         314 ..lin.C.3A.5C_ECU2.5CECU_Rivian_A1.5CTarget.5Crepo_projects.5CpFOTA.5CcL_R2023.2E09.2E01.5Cmake.5Cobj.5Cfbl_apnv_fee.28::
                         315 .LDWlin28:
00000122 0838            316 	mov	r8,r7
00000124 0432            317 	mov	4,r6
00000126 280600000000*   318 	mov	sdaoff23(_g_FblNvData),r8
0000012c 204e2c01        319 	movea	300,zero,r9
                         320 	jarl	_ApplFblNvRead,lp
                         320 <EXPANSION BEGIN>
                         320 jarl22 _ApplFblNvRead , lp 
00000130 bfffd0fe*       320 <EXPANSION END>
                         321 --line158
                         322 ..lin.C.3A.5C_ECU2.5CECU_Rivian_A1.5CTarget.5Crepo_projects.5CpFOTA.5CcL_R2023.2E09.2E01.5Cmake.5Cobj.5Cfbl_apnv_fee.29::
                         323 .LDWlin29:
00000134 e051            324 	cmp	zero,r10
00000136 ca1d*           325 	bne	.L1240
                         326 --line160
                         327 ..lin.C.3A.5C_ECU2.5CECU_Rivian_A1.5CTarget.5Crepo_projects.5CpFOTA.5CcL_R2023.2E09.2E01.5Cmake.5Cobj.5Cfbl_apnv_fee.30::
                         328 .LDWlin30:
00000138 013a            329 	mov	1,r7

                                                                      Page 8
                                                              C:\Users\nhuliyap\AppData\Local\Temp\gh_00007ds1.s
0000013a 84070d380000*   330 	st.b	r7,sdaoff23(_g_FblNvDataCached)[gp]
                         331 .L1247:
00000140 0092            332 	mov	0,r18
00000142 c50d*           333 	br	.L1251
                         334 .L1250:
                         335 --line167
                         336 ..lin.C.3A.5C_ECU2.5CECU_Rivian_A1.5CTarget.5Crepo_projects.5CpFOTA.5CcL_R2023.2E09.2E01.5Cmake.5Cobj.5Cfbl_apnv_fee.31::
                         337 .LDWlin31:
00000144 1248            338 	mov	r18,r9
00000146 dc49            339 	add	r28,r9
00000148 899f0100        340 	ld.bu	0[r9],r19
0000014c 12f0            341 	mov	r18,ep
0000014e ddf1            342 	add	r29,ep
00000150 c4f1            343 	add	gp,ep
00000152 9e070d980000*   344 	st.b	r19,sdaoff23(_g_FblNvData)[ep]
00000158 4192            345 	add	1,r18
                         346 .L1251:
0000015a fb91            347 	cmp	r27,r18
0000015c c1f5*           348 	bl	.L1250
                         349 --line170
                         350 ..lin.C.3A.5C_ECU2.5CECU_Rivian_A1.5CTarget.5Crepo_projects.5CpFOTA.5CcL_R2023.2E09.2E01.5Cmake.5Cobj.5Cfbl_apnv_fee.32::
                         351 .LDWlin32:
0000015e 0432            352 	mov	4,r6
00000160 270600000000*   353 	mov	sdaoff23(_g_FblNvData),r7
                         354 	jarl	_ApplFblNvWrite,lp
                         354 <EXPANSION BEGIN>
                         354 jarl22 _ApplFblNvWrite , lp 
00000166 bfff34ff*       354 <EXPANSION END>
0000016a 4006ff10        355 	dispose	0,{r27,r28,r29,r31},[lp]
                         356 .L1240:
                         357 --	    .ef
                         358 .LDW71:
                         359 --line173
                         360 ..lin.C.3A.5C_ECU2.5CECU_Rivian_A1.5CTarget.5Crepo_projects.5CpFOTA.5CcL_R2023.2E09.2E01.5Cmake.5Cobj.5Cfbl_apnv_fee.33::
                         361 .LDWlin33:
0000016e 4006ff10        362 	dispose	0,{r27,r28,r29,r31},[lp]
                         363 	.type	_ApplFblNvWriteProcessData,@function
                         364 	.size	_ApplFblNvWriteProcessData,.-_ApplFblNvWriteProcessData
                         365 	.align	2
                         366 .LDW81:
                         367 --_result	r10	local
                         368 --_i	r18	local
                         369 
                         370 --_blockOffset	r29	param
                         371 --_pBuffer	r28	param
                         372 --_length	r27	param
                         373 
                         374 	.section ".bss","awb"
                         375 .L1349:
                         376 	.type	.L1349,@object
                         377 	.size	.L1349,0
                         378 	.section ".sbss","awb"
                         379 	.align	4
                         380 	.global	_g_FblNvDataCached..C.3A.5C_ECU2.5CECU_Rivian_A1.5CTarget.5Crepo_projects.5CpFOTA.5CcL_R2023.2E09.2E01.5Cmake.5Cobj.5Cfbl_apnv_fee.
                         381 _g_FblNvDataCached..C.3A.5C_ECU2.5CECU_Rivian_A1.5CTarget.5Crepo_projects.5CpFOTA.5CcL_R2023.2E09.2E01.5Cmake.5Cobj.5Cfbl_apnv_fee.:
00000000 00              382 _g_FblNvDataCached:	.space	1
                         383 	.type	_g_FblNvDataCached..C.3A.5C_ECU2.5CECU_Rivian_A1.5CTarget.5Crepo_projects.5CpFOTA.5CcL_R2023.2E09.2E01.5Cmake.5Cobj.5Cfbl_apnv_fee.,@object
                         384 	.size	_g_FblNvDataCached..C.3A.5C_ECU2.5CECU_Rivian_A1.5CTarget.5Crepo_projects.5CpFOTA.5CcL_R2023.2E09.2E01.5Cmake.5Cobj.5Cfbl_apnv_fee.,1
                         385 	.type	_g_FblNvDataCached,@object
                         386 	.size	_g_FblNvDataCached,1
00000001 000000          387 	.space	3

                                                                      Page 9
                                                              C:\Users\nhuliyap\AppData\Local\Temp\gh_00007ds1.s
                         388 	.global	_g_FblNvData..C.3A.5C_ECU2.5CECU_Rivian_A1.5CTarget.5Crepo_projects.5CpFOTA.5CcL_R2023.2E09.2E01.5Cmake.5Cobj.5Cfbl_apnv_fee.
                         389 _g_FblNvData..C.3A.5C_ECU2.5CECU_Rivian_A1.5CTarget.5Crepo_projects.5CpFOTA.5CcL_R2023.2E09.2E01.5Cmake.5Cobj.5Cfbl_apnv_fee.:
00000004 000000000000    390 _g_FblNvData:	.space	300
0000000a 000000000000 
00000010 000000000000 
00000016 000000000000 
0000001c 000000000000 
00000022 000000000000 
00000028 000000000000 
0000002e 000000000000 
00000034 000000000000 
0000003a 000000000000 
00000040 000000000000 
00000046 000000000000 
0000004c 000000000000 
00000052 000000000000 
00000058 000000000000 
0000005e 000000000000 
00000064 000000000000 
0000006a 000000000000 
00000070 000000000000 
00000076 000000000000 
0000007c 000000000000 
00000082 000000000000 
00000088 000000000000 
0000008e 000000000000 
00000094 000000000000 
0000009a 000000000000 
000000a0 000000000000 
000000a6 000000000000 
000000ac 000000000000 
000000b2 000000000000 
000000b8 000000000000 
000000be 000000000000 
000000c4 000000000000 
000000ca 000000000000 
000000d0 000000000000 
000000d6 000000000000 
000000dc 000000000000 
000000e2 000000000000 
000000e8 000000000000 
000000ee 000000000000 
000000f4 000000000000 
000000fa 000000000000 
00000100 00000000 
                         391 	.type	_g_FblNvData..C.3A.5C_ECU2.5CECU_Rivian_A1.5CTarget.5Crepo_projects.5CpFOTA.5CcL_R2023.2E09.2E01.5Cmake.5Cobj.5Cfbl_apnv_fee.,@object
                         392 	.size	_g_FblNvData..C.3A.5C_ECU2.5CECU_Rivian_A1.5CTarget.5Crepo_projects.5CpFOTA.5CcL_R2023.2E09.2E01.5Cmake.5Cobj.5Cfbl_apnv_fee.,300
                         393 	.type	_g_FblNvData,@object
                         394 	.size	_g_FblNvData,300
                         395 	.data
                         396 	.text
                         397 	.align	2
                         398 	.align	2
                         399 ..gh.f.f.1.e.3:
                         400 	.type	..gh.f.f.1.e.3,@object
                         401 	.size	..gh.f.f.1.e.3,0
                         402 	.global	_ApplFblNvReadProcessData
                         403 _ApplFblNvReadProcessData:
00000172 8007e110        404 	prepare	{r27,r28,r29,r31},0
00000176 06e8            405 	mov	r6,r29
00000178 08d8            406 	mov	r8,r27

                                                                      Page 10
                                                              C:\Users\nhuliyap\AppData\Local\Temp\gh_00007ds1.s
0000017a dd00            407 	zxh	r29
0000017c 07e0            408 	mov	r7,r28
0000017e db00            409 	zxh	r27
                         410 --	    .bf
                         411 .LDW91:
00000180 a40705480000*   412 	ld.bu	sdaoff23(_g_FblNvDataCached)[gp],r9
00000186 0052            413 	mov	0,r10
00000188 e049            414 	cmp	zero,r9
0000018a 8a15*           415 	bne	.L1442
                         416 --line185
                         417 ..lin.C.3A.5C_ECU2.5CECU_Rivian_A1.5CTarget.5Crepo_projects.5CpFOTA.5CcL_R2023.2E09.2E01.5Cmake.5Cobj.5Cfbl_apnv_fee.34::
                         418 .LDWlin34:
0000018c 0938            419 	mov	r9,r7
0000018e 0432            420 	mov	4,r6
00000190 280600000000*   421 	mov	sdaoff23(_g_FblNvData),r8
00000196 204e2c01        422 	movea	300,zero,r9
                         423 	jarl	_ApplFblNvRead,lp
                         423 <EXPANSION BEGIN>
                         423 jarl22 _ApplFblNvRead , lp 
0000019a bfff66fe*       423 <EXPANSION END>
                         424 --line190
                         425 ..lin.C.3A.5C_ECU2.5CECU_Rivian_A1.5CTarget.5Crepo_projects.5CpFOTA.5CcL_R2023.2E09.2E01.5Cmake.5Cobj.5Cfbl_apnv_fee.35::
                         426 .LDWlin35:
0000019e e051            427 	cmp	zero,r10
000001a0 ba15*           428 	bne	.L1441
                         429 --line192
                         430 ..lin.C.3A.5C_ECU2.5CECU_Rivian_A1.5CTarget.5Crepo_projects.5CpFOTA.5CcL_R2023.2E09.2E01.5Cmake.5Cobj.5Cfbl_apnv_fee.36::
                         431 .LDWlin36:
000001a2 0142            432 	mov	1,r8
000001a4 84070d400000*   433 	st.b	r8,sdaoff23(_g_FblNvDataCached)[gp]
                         434 .L1442:
000001aa 0a90            435 	mov	r10,r18
000001ac b50d*           436 	br	.L1446
                         437 .L1445:
                         438 --line199
                         439 ..lin.C.3A.5C_ECU2.5CECU_Rivian_A1.5CTarget.5Crepo_projects.5CpFOTA.5CcL_R2023.2E09.2E01.5Cmake.5Cobj.5Cfbl_apnv_fee.37::
                         440 .LDWlin37:
000001ae 1288            441 	mov	r18,r17
000001b0 dd89            442 	add	r29,r17
000001b2 c489            443 	add	gp,r17
000001b4 b10705300000*   444 	ld.bu	sdaoff23(_g_FblNvData)[r17],r6
000001ba 12f0            445 	mov	r18,ep
000001bc dcf1            446 	add	r28,ep
000001be 4192            447 	add	1,r18
000001c0 8033            448 	sst.b	r6,0[ep]
                         449 .L1446:
000001c2 fb91            450 	cmp	r27,r18
000001c4 d1f5*           451 	bl	.L1445
                         452 .L1441:
                         453 --	    .ef
                         454 .LDW02:
                         455 --line203
                         456 ..lin.C.3A.5C_ECU2.5CECU_Rivian_A1.5CTarget.5Crepo_projects.5CpFOTA.5CcL_R2023.2E09.2E01.5Cmake.5Cobj.5Cfbl_apnv_fee.38::
                         457 .LDWlin38:
000001c6 4006ff10        458 	dispose	0,{r27,r28,r29,r31},[lp]
                         459 	.type	_ApplFblNvReadProcessData,@function
                         460 	.size	_ApplFblNvReadProcessData,.-_ApplFblNvReadProcessData
                         461 	.align	2
                         462 .LDW12:
                         463 --_result	r10	local
                         464 --_i	r18	local

                                                                      Page 11
                                                              C:\Users\nhuliyap\AppData\Local\Temp\gh_00007ds1.s
                         465 
                         466 --_blockOffset	r29	param
                         467 --_pBuffer	r28	param
                         468 --_length	r27	param
                         469 
                         470 	.section ".bss","awb"
                         471 .L1533:
                         472 	.type	.L1533,@object
                         473 	.size	.L1533,0
                         474 	.data
                         475 	.text
                         476 	.align	2
                         477 	.align	2
                         478 ..gh.f.f.1.e.4:
                         479 	.type	..gh.f.f.1.e.4,@object
                         480 	.size	..gh.f.f.1.e.4,0
                         481 	.global	_ApplFblNvWriteMetaData
                         482 _ApplFblNvWriteMetaData:
000001ca 8007e110        483 	prepare	{r27,r28,r29,r31},0
000001ce 07e8            484 	mov	r7,r29
000001d0 09d8            485 	mov	r9,r27
000001d2 dd00            486 	zxh	r29
000001d4 08e0            487 	mov	r8,r28
000001d6 db00            488 	zxh	r27
                         489 --	    .bf
                         490 .LDW22:
000001d8 a40705400000*   491 	ld.bu	sdaoff23(_g_FblNvDataCached)[gp],r8
000001de e041            492 	cmp	zero,r8
000001e0 aa15*           493 	bne	.L1612
                         494 --line216
                         495 ..lin.C.3A.5C_ECU2.5CECU_Rivian_A1.5CTarget.5Crepo_projects.5CpFOTA.5CcL_R2023.2E09.2E01.5Cmake.5Cobj.5Cfbl_apnv_fee.39::
                         496 .LDWlin39:
000001e2 a50705300000*   497 	ld.bu	rosdaoff23(_fblFeeMetaDataBlock)[r5],r6
000001e8 0838            498 	mov	r8,r7
000001ea 280600000000*   499 	mov	sdaoff23(_g_FblNvData),r8
000001f0 204e2c01        500 	movea	300,zero,r9
                         501 	jarl	_ApplFblNvRead,lp
                         501 <EXPANSION BEGIN>
                         501 jarl22 _ApplFblNvRead , lp 
000001f4 bfff0cfe*       501 <EXPANSION END>
                         502 --line221
                         503 ..lin.C.3A.5C_ECU2.5CECU_Rivian_A1.5CTarget.5Crepo_projects.5CpFOTA.5CcL_R2023.2E09.2E01.5Cmake.5Cobj.5Cfbl_apnv_fee.40::
                         504 .LDWlin40:
000001f8 e051            505 	cmp	zero,r10
000001fa ea1d*           506 	bne	.L1605
                         507 --line223
                         508 ..lin.C.3A.5C_ECU2.5CECU_Rivian_A1.5CTarget.5Crepo_projects.5CpFOTA.5CcL_R2023.2E09.2E01.5Cmake.5Cobj.5Cfbl_apnv_fee.41::
                         509 .LDWlin41:
000001fc 013a            510 	mov	1,r7
000001fe 84070d380000*   511 	st.b	r7,sdaoff23(_g_FblNvDataCached)[gp]
                         512 .L1612:
00000204 0092            513 	mov	0,r18
00000206 c50d*           514 	br	.L1616
                         515 .L1615:
                         516 --line230
                         517 ..lin.C.3A.5C_ECU2.5CECU_Rivian_A1.5CTarget.5Crepo_projects.5CpFOTA.5CcL_R2023.2E09.2E01.5Cmake.5Cobj.5Cfbl_apnv_fee.42::
                         518 .LDWlin42:
00000208 1248            519 	mov	r18,r9
0000020a dc49            520 	add	r28,r9
0000020c 899f0100        521 	ld.bu	0[r9],r19
00000210 12f0            522 	mov	r18,ep

                                                                      Page 12
                                                              C:\Users\nhuliyap\AppData\Local\Temp\gh_00007ds1.s
00000212 ddf1            523 	add	r29,ep
00000214 c4f1            524 	add	gp,ep
00000216 9e070d980000*   525 	st.b	r19,sdaoff23(_g_FblNvData)[ep]
0000021c 4192            526 	add	1,r18
                         527 .L1616:
0000021e fb91            528 	cmp	r27,r18
00000220 c1f5*           529 	bl	.L1615
                         530 --line233
                         531 ..lin.C.3A.5C_ECU2.5CECU_Rivian_A1.5CTarget.5Crepo_projects.5CpFOTA.5CcL_R2023.2E09.2E01.5Cmake.5Cobj.5Cfbl_apnv_fee.43::
                         532 .LDWlin43:
00000222 a50705300000*   533 	ld.bu	rosdaoff23(_fblFeeMetaDataBlock)[r5],r6
00000228 270600000000*   534 	mov	sdaoff23(_g_FblNvData),r7
                         535 	jarl	_ApplFblNvWrite,lp
                         535 <EXPANSION BEGIN>
                         535 jarl22 _ApplFblNvWrite , lp 
0000022e bfff6cfe*       535 <EXPANSION END>
00000232 4006ff10        536 	dispose	0,{r27,r28,r29,r31},[lp]
                         537 .L1605:
                         538 --	    .ef
                         539 .LDW32:
                         540 --line236
                         541 ..lin.C.3A.5C_ECU2.5CECU_Rivian_A1.5CTarget.5Crepo_projects.5CpFOTA.5CcL_R2023.2E09.2E01.5Cmake.5Cobj.5Cfbl_apnv_fee.44::
                         542 .LDWlin44:
00000236 4006ff10        543 	dispose	0,{r27,r28,r29,r31},[lp]
                         544 	.type	_ApplFblNvWriteMetaData,@function
                         545 	.size	_ApplFblNvWriteMetaData,.-_ApplFblNvWriteMetaData
                         546 	.align	2
                         547 .LDW42:
                         548 --_result	r10	local
                         549 --_i	r18	local
                         550 
                         551 --_index	none	param
                         552 --_blockOffset	r29	param
                         553 --_pBuffer	r28	param
                         554 --_length	r27	param
                         555 
                         556 	.section ".bss","awb"
                         557 .L1701:
                         558 	.type	.L1701,@object
                         559 	.size	.L1701,0
                         560 	.data
                         561 	.text
                         562 	.align	2
                         563 	.align	2
                         564 ..gh.f.f.1.e.5:
                         565 	.type	..gh.f.f.1.e.5,@object
                         566 	.size	..gh.f.f.1.e.5,0
                         567 	.global	_ApplFblNvReadMetaData
                         568 _ApplFblNvReadMetaData:
0000023a 8007e110        569 	prepare	{r27,r28,r29,r31},0
0000023e 07e8            570 	mov	r7,r29
00000240 09d8            571 	mov	r9,r27
00000242 dd00            572 	zxh	r29
00000244 08e0            573 	mov	r8,r28
00000246 db00            574 	zxh	r27
                         575 --	    .bf
                         576 .LDW52:
00000248 a40705480000*   577 	ld.bu	sdaoff23(_g_FblNvDataCached)[gp],r9
0000024e 0052            578 	mov	0,r10
00000250 e049            579 	cmp	zero,r9
00000252 aa15*           580 	bne	.L1794

                                                                      Page 13
                                                              C:\Users\nhuliyap\AppData\Local\Temp\gh_00007ds1.s
                         581 --line249
                         582 ..lin.C.3A.5C_ECU2.5CECU_Rivian_A1.5CTarget.5Crepo_projects.5CpFOTA.5CcL_R2023.2E09.2E01.5Cmake.5Cobj.5Cfbl_apnv_fee.45::
                         583 .LDWlin45:
00000254 a50705300000*   584 	ld.bu	rosdaoff23(_fblFeeMetaDataBlock)[r5],r6
0000025a 0938            585 	mov	r9,r7
0000025c 280600000000*   586 	mov	sdaoff23(_g_FblNvData),r8
00000262 204e2c01        587 	movea	300,zero,r9
                         588 	jarl	_ApplFblNvRead,lp
                         588 <EXPANSION BEGIN>
                         588 jarl22 _ApplFblNvRead , lp 
00000266 bfff9afd*       588 <EXPANSION END>
                         589 --line254
                         590 ..lin.C.3A.5C_ECU2.5CECU_Rivian_A1.5CTarget.5Crepo_projects.5CpFOTA.5CcL_R2023.2E09.2E01.5Cmake.5Cobj.5Cfbl_apnv_fee.46::
                         591 .LDWlin46:
0000026a e051            592 	cmp	zero,r10
0000026c ba15*           593 	bne	.L1793
                         594 --line256
                         595 ..lin.C.3A.5C_ECU2.5CECU_Rivian_A1.5CTarget.5Crepo_projects.5CpFOTA.5CcL_R2023.2E09.2E01.5Cmake.5Cobj.5Cfbl_apnv_fee.47::
                         596 .LDWlin47:
0000026e 0142            597 	mov	1,r8
00000270 84070d400000*   598 	st.b	r8,sdaoff23(_g_FblNvDataCached)[gp]
                         599 .L1794:
00000276 0a90            600 	mov	r10,r18
00000278 b50d*           601 	br	.L1798
                         602 .L1797:
                         603 --line263
                         604 ..lin.C.3A.5C_ECU2.5CECU_Rivian_A1.5CTarget.5Crepo_projects.5CpFOTA.5CcL_R2023.2E09.2E01.5Cmake.5Cobj.5Cfbl_apnv_fee.48::
                         605 .LDWlin48:
0000027a 1288            606 	mov	r18,r17
0000027c dd89            607 	add	r29,r17
0000027e c489            608 	add	gp,r17
00000280 b10705300000*   609 	ld.bu	sdaoff23(_g_FblNvData)[r17],r6
00000286 12f0            610 	mov	r18,ep
00000288 dcf1            611 	add	r28,ep
0000028a 4192            612 	add	1,r18
0000028c 8033            613 	sst.b	r6,0[ep]
                         614 .L1798:
0000028e fb91            615 	cmp	r27,r18
00000290 d1f5*           616 	bl	.L1797
                         617 .L1793:
                         618 --	    .ef
                         619 .LDW62:
                         620 --line267
                         621 ..lin.C.3A.5C_ECU2.5CECU_Rivian_A1.5CTarget.5Crepo_projects.5CpFOTA.5CcL_R2023.2E09.2E01.5Cmake.5Cobj.5Cfbl_apnv_fee.49::
                         622 .LDWlin49:
00000292 4006ff10        623 	dispose	0,{r27,r28,r29,r31},[lp]
                         624 	.type	_ApplFblNvReadMetaData,@function
                         625 	.size	_ApplFblNvReadMetaData,.-_ApplFblNvReadMetaData
                         626 	.align	2
                         627 .LDW72:
                         628 --_result	r10	local
                         629 --_i	r18	local
                         630 
                         631 --_index	none	param
                         632 --_blockOffset	r29	param
                         633 --_pBuffer	r28	param
                         634 --_length	r27	param
                         635 
                         636 	.section ".bss","awb"
                         637 .L1885:
                         638 	.type	.L1885,@object

                                                                      Page 14
                                                              C:\Users\nhuliyap\AppData\Local\Temp\gh_00007ds1.s
                         639 	.size	.L1885,0
                         640 	.data
                         641 	.text
                         642 	.align	2
                         643 	.align	2
                         644 ..gh.f.f.1.e.6:
                         645 	.type	..gh.f.f.1.e.6,@object
                         646 	.size	..gh.f.f.1.e.6,0
                         647 	.global	_ApplFblNvInit
                         648 _ApplFblNvInit:
00000296 80072100        649 	prepare	{r31},0
                         650 --	    .bf
                         651 .LDW82:
0000029a a40705900000*   652 	ld.bu	sdaoff23(.L2013)[gp],r18
000002a0 e091            653 	cmp	zero,r18
000002a2 ca0d*           654 	bne	.L1959
                         655 --line274
                         656 ..lin.C.3A.5C_ECU2.5CECU_Rivian_A1.5CTarget.5Crepo_projects.5CpFOTA.5CcL_R2023.2E09.2E01.5Cmake.5Cobj.5Cfbl_apnv_fee.50::
                         657 .LDWlin50:
000002a4 260600000000*   658 	mov	rosdaoff23(_Fls_GstConfiguration),r6
                         659 	jarl	_Fls_Init,lp
                         659 <EXPANSION BEGIN>
                         659 jarl22 _Fls_Init , lp 
000002aa 80ff0000*       659 <EXPANSION END>
                         660 --line275
                         661 ..lin.C.3A.5C_ECU2.5CECU_Rivian_A1.5CTarget.5Crepo_projects.5CpFOTA.5CcL_R2023.2E09.2E01.5Cmake.5Cobj.5Cfbl_apnv_fee.51::
                         662 .LDWlin51:
                         663 	jarl	_EcuabFee_Init,lp
                         663 <EXPANSION BEGIN>
                         663 jarl22 _EcuabFee_Init , lp 
000002ae 80ff0000*       663 <EXPANSION END>
                         664 --line276
                         665 ..lin.C.3A.5C_ECU2.5CECU_Rivian_A1.5CTarget.5Crepo_projects.5CpFOTA.5CcL_R2023.2E09.2E01.5Cmake.5Cobj.5Cfbl_apnv_fee.52::
                         666 .LDWlin52:
000002b2 018a            667 	mov	1,r17
000002b4 84070d880000*   668 	st.b	r17,sdaoff23(.L2013)[gp]
                         669 .L1959:
000002ba 0052            670 	mov	0,r10
                         671 --	    .ef
                         672 .LDW92:
000002bc 40063f00        673 	dispose	0,{r31},[lp]
                         674 	.type	_ApplFblNvInit,@function
                         675 	.size	_ApplFblNvInit,.-_ApplFblNvInit
                         676 	.align	2
                         677 .LDW03:
                         678 --_bIsInitialized	sdaoff23(.L2013)	static
                         679 
                         680 	.section ".bss","awb"
                         681 .L1995:
                         682 	.type	.L1995,@object
                         683 	.size	.L1995,0
                         684 	.section ".sdata","aw"
                         685 .L2013:
                         686 	.global	_bIsInitialized.ApplFblNvInit.C.3A.5C_ECU2.5CECU_Rivian_A1.5CTarget.5Crepo_projects.5CpFOTA.5CcL_R2023.2E09.2E01.5Cmake.5Cobj.5Cfbl_apnv_fee..2
                         687 _bIsInitialized.ApplFblNvInit.C.3A.5C_ECU2.5CECU_Rivian_A1.5CTarget.5Crepo_projects.5CpFOTA.5CcL_R2023.2E09.2E01.5Cmake.5Cobj.5Cfbl_apnv_fee..2:
00000000 00              688 	.byte	0
                         689 	.type	_bIsInitialized.ApplFblNvInit.C.3A.5C_ECU2.5CECU_Rivian_A1.5CTarget.5Crepo_projects.5CpFOTA.5CcL_R2023.2E09.2E01.5Cmake.5Cobj.5Cfbl_apnv_fee..2,@object
                         690 	.size	_bIsInitialized.ApplFblNvInit.C.3A.5C_ECU2.5CECU_Rivian_A1.5CTarget.5Crepo_projects.5CpFOTA.5CcL_R2023.2E09.2E01.5Cmake.5Cobj.5Cfbl_apnv_fee..2,1
                         691 	.type	.L2013,@object
                         692 	.size	.L2013,1
                         693 	.data

                                                                      Page 15
                                                              C:\Users\nhuliyap\AppData\Local\Temp\gh_00007ds1.s
                         694 	.text
                         695 	.align	2
                         696 --_Fls_GstConfiguration	rosdaoff23(_Fls_GstConfiguration)	import
                         697 --_g_FblNvDataCached	sdaoff23(_g_FblNvDataCached)	static
                         698 --_g_FblNvData	sdaoff23(_g_FblNvData)	static
                         699 
                         700 	.section ".rosdata","a"
                         701 	.global	_fblFeeMetaDataBlock
00000000 04              702 _fblFeeMetaDataBlock:	.byte	4
                         703 	.type	_fblFeeMetaDataBlock,@object
                         704 	.size	_fblFeeMetaDataBlock,1
                         705 	.data
                         706 	.ghsnote version,17
                         707 	.ghsnote tools,3
                         708 	.ghsnote options,144
                         709 	.text
                         710 	.align	2
                         711 ..eof.C.3A.5C_ECU2.5CECU_Rivian_A1.5CTarget.5Crepo_projects.5CpFOTA.5CcL_R2023.2E09.2E01.5Cmake.5Cobj.5Cfbl_apnv_fee...43.3A.5C_ECU2.5CECU_Rivian_A1.5CTarget.5Crepo_projects.5CpFOTA.5CcL_R2023.2E09.2E01.5Cmake..64F8646E..0::
                         712 .rh850_flags REGMODE32,DATA_ALIGN8,GP_FIX,EP_NONFIX,TP_FIX,REG2_RESERVE,G3K,SDA_EXTRA_REGS_0
