                                                                      Page 1
                                                              C:\Users\nhuliyap\AppData\Local\Temp\gh_00009bg1.s
Command Line: C:\GHS\comp_201517\ease850.exe -w -stderr=err/fbl_apnv.err -elf -b0 -I../source/_common -I../source/common -I../source/ecuabcanif -I../source/ecuabcantrcv -I../source/ecuabcryif -I../source/ecuabfee -I../source/ecuabmemif -I../source/libautosar -I../source/mcalcan -I../source/mcalcry -I../source/mcaldio -I../source/mcaleep -I../source/mcalfls -I../source/mcalmcu -I../source/projectara -I../source/projectcfg -I../source/projectcompiler -I../source/swcservicebswm -I../source/swcservicecantp -I../source/swcservicecomm -I../source/swcservicecsm -I../source/swcservicedcm -I../source/swcservicedem -I../source/swcservicedet -I../source/swcserviceecum -I../source/swcservicenvm -I../source/swcserviceos -I../source/swcservicepdur -I../source/swcserviceschm -I../source/swcservicestartup -I../source/wrappers/swcservicesecm -I../source/wrappers/vsecprim -I../source/wrappers/vstdlib -Ic:/ghs/comp_201517/ansi -Ic:/ghs/comp_201517/include/v800 -Igendata -IC:\GHS\comp_201517\lib\rh850 -cg_underscore -cpu=rh850g3k -nofpu -no_v850_simd -rh850_fpsimd=none -nomacro -patch_dbo=C:\_ECU2\ECU_Rivian_A1\Target\repo_projects\pFOTA\cL_R2023.09.01\make\obj\fbl_apnv.dbo -source=fbl_apnv.c -o obj\gh_00009bg1.o -list=lst/fbl_apnv.lst C:\Users\nhuliyap\AppData\Local\Temp\gh_00009bg1.s 
Original File: C:\Users\nhuliyap\AppData\Local\Temp\gh_00009bg1.s
Source File: fbl_apnv.c
Directory: C:\_ECU2\ECU_Rivian_A1\Target\repo_projects\pFOTA\cL_R2023.09.01\make
Host OS: Windows
EASE: Copyright (C) 1983-2015 Green Hills Software.  All Rights Reserved.
Release: Compiler v2015.1.7
Build Directory: [Directory] BTOWORKER6:c:/build_2015_1_bto/2015-10-21.2100-2015_1_bto/win32-comp-ecom
Revision: [VCInfo] http://toolsvc/branches/release-branch-70-bto/src@544153 (built by build)
Revision Date: Thu Oct 22 07:50:13 2015

Release Date: Thu Oct 22 09:32:32 2015

                           1 --Driver Command: ccrh850 -DBRS_DERIVATIVE_701018 -DBRS_OSC_CLK=16
                           2 --		-DBRS_TIMEBASE_CLOCK=80 -DBRS_EVA_BOARD_
                           3 --		-DBRS_DERIVATIVE_GROUP_F1L -DBRS_OS_USECASE_BRS
                           4 --		-DBRS_PLATFORM_RH850 -DBRS_COMP_GHS
                           5 --		-DBRS_CPU_LOCAL_RAM_SIZE_CORE0=32
                           6 --		-DBRS_CPU_RAM_START_CORE0=0xFEDF8000 -list=lst/fbl_apnv.lst
                           7 --		-object_dir=obj -stderr=err/fbl_apnv.err -c -cpu=rh850 -sda=all
                           8 --		-large_sda -prepare_dispose -pragma_asm_inline -no_callt
                           9 --		-inline_prologue -notda -reserve_r2 -fsoft
                          10 --		--unknown_pragma_warnings -list -g -Ogeneral -shortenum
                          11 --		-registermode=32 -I../source/_common -I../source/common
                          12 --		-I../source/ecuabcanif -I../source/ecuabcantrcv
                          13 --		-I../source/ecuabcryif -I../source/ecuabfee
                          14 --		-I../source/ecuabmemif -I../source/libautosar -I../source/mcalcan
                          15 --		-I../source/mcalcry -I../source/mcaldio -I../source/mcaleep
                          16 --		-I../source/mcalfls -I../source/mcalmcu -I../source/projectara
                          17 --		-I../source/projectcfg -I../source/projectcompiler
                          18 --		-I../source/swcservicebswm -I../source/swcservicecantp
                          19 --		-I../source/swcservicecomm -I../source/swcservicecsm
                          20 --		-I../source/swcservicedcm -I../source/swcservicedem
                          21 --		-I../source/swcservicedet -I../source/swcserviceecum
                          22 --		-I../source/swcservicenvm -I../source/swcserviceos
                          23 --		-I../source/swcservicepdur -I../source/swcserviceschm
                          24 --		-I../source/swcservicestartup -I../source/wrappers/swcservicesecm
                          25 --		-I../source/wrappers/vsecprim -I../source/wrappers/vstdlib
                          26 --		-Ic:/ghs/comp_201517/ansi -Ic:/ghs/comp_201517/include/v800
                          27 --		-Igendata ../source/SwcServiceStartUp/fbl_apnv.c
                          28 --Source File:   ../source/SwcServiceStartUp/fbl_apnv.c
                          29 --Directory:     
                          30 --		C:\_ECU2\ECU_Rivian_A1\Target\repo_projects\pFOTA\cL_R2023.09.01\make
                          31 --Compile Date:  Wed Sep 06 13:37:17 2023
                          32 --Host OS:       Win32
                          33 --Version:       C-RH850 2015.1.7 RELEASE VERSION
                          34 --Release:       Compiler v2015.1.7
                          35 --Revision Date: Thu Oct 22 08:06:12 2015
                          36 --Release Date:  Thu Oct 22 09:34:32 2015
                          37 -- ecom  -g -w -OM
                          38 	.text
                          39 ..bof.C.3A.5C_ECU2.5CECU_Rivian_A1.5CTarget.5Crepo_projects.5CpFOTA.5CcL_R2023.2E09.2E01.5Cmake.5Cobj.5Cfbl_apnv...43.3A.5C_ECU2.5CECU_Rivian_A1.5CTarget.5Crepo_projects.5CpFOTA.5CcL_R2023.2E09.2E01.5Cmake..64F8646D..0::
                          40 	.align	2
                          41 ..gh.f.f.1.e.0:
                          42 	.type	..gh.f.f.1.e.0,@object
                          43 	.size	..gh.f.f.1.e.0,0
                          44 	.global	_ApplFblChgBlockValid..C.3A.5C_ECU2.5CECU_Rivian_A1.5CTarget.5Crepo_projects.5CpFOTA.5CcL_R2023.2E09.2E01.5Cmake.5Cobj.5Cfbl_apnv.
                          45 _ApplFblChgBlockValid..C.3A.5C_ECU2.5CECU_Rivian_A1.5CTarget.5Crepo_projects.5CpFOTA.5CcL_R2023.2E09.2E01.5Cmake.5Cobj.5Cfbl_apnv.:
                          46 _ApplFblChgBlockValid:
00000000 031edcff         47 	addi	-36,sp,sp
00000004 03f0             48 	mov	sp,ep
00000006 07dd             49 	sst.w	r27,12[ep]
00000008 06d8             50 	mov	r6,r27

                                                                      Page 2
                                                              C:\Users\nhuliyap\AppData\Local\Temp\gh_00009bg1.s
0000000a 114d             51 	sst.w	r9,32[ep]
0000000c 0f45             52 	sst.w	r8,28[ep]
0000000e 0d3d             53 	sst.w	r7,24[ep]
00000010 09fd             54 	sst.w	lp,16[ep]
00000012 05e5             55 	sst.w	r28,8[ep]
00000014 03ed             56 	sst.w	r29,4[ep]
00000016 9b00             57 	zxb	r27
                          58 --	    .bf
                          59 .LDW01:
00000018 837f1900         60 	ld.bu	24[sp],r15
0000001c 0142             61 	mov	1,r8
0000001e 08e0             62 	mov	r8,r28
00000020 0332             63 	mov	3,r6
00000022 cf860700         64 	andi	7,r15,r16
00000026 f047c2e8         65 	shl	r16,r8,r29
0000002a 233e0200         66 	movea	2,sp,r7
                          67 	jarl	_ApplFblNvReadProcessData,lp
                          67 <EXPANSION BEGIN>
                          67 jarl22 _ApplFblNvReadProcessData , lp 
0000002e 80ff0000*        67 <EXPANSION END>
00000032 e051             68 	cmp	zero,r10
00000034 9a25*            69 	bne	.L4
                          70 --line57
                          71 ..lin.C.3A.5C_ECU2.5CECU_Rivian_A1.5CTarget.5Crepo_projects.5CpFOTA.5CcL_R2023.2E09.2E01.5Cmake.5Cobj.5Cfbl_apnv.1::
                          72 .LDWlin1:
00000036 03f0             73 	mov	sp,ep
00000038 6288             74 	sld.bu	2[ep],r17
0000003a 61da             75 	cmp	1,r27
0000003c da05*            76 	bne	.L6
                          77 --line59
                          78 ..lin.C.3A.5C_ECU2.5CECU_Rivian_A1.5CTarget.5Crepo_projects.5CpFOTA.5CcL_R2023.2E09.2E01.5Cmake.5Cobj.5Cfbl_apnv.2::
                          79 .LDWlin2:
0000003e bd4eff00         80 	xori	255,r29,r9
00000042 4989             81 	and	r9,r17
00000044 a505*            82 	br	.L8
                          83 .L6:
                          84 --line63
                          85 ..lin.C.3A.5C_ECU2.5CECU_Rivian_A1.5CTarget.5Crepo_projects.5CpFOTA.5CcL_R2023.2E09.2E01.5Cmake.5Cobj.5Cfbl_apnv.3::
                          86 .LDWlin3:
00000046 1d89             87 	or	r29,r17
                          88 .L8:
00000048 828b             89 	sst.b	r17,2[ep]
0000004a 0332             90 	mov	3,r6
0000004c 233e0200         91 	movea	2,sp,r7
00000050 1c40             92 	mov	r28,r8
                          93 	jarl	_ApplFblNvWriteProcessData,lp
                          93 <EXPANSION BEGIN>
                          93 jarl22 _ApplFblNvWriteProcessData , lp 
00000052 80ff0000*        93 <EXPANSION END>
00000056 e051             94 	cmp	zero,r10
00000058 fa0d*            95 	bne	.L4
                          96 --line68
                          97 ..lin.C.3A.5C_ECU2.5CECU_Rivian_A1.5CTarget.5Crepo_projects.5CpFOTA.5CcL_R2023.2E09.2E01.5Cmake.5Cobj.5Cfbl_apnv.4::
                          98 .LDWlin4:
0000005a 0332             99 	mov	3,r6
0000005c 233e0300        100 	movea	3,sp,r7
00000060 1c40            101 	mov	r28,r8
                         102 	jarl	_ApplFblNvReadProcessData,lp
                         102 <EXPANSION BEGIN>
                         102 jarl22 _ApplFblNvReadProcessData , lp 
00000062 80ff0000*       102 <EXPANSION END>

                                                                      Page 3
                                                              C:\Users\nhuliyap\AppData\Local\Temp\gh_00009bg1.s
00000066 e051            103 	cmp	zero,r10
00000068 fa05*           104 	bne	.L4
                         105 --line70
                         106 ..lin.C.3A.5C_ECU2.5CECU_Rivian_A1.5CTarget.5Crepo_projects.5CpFOTA.5CcL_R2023.2E09.2E01.5Cmake.5Cobj.5Cfbl_apnv.5::
                         107 .LDWlin5:
0000006a 03f0            108 	mov	sp,ep
0000006c 6248            109 	sld.bu	2[ep],r9
0000006e 6340            110 	sld.bu	3[ep],r8
00000070 e941            111 	cmp	r9,r8
00000072 eae70000        112 	setfne	r28
                         113 .L4:
00000076 1c50            114 	mov	r28,r10
                         115 --	    .ef
                         116 .LDW11:
00000078 03f0            117 	mov	sp,ep
0000007a 08fd            118 	sld.w	16[ep],lp
0000007c 02ed            119 	sld.w	4[ep],r29
0000007e 04e5            120 	sld.w	8[ep],r28
00000080 06dd            121 	sld.w	12[ep],r27
00000082 031e2400        122 	addi	36,sp,sp
00000086 7f00            123 	jmp	[lp]
                         124 	.type	_ApplFblChgBlockValid,@function
                         125 	.size	_ApplFblChgBlockValid,.-_ApplFblChgBlockValid
                         126 	.type	_ApplFblChgBlockValid..C.3A.5C_ECU2.5CECU_Rivian_A1.5CTarget.5Crepo_projects.5CpFOTA.5CcL_R2023.2E09.2E01.5Cmake.5Cobj.5Cfbl_apnv.,@function
                         127 	.size	_ApplFblChgBlockValid..C.3A.5C_ECU2.5CECU_Rivian_A1.5CTarget.5Crepo_projects.5CpFOTA.5CcL_R2023.2E09.2E01.5Cmake.5Cobj.5Cfbl_apnv.,.-_ApplFblChgBlockValid..C.3A.5C_ECU2.5CECU_Rivian_A1.5CTarget.5Crepo_projects.5CpFOTA.5CcL_R2023.2E09.2E01.5Cmake.5Cobj.5Cfbl_apnv.
                         128 	.align	2
                         129 .LDW21:
                         130 --_validityMask	r29	local
                         131 --_result	r28	local
                         132 --_validityFlags	2[sp]	local
                         133 --_validityCheck	3[sp]	local
                         134 
                         135 --_mode	r27	param
                         136 --_descriptor	24[sp]	param
                         137 
                         138 	.section ".bss","awb"
                         139 .L84:
                         140 	.type	.L84,@object
                         141 	.size	.L84,0
                         142 	.data
                         143 	.text
                         144 	.align	2
                         145 	.align	2
                         146 ..gh.f.f.1.e.1:
                         147 	.type	..gh.f.f.1.e.1,@object
                         148 	.size	..gh.f.f.1.e.1,0
                         149 	.global	_ApplFblAdjustLbtBlockData
                         150 _ApplFblAdjustLbtBlockData:
                         151 --	    .bf
                         152 .LDW31:
00000088 0052            153 	mov	0,r10
                         154 --	    .ef
                         155 .LDW41:
0000008a 7f00            156 	jmp	[lp]
                         157 	.type	_ApplFblAdjustLbtBlockData,@function
                         158 	.size	_ApplFblAdjustLbtBlockData,.-_ApplFblAdjustLbtBlockData
                         159 	.align	2
                         160 .LDW51:
                         161 
                         162 --_blockDescriptor	none	param
                         163 

                                                                      Page 4
                                                              C:\Users\nhuliyap\AppData\Local\Temp\gh_00009bg1.s
                         164 	.section ".bss","awb"
                         165 .L193:
                         166 	.type	.L193,@object
                         167 	.size	.L193,0
                         168 	.data
                         169 	.text
                         170 	.align	2
                         171 	.align	2
                         172 	.align	2
                         173 ..gh.f.f.1.e.2:
                         174 	.type	..gh.f.f.1.e.2,@object
                         175 	.size	..gh.f.f.1.e.2,0
                         176 	.global	_ApplFblExtProgRequest
                         177 _ApplFblExtProgRequest:
0000008c 82076100        178 	prepare	{r29,r31},1
                         179 --	    .bf
                         180 .LDW61:
00000090 20eeff00        181 	movea	255,zero,r29
00000094 0032            182 	mov	0,r6
00000096 233e0300        183 	movea	3,sp,r7
0000009a 0142            184 	mov	1,r8
                         185 	jarl	_ApplFblNvReadProcessData,lp
                         185 <EXPANSION BEGIN>
                         185 jarl22 _ApplFblNvReadProcessData , lp 
0000009c 80ff0000*       185 <EXPANSION END>
000000a0 e051            186 	cmp	zero,r10
000000a2 ea4f0000        187 	setfne	r9
000000a6 fa0d*           188 	bne	.L213
                         189 --line128
                         190 ..lin.C.3A.5C_ECU2.5CECU_Rivian_A1.5CTarget.5Crepo_projects.5CpFOTA.5CcL_R2023.2E09.2E01.5Cmake.5Cobj.5Cfbl_apnv.6::
                         191 .LDWlin6:
000000a8 a3970300        192 	ld.bu	3[sp],r18
000000ac 12064bff        193 	addi	-181,r18,zero
000000b0 aa0d*           194 	bne	.L213
                         195 --line130
                         196 ..lin.C.3A.5C_ECU2.5CECU_Rivian_A1.5CTarget.5Crepo_projects.5CpFOTA.5CcL_R2023.2E09.2E01.5Cmake.5Cobj.5Cfbl_apnv.7::
                         197 .LDWlin7:
000000b2 43070300        198 	st.b	zero,3[sp]
000000b6 0930            199 	mov	r9,r6
000000b8 233e0300        200 	movea	3,sp,r7
000000bc 0142            201 	mov	1,r8
                         202 	jarl	_ApplFblNvWriteProcessData,lp
                         202 <EXPANSION BEGIN>
                         202 jarl22 _ApplFblNvWriteProcessData , lp 
000000be 80ff0000*       202 <EXPANSION END>
                         203 --line133
                         204 ..lin.C.3A.5C_ECU2.5CECU_Rivian_A1.5CTarget.5Crepo_projects.5CpFOTA.5CcL_R2023.2E09.2E01.5Cmake.5Cobj.5Cfbl_apnv.8::
                         205 .LDWlin8:
000000c2 00ea            206 	mov	0,r29
                         207 .L213:
000000c4 3e0600000000*   208 	mov	_fblBmMagicFlag,ep
000000ca 6088            209 	sld.bu	0[ep],r17
000000cc 1106adff        210 	addi	-83,r17,zero
000000d0 fa25*           211 	bne	.L217
000000d2 6180            212 	sld.bu	1[ep],r16
000000d4 10068cff        213 	addi	-116,r16,zero
000000d8 ba25*           214 	bne	.L217
000000da 6278            215 	sld.bu	2[ep],r15
000000dc 0f069fff        216 	addi	-97,r15,zero
000000e0 fa1d*           217 	bne	.L217
000000e2 6370            218 	sld.bu	3[ep],r14

                                                                      Page 5
                                                              C:\Users\nhuliyap\AppData\Local\Temp\gh_00009bg1.s
000000e4 0e0687ff        219 	addi	-121,r14,zero
000000e8 ba1d*           220 	bne	.L217
000000ea 6468            221 	sld.bu	4[ep],r13
000000ec 0d06beff        222 	addi	-66,r13,zero
000000f0 fa15*           223 	bne	.L217
000000f2 6560            224 	sld.bu	5[ep],r12
000000f4 0c0691ff        225 	addi	-111,r12,zero
000000f8 ba15*           226 	bne	.L217
000000fa 6658            227 	sld.bu	6[ep],r11
000000fc 0b0691ff        228 	addi	-111,r11,zero
00000100 fa0d*           229 	bne	.L217
00000102 6750            230 	sld.bu	7[ep],r10
00000104 0a068cff        231 	addi	-116,r10,zero
00000108 ba0d*           232 	bne	.L217
                         233 --line139
                         234 ..lin.C.3A.5C_ECU2.5CECU_Rivian_A1.5CTarget.5Crepo_projects.5CpFOTA.5CcL_R2023.2E09.2E01.5Cmake.5Cobj.5Cfbl_apnv.9::
                         235 .LDWlin9:
0000010a 8003            236 	sst.b	zero,0[ep]
0000010c 8103            237 	sst.b	zero,1[ep]
0000010e 8203            238 	sst.b	zero,2[ep]
00000110 8303            239 	sst.b	zero,3[ep]
00000112 8403            240 	sst.b	zero,4[ep]
00000114 8503            241 	sst.b	zero,5[ep]
00000116 8603            242 	sst.b	zero,6[ep]
00000118 8703            243 	sst.b	zero,7[ep]
0000011a 20ee1000        244 	movea	16,zero,r29
                         245 .L217:
0000011e 1d50            246 	mov	r29,r10
                         247 --	    .ef
                         248 .LDW71:
00000120 42067f00        249 	dispose	1,{r29,r31},[lp]
                         250 	.type	_ApplFblExtProgRequest,@function
                         251 	.size	_ApplFblExtProgRequest,.-_ApplFblExtProgRequest
                         252 	.align	2
                         253 .LDW81:
                         254 --_progStatus	r29	local
                         255 --_progReqFlag	3[sp]	local
                         256 
                         257 	.section ".bss","awb"
                         258 .L384:
                         259 	.type	.L384,@object
                         260 	.size	.L384,0
                         261 	.section ".sbss","awb"
                         262 	.align	4
                         263 	.global	_blockFingerprint..C.3A.5C_ECU2.5CECU_Rivian_A1.5CTarget.5Crepo_projects.5CpFOTA.5CcL_R2023.2E09.2E01.5Cmake.5Cobj.5Cfbl_apnv.
                         264 _blockFingerprint..C.3A.5C_ECU2.5CECU_Rivian_A1.5CTarget.5Crepo_projects.5CpFOTA.5CcL_R2023.2E09.2E01.5Cmake.5Cobj.5Cfbl_apnv.:
00000000 000000000000    265 _blockFingerprint:	.space	26
00000006 000000000000 
0000000c 000000000000 
00000012 000000000000 
00000018 0000 
0000001a 0000            266 	.space	2
                         267 	.type	_blockFingerprint..C.3A.5C_ECU2.5CECU_Rivian_A1.5CTarget.5Crepo_projects.5CpFOTA.5CcL_R2023.2E09.2E01.5Cmake.5Cobj.5Cfbl_apnv.,@object
                         268 	.size	_blockFingerprint..C.3A.5C_ECU2.5CECU_Rivian_A1.5CTarget.5Crepo_projects.5CpFOTA.5CcL_R2023.2E09.2E01.5Cmake.5Cobj.5Cfbl_apnv.,28
                         269 	.type	_blockFingerprint,@object
                         270 	.size	_blockFingerprint,28
                         271 	.data
                         272 	.text
                         273 	.align	2
                         274 	.align	2
                         275 ..gh.f.f.1.e.3:

                                                                      Page 6
                                                              C:\Users\nhuliyap\AppData\Local\Temp\gh_00009bg1.s
                         276 	.type	..gh.f.f.1.e.3,@object
                         277 	.size	..gh.f.f.1.e.3,0
                         278 	.global	_ApplFblValidateBlock
                         279 _ApplFblValidateBlock:
00000124 031ed0ff        280 	addi	-48,sp,sp
00000128 03f0            281 	mov	sp,ep
0000012a 174d            282 	sst.w	r9,44[ep]
0000012c 1545            283 	sst.w	r8,40[ep]
0000012e 133d            284 	sst.w	r7,36[ep]
00000130 1135            285 	sst.w	r6,32[ep]
00000132 0ffd            286 	sst.w	lp,28[ep]
00000134 0ded            287 	sst.w	r29,24[ep]
                         288 --	    .bf
                         289 .LDW91:
00000136 23f62000        290 	movea	32,sp,ep
0000013a a307c9820000    291 	ld.dw	44[sp],r16
00000140 a30749730000    292 	ld.dw	52[sp],r14
00000146 a307c9630000    293 	ld.dw	60[sp],r12
0000014c 003d            294 	sld.w	0[ep],r7
0000014e a30749420000    295 	ld.dw	36[sp],r8
00000154 a3070f800000    296 	st.dw	r16,0[sp]
0000015a a3078f700000    297 	st.dw	r14,8[sp]
00000160 a3070f610000    298 	st.dw	r12,16[sp]
00000166 0132            299 	mov	1,r6
                         300 	jarl	_ApplFblChgBlockValid,lp
                         300 <EXPANSION BEGIN>
                         300 jarl22 _ApplFblChgBlockValid , lp 
00000168 bfff98fe*       300 <EXPANSION END>
0000016c e051            301 	cmp	zero,r10
                         302 --line165
                         303 ..lin.C.3A.5C_ECU2.5CECU_Rivian_A1.5CTarget.5Crepo_projects.5CpFOTA.5CcL_R2023.2E09.2E01.5Cmake.5Cobj.5Cfbl_apnv.10::
                         304 .LDWlin10:
0000016e ea570000        305 	setfne	r10
                         306 --	    .ef
                         307 .LDW02:
00000172 03f0            308 	mov	sp,ep
00000174 0efd            309 	sld.w	28[ep],lp
00000176 0ced            310 	sld.w	24[ep],r29
00000178 031e3000        311 	addi	48,sp,sp
0000017c 7f00            312 	jmp	[lp]
                         313 	.type	_ApplFblValidateBlock,@function
                         314 	.size	_ApplFblValidateBlock,.-_ApplFblValidateBlock
                         315 	.align	2
                         316 .LDW12:
                         317 --_result	r29	local
                         318 
                         319 --_blockDescriptor	32[sp]	param
                         320 
                         321 	.section ".bss","awb"
                         322 .L560:
                         323 	.type	.L560,@object
                         324 	.size	.L560,0
                         325 	.data
                         326 	.text
                         327 	.align	2
                         328 	.align	2
                         329 ..gh.f.f.1.e.4:
                         330 	.type	..gh.f.f.1.e.4,@object
                         331 	.size	..gh.f.f.1.e.4,0
                         332 	.global	_ApplFblInvalidateApp
                         333 _ApplFblInvalidateApp:

                                                                      Page 7
                                                              C:\Users\nhuliyap\AppData\Local\Temp\gh_00009bg1.s
0000017e 82072100        334 	prepare	{r31},1
                         335 --	    .bf
                         336 .LDW22:
00000182 1f92            337 	mov	-1,r18
00000184 43970300        338 	st.b	r18,3[sp]
00000188 0232            339 	mov	2,r6
0000018a 233e0300        340 	movea	3,sp,r7
0000018e 0142            341 	mov	1,r8
                         342 	jarl	_ApplFblNvWriteProcessData,lp
                         342 <EXPANSION BEGIN>
                         342 jarl22 _ApplFblNvWriteProcessData , lp 
00000190 80ff0000*       342 <EXPANSION END>
00000194 e051            343 	cmp	zero,r10
00000196 ea570000        344 	setfne	r10
                         345 --	    .ef
                         346 .LDW32:
                         347 --line495
                         348 ..lin.C.3A.5C_ECU2.5CECU_Rivian_A1.5CTarget.5Crepo_projects.5CpFOTA.5CcL_R2023.2E09.2E01.5Cmake.5Cobj.5Cfbl_apnv.11::
                         349 .LDWlin11:
0000019a 42063f00        350 	dispose	1,{r31},[lp]
                         351 	.type	_ApplFblInvalidateApp,@function
                         352 	.size	_ApplFblInvalidateApp,.-_ApplFblInvalidateApp
                         353 	.align	2
                         354 .LDW42:
                         355 --_applValidity	3[sp]	local
                         356 
                         357 	.section ".bss","awb"
                         358 .L612:
                         359 	.type	.L612,@object
                         360 	.size	.L612,0
                         361 	.data
                         362 	.text
                         363 	.align	2
                         364 	.align	2
                         365 ..gh.f.f.1.e.5:
                         366 	.type	..gh.f.f.1.e.5,@object
                         367 	.size	..gh.f.f.1.e.5,0
                         368 	.global	_ApplFblInvalidateBlock
                         369 _ApplFblInvalidateBlock:
0000019e 031ed0ff        370 	addi	-48,sp,sp
000001a2 03f0            371 	mov	sp,ep
000001a4 174d            372 	sst.w	r9,44[ep]
000001a6 1545            373 	sst.w	r8,40[ep]
000001a8 133d            374 	sst.w	r7,36[ep]
000001aa 1135            375 	sst.w	r6,32[ep]
000001ac 0ffd            376 	sst.w	lp,28[ep]
000001ae 0ded            377 	sst.w	r29,24[ep]
                         378 --	    .bf
                         379 .LDW52:
                         380 	jarl	_ApplFblInvalidateApp,lp
                         380 <EXPANSION BEGIN>
                         380 jarl22 _ApplFblInvalidateApp , lp 
000001b0 bfffceff*       380 <EXPANSION END>
                         381 --line181
                         382 ..lin.C.3A.5C_ECU2.5CECU_Rivian_A1.5CTarget.5Crepo_projects.5CpFOTA.5CcL_R2023.2E09.2E01.5Cmake.5Cobj.5Cfbl_apnv.12::
                         383 .LDWlin12:
000001b4 e051            384 	cmp	zero,r10
000001b6 ea35*           385 	bne	.L630
                         386 --line187
                         387 ..lin.C.3A.5C_ECU2.5CECU_Rivian_A1.5CTarget.5Crepo_projects.5CpFOTA.5CcL_R2023.2E09.2E01.5Cmake.5Cobj.5Cfbl_apnv.13::
                         388 .LDWlin13:

                                                                      Page 8
                                                              C:\Users\nhuliyap\AppData\Local\Temp\gh_00009bg1.s
000001b8 23f62000        389 	movea	32,sp,ep
000001bc a307c9920000    390 	ld.dw	44[sp],r18
000001c2 a30749830000    391 	ld.dw	52[sp],r16
000001c8 a307c9730000    392 	ld.dw	60[sp],r14
000001ce 003d            393 	sld.w	0[ep],r7
000001d0 a30749420000    394 	ld.dw	36[sp],r8
000001d6 a3070f900000    395 	st.dw	r18,0[sp]
000001dc a3078f800000    396 	st.dw	r16,8[sp]
000001e2 a3070f710000    397 	st.dw	r14,16[sp]
000001e8 0232            398 	mov	2,r6
                         399 	jarl	_ApplFblChgBlockValid,lp
                         399 <EXPANSION BEGIN>
                         399 jarl22 _ApplFblChgBlockValid , lp 
000001ea bfff16fe*       399 <EXPANSION END>
                         400 --line191
                         401 ..lin.C.3A.5C_ECU2.5CECU_Rivian_A1.5CTarget.5Crepo_projects.5CpFOTA.5CcL_R2023.2E09.2E01.5Cmake.5Cobj.5Cfbl_apnv.14::
                         402 .LDWlin14:
000001ee e051            403 	cmp	zero,r10
000001f0 9a1d*           404 	bne	.L630
                         405 --line193
                         406 ..lin.C.3A.5C_ECU2.5CECU_Rivian_A1.5CTarget.5Crepo_projects.5CpFOTA.5CcL_R2023.2E09.2E01.5Cmake.5Cobj.5Cfbl_apnv.15::
                         407 .LDWlin15:
000001f2 3d0600000000*   408 	mov	sdaoff23(_blockFingerprint),r29
000001f8 1d38            409 	mov	r29,r7
000001fa 20367500        410 	movea	117,zero,r6
000001fe 20461400        411 	movea	20,zero,r8
                         412 	jarl	_ApplFblNvWriteProcessData,lp
                         412 <EXPANSION BEGIN>
                         412 jarl22 _ApplFblNvWriteProcessData , lp 
00000202 80ff0000*       412 <EXPANSION END>
00000206 e051            413 	cmp	zero,r10
00000208 ea570000        414 	setfne	r10
                         415 --line194
                         416 ..lin.C.3A.5C_ECU2.5CECU_Rivian_A1.5CTarget.5Crepo_projects.5CpFOTA.5CcL_R2023.2E09.2E01.5Cmake.5Cobj.5Cfbl_apnv.16::
                         417 .LDWlin16:
0000020c ba0d*           418 	bne	.L630
                         419 --line196
                         420 ..lin.C.3A.5C_ECU2.5CECU_Rivian_A1.5CTarget.5Crepo_projects.5CpFOTA.5CcL_R2023.2E09.2E01.5Cmake.5Cobj.5Cfbl_apnv.17::
                         421 .LDWlin17:
0000020e 1d3e1400        422 	addi	20,r29,r7
00000212 20366f00        423 	movea	111,zero,r6
00000216 0642            424 	mov	6,r8
                         425 	jarl	_ApplFblNvWriteProcessData,lp
                         425 <EXPANSION BEGIN>
                         425 jarl22 _ApplFblNvWriteProcessData , lp 
00000218 80ff0000*       425 <EXPANSION END>
0000021c e051            426 	cmp	zero,r10
0000021e ea570000        427 	setfne	r10
                         428 .L630:
                         429 --	    .ef
                         430 .LDW62:
                         431 --line201
                         432 ..lin.C.3A.5C_ECU2.5CECU_Rivian_A1.5CTarget.5Crepo_projects.5CpFOTA.5CcL_R2023.2E09.2E01.5Cmake.5Cobj.5Cfbl_apnv.18::
                         433 .LDWlin18:
00000222 03f0            434 	mov	sp,ep
00000224 0efd            435 	sld.w	28[ep],lp
00000226 0ced            436 	sld.w	24[ep],r29
00000228 031e3000        437 	addi	48,sp,sp
0000022c 7f00            438 	jmp	[lp]
                         439 	.type	_ApplFblInvalidateBlock,@function
                         440 	.size	_ApplFblInvalidateBlock,.-_ApplFblInvalidateBlock

                                                                      Page 9
                                                              C:\Users\nhuliyap\AppData\Local\Temp\gh_00009bg1.s
                         441 	.align	2
                         442 .LDW72:
                         443 --_result	r10	local
                         444 
                         445 --_blockDescriptor	32[sp]	param
                         446 
                         447 	.section ".bss","awb"
                         448 .L698:
                         449 	.type	.L698,@object
                         450 	.size	.L698,0
                         451 	.data
                         452 	.text
                         453 	.align	2
                         454 	.align	2
                         455 ..gh.f.f.1.e.6:
                         456 	.type	..gh.f.f.1.e.6,@object
                         457 	.size	..gh.f.f.1.e.6,0
                         458 	.global	_ApplFblIsValidApp
                         459 _ApplFblIsValidApp:
0000022e 82076100        460 	prepare	{r29,r31},1
                         461 --	    .bf
                         462 .LDW82:
00000232 00ea            463 	mov	0,r29
00000234 0232            464 	mov	2,r6
00000236 233e0300        465 	movea	3,sp,r7
0000023a 0142            466 	mov	1,r8
                         467 	jarl	_ApplFblNvReadProcessData,lp
                         467 <EXPANSION BEGIN>
                         467 jarl22 _ApplFblNvReadProcessData , lp 
0000023c 80ff0000*       467 <EXPANSION END>
00000240 e051            468 	cmp	zero,r10
00000242 ea8f0000        469 	setfne	r17
00000246 fa0d*           470 	bne	.L766
                         471 --line249
                         472 ..lin.C.3A.5C_ECU2.5CECU_Rivian_A1.5CTarget.5Crepo_projects.5CpFOTA.5CcL_R2023.2E09.2E01.5Cmake.5Cobj.5Cfbl_apnv.19::
                         473 .LDWlin19:
00000248 a3970300        474 	ld.bu	3[sp],r18
0000024c 12062fff        475 	addi	-209,r18,zero
00000250 aa0d*           476 	bne	.L766
                         477 --line258
                         478 ..lin.C.3A.5C_ECU2.5CECU_Rivian_A1.5CTarget.5Crepo_projects.5CpFOTA.5CcL_R2023.2E09.2E01.5Cmake.5Cobj.5Cfbl_apnv.20::
                         479 .LDWlin20:
00000252 40460000*       480 	movhi	hi(_ApplIntJmpTable),zero,r8
00000256 28470100*       481 	ld.w	lo(_ApplIntJmpTable)[r8],r8
0000025a 404e00a5        482 	movhi	hi(-1526726656),zero,r9
0000025e e941            483 	cmp	r9,r8
00000260 e18f14eb        484 	cmovne	1,r17,r29
                         485 .L766:
00000264 1d50            486 	mov	r29,r10
                         487 --	    .ef
                         488 .LDW92:
00000266 42067f00        489 	dispose	1,{r29,r31},[lp]
                         490 	.type	_ApplFblIsValidApp,@function
                         491 	.size	_ApplFblIsValidApp,.-_ApplFblIsValidApp
                         492 	.align	2
                         493 .LDW03:
                         494 --_applicationStatus	r29	local
                         495 --_applValidity	3[sp]	local
                         496 
                         497 	.section ".bss","awb"
                         498 .L837:

                                                                      Page 10
                                                              C:\Users\nhuliyap\AppData\Local\Temp\gh_00009bg1.s
                         499 	.type	.L837,@object
                         500 	.size	.L837,0
                         501 	.data
                         502 	.text
                         503 	.align	2
                         504 	.align	2
                         505 ..gh.f.f.1.e.7:
                         506 	.type	..gh.f.f.1.e.7,@object
                         507 	.size	..gh.f.f.1.e.7,0
                         508 	.global	_ApplFblRWSecurityAccessDelayFlag
                         509 _ApplFblRWSecurityAccessDelayFlag:
0000026a 8207e100        510 	prepare	{r28,r29,r31},1
0000026e 06e0            511 	mov	r6,r28
00000270 9c00            512 	zxb	r28
00000272 07e8            513 	mov	r7,r29
                         514 --	    .bf
                         515 .LDW13:
00000274 0432            516 	mov	4,r6
00000276 233e0300        517 	movea	3,sp,r7
0000027a 0142            518 	mov	1,r8
                         519 	jarl	_ApplFblNvReadProcessData,lp
                         519 <EXPANSION BEGIN>
                         519 jarl22 _ApplFblNvReadProcessData , lp 
0000027c 80ff0000*       519 <EXPANSION END>
00000280 e051            520 	cmp	zero,r10
00000282 ea4f0000        521 	setfne	r9
                         522 --line275
                         523 ..lin.C.3A.5C_ECU2.5CECU_Rivian_A1.5CTarget.5Crepo_projects.5CpFOTA.5CcL_R2023.2E09.2E01.5Cmake.5Cobj.5Cfbl_apnv.21::
                         524 .LDWlin21:
00000286 61e2            525 	cmp	1,r28
00000288 ea15*           526 	bne	.L892
0000028a 9d00            527 	zxb	r29
                         528 --line276
                         529 ..lin.C.3A.5C_ECU2.5CECU_Rivian_A1.5CTarget.5Crepo_projects.5CpFOTA.5CcL_R2023.2E09.2E01.5Cmake.5Cobj.5Cfbl_apnv.22::
                         530 .LDWlin22:
0000028c e049            531 	cmp	zero,r9
0000028e ea05*           532 	bne	.L894
00000290 a34f0300        533 	ld.bu	3[sp],r9
                         534 --line278
                         535 ..lin.C.3A.5C_ECU2.5CECU_Rivian_A1.5CTarget.5Crepo_projects.5CpFOTA.5CcL_R2023.2E09.2E01.5Cmake.5Cobj.5Cfbl_apnv.23::
                         536 .LDWlin23:
00000294 0052            537 	mov	0,r10
00000296 fd49            538 	cmp	r29,r9
00000298 e215*           539 	be	.L890
                         540 .L894:
                         541 --line282
                         542 ..lin.C.3A.5C_ECU2.5CECU_Rivian_A1.5CTarget.5Crepo_projects.5CpFOTA.5CcL_R2023.2E09.2E01.5Cmake.5Cobj.5Cfbl_apnv.24::
                         543 .LDWlin24:
0000029a 43ef0300        544 	st.b	r29,3[sp]
0000029e 0432            545 	mov	4,r6
000002a0 233e0300        546 	movea	3,sp,r7
000002a4 1c40            547 	mov	r28,r8
                         548 	jarl	_ApplFblNvWriteProcessData,lp
                         548 <EXPANSION BEGIN>
                         548 jarl22 _ApplFblNvWriteProcessData , lp 
000002a6 80ff0000*       548 <EXPANSION END>
000002aa e051            549 	cmp	zero,r10
000002ac ea570000        550 	setfne	r10
000002b0 4206ff00        551 	dispose	1,{r28,r29,r31},[lp]
                         552 .L892:
                         553 --line294

                                                                      Page 11
                                                              C:\Users\nhuliyap\AppData\Local\Temp\gh_00009bg1.s
                         554 ..lin.C.3A.5C_ECU2.5CECU_Rivian_A1.5CTarget.5Crepo_projects.5CpFOTA.5CcL_R2023.2E09.2E01.5Cmake.5Cobj.5Cfbl_apnv.25::
                         555 .LDWlin25:
000002b4 e049            556 	cmp	zero,r9
000002b6 da05*           557 	bne	.L898
                         558 --line296
                         559 ..lin.C.3A.5C_ECU2.5CECU_Rivian_A1.5CTarget.5Crepo_projects.5CpFOTA.5CcL_R2023.2E09.2E01.5Cmake.5Cobj.5Cfbl_apnv.26::
                         560 .LDWlin26:
000002b8 a3570300        561 	ld.bu	3[sp],r10
000002bc 4206ff00        562 	dispose	1,{r28,r29,r31},[lp]
                         563 .L898:
000002c0 2056a700        564 	movea	167,zero,r10
                         565 .L890:
                         566 --	    .ef
                         567 .LDW23:
                         568 --line300
                         569 ..lin.C.3A.5C_ECU2.5CECU_Rivian_A1.5CTarget.5Crepo_projects.5CpFOTA.5CcL_R2023.2E09.2E01.5Cmake.5Cobj.5Cfbl_apnv.27::
                         570 .LDWlin27:
000002c4 4206ff00        571 	dispose	1,{r28,r29,r31},[lp]
                         572 	.type	_ApplFblRWSecurityAccessDelayFlag,@function
                         573 	.size	_ApplFblRWSecurityAccessDelayFlag,.-_ApplFblRWSecurityAccessDelayFlag
                         574 	.align	2
                         575 .LDW33:
                         576 --_readResult	r9	local
                         577 --_buffer	3[sp]	local
                         578 --_result	r10	local
                         579 
                         580 --_mode	r28	param
                         581 --_value	r29	param
                         582 
                         583 	.section ".bss","awb"
                         584 .L974:
                         585 	.type	.L974,@object
                         586 	.size	.L974,0
                         587 	.data
                         588 	.text
                         589 	.align	2
                         590 	.align	2
                         591 ..gh.f.f.1.e.8:
                         592 	.type	..gh.f.f.1.e.8,@object
                         593 	.size	..gh.f.f.1.e.8,0
                         594 	.global	_ApplFblStoreFingerprint
                         595 _ApplFblStoreFingerprint:
000002c8 80072100        596 	prepare	{r31},0
000002cc 0638            597 	mov	r6,r7
                         598 --	    .bf
                         599 .LDW43:
000002ce 260600000000*   600 	mov	sdaoff23(_blockFingerprint),r6
000002d4 20461a00        601 	movea	26,zero,r8
                         602 	jarl	_ownmemcpy,lp
                         602 <EXPANSION BEGIN>
                         602 jarl22 _ownmemcpy , lp 
000002d8 80ff0000*       602 <EXPANSION END>
                         603 --line307
                         604 ..lin.C.3A.5C_ECU2.5CECU_Rivian_A1.5CTarget.5Crepo_projects.5CpFOTA.5CcL_R2023.2E09.2E01.5Cmake.5Cobj.5Cfbl_apnv.28::
                         605 .LDWlin28:
000002dc 0052            606 	mov	0,r10
                         607 --	    .ef
                         608 .LDW53:
000002de 40063f00        609 	dispose	0,{r31},[lp]
                         610 	.type	_ApplFblStoreFingerprint,@function
                         611 	.size	_ApplFblStoreFingerprint,.-_ApplFblStoreFingerprint

                                                                      Page 12
                                                              C:\Users\nhuliyap\AppData\Local\Temp\gh_00009bg1.s
                         612 	.align	2
                         613 .LDW63:
                         614 
                         615 --_buffer	r7	param
                         616 
                         617 	.section ".bss","awb"
                         618 .L1089:
                         619 	.type	.L1089,@object
                         620 	.size	.L1089,0
                         621 	.data
                         622 	.text
                         623 	.align	2
                         624 	.align	2
                         625 ..gh.f.f.1.e.9:
                         626 	.type	..gh.f.f.1.e.9,@object
                         627 	.size	..gh.f.f.1.e.9,0
                         628 	.global	_ApplFblErrorNotification
                         629 _ApplFblErrorNotification:
                         630 --	    .bf
                         631 .LDW73:
                         632 --	    .ef
                         633 .LDW83:
000002e2 7f00            634 	jmp	[lp]
                         635 	.type	_ApplFblErrorNotification,@function
                         636 	.size	_ApplFblErrorNotification,.-_ApplFblErrorNotification
                         637 	.align	2
                         638 .LDW93:
                         639 
                         640 --_errorType	none	param
                         641 --_errorCode	none	param
                         642 
                         643 	.section ".bss","awb"
                         644 .L1136:
                         645 	.type	.L1136,@object
                         646 	.size	.L1136,0
                         647 	.data
                         648 	.text
                         649 	.align	2
                         650 	.align	2
                         651 ..gh.f.f.1.e.10:
                         652 	.type	..gh.f.f.1.e.10,@object
                         653 	.size	..gh.f.f.1.e.10,0
                         654 	.global	_ApplFblIncProgCounts
                         655 _ApplFblIncProgCounts:
000002e4 031ee0ff        656 	addi	-32,sp,sp
000002e8 03f0            657 	mov	sp,ep
000002ea 0f4d            658 	sst.w	r9,28[ep]
000002ec 0d45            659 	sst.w	r8,24[ep]
000002ee 0b3d            660 	sst.w	r7,20[ep]
000002f0 0935            661 	sst.w	r6,16[ep]
000002f2 07fd            662 	sst.w	lp,12[ep]
000002f4 05e5            663 	sst.w	r28,8[ep]
000002f6 03ed            664 	sst.w	r29,4[ep]
                         665 --	    .bf
                         666 .LDW04:
000002f8 83371100        667 	ld.bu	16[sp],r6
000002fc 23460200        668 	movea	2,sp,r8
00000300 024a            669 	mov	2,r9
00000302 c232            670 	shl	2,r6
00000304 06e65100        671 	addi	81,r6,r28
00000308 1c38            672 	mov	r28,r7

                                                                      Page 13
                                                              C:\Users\nhuliyap\AppData\Local\Temp\gh_00009bg1.s
0000030a 0032            673 	mov	0,r6
                         674 	jarl	_ApplFblNvReadMetaData,lp
                         674 <EXPANSION BEGIN>
                         674 jarl22 _ApplFblNvReadMetaData , lp 
0000030c 80ff0000*       674 <EXPANSION END>
00000310 e051            675 	cmp	zero,r10
00000312 eaef0000        676 	setfne	r29
                         677 --line324
                         678 ..lin.C.3A.5C_ECU2.5CECU_Rivian_A1.5CTarget.5Crepo_projects.5CpFOTA.5CcL_R2023.2E09.2E01.5Cmake.5Cobj.5Cfbl_apnv.29::
                         679 .LDWlin29:
00000316 0232            680 	mov	2,r6
00000318 233e0200        681 	movea	2,sp,r7
                         682 	jarl	_FblMemGetInteger,lp
                         682 <EXPANSION BEGIN>
                         682 jarl22 _FblMemGetInteger , lp 
0000031c 80ff0000*       682 <EXPANSION END>
                         683 --line326
                         684 ..lin.C.3A.5C_ECU2.5CECU_Rivian_A1.5CTarget.5Crepo_projects.5CpFOTA.5CcL_R2023.2E09.2E01.5Cmake.5Cobj.5Cfbl_apnv.30::
                         685 .LDWlin30:
00000320 e0e9            686 	cmp	zero,r29
00000322 ea15*           687 	bne	.L1153
                         688 --line327
                         689 ..lin.C.3A.5C_ECU2.5CECU_Rivian_A1.5CTarget.5Crepo_projects.5CpFOTA.5CcL_R2023.2E09.2E01.5Cmake.5Cobj.5Cfbl_apnv.31::
                         690 .LDWlin31:
00000324 aa3effff        691 	xori	65535,r10,r7
00000328 413a            692 	add	1,r7
0000032a c700            693 	zxh	r7
0000032c a73effff        694 	xori	65535,r7,r7
00000330 0232            695 	mov	2,r6
00000332 23460200        696 	movea	2,sp,r8
                         697 	jarl	_FblMemSetInteger,lp
                         697 <EXPANSION BEGIN>
                         697 jarl22 _FblMemSetInteger , lp 
00000336 80ff0000*       697 <EXPANSION END>
                         698 --line332
                         699 ..lin.C.3A.5C_ECU2.5CECU_Rivian_A1.5CTarget.5Crepo_projects.5CpFOTA.5CcL_R2023.2E09.2E01.5Cmake.5Cobj.5Cfbl_apnv.32::
                         700 .LDWlin32:
0000033a 1c38            701 	mov	r28,r7
0000033c 1d30            702 	mov	r29,r6
0000033e 23460200        703 	movea	2,sp,r8
00000342 024a            704 	mov	2,r9
                         705 	jarl	_ApplFblNvWriteMetaData,lp
                         705 <EXPANSION BEGIN>
                         705 jarl22 _ApplFblNvWriteMetaData , lp 
00000344 80ff0000*       705 <EXPANSION END>
00000348 e051            706 	cmp	zero,r10
0000034a eaef0000        707 	setfne	r29
                         708 .L1153:
                         709 --line335
                         710 ..lin.C.3A.5C_ECU2.5CECU_Rivian_A1.5CTarget.5Crepo_projects.5CpFOTA.5CcL_R2023.2E09.2E01.5Cmake.5Cobj.5Cfbl_apnv.33::
                         711 .LDWlin33:
0000034e 1d50            712 	mov	r29,r10
                         713 --	    .ef
                         714 .LDW14:
00000350 03f0            715 	mov	sp,ep
00000352 06fd            716 	sld.w	12[ep],lp
00000354 02ed            717 	sld.w	4[ep],r29
00000356 04e5            718 	sld.w	8[ep],r28
00000358 031e2000        719 	addi	32,sp,sp
0000035c 7f00            720 	jmp	[lp]
                         721 	.type	_ApplFblIncProgCounts,@function

                                                                      Page 14
                                                              C:\Users\nhuliyap\AppData\Local\Temp\gh_00009bg1.s
                         722 	.size	_ApplFblIncProgCounts,.-_ApplFblIncProgCounts
                         723 	.align	2
                         724 .LDW24:
                         725 --_progCounts	r7	local
                         726 --_nvBuffer	2[sp]	local
                         727 --_status	r29	local
                         728 
                         729 --_blockDescriptor	16[sp]	param
                         730 
                         731 	.section ".bss","awb"
                         732 .L1200:
                         733 	.type	.L1200,@object
                         734 	.size	.L1200,0
                         735 	.data
                         736 	.text
                         737 	.align	2
                         738 	.align	2
                         739 ..gh.f.f.1.e.11:
                         740 	.type	..gh.f.f.1.e.11,@object
                         741 	.size	..gh.f.f.1.e.11,0
                         742 	.global	_ApplFblGetProgCounts
                         743 _ApplFblGetProgCounts:
0000035e 031ee0ff        744 	addi	-32,sp,sp
00000362 03f0            745 	mov	sp,ep
00000364 05e5            746 	sst.w	r28,8[ep]
00000366 0f4d            747 	sst.w	r9,28[ep]
00000368 0d45            748 	sst.w	r8,24[ep]
0000036a 0b3d            749 	sst.w	r7,20[ep]
0000036c 0935            750 	sst.w	r6,16[ep]
0000036e 07fd            751 	sst.w	lp,12[ep]
00000370 03ed            752 	sst.w	r29,4[ep]
00000372 1ae5            753 	sld.w	52[ep],r28
                         754 --	    .bf
                         755 .LDW34:
00000374 83971100        756 	ld.bu	16[sp],r18
00000378 0032            757 	mov	0,r6
0000037a 23460200        758 	movea	2,sp,r8
0000037e 024a            759 	mov	2,r9
00000380 c292            760 	shl	2,r18
00000382 123e5100        761 	addi	81,r18,r7
                         762 	jarl	_ApplFblNvReadMetaData,lp
                         762 <EXPANSION BEGIN>
                         762 jarl22 _ApplFblNvReadMetaData , lp 
00000386 80ff0000*       762 <EXPANSION END>
0000038a e051            763 	cmp	zero,r10
0000038c eaef0000        764 	setfne	r29
                         765 --line344
                         766 ..lin.C.3A.5C_ECU2.5CECU_Rivian_A1.5CTarget.5Crepo_projects.5CpFOTA.5CcL_R2023.2E09.2E01.5Cmake.5Cobj.5Cfbl_apnv.34::
                         767 .LDWlin34:
00000390 0232            768 	mov	2,r6
00000392 233e0200        769 	movea	2,sp,r7
                         770 	jarl	_FblMemGetInteger,lp
                         770 <EXPANSION BEGIN>
                         770 jarl22 _FblMemGetInteger , lp 
00000396 80ff0000*       770 <EXPANSION END>
                         771 --line345
                         772 ..lin.C.3A.5C_ECU2.5CECU_Rivian_A1.5CTarget.5Crepo_projects.5CpFOTA.5CcL_R2023.2E09.2E01.5Cmake.5Cobj.5Cfbl_apnv.35::
                         773 .LDWlin35:
0000039a aa4effff        774 	xori	65535,r10,r9
0000039e 7c4f0000        775 	st.h	r9,0[r28]
                         776 --	    .ef

                                                                      Page 15
                                                              C:\Users\nhuliyap\AppData\Local\Temp\gh_00009bg1.s
                         777 .LDW44:
000003a2 1d50            778 	mov	r29,r10
000003a4 03f0            779 	mov	sp,ep
000003a6 06fd            780 	sld.w	12[ep],lp
000003a8 02ed            781 	sld.w	4[ep],r29
000003aa 04e5            782 	sld.w	8[ep],r28
000003ac 031e2000        783 	addi	32,sp,sp
000003b0 7f00            784 	jmp	[lp]
                         785 	.type	_ApplFblGetProgCounts,@function
                         786 	.size	_ApplFblGetProgCounts,.-_ApplFblGetProgCounts
                         787 	.align	2
                         788 .LDW54:
                         789 --_nvBuffer	2[sp]	local
                         790 
                         791 --_blockDescriptor	16[sp]	param
                         792 --_progCounts	r28	param
                         793 
                         794 	.section ".bss","awb"
                         795 .L1268:
                         796 	.type	.L1268,@object
                         797 	.size	.L1268,0
                         798 	.data
                         799 	.text
                         800 	.align	2
                         801 	.align	2
                         802 ..gh.f.f.1.e.12:
                         803 	.type	..gh.f.f.1.e.12,@object
                         804 	.size	..gh.f.f.1.e.12,0
                         805 	.global	_ApplFblIncProgAttempts
                         806 _ApplFblIncProgAttempts:
000003b2 031ee0ff        807 	addi	-32,sp,sp
000003b6 03f0            808 	mov	sp,ep
000003b8 0f4d            809 	sst.w	r9,28[ep]
000003ba 0d45            810 	sst.w	r8,24[ep]
000003bc 0b3d            811 	sst.w	r7,20[ep]
000003be 0935            812 	sst.w	r6,16[ep]
000003c0 07fd            813 	sst.w	lp,12[ep]
000003c2 05e5            814 	sst.w	r28,8[ep]
000003c4 03ed            815 	sst.w	r29,4[ep]
                         816 --	    .bf
                         817 .LDW64:
000003c6 83371100        818 	ld.bu	16[sp],r6
000003ca 23460200        819 	movea	2,sp,r8
000003ce 024a            820 	mov	2,r9
000003d0 c232            821 	shl	2,r6
000003d2 06e65300        822 	addi	83,r6,r28
000003d6 1c38            823 	mov	r28,r7
000003d8 0032            824 	mov	0,r6
                         825 	jarl	_ApplFblNvReadMetaData,lp
                         825 <EXPANSION BEGIN>
                         825 jarl22 _ApplFblNvReadMetaData , lp 
000003da 80ff0000*       825 <EXPANSION END>
000003de e051            826 	cmp	zero,r10
000003e0 eaef0000        827 	setfne	r29
                         828 --line356
                         829 ..lin.C.3A.5C_ECU2.5CECU_Rivian_A1.5CTarget.5Crepo_projects.5CpFOTA.5CcL_R2023.2E09.2E01.5Cmake.5Cobj.5Cfbl_apnv.36::
                         830 .LDWlin36:
000003e4 0232            831 	mov	2,r6
000003e6 233e0200        832 	movea	2,sp,r7
                         833 	jarl	_FblMemGetInteger,lp
                         833 <EXPANSION BEGIN>

                                                                      Page 16
                                                              C:\Users\nhuliyap\AppData\Local\Temp\gh_00009bg1.s
                         833 jarl22 _FblMemGetInteger , lp 
000003ea 80ff0000*       833 <EXPANSION END>
                         834 --line358
                         835 ..lin.C.3A.5C_ECU2.5CECU_Rivian_A1.5CTarget.5Crepo_projects.5CpFOTA.5CcL_R2023.2E09.2E01.5Cmake.5Cobj.5Cfbl_apnv.37::
                         836 .LDWlin37:
000003ee e0e9            837 	cmp	zero,r29
000003f0 ea15*           838 	bne	.L1288
                         839 --line359
                         840 ..lin.C.3A.5C_ECU2.5CECU_Rivian_A1.5CTarget.5Crepo_projects.5CpFOTA.5CcL_R2023.2E09.2E01.5Cmake.5Cobj.5Cfbl_apnv.38::
                         841 .LDWlin38:
000003f2 aa3effff        842 	xori	65535,r10,r7
000003f6 413a            843 	add	1,r7
000003f8 c700            844 	zxh	r7
000003fa a73effff        845 	xori	65535,r7,r7
000003fe 0232            846 	mov	2,r6
00000400 23460200        847 	movea	2,sp,r8
                         848 	jarl	_FblMemSetInteger,lp
                         848 <EXPANSION BEGIN>
                         848 jarl22 _FblMemSetInteger , lp 
00000404 80ff0000*       848 <EXPANSION END>
                         849 --line364
                         850 ..lin.C.3A.5C_ECU2.5CECU_Rivian_A1.5CTarget.5Crepo_projects.5CpFOTA.5CcL_R2023.2E09.2E01.5Cmake.5Cobj.5Cfbl_apnv.39::
                         851 .LDWlin39:
00000408 1c38            852 	mov	r28,r7
0000040a 1d30            853 	mov	r29,r6
0000040c 23460200        854 	movea	2,sp,r8
00000410 024a            855 	mov	2,r9
                         856 	jarl	_ApplFblNvWriteMetaData,lp
                         856 <EXPANSION BEGIN>
                         856 jarl22 _ApplFblNvWriteMetaData , lp 
00000412 80ff0000*       856 <EXPANSION END>
00000416 e051            857 	cmp	zero,r10
00000418 eaef0000        858 	setfne	r29
                         859 .L1288:
                         860 --line367
                         861 ..lin.C.3A.5C_ECU2.5CECU_Rivian_A1.5CTarget.5Crepo_projects.5CpFOTA.5CcL_R2023.2E09.2E01.5Cmake.5Cobj.5Cfbl_apnv.40::
                         862 .LDWlin40:
0000041c 1d50            863 	mov	r29,r10
                         864 --	    .ef
                         865 .LDW74:
0000041e 03f0            866 	mov	sp,ep
00000420 06fd            867 	sld.w	12[ep],lp
00000422 02ed            868 	sld.w	4[ep],r29
00000424 04e5            869 	sld.w	8[ep],r28
00000426 031e2000        870 	addi	32,sp,sp
0000042a 7f00            871 	jmp	[lp]
                         872 	.type	_ApplFblIncProgAttempts,@function
                         873 	.size	_ApplFblIncProgAttempts,.-_ApplFblIncProgAttempts
                         874 	.align	2
                         875 .LDW84:
                         876 --_progAttempts	r7	local
                         877 --_nvBuffer	2[sp]	local
                         878 --_status	r29	local
                         879 
                         880 --_blockDescriptor	16[sp]	param
                         881 
                         882 	.section ".bss","awb"
                         883 .L1328:
                         884 	.type	.L1328,@object
                         885 	.size	.L1328,0
                         886 	.data

                                                                      Page 17
                                                              C:\Users\nhuliyap\AppData\Local\Temp\gh_00009bg1.s
                         887 	.text
                         888 	.align	2
                         889 	.align	2
                         890 ..gh.f.f.1.e.13:
                         891 	.type	..gh.f.f.1.e.13,@object
                         892 	.size	..gh.f.f.1.e.13,0
                         893 	.global	_ApplFblGetProgAttempts
                         894 _ApplFblGetProgAttempts:
0000042c 031ee0ff        895 	addi	-32,sp,sp
00000430 03f0            896 	mov	sp,ep
00000432 05e5            897 	sst.w	r28,8[ep]
00000434 0f4d            898 	sst.w	r9,28[ep]
00000436 0d45            899 	sst.w	r8,24[ep]
00000438 0b3d            900 	sst.w	r7,20[ep]
0000043a 0935            901 	sst.w	r6,16[ep]
0000043c 07fd            902 	sst.w	lp,12[ep]
0000043e 03ed            903 	sst.w	r29,4[ep]
00000440 1ae5            904 	sld.w	52[ep],r28
                         905 --	    .bf
                         906 .LDW94:
00000442 83971100        907 	ld.bu	16[sp],r18
00000446 0032            908 	mov	0,r6
00000448 23460200        909 	movea	2,sp,r8
0000044c 024a            910 	mov	2,r9
0000044e c292            911 	shl	2,r18
00000450 123e5300        912 	addi	83,r18,r7
                         913 	jarl	_ApplFblNvReadMetaData,lp
                         913 <EXPANSION BEGIN>
                         913 jarl22 _ApplFblNvReadMetaData , lp 
00000454 80ff0000*       913 <EXPANSION END>
00000458 e051            914 	cmp	zero,r10
0000045a eaef0000        915 	setfne	r29
                         916 --line376
                         917 ..lin.C.3A.5C_ECU2.5CECU_Rivian_A1.5CTarget.5Crepo_projects.5CpFOTA.5CcL_R2023.2E09.2E01.5Cmake.5Cobj.5Cfbl_apnv.41::
                         918 .LDWlin41:
0000045e 0232            919 	mov	2,r6
00000460 233e0200        920 	movea	2,sp,r7
                         921 	jarl	_FblMemGetInteger,lp
                         921 <EXPANSION BEGIN>
                         921 jarl22 _FblMemGetInteger , lp 
00000464 80ff0000*       921 <EXPANSION END>
                         922 --line377
                         923 ..lin.C.3A.5C_ECU2.5CECU_Rivian_A1.5CTarget.5Crepo_projects.5CpFOTA.5CcL_R2023.2E09.2E01.5Cmake.5Cobj.5Cfbl_apnv.42::
                         924 .LDWlin42:
00000468 aa4effff        925 	xori	65535,r10,r9
0000046c 7c4f0000        926 	st.h	r9,0[r28]
                         927 --	    .ef
                         928 .LDW05:
00000470 1d50            929 	mov	r29,r10
00000472 03f0            930 	mov	sp,ep
00000474 06fd            931 	sld.w	12[ep],lp
00000476 02ed            932 	sld.w	4[ep],r29
00000478 04e5            933 	sld.w	8[ep],r28
0000047a 031e2000        934 	addi	32,sp,sp
0000047e 7f00            935 	jmp	[lp]
                         936 	.type	_ApplFblGetProgAttempts,@function
                         937 	.size	_ApplFblGetProgAttempts,.-_ApplFblGetProgAttempts
                         938 	.align	2
                         939 .LDW15:
                         940 --_nvBuffer	2[sp]	local
                         941 

                                                                      Page 18
                                                              C:\Users\nhuliyap\AppData\Local\Temp\gh_00009bg1.s
                         942 --_blockDescriptor	16[sp]	param
                         943 --_progAttempts	r28	param
                         944 
                         945 	.section ".bss","awb"
                         946 .L1396:
                         947 	.type	.L1396,@object
                         948 	.size	.L1396,0
                         949 	.data
                         950 	.text
                         951 	.align	2
                         952 	.align	2
                         953 ..gh.f.f.1.e.14:
                         954 	.type	..gh.f.f.1.e.14,@object
                         955 	.size	..gh.f.f.1.e.14,0
                         956 	.global	_ApplFblGetPromMaxProgAttempts
                         957 _ApplFblGetPromMaxProgAttempts:
00000480 82072100        958 	prepare	{r31},1
00000484 8600            959 	zxb	r6
                         960 --	    .bf
                         961 .LDW25:
00000486 233e0200        962 	movea	2,sp,r7
                         963 	jarl	_FblLbtGetBlockMaxProgAttemptsByNr,lp
                         963 <EXPANSION BEGIN>
                         963 jarl22 _FblLbtGetBlockMaxProgAttemptsByNr , lp 
0000048a 80ff0000*       963 <EXPANSION END>
0000048e e051            964 	cmp	zero,r10
00000490 b205*           965 	be	.L1416
                         966 --line386
                         967 ..lin.C.3A.5C_ECU2.5CECU_Rivian_A1.5CTarget.5Crepo_projects.5CpFOTA.5CcL_R2023.2E09.2E01.5Cmake.5Cobj.5Cfbl_apnv.43::
                         968 .LDWlin43:
00000492 63070200        969 	st.h	zero,2[sp]
                         970 .L1416:
00000496 e3570300        971 	ld.hu	2[sp],r10
                         972 --	    .ef
                         973 .LDW35:
0000049a 42063f00        974 	dispose	1,{r31},[lp]
                         975 	.type	_ApplFblGetPromMaxProgAttempts,@function
                         976 	.size	_ApplFblGetPromMaxProgAttempts,.-_ApplFblGetPromMaxProgAttempts
                         977 	.align	2
                         978 .LDW45:
                         979 --_maxProgAttempt	2[sp]	local
                         980 
                         981 --_blockNr	r6	param
                         982 
                         983 	.section ".bss","awb"
                         984 .L1456:
                         985 	.type	.L1456,@object
                         986 	.size	.L1456,0
                         987 	.data
                         988 	.text
                         989 	.align	2
                         990 	.align	2
                         991 ..gh.f.f.1.e.15:
                         992 	.type	..gh.f.f.1.e.15,@object
                         993 	.size	..gh.f.f.1.e.15,0
                         994 	.global	_ApplFblWriteSecAccessInvalidCount
                         995 _ApplFblWriteSecAccessInvalidCount:
0000049e 82072100        996 	prepare	{r31},1
000004a2 06f0            997 	mov	r6,ep
                         998 --	    .bf
                         999 .LDW55:

                                                                      Page 19
                                                              C:\Users\nhuliyap\AppData\Local\Temp\gh_00009bg1.s
000004a4 6088           1000 	sld.bu	0[ep],r17
000004a6 0532           1001 	mov	5,r6
000004a8 233e0300       1002 	movea	3,sp,r7
000004ac 0142           1003 	mov	1,r8
000004ae b196ff00       1004 	xori	255,r17,r18
000004b2 43970300       1005 	st.b	r18,3[sp]
                        1006 	jarl	_ApplFblNvWriteProcessData,lp
                        1006 <EXPANSION BEGIN>
                        1006 jarl22 _ApplFblNvWriteProcessData , lp 
000004b6 80ff0000*      1006 <EXPANSION END>
000004ba e051           1007 	cmp	zero,r10
000004bc ea570000       1008 	setfne	r10
                        1009 --	    .ef
                        1010 .LDW65:
                        1011 --line394
                        1012 ..lin.C.3A.5C_ECU2.5CECU_Rivian_A1.5CTarget.5Crepo_projects.5CpFOTA.5CcL_R2023.2E09.2E01.5Cmake.5Cobj.5Cfbl_apnv.44::
                        1013 .LDWlin44:
000004c0 42063f00       1014 	dispose	1,{r31},[lp]
                        1015 	.type	_ApplFblWriteSecAccessInvalidCount,@function
                        1016 	.size	_ApplFblWriteSecAccessInvalidCount,.-_ApplFblWriteSecAccessInvalidCount
                        1017 	.align	2
                        1018 .LDW75:
                        1019 --_buffer	3[sp]	local
                        1020 
                        1021 --_invalidCount	ep	param
                        1022 
                        1023 	.section ".bss","awb"
                        1024 .L1521:
                        1025 	.type	.L1521,@object
                        1026 	.size	.L1521,0
                        1027 	.data
                        1028 	.text
                        1029 	.align	2
                        1030 	.align	2
                        1031 ..gh.f.f.1.e.16:
                        1032 	.type	..gh.f.f.1.e.16,@object
                        1033 	.size	..gh.f.f.1.e.16,0
                        1034 	.global	_ApplFblReadSecAccessInvalidCount
                        1035 _ApplFblReadSecAccessInvalidCount:
000004c4 80076100       1036 	prepare	{r29,r31},0
000004c8 06e8           1037 	mov	r6,r29
                        1038 --	    .bf
                        1039 .LDW85:
000004ca 0638           1040 	mov	r6,r7
000004cc 0532           1041 	mov	5,r6
000004ce 0142           1042 	mov	1,r8
                        1043 	jarl	_ApplFblNvReadProcessData,lp
                        1043 <EXPANSION BEGIN>
                        1043 jarl22 _ApplFblNvReadProcessData , lp 
000004d0 80ff0000*      1043 <EXPANSION END>
000004d4 e051           1044 	cmp	zero,r10
000004d6 ea570000       1045 	setfne	r10
                        1046 --line407
                        1047 ..lin.C.3A.5C_ECU2.5CECU_Rivian_A1.5CTarget.5Crepo_projects.5CpFOTA.5CcL_R2023.2E09.2E01.5Cmake.5Cobj.5Cfbl_apnv.45::
                        1048 .LDWlin45:
000004da 8a0d*          1049 	bne	.L1541
                        1050 --line408
                        1051 ..lin.C.3A.5C_ECU2.5CECU_Rivian_A1.5CTarget.5Crepo_projects.5CpFOTA.5CcL_R2023.2E09.2E01.5Cmake.5Cobj.5Cfbl_apnv.46::
                        1052 .LDWlin46:
000004dc 1df0           1053 	mov	r29,ep
000004de 6090           1054 	sld.bu	0[ep],r18

                                                                      Page 20
                                                              C:\Users\nhuliyap\AppData\Local\Temp\gh_00009bg1.s
000004e0 b296ff00       1055 	xori	255,r18,r18
000004e4 8093           1056 	sst.b	r18,0[ep]
000004e6 40067f00       1057 	dispose	0,{r29,r31},[lp]
                        1058 .L1541:
                        1059 --line411
                        1060 ..lin.C.3A.5C_ECU2.5CECU_Rivian_A1.5CTarget.5Crepo_projects.5CpFOTA.5CcL_R2023.2E09.2E01.5Cmake.5Cobj.5Cfbl_apnv.47::
                        1061 .LDWlin47:
000004ea 5d070000       1062 	st.b	zero,0[r29]
                        1063 --	    .ef
                        1064 .LDW95:
000004ee 40067f00       1065 	dispose	0,{r29,r31},[lp]
                        1066 	.type	_ApplFblReadSecAccessInvalidCount,@function
                        1067 	.size	_ApplFblReadSecAccessInvalidCount,.-_ApplFblReadSecAccessInvalidCount
                        1068 	.align	2
                        1069 .LDW06:
                        1070 --_status	r10	local
                        1071 
                        1072 --_invalidCount	r29	param
                        1073 
                        1074 	.section ".bss","awb"
                        1075 .L1590:
                        1076 	.type	.L1590,@object
                        1077 	.size	.L1590,0
                        1078 	.data
                        1079 	.text
                        1080 	.align	2
                        1081 	.align	2
                        1082 ..gh.f.f.1.e.17:
                        1083 	.type	..gh.f.f.1.e.17,@object
                        1084 	.size	..gh.f.f.1.e.17,0
                        1085 	.global	_ApplFblValidateApp
                        1086 _ApplFblValidateApp:
000004f2 82072100       1087 	prepare	{r31},1
                        1088 --	    .bf
                        1089 .LDW16:
000004f6 2096d1ff       1090 	movea	-47,zero,r18
000004fa 43970300       1091 	st.b	r18,3[sp]
000004fe 0232           1092 	mov	2,r6
00000500 233e0300       1093 	movea	3,sp,r7
00000504 0142           1094 	mov	1,r8
                        1095 	jarl	_ApplFblNvWriteProcessData,lp
                        1095 <EXPANSION BEGIN>
                        1095 jarl22 _ApplFblNvWriteProcessData , lp 
00000506 80ff0000*      1095 <EXPANSION END>
0000050a e051           1096 	cmp	zero,r10
0000050c ea570000       1097 	setfne	r10
                        1098 --	    .ef
                        1099 .LDW26:
                        1100 --line465
                        1101 ..lin.C.3A.5C_ECU2.5CECU_Rivian_A1.5CTarget.5Crepo_projects.5CpFOTA.5CcL_R2023.2E09.2E01.5Cmake.5Cobj.5Cfbl_apnv.48::
                        1102 .LDWlin48:
00000510 42063f00       1103 	dispose	1,{r31},[lp]
                        1104 	.type	_ApplFblValidateApp,@function
                        1105 	.size	_ApplFblValidateApp,.-_ApplFblValidateApp
                        1106 	.align	2
                        1107 .LDW36:
                        1108 --_applValidity	3[sp]	local
                        1109 
                        1110 	.section ".bss","awb"
                        1111 .L1668:
                        1112 	.type	.L1668,@object

                                                                      Page 21
                                                              C:\Users\nhuliyap\AppData\Local\Temp\gh_00009bg1.s
                        1113 	.size	.L1668,0
                        1114 	.data
                        1115 	.text
                        1116 	.align	2
                        1117 --_ApplIntJmpTable	_ApplIntJmpTable	import
                        1118 --_fblBmMagicFlag	_fblBmMagicFlag	import
                        1119 --_blockFingerprint	sdaoff23(_blockFingerprint)	static
                        1120 
                        1121 	.data
                        1122 	.ghsnote version,17
                        1123 	.ghsnote tools,3
                        1124 	.ghsnote options,144
                        1125 	.text
                        1126 	.align	2
                        1127 ..eof.C.3A.5C_ECU2.5CECU_Rivian_A1.5CTarget.5Crepo_projects.5CpFOTA.5CcL_R2023.2E09.2E01.5Cmake.5Cobj.5Cfbl_apnv...43.3A.5C_ECU2.5CECU_Rivian_A1.5CTarget.5Crepo_projects.5CpFOTA.5CcL_R2023.2E09.2E01.5Cmake..64F8646D..0::
                        1128 .rh850_flags REGMODE32,DATA_ALIGN8,GP_FIX,EP_NONFIX,TP_FIX,REG2_RESERVE,G3K,SDA_EXTRA_REGS_0
