                                                                      Page 1
                                                              C:\Users\nhuliyap\AppData\Local\Temp\gh_000046k1.s
Command Line: C:\GHS\comp_201517\ease850.exe -w -stderr=err/fbl_cw.err -elf -b0 -I../source/_common -I../source/common -I../source/ecuabcanif -I../source/ecuabcantrcv -I../source/ecuabcryif -I../source/ecuabfee -I../source/ecuabmemif -I../source/libautosar -I../source/mcalcan -I../source/mcalcry -I../source/mcaldio -I../source/mcaleep -I../source/mcalfls -I../source/mcalmcu -I../source/projectara -I../source/projectcfg -I../source/projectcompiler -I../source/swcservicebswm -I../source/swcservicecantp -I../source/swcservicecomm -I../source/swcservicecsm -I../source/swcservicedcm -I../source/swcservicedem -I../source/swcservicedet -I../source/swcserviceecum -I../source/swcservicenvm -I../source/swcserviceos -I../source/swcservicepdur -I../source/swcserviceschm -I../source/swcservicestartup -I../source/wrappers/swcservicesecm -I../source/wrappers/vsecprim -I../source/wrappers/vstdlib -Ic:/ghs/comp_201517/ansi -Ic:/ghs/comp_201517/include/v800 -Igendata -IC:\GHS\comp_201517\lib\rh850 -cg_underscore -cpu=rh850g3k -nofpu -no_v850_simd -rh850_fpsimd=none -nomacro -patch_dbo=C:\_ECU2\ECU_Rivian_A1\Target\repo_projects\pFOTA\cL_R2023.09.01\make\obj\fbl_cw.dbo -source=fbl_cw.c -o obj\gh_000046k1.o -list=lst/fbl_cw.lst C:\Users\nhuliyap\AppData\Local\Temp\gh_000046k1.s 
Original File: C:\Users\nhuliyap\AppData\Local\Temp\gh_000046k1.s
Source File: fbl_cw.c
Directory: C:\_ECU2\ECU_Rivian_A1\Target\repo_projects\pFOTA\cL_R2023.09.01\make
Host OS: Windows
EASE: Copyright (C) 1983-2015 Green Hills Software.  All Rights Reserved.
Release: Compiler v2015.1.7
Build Directory: [Directory] BTOWORKER6:c:/build_2015_1_bto/2015-10-21.2100-2015_1_bto/win32-comp-ecom
Revision: [VCInfo] http://toolsvc/branches/release-branch-70-bto/src@544153 (built by build)
Revision Date: Thu Oct 22 07:50:13 2015

Release Date: Thu Oct 22 09:32:32 2015

                           1 --Driver Command: ccrh850 -DBRS_DERIVATIVE_701018 -DBRS_OSC_CLK=16
                           2 --		-DBRS_TIMEBASE_CLOCK=80 -DBRS_EVA_BOARD_
                           3 --		-DBRS_DERIVATIVE_GROUP_F1L -DBRS_OS_USECASE_BRS
                           4 --		-DBRS_PLATFORM_RH850 -DBRS_COMP_GHS
                           5 --		-DBRS_CPU_LOCAL_RAM_SIZE_CORE0=32
                           6 --		-DBRS_CPU_RAM_START_CORE0=0xFEDF8000 -list=lst/fbl_cw.lst
                           7 --		-object_dir=obj -stderr=err/fbl_cw.err -c -cpu=rh850 -sda=all
                           8 --		-large_sda -prepare_dispose -pragma_asm_inline -no_callt
                           9 --		-inline_prologue -notda -reserve_r2 -fsoft
                          10 --		--unknown_pragma_warnings -list -g -Ogeneral -shortenum
                          11 --		-registermode=32 -I../source/_common -I../source/common
                          12 --		-I../source/ecuabcanif -I../source/ecuabcantrcv
                          13 --		-I../source/ecuabcryif -I../source/ecuabfee
                          14 --		-I../source/ecuabmemif -I../source/libautosar -I../source/mcalcan
                          15 --		-I../source/mcalcry -I../source/mcaldio -I../source/mcaleep
                          16 --		-I../source/mcalfls -I../source/mcalmcu -I../source/projectara
                          17 --		-I../source/projectcfg -I../source/projectcompiler
                          18 --		-I../source/swcservicebswm -I../source/swcservicecantp
                          19 --		-I../source/swcservicecomm -I../source/swcservicecsm
                          20 --		-I../source/swcservicedcm -I../source/swcservicedem
                          21 --		-I../source/swcservicedet -I../source/swcserviceecum
                          22 --		-I../source/swcservicenvm -I../source/swcserviceos
                          23 --		-I../source/swcservicepdur -I../source/swcserviceschm
                          24 --		-I../source/swcservicestartup -I../source/wrappers/swcservicesecm
                          25 --		-I../source/wrappers/vsecprim -I../source/wrappers/vstdlib
                          26 --		-Ic:/ghs/comp_201517/ansi -Ic:/ghs/comp_201517/include/v800
                          27 --		-Igendata ../source/SwcServiceStartUp/fbl_cw.c
                          28 --Source File:   ../source/SwcServiceStartUp/fbl_cw.c
                          29 --Directory:     
                          30 --		C:\_ECU2\ECU_Rivian_A1\Target\repo_projects\pFOTA\cL_R2023.09.01\make
                          31 --Compile Date:  Wed Sep 06 13:37:22 2023
                          32 --Host OS:       Win32
                          33 --Version:       C-RH850 2015.1.7 RELEASE VERSION
                          34 --Release:       Compiler v2015.1.7
                          35 --Revision Date: Thu Oct 22 08:06:12 2015
                          36 --Release Date:  Thu Oct 22 09:34:32 2015
                          37 -- ecom  -g -w -OM
                          38 	.section ".RAMCODE","ax"
                          39 	.align	2
                          40 	.align	2
                          41 ..bof.C.3A.5C_ECU2.5CECU_Rivian_A1.5CTarget.5Crepo_projects.5CpFOTA.5CcL_R2023.2E09.2E01.5Cmake.5Cobj.5Cfbl_cw...43.3A.5C_ECU2.5CECU_Rivian_A1.5CTarget.5Crepo_projects.5CpFOTA.5CcL_R2023.2E09.2E01.5Cmake..64F86472..0::
                          42 	.align	2
                          43 ..gh.f.f.1.e.0:
                          44 	.type	..gh.f.f.1.e.0,@object
                          45 	.size	..gh.f.f.1.e.0,0
                          46 	.global	_FblCwInternalTransmitRP..C.3A.5C_ECU2.5CECU_Rivian_A1.5CTarget.5Crepo_projects.5CpFOTA.5CcL_R2023.2E09.2E01.5Cmake.5Cobj.5Cfbl_cw.
                          47 _FblCwInternalTransmitRP..C.3A.5C_ECU2.5CECU_Rivian_A1.5CTarget.5Crepo_projects.5CpFOTA.5CcL_R2023.2E09.2E01.5Cmake.5Cobj.5Cfbl_cw.:
                          48 _FblCwInternalTransmitRP:
00000000 80076100         49 	prepare	{r29,r31},0
                          50 --	    .bf

                                                                      Page 2
                                                              C:\Users\nhuliyap\AppData\Local\Temp\gh_000046k1.s
                          51 .LDW01:
00000004 840709900000*    52 	ld.w	sdaoff23(_activeConnection)[gp],r18
0000000a 120601ff         53 	addi	-255,r18,zero
0000000e a22d*            54 	be	.L2
                          55 --line347
                          56 ..lin.C.3A.5C_ECU2.5CECU_Rivian_A1.5CTarget.5Crepo_projects.5CpFOTA.5CcL_R2023.2E09.2E01.5Cmake.5Cobj.5Cfbl_cw.1::
                          57 .LDWlin1:
00000010 a40705800000*    58 	ld.bu	sdaoff23(_cwTxState)[gp],r16
00000016 e081             59 	cmp	zero,r16
00000018 da25*            60 	bne	.L2
                          61 --line365
                          62 ..lin.C.3A.5C_ECU2.5CECU_Rivian_A1.5CTarget.5Crepo_projects.5CpFOTA.5CcL_R2023.2E09.2E01.5Cmake.5Cobj.5Cfbl_cw.2::
                          63 .LDWlin2:
0000001a a50705300000*    64 	ld.bu	rosdaoff23(_FblCw_DcmDslConnectionInfo+5)[r5],r6
00000020 037a             65 	mov	3,r15
00000022 3e0600000000*    66 	mov	sdaoff23(_txPdu),ep
00000028 3d0600000000*    67 	mov	sdaoff23(_txBuffer),r29
0000002e 0172             68 	mov	1,r14
00000030 827c             69 	sst.h	r15,4[ep]
00000032 01ed             70 	sst.w	r29,0[ep]
00000034 84070d700000*    71 	st.b	r14,sdaoff23(_cwTxState)[gp]
0000003a 1e38             72 	mov	ep,r7
                          73 	jarl	_PduR_DcmTransmit,lp
                          73 <EXPANSION BEGIN>
                          73 jarl22 _PduR_DcmTransmit , lp 
0000003c 80ff0000*        73 <EXPANSION END>
00000040 e051             74 	cmp	zero,r10
00000042 8215*            75 	be	.L2
                          76 --line367
                          77 ..lin.C.3A.5C_ECU2.5CECU_Rivian_A1.5CTarget.5Crepo_projects.5CpFOTA.5CcL_R2023.2E09.2E01.5Cmake.5Cobj.5Cfbl_cw.3::
                          78 .LDWlin3:
00000044 204e6400         79 	movea	100,zero,r9
00000048 038a             80 	mov	3,r17
0000004a a4070d480000*    81 	st.h	r9,sdaoff23(_cwTxTimer)[gp]
00000050 84070d880000*    82 	st.b	r17,sdaoff23(_cwTxState)[gp]
00000056 a4070d880000*    83 	st.h	r17,sdaoff23(_cwTxPendingLength)[gp]
0000005c 84070fe80000*    84 	st.w	r29,sdaoff23(_cwTxPendingBuffer)[gp]
                          85 .L2:
                          86 --	    .ef
                          87 .LDW11:
00000062 40067f00         88 	dispose	0,{r29,r31},[lp]
                          89 	.type	_FblCwInternalTransmitRP,@function
                          90 	.size	_FblCwInternalTransmitRP,.-_FblCwInternalTransmitRP
                          91 	.type	_FblCwInternalTransmitRP..C.3A.5C_ECU2.5CECU_Rivian_A1.5CTarget.5Crepo_projects.5CpFOTA.5CcL_R2023.2E09.2E01.5Cmake.5Cobj.5Cfbl_cw.,@function
                          92 	.size	_FblCwInternalTransmitRP..C.3A.5C_ECU2.5CECU_Rivian_A1.5CTarget.5Crepo_projects.5CpFOTA.5CcL_R2023.2E09.2E01.5Cmake.5Cobj.5Cfbl_cw.,.-_FblCwInternalTransmitRP..C.3A.5C_ECU2.5CECU_Rivian_A1.5CTarget.5Crepo_projects.5CpFOTA.5CcL_R2023.2E09.2E01.5Cmake.5Cobj.5Cfbl_cw.
                          93 	.align	2
                          94 .LDW21:
                          95 
                          96 	.section ".bss","awb"
                          97 .L48:
                          98 	.type	.L48,@object
                          99 	.size	.L48,0
                         100 	.section ".sbss","awb"
                         101 	.align	4
                         102 	.global	_rxPduPhys..C.3A.5C_ECU2.5CECU_Rivian_A1.5CTarget.5Crepo_projects.5CpFOTA.5CcL_R2023.2E09.2E01.5Cmake.5Cobj.5Cfbl_cw.
                         103 _rxPduPhys..C.3A.5C_ECU2.5CECU_Rivian_A1.5CTarget.5Crepo_projects.5CpFOTA.5CcL_R2023.2E09.2E01.5Cmake.5Cobj.5Cfbl_cw.:
00000000 000000000000    104 _rxPduPhys:	.space	8
00000006 0000 
                         105 	.type	_rxPduPhys..C.3A.5C_ECU2.5CECU_Rivian_A1.5CTarget.5Crepo_projects.5CpFOTA.5CcL_R2023.2E09.2E01.5Cmake.5Cobj.5Cfbl_cw.,@object
                         106 	.size	_rxPduPhys..C.3A.5C_ECU2.5CECU_Rivian_A1.5CTarget.5Crepo_projects.5CpFOTA.5CcL_R2023.2E09.2E01.5Cmake.5Cobj.5Cfbl_cw.,8
                         107 	.type	_rxPduPhys,@object

                                                                      Page 3
                                                              C:\Users\nhuliyap\AppData\Local\Temp\gh_000046k1.s
                         108 	.size	_rxPduPhys,8
                         109 	.global	_rxPduFunc..C.3A.5C_ECU2.5CECU_Rivian_A1.5CTarget.5Crepo_projects.5CpFOTA.5CcL_R2023.2E09.2E01.5Cmake.5Cobj.5Cfbl_cw.
                         110 _rxPduFunc..C.3A.5C_ECU2.5CECU_Rivian_A1.5CTarget.5Crepo_projects.5CpFOTA.5CcL_R2023.2E09.2E01.5Cmake.5Cobj.5Cfbl_cw.:
00000008 000000000000    111 _rxPduFunc:	.space	8
0000000e 0000 
                         112 	.type	_rxPduFunc..C.3A.5C_ECU2.5CECU_Rivian_A1.5CTarget.5Crepo_projects.5CpFOTA.5CcL_R2023.2E09.2E01.5Cmake.5Cobj.5Cfbl_cw.,@object
                         113 	.size	_rxPduFunc..C.3A.5C_ECU2.5CECU_Rivian_A1.5CTarget.5Crepo_projects.5CpFOTA.5CcL_R2023.2E09.2E01.5Cmake.5Cobj.5Cfbl_cw.,8
                         114 	.type	_rxPduFunc,@object
                         115 	.size	_rxPduFunc,8
                         116 	.global	_txPdu..C.3A.5C_ECU2.5CECU_Rivian_A1.5CTarget.5Crepo_projects.5CpFOTA.5CcL_R2023.2E09.2E01.5Cmake.5Cobj.5Cfbl_cw.
                         117 _txPdu..C.3A.5C_ECU2.5CECU_Rivian_A1.5CTarget.5Crepo_projects.5CpFOTA.5CcL_R2023.2E09.2E01.5Cmake.5Cobj.5Cfbl_cw.:
00000010 000000000000    118 _txPdu:	.space	8
00000016 0000 
                         119 	.type	_txPdu..C.3A.5C_ECU2.5CECU_Rivian_A1.5CTarget.5Crepo_projects.5CpFOTA.5CcL_R2023.2E09.2E01.5Cmake.5Cobj.5Cfbl_cw.,@object
                         120 	.size	_txPdu..C.3A.5C_ECU2.5CECU_Rivian_A1.5CTarget.5Crepo_projects.5CpFOTA.5CcL_R2023.2E09.2E01.5Cmake.5Cobj.5Cfbl_cw.,8
                         121 	.type	_txPdu,@object
                         122 	.size	_txPdu,8
                         123 	.global	_cwCanHardwareLoopTimer..C.3A.5C_ECU2.5CECU_Rivian_A1.5CTarget.5Crepo_projects.5CpFOTA.5CcL_R2023.2E09.2E01.5Cmake.5Cobj.5Cfbl_cw.
                         124 _cwCanHardwareLoopTimer..C.3A.5C_ECU2.5CECU_Rivian_A1.5CTarget.5Crepo_projects.5CpFOTA.5CcL_R2023.2E09.2E01.5Cmake.5Cobj.5Cfbl_cw.:
00000018 00000000        125 _cwCanHardwareLoopTimer:	.space	4
                         126 	.type	_cwCanHardwareLoopTimer..C.3A.5C_ECU2.5CECU_Rivian_A1.5CTarget.5Crepo_projects.5CpFOTA.5CcL_R2023.2E09.2E01.5Cmake.5Cobj.5Cfbl_cw.,@object
                         127 	.size	_cwCanHardwareLoopTimer..C.3A.5C_ECU2.5CECU_Rivian_A1.5CTarget.5Crepo_projects.5CpFOTA.5CcL_R2023.2E09.2E01.5Cmake.5Cobj.5Cfbl_cw.,4
                         128 	.type	_cwCanHardwareLoopTimer,@object
                         129 	.size	_cwCanHardwareLoopTimer,4
                         130 	.global	_cwTxPendingBuffer..C.3A.5C_ECU2.5CECU_Rivian_A1.5CTarget.5Crepo_projects.5CpFOTA.5CcL_R2023.2E09.2E01.5Cmake.5Cobj.5Cfbl_cw.
                         131 _cwTxPendingBuffer..C.3A.5C_ECU2.5CECU_Rivian_A1.5CTarget.5Crepo_projects.5CpFOTA.5CcL_R2023.2E09.2E01.5Cmake.5Cobj.5Cfbl_cw.:
0000001c 00000000        132 _cwTxPendingBuffer:	.space	4
                         133 	.type	_cwTxPendingBuffer..C.3A.5C_ECU2.5CECU_Rivian_A1.5CTarget.5Crepo_projects.5CpFOTA.5CcL_R2023.2E09.2E01.5Cmake.5Cobj.5Cfbl_cw.,@object
                         134 	.size	_cwTxPendingBuffer..C.3A.5C_ECU2.5CECU_Rivian_A1.5CTarget.5Crepo_projects.5CpFOTA.5CcL_R2023.2E09.2E01.5Cmake.5Cobj.5Cfbl_cw.,4
                         135 	.type	_cwTxPendingBuffer,@object
                         136 	.size	_cwTxPendingBuffer,4
                         137 	.global	_rxBuffer..C.3A.5C_ECU2.5CECU_Rivian_A1.5CTarget.5Crepo_projects.5CpFOTA.5CcL_R2023.2E09.2E01.5Cmake.5Cobj.5Cfbl_cw.
                         138 _rxBuffer..C.3A.5C_ECU2.5CECU_Rivian_A1.5CTarget.5Crepo_projects.5CpFOTA.5CcL_R2023.2E09.2E01.5Cmake.5Cobj.5Cfbl_cw.:
00000020 00000000        139 _rxBuffer:	.space	4
                         140 	.type	_rxBuffer..C.3A.5C_ECU2.5CECU_Rivian_A1.5CTarget.5Crepo_projects.5CpFOTA.5CcL_R2023.2E09.2E01.5Cmake.5Cobj.5Cfbl_cw.,@object
                         141 	.size	_rxBuffer..C.3A.5C_ECU2.5CECU_Rivian_A1.5CTarget.5Crepo_projects.5CpFOTA.5CcL_R2023.2E09.2E01.5Cmake.5Cobj.5Cfbl_cw.,4
                         142 	.type	_rxBuffer,@object
                         143 	.size	_rxBuffer,4
                         144 	.global	_activeConnection..C.3A.5C_ECU2.5CECU_Rivian_A1.5CTarget.5Crepo_projects.5CpFOTA.5CcL_R2023.2E09.2E01.5Cmake.5Cobj.5Cfbl_cw.
                         145 _activeConnection..C.3A.5C_ECU2.5CECU_Rivian_A1.5CTarget.5Crepo_projects.5CpFOTA.5CcL_R2023.2E09.2E01.5Cmake.5Cobj.5Cfbl_cw.:
00000024 00000000        146 _activeConnection:	.space	4
                         147 	.type	_activeConnection..C.3A.5C_ECU2.5CECU_Rivian_A1.5CTarget.5Crepo_projects.5CpFOTA.5CcL_R2023.2E09.2E01.5Cmake.5Cobj.5Cfbl_cw.,@object
                         148 	.size	_activeConnection..C.3A.5C_ECU2.5CECU_Rivian_A1.5CTarget.5Crepo_projects.5CpFOTA.5CcL_R2023.2E09.2E01.5Cmake.5Cobj.5Cfbl_cw.,4
                         149 	.type	_activeConnection,@object
                         150 	.size	_activeConnection,4
                         151 	.global	_cwTxTimer..C.3A.5C_ECU2.5CECU_Rivian_A1.5CTarget.5Crepo_projects.5CpFOTA.5CcL_R2023.2E09.2E01.5Cmake.5Cobj.5Cfbl_cw.
                         152 _cwTxTimer..C.3A.5C_ECU2.5CECU_Rivian_A1.5CTarget.5Crepo_projects.5CpFOTA.5CcL_R2023.2E09.2E01.5Cmake.5Cobj.5Cfbl_cw.:
00000028 0000            153 _cwTxTimer:	.space	2
                         154 	.type	_cwTxTimer..C.3A.5C_ECU2.5CECU_Rivian_A1.5CTarget.5Crepo_projects.5CpFOTA.5CcL_R2023.2E09.2E01.5Cmake.5Cobj.5Cfbl_cw.,@object
                         155 	.size	_cwTxTimer..C.3A.5C_ECU2.5CECU_Rivian_A1.5CTarget.5Crepo_projects.5CpFOTA.5CcL_R2023.2E09.2E01.5Cmake.5Cobj.5Cfbl_cw.,2
                         156 	.type	_cwTxTimer,@object
                         157 	.size	_cwTxTimer,2
                         158 	.global	_cwTxPendingLength..C.3A.5C_ECU2.5CECU_Rivian_A1.5CTarget.5Crepo_projects.5CpFOTA.5CcL_R2023.2E09.2E01.5Cmake.5Cobj.5Cfbl_cw.
                         159 _cwTxPendingLength..C.3A.5C_ECU2.5CECU_Rivian_A1.5CTarget.5Crepo_projects.5CpFOTA.5CcL_R2023.2E09.2E01.5Cmake.5Cobj.5Cfbl_cw.:
0000002a 0000            160 _cwTxPendingLength:	.space	2
                         161 	.type	_cwTxPendingLength..C.3A.5C_ECU2.5CECU_Rivian_A1.5CTarget.5Crepo_projects.5CpFOTA.5CcL_R2023.2E09.2E01.5Cmake.5Cobj.5Cfbl_cw.,@object
                         162 	.size	_cwTxPendingLength..C.3A.5C_ECU2.5CECU_Rivian_A1.5CTarget.5Crepo_projects.5CpFOTA.5CcL_R2023.2E09.2E01.5Cmake.5Cobj.5Cfbl_cw.,2
                         163 	.type	_cwTxPendingLength,@object
                         164 	.size	_cwTxPendingLength,2
                         165 	.global	_rxDataLength..C.3A.5C_ECU2.5CECU_Rivian_A1.5CTarget.5Crepo_projects.5CpFOTA.5CcL_R2023.2E09.2E01.5Cmake.5Cobj.5Cfbl_cw.
                         166 _rxDataLength..C.3A.5C_ECU2.5CECU_Rivian_A1.5CTarget.5Crepo_projects.5CpFOTA.5CcL_R2023.2E09.2E01.5Cmake.5Cobj.5Cfbl_cw.:

                                                                      Page 4
                                                              C:\Users\nhuliyap\AppData\Local\Temp\gh_000046k1.s
0000002c 0000            167 _rxDataLength:	.space	2
                         168 	.type	_rxDataLength..C.3A.5C_ECU2.5CECU_Rivian_A1.5CTarget.5Crepo_projects.5CpFOTA.5CcL_R2023.2E09.2E01.5Cmake.5Cobj.5Cfbl_cw.,@object
                         169 	.size	_rxDataLength..C.3A.5C_ECU2.5CECU_Rivian_A1.5CTarget.5Crepo_projects.5CpFOTA.5CcL_R2023.2E09.2E01.5Cmake.5Cobj.5Cfbl_cw.,2
                         170 	.type	_rxDataLength,@object
                         171 	.size	_rxDataLength,2
                         172 	.global	_rxRemainingBufferSize..C.3A.5C_ECU2.5CECU_Rivian_A1.5CTarget.5Crepo_projects.5CpFOTA.5CcL_R2023.2E09.2E01.5Cmake.5Cobj.5Cfbl_cw.
                         173 _rxRemainingBufferSize..C.3A.5C_ECU2.5CECU_Rivian_A1.5CTarget.5Crepo_projects.5CpFOTA.5CcL_R2023.2E09.2E01.5Cmake.5Cobj.5Cfbl_cw.:
0000002e 0000            174 _rxRemainingBufferSize:	.space	2
                         175 	.type	_rxRemainingBufferSize..C.3A.5C_ECU2.5CECU_Rivian_A1.5CTarget.5Crepo_projects.5CpFOTA.5CcL_R2023.2E09.2E01.5Cmake.5Cobj.5Cfbl_cw.,@object
                         176 	.size	_rxRemainingBufferSize..C.3A.5C_ECU2.5CECU_Rivian_A1.5CTarget.5Crepo_projects.5CpFOTA.5CcL_R2023.2E09.2E01.5Cmake.5Cobj.5Cfbl_cw.,2
                         177 	.type	_rxRemainingBufferSize,@object
                         178 	.size	_rxRemainingBufferSize,2
                         179 	.global	_cycleCounter..C.3A.5C_ECU2.5CECU_Rivian_A1.5CTarget.5Crepo_projects.5CpFOTA.5CcL_R2023.2E09.2E01.5Cmake.5Cobj.5Cfbl_cw.
                         180 _cycleCounter..C.3A.5C_ECU2.5CECU_Rivian_A1.5CTarget.5Crepo_projects.5CpFOTA.5CcL_R2023.2E09.2E01.5Cmake.5Cobj.5Cfbl_cw.:
00000030 00              181 _cycleCounter:	.space	1
                         182 	.type	_cycleCounter..C.3A.5C_ECU2.5CECU_Rivian_A1.5CTarget.5Crepo_projects.5CpFOTA.5CcL_R2023.2E09.2E01.5Cmake.5Cobj.5Cfbl_cw.,@object
                         183 	.size	_cycleCounter..C.3A.5C_ECU2.5CECU_Rivian_A1.5CTarget.5Crepo_projects.5CpFOTA.5CcL_R2023.2E09.2E01.5Cmake.5Cobj.5Cfbl_cw.,1
                         184 	.type	_cycleCounter,@object
                         185 	.size	_cycleCounter,1
                         186 	.global	_cwTxState..C.3A.5C_ECU2.5CECU_Rivian_A1.5CTarget.5Crepo_projects.5CpFOTA.5CcL_R2023.2E09.2E01.5Cmake.5Cobj.5Cfbl_cw.
                         187 _cwTxState..C.3A.5C_ECU2.5CECU_Rivian_A1.5CTarget.5Crepo_projects.5CpFOTA.5CcL_R2023.2E09.2E01.5Cmake.5Cobj.5Cfbl_cw.:
00000031 00              188 _cwTxState:	.space	1
                         189 	.type	_cwTxState..C.3A.5C_ECU2.5CECU_Rivian_A1.5CTarget.5Crepo_projects.5CpFOTA.5CcL_R2023.2E09.2E01.5Cmake.5Cobj.5Cfbl_cw.,@object
                         190 	.size	_cwTxState..C.3A.5C_ECU2.5CECU_Rivian_A1.5CTarget.5Crepo_projects.5CpFOTA.5CcL_R2023.2E09.2E01.5Cmake.5Cobj.5Cfbl_cw.,1
                         191 	.type	_cwTxState,@object
                         192 	.size	_cwTxState,1
                         193 	.global	_cwTaskState..C.3A.5C_ECU2.5CECU_Rivian_A1.5CTarget.5Crepo_projects.5CpFOTA.5CcL_R2023.2E09.2E01.5Cmake.5Cobj.5Cfbl_cw.
                         194 _cwTaskState..C.3A.5C_ECU2.5CECU_Rivian_A1.5CTarget.5Crepo_projects.5CpFOTA.5CcL_R2023.2E09.2E01.5Cmake.5Cobj.5Cfbl_cw.:
00000032 00              195 _cwTaskState:	.space	1
                         196 	.type	_cwTaskState..C.3A.5C_ECU2.5CECU_Rivian_A1.5CTarget.5Crepo_projects.5CpFOTA.5CcL_R2023.2E09.2E01.5Cmake.5Cobj.5Cfbl_cw.,@object
                         197 	.size	_cwTaskState..C.3A.5C_ECU2.5CECU_Rivian_A1.5CTarget.5Crepo_projects.5CpFOTA.5CcL_R2023.2E09.2E01.5Cmake.5Cobj.5Cfbl_cw.,1
                         198 	.type	_cwTaskState,@object
                         199 	.size	_cwTaskState,1
                         200 	.global	_txBuffer..C.3A.5C_ECU2.5CECU_Rivian_A1.5CTarget.5Crepo_projects.5CpFOTA.5CcL_R2023.2E09.2E01.5Cmake.5Cobj.5Cfbl_cw.
                         201 _txBuffer..C.3A.5C_ECU2.5CECU_Rivian_A1.5CTarget.5Crepo_projects.5CpFOTA.5CcL_R2023.2E09.2E01.5Cmake.5Cobj.5Cfbl_cw.:
00000033 000000          202 _txBuffer:	.space	3
                         203 	.type	_txBuffer..C.3A.5C_ECU2.5CECU_Rivian_A1.5CTarget.5Crepo_projects.5CpFOTA.5CcL_R2023.2E09.2E01.5Cmake.5Cobj.5Cfbl_cw.,@object
                         204 	.size	_txBuffer..C.3A.5C_ECU2.5CECU_Rivian_A1.5CTarget.5Crepo_projects.5CpFOTA.5CcL_R2023.2E09.2E01.5Cmake.5Cobj.5Cfbl_cw.,3
                         205 	.type	_txBuffer,@object
                         206 	.size	_txBuffer,3
                         207 	.data
                         208 	.section ".RAMCODE","ax"
                         209 	.align	2
                         210 	.align	2
                         211 ..gh.f.f.1.e.1:
                         212 	.type	..gh.f.f.1.e.1,@object
                         213 	.size	..gh.f.f.1.e.1,0
                         214 	.global	_FblCwInternalMainFunctionTimerTask..C.3A.5C_ECU2.5CECU_Rivian_A1.5CTarget.5Crepo_projects.5CpFOTA.5CcL_R2023.2E09.2E01.5Cmake.5Cobj.5Cfbl_cw.
                         215 _FblCwInternalMainFunctionTimerTask..C.3A.5C_ECU2.5CECU_Rivian_A1.5CTarget.5Crepo_projects.5CpFOTA.5CcL_R2023.2E09.2E01.5Cmake.5Cobj.5Cfbl_cw.:
                         216 _FblCwInternalMainFunctionTimerTask:
                         217 --	    .bf
                         218 .LDW31:
00000066 3e0600000000*   219 	mov	sdaoff23(_cycleCounter),ep
0000006c 6090            220 	sld.bu	0[ep],r18
0000006e 4192            221 	add	1,r18
00000070 8093            222 	sst.b	r18,0[ep]
00000072 9200            223 	zxb	r18
00000074 6592            224 	cmp	5,r18
00000076 e105*           225 	bl	.L99
                         226 --line388
                         227 ..lin.C.3A.5C_ECU2.5CECU_Rivian_A1.5CTarget.5Crepo_projects.5CpFOTA.5CcL_R2023.2E09.2E01.5Cmake.5Cobj.5Cfbl_cw.4::

                                                                      Page 5
                                                              C:\Users\nhuliyap\AppData\Local\Temp\gh_000046k1.s
                         228 .LDWlin4:
00000078 84070d000000*   229 	st.b	zero,sdaoff23(_cycleCounter)[gp]
0000007e 80070000*       230 	jr	_SwcServiceCanTp_MainFunction
                         231 .L99:
                         232 --	    .ef
                         233 .LDW41:
                         234 --line455
                         235 ..lin.C.3A.5C_ECU2.5CECU_Rivian_A1.5CTarget.5Crepo_projects.5CpFOTA.5CcL_R2023.2E09.2E01.5Cmake.5Cobj.5Cfbl_cw.5::
                         236 .LDWlin5:
00000082 7f00            237 	jmp	[lp]
                         238 	.type	_FblCwInternalMainFunctionTimerTask,@function
                         239 	.size	_FblCwInternalMainFunctionTimerTask,.-_FblCwInternalMainFunctionTimerTask
                         240 	.type	_FblCwInternalMainFunctionTimerTask..C.3A.5C_ECU2.5CECU_Rivian_A1.5CTarget.5Crepo_projects.5CpFOTA.5CcL_R2023.2E09.2E01.5Cmake.5Cobj.5Cfbl_cw.,@function
                         241 	.size	_FblCwInternalMainFunctionTimerTask..C.3A.5C_ECU2.5CECU_Rivian_A1.5CTarget.5Crepo_projects.5CpFOTA.5CcL_R2023.2E09.2E01.5Cmake.5Cobj.5Cfbl_cw.,.-_FblCwInternalMainFunctionTimerTask..C.3A.5C_ECU2.5CECU_Rivian_A1.5CTarget.5Crepo_projects.5CpFOTA.5CcL_R2023.2E09.2E01.5Cmake.5Cobj.5Cfbl_cw.
                         242 	.align	2
                         243 .LDW51:
                         244 
                         245 	.section ".bss","awb"
                         246 .L138:
                         247 	.type	.L138,@object
                         248 	.size	.L138,0
                         249 	.data
                         250 	.section ".RAMCODE","ax"
                         251 	.align	2
                         252 	.align	2
                         253 ..gh.f.f.1.e.2:
                         254 	.type	..gh.f.f.1.e.2,@object
                         255 	.size	..gh.f.f.1.e.2,0
                         256 	.global	_FblCwInternalPendingTask..C.3A.5C_ECU2.5CECU_Rivian_A1.5CTarget.5Crepo_projects.5CpFOTA.5CcL_R2023.2E09.2E01.5Cmake.5Cobj.5Cfbl_cw.
                         257 _FblCwInternalPendingTask..C.3A.5C_ECU2.5CECU_Rivian_A1.5CTarget.5Crepo_projects.5CpFOTA.5CcL_R2023.2E09.2E01.5Cmake.5Cobj.5Cfbl_cw.:
                         258 _FblCwInternalPendingTask:
00000084 80076100        259 	prepare	{r29,r31},0
                         260 --	    .bf
                         261 .LDW61:
00000088 a40705900000*   262 	ld.bu	sdaoff23(_cwTxState)[gp],r18
0000008e a40707480000*   263 	ld.hu	sdaoff23(_cwTxTimer)[gp],r9
00000094 018a            264 	mov	1,r17
00000096 6392            265 	cmp	3,r18
00000098 e28f149b        266 	cmovne	2,r17,r19
0000009c e0971433        267 	cmovne	0,r18,r6
000000a0 e049            268 	cmp	zero,r9
000000a2 8a0d*           269 	bne	.L179
                         270 --line546
                         271 ..lin.C.3A.5C_ECU2.5CECU_Rivian_A1.5CTarget.5Crepo_projects.5CpFOTA.5CcL_R2023.2E09.2E01.5Cmake.5Cobj.5Cfbl_cw.6::
                         272 .LDWlin6:
000000a4 84070d000000*   273 	st.b	zero,sdaoff23(_cwTxState)[gp]
                         274 	jarl	_FblDiagTxErrorIndication,lp
                         274 <EXPANSION BEGIN>
                         274 jarl22 _FblDiagTxErrorIndication , lp 
000000aa 80ff0000*       274 <EXPANSION END>
000000ae 40067f00        275 	dispose	0,{r29,r31},[lp]
                         276 .L179:
                         277 --	    .bs
                         278 .LDW71:
                         279 --line556
                         280 ..lin.C.3A.5C_ECU2.5CECU_Rivian_A1.5CTarget.5Crepo_projects.5CpFOTA.5CcL_R2023.2E09.2E01.5Cmake.5Cobj.5Cfbl_cw.7::
                         281 .LDWlin7:
000000b2 840709380000*   282 	ld.w	sdaoff23(_cwTxPendingBuffer)[gp],r7
000000b8 a40707400000*   283 	ld.hu	sdaoff23(_cwTxPendingLength)[gp],r8
000000be a50705300000*   284 	ld.bu	rosdaoff23(_FblCw_DcmDslConnectionInfo+5)[r5],r6
000000c4 3e0600000000*   285 	mov	sdaoff23(_txPdu),ep

                                                                      Page 6
                                                              C:\Users\nhuliyap\AppData\Local\Temp\gh_000046k1.s
000000ca 013d            286 	sst.w	r7,0[ep]
000000cc 12e8            287 	mov	r18,r29
000000ce 84070d980000*   288 	st.b	r19,sdaoff23(_cwTxState)[gp]
000000d4 8244            289 	sst.h	r8,4[ep]
000000d6 1e38            290 	mov	ep,r7
                         291 	jarl	_PduR_DcmTransmit,lp
                         291 <EXPANSION BEGIN>
                         291 jarl22 _PduR_DcmTransmit , lp 
000000d8 80ff0000*       291 <EXPANSION END>
000000dc e051            292 	cmp	zero,r10
000000de d205*           293 	be	.L182
                         294 --line564
                         295 ..lin.C.3A.5C_ECU2.5CECU_Rivian_A1.5CTarget.5Crepo_projects.5CpFOTA.5CcL_R2023.2E09.2E01.5Cmake.5Cobj.5Cfbl_cw.8::
                         296 .LDWlin8:
000000e0 84070de80000*   297 	st.b	r29,sdaoff23(_cwTxState)[gp]
000000e6 c505*           298 	br	.L184
                         299 .L182:
                         300 --line568
                         301 ..lin.C.3A.5C_ECU2.5CECU_Rivian_A1.5CTarget.5Crepo_projects.5CpFOTA.5CcL_R2023.2E09.2E01.5Cmake.5Cobj.5Cfbl_cw.9::
                         302 .LDWlin9:
000000e8 a4070d000000*   303 	st.h	zero,sdaoff23(_cwTxTimer)[gp]
                         304 .L184:
                         305 	jarl	_Can_MainFunction_Write,lp
                         305 <EXPANSION BEGIN>
                         305 jarl22 _Can_MainFunction_Write , lp 
000000ee 80ff0000*       305 <EXPANSION END>
                         306 --	    .es
                         307 .LDW81:
                         308 --	    .ef
                         309 .LDW91:
                         310 --line581
                         311 ..lin.C.3A.5C_ECU2.5CECU_Rivian_A1.5CTarget.5Crepo_projects.5CpFOTA.5CcL_R2023.2E09.2E01.5Cmake.5Cobj.5Cfbl_cw.10::
                         312 .LDWlin10:
000000f2 40067f00        313 	dispose	0,{r29,r31},[lp]
                         314 	.type	_FblCwInternalPendingTask,@function
                         315 	.size	_FblCwInternalPendingTask,.-_FblCwInternalPendingTask
                         316 	.type	_FblCwInternalPendingTask..C.3A.5C_ECU2.5CECU_Rivian_A1.5CTarget.5Crepo_projects.5CpFOTA.5CcL_R2023.2E09.2E01.5Cmake.5Cobj.5Cfbl_cw.,@function
                         317 	.size	_FblCwInternalPendingTask..C.3A.5C_ECU2.5CECU_Rivian_A1.5CTarget.5Crepo_projects.5CpFOTA.5CcL_R2023.2E09.2E01.5Cmake.5Cobj.5Cfbl_cw.,.-_FblCwInternalPendingTask..C.3A.5C_ECU2.5CECU_Rivian_A1.5CTarget.5Crepo_projects.5CpFOTA.5CcL_R2023.2E09.2E01.5Cmake.5Cobj.5Cfbl_cw.
                         318 	.align	2
                         319 .LDW02:
                         320 --_msgType	r6	local
                         321 --_newTxState	r19	local
                         322 --_prevTxState	r29	local
                         323 
                         324 	.section ".bss","awb"
                         325 .L483:
                         326 	.type	.L483,@object
                         327 	.size	.L483,0
                         328 	.data
                         329 	.section ".RAMCODE","ax"
                         330 	.align	2
                         331 	.align	2
                         332 ..gh.f.f.1.e.3:
                         333 	.type	..gh.f.f.1.e.3,@object
                         334 	.size	..gh.f.f.1.e.3,0
                         335 	.global	_FblCwCanIfSetMode..C.3A.5C_ECU2.5CECU_Rivian_A1.5CTarget.5Crepo_projects.5CpFOTA.5CcL_R2023.2E09.2E01.5Cmake.5Cobj.5Cfbl_cw.
                         336 _FblCwCanIfSetMode..C.3A.5C_ECU2.5CECU_Rivian_A1.5CTarget.5Crepo_projects.5CpFOTA.5CcL_R2023.2E09.2E01.5Cmake.5Cobj.5Cfbl_cw.:
                         337 _FblCwCanIfSetMode:
000000f6 8207e110        338 	prepare	{r27,r28,r29,r31},1
000000fa 07d8            339 	mov	r7,r27
000000fc 8600            340 	zxb	r6

                                                                      Page 7
                                                              C:\Users\nhuliyap\AppData\Local\Temp\gh_000046k1.s
000000fe bb00            341 	sxb	r27
                         342 --	    .bf
                         343 .LDW12:
00000100 06e0            344 	mov	r6,r28
00000102 233e0300        345 	movea	3,sp,r7
                         346 	jarl	_CanIf_GetControllerMode,lp
                         346 <EXPANSION BEGIN>
                         346 jarl22 _CanIf_GetControllerMode , lp 
00000106 80ff0000*       346 <EXPANSION END>
                         347 --line592
                         348 ..lin.C.3A.5C_ECU2.5CECU_Rivian_A1.5CTarget.5Crepo_projects.5CpFOTA.5CcL_R2023.2E09.2E01.5Cmake.5Cobj.5Cfbl_cw.11::
                         349 .LDWlin11:
0000010a e051            350 	cmp	zero,r10
0000010c aa25*           351 	bne	.L611
                         352 --line594
                         353 ..lin.C.3A.5C_ECU2.5CECU_Rivian_A1.5CTarget.5Crepo_projects.5CpFOTA.5CcL_R2023.2E09.2E01.5Cmake.5Cobj.5Cfbl_cw.12::
                         354 .LDWlin12:
0000010e 034f0300        355 	ld.b	3[sp],r9
00000112 e9d9            356 	cmp	r9,r27
00000114 a225*           357 	be	.L555
                         358 --	    .bs
                         359 .LDW22:
                         360 --line595
                         361 ..lin.C.3A.5C_ECU2.5CECU_Rivian_A1.5CTarget.5Crepo_projects.5CpFOTA.5CcL_R2023.2E09.2E01.5Cmake.5Cobj.5Cfbl_cw.13::
                         362 .LDWlin13:
00000116 0aea            363 	mov	10,r29
00000118 1c30            364 	mov	r28,r6
0000011a 1b38            365 	mov	r27,r7
                         366 	jarl	_CanIf_SetControllerMode,lp
                         366 <EXPANSION BEGIN>
                         366 jarl22 _CanIf_SetControllerMode , lp 
0000011c 80ff0000*       366 <EXPANSION END>
00000120 e50d*           367 	br	.L610
                         368 .L566:
                         369 --line601
                         370 ..lin.C.3A.5C_ECU2.5CECU_Rivian_A1.5CTarget.5Crepo_projects.5CpFOTA.5CcL_R2023.2E09.2E01.5Cmake.5Cobj.5Cfbl_cw.14::
                         371 .LDWlin14:
                         372 	jarl	_FblLookForWatchdog,lp
                         372 <EXPANSION BEGIN>
                         372 jarl22 _FblLookForWatchdog , lp 
00000122 80ff0000*       372 <EXPANSION END>
00000126 e051            373 	cmp	zero,r10
00000128 b205*           374 	be	.L567
                         375 --line603
                         376 ..lin.C.3A.5C_ECU2.5CECU_Rivian_A1.5CTarget.5Crepo_projects.5CpFOTA.5CcL_R2023.2E09.2E01.5Cmake.5Cobj.5Cfbl_cw.15::
                         377 .LDWlin15:
0000012a 5fea            378 	add	-1,r29
0000012c dd00            379 	zxh	r29
                         380 .L567:
                         381 	jarl	_Can_MainFunction_Mode,lp
                         381 <EXPANSION BEGIN>
                         381 jarl22 _Can_MainFunction_Mode , lp 
0000012e 80ff0000*       381 <EXPANSION END>
                         382 --line608
                         383 ..lin.C.3A.5C_ECU2.5CECU_Rivian_A1.5CTarget.5Crepo_projects.5CpFOTA.5CcL_R2023.2E09.2E01.5Cmake.5Cobj.5Cfbl_cw.16::
                         384 .LDWlin16:
00000132 1c30            385 	mov	r28,r6
00000134 233e0300        386 	movea	3,sp,r7
                         387 	jarl	_CanIf_GetControllerMode,lp
                         387 <EXPANSION BEGIN>
                         387 jarl22 _CanIf_GetControllerMode , lp 

                                                                      Page 8
                                                              C:\Users\nhuliyap\AppData\Local\Temp\gh_000046k1.s
00000138 80ff0000*       387 <EXPANSION END>
                         388 .L610:
                         389 --line609
                         390 ..lin.C.3A.5C_ECU2.5CECU_Rivian_A1.5CTarget.5Crepo_projects.5CpFOTA.5CcL_R2023.2E09.2E01.5Cmake.5Cobj.5Cfbl_cw.17::
                         391 .LDWlin17:
0000013c e051            392 	cmp	zero,r10
0000013e 9a0d*           393 	bne	.L611
                         394 --line600
                         395 ..lin.C.3A.5C_ECU2.5CECU_Rivian_A1.5CTarget.5Crepo_projects.5CpFOTA.5CcL_R2023.2E09.2E01.5Cmake.5Cobj.5Cfbl_cw.18::
                         396 .LDWlin18:
00000140 034f0300        397 	ld.b	3[sp],r9
00000144 e9d9            398 	cmp	r9,r27
00000146 920d*           399 	be	.L555
00000148 e0e9            400 	cmp	zero,r29
0000014a caed*           401 	bne	.L566
0000014c 4206ff10        402 	dispose	1,{r27,r28,r29,r31},[lp]
                         403 .L611:
                         404 --	    .es
                         405 .LDW32:
                         406 --line610
                         407 ..lin.C.3A.5C_ECU2.5CECU_Rivian_A1.5CTarget.5Crepo_projects.5CpFOTA.5CcL_R2023.2E09.2E01.5Cmake.5Cobj.5Cfbl_cw.19::
                         408 .LDWlin19:
00000150 20365000        409 	movea	80,zero,r6
                         410 	jarl	_ApplFblFatalError,lp
                         410 <EXPANSION BEGIN>
                         410 jarl22 _ApplFblFatalError , lp 
00000154 80ff0000*       410 <EXPANSION END>
                         411 .L555:
                         412 --	    .ef
                         413 .LDW42:
                         414 --line612
                         415 ..lin.C.3A.5C_ECU2.5CECU_Rivian_A1.5CTarget.5Crepo_projects.5CpFOTA.5CcL_R2023.2E09.2E01.5Cmake.5Cobj.5Cfbl_cw.20::
                         416 .LDWlin20:
00000158 4206ff10        417 	dispose	1,{r27,r28,r29,r31},[lp]
                         418 	.type	_FblCwCanIfSetMode,@function
                         419 	.size	_FblCwCanIfSetMode,.-_FblCwCanIfSetMode
                         420 	.type	_FblCwCanIfSetMode..C.3A.5C_ECU2.5CECU_Rivian_A1.5CTarget.5Crepo_projects.5CpFOTA.5CcL_R2023.2E09.2E01.5Cmake.5Cobj.5Cfbl_cw.,@function
                         421 	.size	_FblCwCanIfSetMode..C.3A.5C_ECU2.5CECU_Rivian_A1.5CTarget.5Crepo_projects.5CpFOTA.5CcL_R2023.2E09.2E01.5Cmake.5Cobj.5Cfbl_cw.,.-_FblCwCanIfSetMode..C.3A.5C_ECU2.5CECU_Rivian_A1.5CTarget.5Crepo_projects.5CpFOTA.5CcL_R2023.2E09.2E01.5Cmake.5Cobj.5Cfbl_cw.
                         422 	.align	2
                         423 .LDW52:
                         424 --_result	r10	local
                         425 --_currentMode	3[sp]	local
                         426 --_maxWaitTime	r29	local
                         427 
                         428 --_controllerId	r28	param
                         429 --_mode	r27	param
                         430 
                         431 	.section ".bss","awb"
                         432 .L690:
                         433 	.type	.L690,@object
                         434 	.size	.L690,0
                         435 	.data
                         436 	.section ".RAMCODE","ax"
                         437 	.align	2
                         438 	.align	2
                         439 ..gh.f.f.1.e.4:
                         440 	.type	..gh.f.f.1.e.4,@object
                         441 	.size	..gh.f.f.1.e.4,0
                         442 	.global	_FblCheckOwnStartMsg..C.3A.5C_ECU2.5CECU_Rivian_A1.5CTarget.5Crepo_projects.5CpFOTA.5CcL_R2023.2E09.2E01.5Cmake.5Cobj.5Cfbl_cw.
                         443 _FblCheckOwnStartMsg..C.3A.5C_ECU2.5CECU_Rivian_A1.5CTarget.5Crepo_projects.5CpFOTA.5CcL_R2023.2E09.2E01.5Cmake.5Cobj.5Cfbl_cw.:
                         444 _FblCheckOwnStartMsg:

                                                                      Page 9
                                                              C:\Users\nhuliyap\AppData\Local\Temp\gh_000046k1.s
0000015c 84072100        445 	prepare	{r31},2
00000160 c700            446 	zxh	r7
                         447 --	    .bf
                         448 .LDW62:
00000162 683a            449 	cmp	8,r7
00000164 991d*           450 	bnl	.L795
                         451 --	    .bs
                         452 .LDW72:
                         453 --line621
                         454 ..lin.C.3A.5C_ECU2.5CECU_Rivian_A1.5CTarget.5Crepo_projects.5CpFOTA.5CcL_R2023.2E09.2E01.5Cmake.5Cobj.5Cfbl_cw.21::
                         455 .LDWlin21:
00000166 433f0000        456 	st.b	r7,0[sp]
                         457 --	    .bs
                         458 .LDW82:
0000016a 0192            459 	mov	1,r18
                         460 .L801:
0000016c 1288            461 	mov	r18,r17
0000016e c689            462 	add	r6,r17
00000170 b19fffff        463 	ld.bu	-1[r17],r19
00000174 03f0            464 	mov	sp,ep
00000176 d2f1            465 	add	r18,ep
00000178 4192            466 	add	1,r18
0000017a 809b            467 	sst.b	r19,0[ep]
0000017c 6892            468 	cmp	8,r18
0000017e f1f5*           469 	bl	.L801
                         470 --	    .es
                         471 .LDW92:
                         472 --line630
                         473 ..lin.C.3A.5C_ECU2.5CECU_Rivian_A1.5CTarget.5Crepo_projects.5CpFOTA.5CcL_R2023.2E09.2E01.5Cmake.5Cobj.5Cfbl_cw.22::
                         474 .LDWlin22:
00000180 0330            475 	mov	sp,r6
00000182 083a            476 	mov	8,r7
                         477 	jarl	_FblDiagCheckStartMsg,lp
                         477 <EXPANSION BEGIN>
                         477 jarl22 _FblDiagCheckStartMsg , lp 
00000184 80ff0000*       477 <EXPANSION END>
00000188 e051            478 	cmp	zero,r10
0000018a ea05*           479 	bne	.L795
                         480 --line631
                         481 ..lin.C.3A.5C_ECU2.5CECU_Rivian_A1.5CTarget.5Crepo_projects.5CpFOTA.5CcL_R2023.2E09.2E01.5Cmake.5Cobj.5Cfbl_cw.23::
                         482 .LDWlin23:
0000018c 2b0600000000*   483 	mov	sdaoff23(_fblCwStateStartMsg),r11
00000192 cb0f0000        484 	set1	1,0[r11]
                         485 .L795:
                         486 --	    .es
                         487 .LDW03:
                         488 --	    .ef
                         489 .LDW13:
00000196 44063f00        490 	dispose	2,{r31},[lp]
                         491 	.type	_FblCheckOwnStartMsg,@function
                         492 	.size	_FblCheckOwnStartMsg,.-_FblCheckOwnStartMsg
                         493 	.type	_FblCheckOwnStartMsg..C.3A.5C_ECU2.5CECU_Rivian_A1.5CTarget.5Crepo_projects.5CpFOTA.5CcL_R2023.2E09.2E01.5Cmake.5Cobj.5Cfbl_cw.,@function
                         494 	.size	_FblCheckOwnStartMsg..C.3A.5C_ECU2.5CECU_Rivian_A1.5CTarget.5Crepo_projects.5CpFOTA.5CcL_R2023.2E09.2E01.5Cmake.5Cobj.5Cfbl_cw.,.-_FblCheckOwnStartMsg..C.3A.5C_ECU2.5CECU_Rivian_A1.5CTarget.5Crepo_projects.5CpFOTA.5CcL_R2023.2E09.2E01.5Cmake.5Cobj.5Cfbl_cw.
                         495 	.align	2
                         496 .LDW23:
                         497 --_messageBuffer	0[sp]	local
                         498 --_i	r18	local
                         499 
                         500 --_data	r6	param
                         501 --_length	r7	param
                         502 

                                                                      Page 10
                                                              C:\Users\nhuliyap\AppData\Local\Temp\gh_000046k1.s
                         503 	.section ".bss","awb"
                         504 .L862:
                         505 	.type	.L862,@object
                         506 	.size	.L862,0
                         507 	.data
                         508 	.section ".RAMCODE","ax"
                         509 	.align	2
                         510 	.align	2
                         511 ..gh.f.f.1.e.5:
                         512 	.type	..gh.f.f.1.e.5,@object
                         513 	.size	..gh.f.f.1.e.5,0
                         514 	.global	_FblCwTransmitRP
                         515 _FblCwTransmitRP:
                         516 --	    .bf
                         517 .LDW33:
0000019a a40705900000*   518 	ld.bu	sdaoff23(_cwTxState)[gp],r18
000001a0 e091            519 	cmp	zero,r18
000001a2 a205*           520 	be	.L928
                         521 --	    .ef
                         522 .LDW43:
                         523 --line795
                         524 ..lin.C.3A.5C_ECU2.5CECU_Rivian_A1.5CTarget.5Crepo_projects.5CpFOTA.5CcL_R2023.2E09.2E01.5Cmake.5Cobj.5Cfbl_cw.24::
                         525 .LDWlin24:
000001a4 7f00            526 	jmp	[lp]
                         527 .L928:
                         528 --	    .bs
                         529 .LDW53:
                         530 --line790
                         531 ..lin.C.3A.5C_ECU2.5CECU_Rivian_A1.5CTarget.5Crepo_projects.5CpFOTA.5CcL_R2023.2E09.2E01.5Cmake.5Cobj.5Cfbl_cw.25::
                         532 .LDWlin25:
000001a6 1288            533 	mov	r18,r17
000001a8 c689            534 	add	r6,r17
000001aa 919f0100        535 	ld.bu	0[r17],r19
000001ae 04f0            536 	mov	gp,ep
000001b0 d2f1            537 	add	r18,ep
000001b2 4192            538 	add	1,r18
000001b4 9e070d980000*   539 	st.b	r19,sdaoff23(_txBuffer)[ep]
000001ba 6392            540 	cmp	3,r18
000001bc d1f5*           541 	bl	.L928
000001be bf0742fe*       542 	jr	_FblCwInternalTransmitRP
                         543 	.type	_FblCwTransmitRP,@function
                         544 	.size	_FblCwTransmitRP,.-_FblCwTransmitRP
                         545 	.align	2
                         546 .LDW63:
                         547 --_i	r18	local
                         548 
                         549 --_data	r6	param
                         550 
                         551 	.section ".bss","awb"
                         552 .L1104:
                         553 	.type	.L1104,@object
                         554 	.size	.L1104,0
                         555 	.data
                         556 	.section ".RAMCODE","ax"
                         557 	.align	2
                         558 	.align	2
                         559 ..gh.f.f.1.e.6:
                         560 	.type	..gh.f.f.1.e.6,@object
                         561 	.size	..gh.f.f.1.e.6,0
                         562 	.global	_FblCwRetransmitRP
                         563 _FblCwRetransmitRP:

                                                                      Page 11
                                                              C:\Users\nhuliyap\AppData\Local\Temp\gh_000046k1.s
                         564 --	    .bf
                         565 .LDW73:
000001c2 bf073efe*       566 	jr	_FblCwInternalTransmitRP
                         567 --	    .ef
                         568 .LDW83:
                         569 	.type	_FblCwRetransmitRP,@function
                         570 	.size	_FblCwRetransmitRP,.-_FblCwRetransmitRP
                         571 	.align	2
                         572 .LDW93:
                         573 
                         574 	.section ".bss","awb"
                         575 .L1185:
                         576 	.type	.L1185,@object
                         577 	.size	.L1185,0
                         578 	.data
                         579 	.section ".RAMCODE","ax"
                         580 	.align	2
                         581 	.align	2
                         582 ..gh.f.f.1.e.7:
                         583 	.type	..gh.f.f.1.e.7,@object
                         584 	.size	..gh.f.f.1.e.7,0
                         585 	.global	_FblCwTimerTask
                         586 _FblCwTimerTask:
000001c6 80072100        587 	prepare	{r31},0
                         588 --	    .bf
                         589 .LDW04:
000001ca a40705780000*   590 	ld.bu	sdaoff23(_FblCw_Initialized)[gp],r15
000001d0 e079            591 	cmp	zero,r15
000001d2 d23d*           592 	be	.L1204
                         593 --line803
                         594 ..lin.C.3A.5C_ECU2.5CECU_Rivian_A1.5CTarget.5Crepo_projects.5CpFOTA.5CcL_R2023.2E09.2E01.5Cmake.5Cobj.5Cfbl_cw.26::
                         595 .LDWlin26:
000001d4 a40705880000*   596 	ld.bu	sdaoff23(_cwTaskState)[gp],r17
000001da d1060100        597 	andi	1,r17,zero
000001de fa35*           598 	bne	.L1204
                         599 --line804
                         600 ..lin.C.3A.5C_ECU2.5CECU_Rivian_A1.5CTarget.5Crepo_projects.5CpFOTA.5CcL_R2023.2E09.2E01.5Cmake.5Cobj.5Cfbl_cw.27::
                         601 .LDWlin27:
000001e0 916e0500        602 	ori	5,r17,r13
000001e4 84070d680000*   603 	st.b	r13,sdaoff23(_cwTaskState)[gp]
                         604 	jarl	_FblCwInternalMainFunctionTimerTask,lp
                         604 <EXPANSION BEGIN>
                         604 jarl22 _FblCwInternalMainFunctionTimerTask , lp 
000001ea bfff7cfe*       604 <EXPANSION END>
                         605 --line808
                         606 ..lin.C.3A.5C_ECU2.5CECU_Rivian_A1.5CTarget.5Crepo_projects.5CpFOTA.5CcL_R2023.2E09.2E01.5Cmake.5Cobj.5Cfbl_cw.28::
                         607 .LDWlin28:
000001ee a40707900000*   608 	ld.hu	sdaoff23(_cwTxTimer)[gp],r18
000001f4 e091            609 	cmp	zero,r18
000001f6 c225*           610 	be	.L1210
                         611 --line812
                         612 ..lin.C.3A.5C_ECU2.5CECU_Rivian_A1.5CTarget.5Crepo_projects.5CpFOTA.5CcL_R2023.2E09.2E01.5Cmake.5Cobj.5Cfbl_cw.29::
                         613 .LDWlin29:
000001f8 a40705800000*   614 	ld.bu	sdaoff23(_cwTxState)[gp],r16
000001fe 5f92            615 	add	-1,r18
00000200 d200            616 	zxh	r18
00000202 a4070d900000*   617 	st.h	r18,sdaoff23(_cwTxTimer)[gp]
00000208 6282            618 	cmp	2,r16
0000020a b30d*           619 	bnh	.L1214
0000020c 6582            620 	cmp	5,r16
0000020e e115*           621 	bl	.L1221

                                                                      Page 12
                                                              C:\Users\nhuliyap\AppData\Local\Temp\gh_000046k1.s
00000210 c20d*           622 	be	.L1217
                         623 --line839
                         624 ..lin.C.3A.5C_ECU2.5CECU_Rivian_A1.5CTarget.5Crepo_projects.5CpFOTA.5CcL_R2023.2E09.2E01.5Cmake.5Cobj.5Cfbl_cw.30::
                         625 .LDWlin30:
00000212 84070d000000*   626 	st.b	zero,sdaoff23(_cwTxState)[gp]
00000218 a4070d000000*   627 	st.h	zero,sdaoff23(_cwTxTimer)[gp]
0000021e 8515*           628 	br	.L1210
                         629 .L1214:
                         630 --line818
                         631 ..lin.C.3A.5C_ECU2.5CECU_Rivian_A1.5CTarget.5Crepo_projects.5CpFOTA.5CcL_R2023.2E09.2E01.5Cmake.5Cobj.5Cfbl_cw.31::
                         632 .LDWlin31:
00000220 a4070d000000*   633 	st.h	zero,sdaoff23(_cwTxTimer)[gp]
00000226 c50d*           634 	br	.L1210
                         635 .L1217:
                         636 --line823
                         637 ..lin.C.3A.5C_ECU2.5CECU_Rivian_A1.5CTarget.5Crepo_projects.5CpFOTA.5CcL_R2023.2E09.2E01.5Cmake.5Cobj.5Cfbl_cw.32::
                         638 .LDWlin32:
00000228 e091            639 	cmp	zero,r18
0000022a aa0d*           640 	bne	.L1210
                         641 --line825
                         642 ..lin.C.3A.5C_ECU2.5CECU_Rivian_A1.5CTarget.5Crepo_projects.5CpFOTA.5CcL_R2023.2E09.2E01.5Cmake.5Cobj.5Cfbl_cw.33::
                         643 .LDWlin33:
0000022c 84070d000000*   644 	st.b	zero,sdaoff23(_cwTxState)[gp]
00000232 1230            645 	mov	r18,r6
                         646 	jarl	_FblDiagTxErrorIndication,lp
                         646 <EXPANSION BEGIN>
                         646 jarl22 _FblDiagTxErrorIndication , lp 
00000234 80ff0000*       646 <EXPANSION END>
00000238 b505*           647 	br	.L1210
                         648 .L1221:
                         649 --line834
                         650 ..lin.C.3A.5C_ECU2.5CECU_Rivian_A1.5CTarget.5Crepo_projects.5CpFOTA.5CcL_R2023.2E09.2E01.5Cmake.5Cobj.5Cfbl_cw.34::
                         651 .LDWlin34:
                         652 	jarl	_FblCwInternalPendingTask,lp
                         652 <EXPANSION BEGIN>
                         652 jarl22 _FblCwInternalPendingTask , lp 
0000023a bfff4afe*       652 <EXPANSION END>
                         653 .L1210:
                         654 --line850
                         655 ..lin.C.3A.5C_ECU2.5CECU_Rivian_A1.5CTarget.5Crepo_projects.5CpFOTA.5CcL_R2023.2E09.2E01.5Cmake.5Cobj.5Cfbl_cw.35::
                         656 .LDWlin35:
0000023e 3e0600000000*   657 	mov	sdaoff23(_cwTaskState),ep
00000244 de970000        658 	clr1	2,0[ep]
00000248 de870000        659 	clr1	0,0[ep]
                         660 .L1204:
                         661 --	    .ef
                         662 .LDW14:
0000024c 40063f00        663 	dispose	0,{r31},[lp]
                         664 	.type	_FblCwTimerTask,@function
                         665 	.size	_FblCwTimerTask,.-_FblCwTimerTask
                         666 	.align	2
                         667 .LDW24:
                         668 
                         669 	.section ".bss","awb"
                         670 .L1666:
                         671 	.type	.L1666,@object
                         672 	.size	.L1666,0
                         673 	.data
                         674 	.section ".RAMCODE","ax"
                         675 	.align	2
                         676 	.align	2

                                                                      Page 13
                                                              C:\Users\nhuliyap\AppData\Local\Temp\gh_000046k1.s
                         677 ..gh.f.f.1.e.8:
                         678 	.type	..gh.f.f.1.e.8,@object
                         679 	.size	..gh.f.f.1.e.8,0
                         680 	.global	_FblCwStateTask
                         681 _FblCwStateTask:
00000250 80072100        682 	prepare	{r31},0
                         683 --	    .bf
                         684 .LDW34:
00000254 a40705880000*   685 	ld.bu	sdaoff23(_FblCw_Initialized)[gp],r17
0000025a e089            686 	cmp	zero,r17
0000025c f215*           687 	be	.L1785
                         688 --line861
                         689 ..lin.C.3A.5C_ECU2.5CECU_Rivian_A1.5CTarget.5Crepo_projects.5CpFOTA.5CcL_R2023.2E09.2E01.5Cmake.5Cobj.5Cfbl_cw.36::
                         690 .LDWlin36:
0000025e a40705900000*   691 	ld.bu	sdaoff23(_cwTaskState)[gp],r18
00000264 d2060100        692 	andi	1,r18,zero
00000268 9a15*           693 	bne	.L1785
                         694 --line862
                         695 ..lin.C.3A.5C_ECU2.5CECU_Rivian_A1.5CTarget.5Crepo_projects.5CpFOTA.5CcL_R2023.2E09.2E01.5Cmake.5Cobj.5Cfbl_cw.37::
                         696 .LDWlin37:
0000026a 927e0300        697 	ori	3,r18,r15
0000026e 84070d780000*   698 	st.b	r15,sdaoff23(_cwTaskState)[gp]
                         699 	jarl	_Can_MainFunction_Write,lp
                         699 <EXPANSION BEGIN>
                         699 jarl22 _Can_MainFunction_Write , lp 
00000274 80ff0000*       699 <EXPANSION END>
                         700 --line879
                         701 ..lin.C.3A.5C_ECU2.5CECU_Rivian_A1.5CTarget.5Crepo_projects.5CpFOTA.5CcL_R2023.2E09.2E01.5Cmake.5Cobj.5Cfbl_cw.38::
                         702 .LDWlin38:
                         703 	jarl	_Can_MainFunction_Read,lp
                         703 <EXPANSION BEGIN>
                         703 jarl22 _Can_MainFunction_Read , lp 
00000278 80ff0000*       703 <EXPANSION END>
                         704 --line908
                         705 ..lin.C.3A.5C_ECU2.5CECU_Rivian_A1.5CTarget.5Crepo_projects.5CpFOTA.5CcL_R2023.2E09.2E01.5Cmake.5Cobj.5Cfbl_cw.39::
                         706 .LDWlin39:
0000027c 2b0600000000*   707 	mov	sdaoff23(_cwTaskState),r11
00000282 cb8f0000        708 	clr1	1,0[r11]
00000286 cb870000        709 	clr1	0,0[r11]
                         710 .L1785:
                         711 --	    .ef
                         712 .LDW44:
0000028a 40063f00        713 	dispose	0,{r31},[lp]
                         714 	.type	_FblCwStateTask,@function
                         715 	.size	_FblCwStateTask,.-_FblCwStateTask
                         716 	.align	2
                         717 .LDW54:
                         718 
                         719 	.section ".bss","awb"
                         720 .L1819:
                         721 	.type	.L1819,@object
                         722 	.size	.L1819,0
                         723 	.data
                         724 	.section ".RAMCODE","ax"
                         725 	.align	2
                         726 	.align	2
                         727 ..gh.f.f.1.e.9:
                         728 	.type	..gh.f.f.1.e.9,@object
                         729 	.size	..gh.f.f.1.e.9,0
                         730 	.global	_FblCwIdleTask
                         731 _FblCwIdleTask:

                                                                      Page 14
                                                              C:\Users\nhuliyap\AppData\Local\Temp\gh_000046k1.s
                         732 --	    .bf
                         733 .LDW64:
0000028e 80070000*       734 	jr	_Can_MainFunction_BusOff
                         735 --	    .ef
                         736 .LDW74:
                         737 	.type	_FblCwIdleTask,@function
                         738 	.size	_FblCwIdleTask,.-_FblCwIdleTask
                         739 	.align	2
                         740 .LDW84:
                         741 
                         742 	.section ".bss","awb"
                         743 .L1889:
                         744 	.type	.L1889,@object
                         745 	.size	.L1889,0
                         746 	.data
                         747 	.section ".RAMCODE","ax"
                         748 	.align	2
                         749 	.align	2
                         750 ..gh.f.f.1.e.10:
                         751 	.type	..gh.f.f.1.e.10,@object
                         752 	.size	..gh.f.f.1.e.10,0
                         753 	.global	_FblCw_InitMemory
                         754 _FblCw_InitMemory:
                         755 --	    .bf
                         756 .LDW94:
00000292 84070d000000*   757 	st.b	zero,sdaoff23(_FblCw_Initialized)[gp]
00000298 84070d000000*   758 	st.b	zero,sdaoff23(_fblCwStateStartMsg)[gp]
                         759 --	    .ef
                         760 .LDW05:
0000029e 7f00            761 	jmp	[lp]
                         762 	.type	_FblCw_InitMemory,@function
                         763 	.size	_FblCw_InitMemory,.-_FblCw_InitMemory
                         764 	.align	2
                         765 .LDW15:
                         766 
                         767 	.section ".bss","awb"
                         768 .L1937:
                         769 	.type	.L1937,@object
                         770 	.size	.L1937,0
                         771 	.data
                         772 	.section ".RAMCODE","ax"
                         773 	.align	2
                         774 	.align	2
                         775 ..gh.f.f.1.e.11:
                         776 	.type	..gh.f.f.1.e.11,@object
                         777 	.size	..gh.f.f.1.e.11,0
                         778 	.global	_FblCw_Init
                         779 _FblCw_Init:
000002a0 80076100        780 	prepare	{r29,r31},0
                         781 --	    .bf
                         782 .LDW25:
000002a4 2096ff00        783 	movea	255,zero,r18
000002a8 84070d000000*   784 	st.b	zero,sdaoff23(_cycleCounter)[gp]
000002ae a4070d000000*   785 	st.h	zero,sdaoff23(_cwTxTimer)[gp]
000002b4 84070d000000*   786 	st.b	zero,sdaoff23(_cwTxState)[gp]
000002ba 84070d000000*   787 	st.b	zero,sdaoff23(_cwTaskState)[gp]
000002c0 84070f000000*   788 	st.w	zero,sdaoff23(_cwCanHardwareLoopTimer)[gp]
000002c6 84070f900000*   789 	st.w	r18,sdaoff23(_activeConnection)[gp]
                         790 	jarl	_ApplTrcvrNormalMode,lp
                         790 <EXPANSION BEGIN>
                         790 jarl22 _ApplTrcvrNormalMode , lp 

                                                                      Page 15
                                                              C:\Users\nhuliyap\AppData\Local\Temp\gh_000046k1.s
000002cc 80ff0000*       790 <EXPANSION END>
                         791 --line1019
                         792 ..lin.C.3A.5C_ECU2.5CECU_Rivian_A1.5CTarget.5Crepo_projects.5CpFOTA.5CcL_R2023.2E09.2E01.5Cmake.5Cobj.5Cfbl_cw.40::
                         793 .LDWlin40:
                         794 	jarl	_FblCw_EcuMInit,lp
                         794 <EXPANSION BEGIN>
                         794 jarl22 _FblCw_EcuMInit , lp 
000002d0 80ff0000*       794 <EXPANSION END>
                         795 --	    .bs
                         796 .LDW35:
                         797 --	    .bs
                         798 .LDW45:
                         799 --line1044
                         800 ..lin.C.3A.5C_ECU2.5CECU_Rivian_A1.5CTarget.5Crepo_projects.5CpFOTA.5CcL_R2023.2E09.2E01.5Cmake.5Cobj.5Cfbl_cw.41::
                         801 .LDWlin41:
000002d4 a50705e80000*   802 	ld.bu	rosdaoff23(_FblCw_CanIfCtrlInfo)[r5],r29
000002da 023a            803 	mov	2,r7
000002dc 1d30            804 	mov	r29,r6
                         805 	jarl	_FblCwCanIfSetMode,lp
                         805 <EXPANSION BEGIN>
                         805 jarl22 _FblCwCanIfSetMode , lp 
000002de bfff18fe*       805 <EXPANSION END>
                         806 --line1049
                         807 ..lin.C.3A.5C_ECU2.5CECU_Rivian_A1.5CTarget.5Crepo_projects.5CpFOTA.5CcL_R2023.2E09.2E01.5Cmake.5Cobj.5Cfbl_cw.42::
                         808 .LDWlin42:
000002e2 1d30            809 	mov	r29,r6
000002e4 053a            810 	mov	5,r7
                         811 	jarl	_CanIf_SetPduMode,lp
                         811 <EXPANSION BEGIN>
                         811 jarl22 _CanIf_SetPduMode , lp 
000002e6 80ff0000*       811 <EXPANSION END>
                         812 --	    .es
                         813 .LDW55:
                         814 --	    .es
                         815 .LDW65:
                         816 --line1118
                         817 ..lin.C.3A.5C_ECU2.5CECU_Rivian_A1.5CTarget.5Crepo_projects.5CpFOTA.5CcL_R2023.2E09.2E01.5Cmake.5Cobj.5Cfbl_cw.43::
                         818 .LDWlin43:
000002ea 018a            819 	mov	1,r17
000002ec 84070d880000*   820 	st.b	r17,sdaoff23(_FblCw_Initialized)[gp]
                         821 --	    .ef
                         822 .LDW75:
000002f2 40067f00        823 	dispose	0,{r29,r31},[lp]
                         824 	.type	_FblCw_Init,@function
                         825 	.size	_FblCw_Init,.-_FblCw_Init
                         826 	.align	2
                         827 .LDW85:
                         828 --_currentChannel	r29	local
                         829 
                         830 --_config	none	param
                         831 
                         832 	.section ".bss","awb"
                         833 .L2019:
                         834 	.type	.L2019,@object
                         835 	.size	.L2019,0
                         836 	.data
                         837 	.section ".RAMCODE","ax"
                         838 	.align	2
                         839 	.align	2
                         840 ..gh.f.f.1.e.12:
                         841 	.type	..gh.f.f.1.e.12,@object

                                                                      Page 16
                                                              C:\Users\nhuliyap\AppData\Local\Temp\gh_000046k1.s
                         842 	.size	..gh.f.f.1.e.12,0
                         843 	.global	_FblCw_Deinit
                         844 _FblCw_Deinit:
                         845 --	    .bf
                         846 .LDW95:
000002f6 84070d000000*   847 	st.b	zero,sdaoff23(_FblCw_Initialized)[gp]
                         848 --	    .ef
                         849 .LDW06:
000002fc 7f00            850 	jmp	[lp]
                         851 	.type	_FblCw_Deinit,@function
                         852 	.size	_FblCw_Deinit,.-_FblCw_Deinit
                         853 	.align	2
                         854 .LDW16:
                         855 
                         856 	.section ".bss","awb"
                         857 .L2081:
                         858 	.type	.L2081,@object
                         859 	.size	.L2081,0
                         860 	.data
                         861 	.section ".RAMCODE","ax"
                         862 	.align	2
                         863 	.align	2
                         864 ..gh.f.f.1.e.13:
                         865 	.type	..gh.f.f.1.e.13,@object
                         866 	.size	..gh.f.f.1.e.13,0
                         867 	.global	_FblCwPduTransmit
                         868 _FblCwPduTransmit:
000002fe 8007e110        869 	prepare	{r27,r28,r29,r31},0
00000302 07e8            870 	mov	r7,r29
00000304 06d8            871 	mov	r6,r27
00000306 dd00            872 	zxh	r29
                         873 --	    .bf
                         874 .LDW26:
00000308 0ae2            875 	mov	10,r28
                         876 .L2106:
0000030a a40705480000*   877 	ld.bu	sdaoff23(_cwTxState)[gp],r9
00000310 e049            878 	cmp	zero,r9
00000312 920d*           879 	be	.L2102
                         880 --line1138
                         881 ..lin.C.3A.5C_ECU2.5CECU_Rivian_A1.5CTarget.5Crepo_projects.5CpFOTA.5CcL_R2023.2E09.2E01.5Cmake.5Cobj.5Cfbl_cw.44::
                         882 .LDWlin44:
                         883 	jarl	_FblLookForWatchdog,lp
                         883 <EXPANSION BEGIN>
                         883 jarl22 _FblLookForWatchdog , lp 
00000314 80ff0000*       883 <EXPANSION END>
00000318 e051            884 	cmp	zero,r10
0000031a 82fd*           885 	be	.L2106
                         886 --line1139
                         887 ..lin.C.3A.5C_ECU2.5CECU_Rivian_A1.5CTarget.5Crepo_projects.5CpFOTA.5CcL_R2023.2E09.2E01.5Cmake.5Cobj.5Cfbl_cw.45::
                         888 .LDWlin45:
0000031c 5fe2            889 	add	-1,r28
0000031e dce6ffff        890 	andi	65535,r28,r28
00000322 caf5*           891 	bne	.L2106
                         892 .L2102:
                         893 --line1143
                         894 ..lin.C.3A.5C_ECU2.5CECU_Rivian_A1.5CTarget.5Crepo_projects.5CpFOTA.5CcL_R2023.2E09.2E01.5Cmake.5Cobj.5Cfbl_cw.46::
                         895 .LDWlin46:
00000324 840709800000*   896 	ld.w	sdaoff23(_activeConnection)[gp],r16
0000032a 100601ff        897 	addi	-255,r16,zero
0000032e a235*           898 	be	.L2107
00000330 2b0600000000*   899 	mov	sdaoff23(_fblDiagStates),r11

                                                                      Page 17
                                                              C:\Users\nhuliyap\AppData\Local\Temp\gh_000046k1.s
00000336 cbe70000        900 	tst1	4,0[r11]
0000033a c22d*           901 	be	.L2107
                         902 --line1144
                         903 ..lin.C.3A.5C_ECU2.5CECU_Rivian_A1.5CTarget.5Crepo_projects.5CpFOTA.5CcL_R2023.2E09.2E01.5Cmake.5Cobj.5Cfbl_cw.47::
                         904 .LDWlin47:
0000033c 20466400        905 	movea	100,zero,r8
00000340 a4070d400000*   906 	st.h	r8,sdaoff23(_cwTxTimer)[gp]
00000346 9b370100        907 	ld.bu	0[r27],r6
0000034a 1b3e0100        908 	addi	1,r27,r7
0000034e 1d46ffff        909 	addi	-1,r29,r8
                         910 	jarl	_DcmAppendMessageAuthentication,lp
                         910 <EXPANSION BEGIN>
                         910 jarl22 _DcmAppendMessageAuthentication , lp 
00000352 80ff0000*       910 <EXPANSION END>
                         911 --line1151
                         912 ..lin.C.3A.5C_ECU2.5CECU_Rivian_A1.5CTarget.5Crepo_projects.5CpFOTA.5CcL_R2023.2E09.2E01.5Cmake.5Cobj.5Cfbl_cw.48::
                         913 .LDWlin48:
00000356 a40705900000*   914 	ld.bu	sdaoff23(_cwTxState)[gp],r18
0000035c cae9            915 	add	r10,r29
0000035e a4070de80000*   916 	st.h	r29,sdaoff23(_cwTxPendingLength)[gp]
00000364 84070fd80000*   917 	st.w	r27,sdaoff23(_cwTxPendingBuffer)[gp]
0000036a 5f92            918 	add	-1,r18
0000036c 6192            919 	cmp	1,r18
0000036e e315*           920 	bnh	.L2112
                         921 --line1170
                         922 ..lin.C.3A.5C_ECU2.5CECU_Rivian_A1.5CTarget.5Crepo_projects.5CpFOTA.5CcL_R2023.2E09.2E01.5Cmake.5Cobj.5Cfbl_cw.49::
                         923 .LDWlin49:
00000370 a50705300000*   924 	ld.bu	rosdaoff23(_FblCw_DcmDslConnectionInfo+5)[r5],r6
00000376 3e0600000000*   925 	mov	sdaoff23(_txPdu),ep
0000037c 024a            926 	mov	2,r9
0000037e 82ec            927 	sst.h	r29,4[ep]
00000380 01dd            928 	sst.w	r27,0[ep]
00000382 84070d480000*   929 	st.b	r9,sdaoff23(_cwTxState)[gp]
00000388 1e38            930 	mov	ep,r7
                         931 	jarl	_PduR_DcmTransmit,lp
                         931 <EXPANSION BEGIN>
                         931 jarl22 _PduR_DcmTransmit , lp 
0000038a 80ff0000*       931 <EXPANSION END>
0000038e e051            932 	cmp	zero,r10
00000390 fa05*           933 	bne	.L2117
                         934 .L2107:
                         935 --line1185
                         936 ..lin.C.3A.5C_ECU2.5CECU_Rivian_A1.5CTarget.5Crepo_projects.5CpFOTA.5CcL_R2023.2E09.2E01.5Cmake.5Cobj.5Cfbl_cw.50::
                         937 .LDWlin50:
                         938 	jarl	_Can_MainFunction_Write,lp
                         938 <EXPANSION BEGIN>
                         938 jarl22 _Can_MainFunction_Write , lp 
00000392 80ff0000*       938 <EXPANSION END>
                         939 --	    .ef
                         940 .LDW36:
                         941 --line1187
                         942 ..lin.C.3A.5C_ECU2.5CECU_Rivian_A1.5CTarget.5Crepo_projects.5CpFOTA.5CcL_R2023.2E09.2E01.5Cmake.5Cobj.5Cfbl_cw.51::
                         943 .LDWlin51:
00000396 4006ff10        944 	dispose	0,{r27,r28,r29,r31},[lp]
                         945 .L2112:
                         946 --line1155
                         947 ..lin.C.3A.5C_ECU2.5CECU_Rivian_A1.5CTarget.5Crepo_projects.5CpFOTA.5CcL_R2023.2E09.2E01.5Cmake.5Cobj.5Cfbl_cw.52::
                         948 .LDWlin52:
0000039a 058a            949 	mov	5,r17
0000039c a505*           950 	br	.L2158
                         951 .L2117:

                                                                      Page 18
                                                              C:\Users\nhuliyap\AppData\Local\Temp\gh_000046k1.s
                         952 --line1172
                         953 ..lin.C.3A.5C_ECU2.5CECU_Rivian_A1.5CTarget.5Crepo_projects.5CpFOTA.5CcL_R2023.2E09.2E01.5Cmake.5Cobj.5Cfbl_cw.53::
                         954 .LDWlin53:
0000039e 048a            955 	mov	4,r17
                         956 .L2158:
000003a0 84070d880000*   957 	st.b	r17,sdaoff23(_cwTxState)[gp]
000003a6 e5f5*           958 	br	.L2107
                         959 	.type	_FblCwPduTransmit,@function
                         960 	.size	_FblCwPduTransmit,.-_FblCwPduTransmit
                         961 	.align	2
                         962 .LDW46:
                         963 --_maxWaitTime	r28	local
                         964 
                         965 --_data	r27	param
                         966 --_length	r29	param
                         967 
                         968 	.section ".bss","awb"
                         969 .L2219:
                         970 	.type	.L2219,@object
                         971 	.size	.L2219,0
                         972 	.data
                         973 	.section ".RAMCODE","ax"
                         974 	.align	2
                         975 	.align	2
                         976 ..gh.f.f.1.e.14:
                         977 	.type	..gh.f.f.1.e.14,@object
                         978 	.size	..gh.f.f.1.e.14,0
                         979 	.global	_FblCwCheckStartMessage
                         980 _FblCwCheckStartMessage:
                         981 --	    .bf
                         982 .LDW56:
000003a8 a40705400000*   983 	ld.bu	sdaoff23(_fblCwStateStartMsg)[gp],r8
000003ae 8242            984 	shr	2,r8
000003b0 e9570000        985 	setfnl	r10
                         986 --	    .ef
                         987 .LDW66:
000003b4 7f00            988 	jmp	[lp]
                         989 	.type	_FblCwCheckStartMessage,@function
                         990 	.size	_FblCwCheckStartMessage,.-_FblCwCheckStartMessage
                         991 	.align	2
                         992 .LDW76:
                         993 --_result	r10	local
                         994 
                         995 	.section ".bss","awb"
                         996 .L2381:
                         997 	.type	.L2381,@object
                         998 	.size	.L2381,0
                         999 	.data
                        1000 	.section ".RAMCODE","ax"
                        1001 	.align	2
                        1002 	.align	2
                        1003 ..gh.f.f.1.e.15:
                        1004 	.type	..gh.f.f.1.e.15,@object
                        1005 	.size	..gh.f.f.1.e.15,0
                        1006 	.global	_FblCwTxSetTargetAddress
                        1007 _FblCwTxSetTargetAddress:
                        1008 --	    .bf
                        1009 .LDW86:
000003b6 2096ff00       1010 	movea	255,zero,r18
000003ba e031           1011 	cmp	zero,r6
000003bc f237349b       1012 	cmovne	r18,r6,r19

                                                                      Page 19
                                                              C:\Users\nhuliyap\AppData\Local\Temp\gh_000046k1.s
000003c0 84070f980000*  1013 	st.w	r19,sdaoff23(_activeConnection)[gp]
                        1014 --	    .ef
                        1015 .LDW96:
000003c6 7f00           1016 	jmp	[lp]
                        1017 	.type	_FblCwTxSetTargetAddress,@function
                        1018 	.size	_FblCwTxSetTargetAddress,.-_FblCwTxSetTargetAddress
                        1019 	.align	2
                        1020 .LDW07:
                        1021 
                        1022 --_targetAddress	r6	param
                        1023 
                        1024 	.section ".bss","awb"
                        1025 .L2459:
                        1026 	.type	.L2459,@object
                        1027 	.size	.L2459,0
                        1028 	.data
                        1029 	.section ".RAMCODE","ax"
                        1030 	.align	2
                        1031 	.align	2
                        1032 ..gh.f.f.1.e.16:
                        1033 	.type	..gh.f.f.1.e.16,@object
                        1034 	.size	..gh.f.f.1.e.16,0
                        1035 	.global	_FblCwGetResponseAddress
                        1036 _FblCwGetResponseAddress:
                        1037 --	    .bf
                        1038 .LDW17:
000003c8 840709500000*  1039 	ld.w	sdaoff23(_activeConnection)[gp],r10
                        1040 --	    .ef
                        1041 .LDW27:
000003ce 7f00           1042 	jmp	[lp]
                        1043 	.type	_FblCwGetResponseAddress,@function
                        1044 	.size	_FblCwGetResponseAddress,.-_FblCwGetResponseAddress
                        1045 	.align	2
                        1046 .LDW37:
                        1047 
                        1048 	.section ".bss","awb"
                        1049 .L2513:
                        1050 	.type	.L2513,@object
                        1051 	.size	.L2513,0
                        1052 	.data
                        1053 	.section ".RAMCODE","ax"
                        1054 	.align	2
                        1055 	.align	2
                        1056 ..gh.f.f.1.e.17:
                        1057 	.type	..gh.f.f.1.e.17,@object
                        1058 	.size	..gh.f.f.1.e.17,0
                        1059 	.global	_FblCwResetResponseAddress
                        1060 _FblCwResetResponseAddress:
                        1061 --	    .bf
                        1062 .LDW47:
000003d0 2096ff00       1063 	movea	255,zero,r18
000003d4 84070f900000*  1064 	st.w	r18,sdaoff23(_activeConnection)[gp]
                        1065 --	    .ef
                        1066 .LDW57:
000003da 7f00           1067 	jmp	[lp]
                        1068 	.type	_FblCwResetResponseAddress,@function
                        1069 	.size	_FblCwResetResponseAddress,.-_FblCwResetResponseAddress
                        1070 	.align	2
                        1071 .LDW67:
                        1072 
                        1073 	.section ".bss","awb"

                                                                      Page 20
                                                              C:\Users\nhuliyap\AppData\Local\Temp\gh_000046k1.s
                        1074 .L2561:
                        1075 	.type	.L2561,@object
                        1076 	.size	.L2561,0
                        1077 	.data
                        1078 	.section ".RAMCODE","ax"
                        1079 	.align	2
                        1080 	.align	2
                        1081 ..gh.f.f.1.e.18:
                        1082 	.type	..gh.f.f.1.e.18,@object
                        1083 	.size	..gh.f.f.1.e.18,0
                        1084 	.global	_FblCwPrepareResponseAddress
                        1085 _FblCwPrepareResponseAddress:
000003dc 80072100       1086 	prepare	{r31},0
                        1087 --	    .bf
                        1088 .LDW77:
000003e0 0032           1089 	mov	0,r6
                        1090 	jarl	_FblCwTxSetTargetAddress,lp
                        1090 <EXPANSION BEGIN>
                        1090 jarl22 _FblCwTxSetTargetAddress , lp 
000003e2 bfffd4ff*      1090 <EXPANSION END>
                        1091 --line1264
                        1092 ..lin.C.3A.5C_ECU2.5CECU_Rivian_A1.5CTarget.5Crepo_projects.5CpFOTA.5CcL_R2023.2E09.2E01.5Cmake.5Cobj.5Cfbl_cw.54::
                        1093 .LDWlin54:
000003e6 0650           1094 	mov	r6,r10
                        1095 --	    .ef
                        1096 .LDW87:
000003e8 40063f00       1097 	dispose	0,{r31},[lp]
                        1098 	.type	_FblCwPrepareResponseAddress,@function
                        1099 	.size	_FblCwPrepareResponseAddress,.-_FblCwPrepareResponseAddress
                        1100 	.align	2
                        1101 .LDW97:
                        1102 
                        1103 	.section ".bss","awb"
                        1104 .L2609:
                        1105 	.type	.L2609,@object
                        1106 	.size	.L2609,0
                        1107 	.data
                        1108 	.section ".RAMCODE","ax"
                        1109 	.align	2
                        1110 	.align	2
                        1111 ..gh.f.f.1.e.19:
                        1112 	.type	..gh.f.f.1.e.19,@object
                        1113 	.size	..gh.f.f.1.e.19,0
                        1114 	.global	_FblCwSaveResponseAddress
                        1115 _FblCwSaveResponseAddress:
                        1116 --	    .bf
                        1117 .LDW08:
000003ec 0052           1118 	mov	0,r10
                        1119 --	    .ef
                        1120 .LDW18:
000003ee 7f00           1121 	jmp	[lp]
                        1122 	.type	_FblCwSaveResponseAddress,@function
                        1123 	.size	_FblCwSaveResponseAddress,.-_FblCwSaveResponseAddress
                        1124 	.align	2
                        1125 .LDW28:
                        1126 
                        1127 	.section ".bss","awb"
                        1128 .L2657:
                        1129 	.type	.L2657,@object
                        1130 	.size	.L2657,0
                        1131 	.data

                                                                      Page 21
                                                              C:\Users\nhuliyap\AppData\Local\Temp\gh_000046k1.s
                        1132 	.section ".RAMCODE","ax"
                        1133 	.align	2
                        1134 	.align	2
                        1135 ..gh.f.f.1.e.20:
                        1136 	.type	..gh.f.f.1.e.20,@object
                        1137 	.size	..gh.f.f.1.e.20,0
                        1138 	.global	_FblCwResetRxBlock
                        1139 _FblCwResetRxBlock:
                        1140 --	    .bf
                        1141 .LDW38:
                        1142 --	    .ef
                        1143 .LDW48:
000003f0 7f00           1144 	jmp	[lp]
                        1145 	.type	_FblCwResetRxBlock,@function
                        1146 	.size	_FblCwResetRxBlock,.-_FblCwResetRxBlock
                        1147 	.align	2
                        1148 .LDW58:
                        1149 
                        1150 	.section ".bss","awb"
                        1151 .L2704:
                        1152 	.type	.L2704,@object
                        1153 	.size	.L2704,0
                        1154 	.data
                        1155 	.section ".RAMCODE","ax"
                        1156 	.align	2
                        1157 	.align	2
                        1158 ..gh.f.f.1.e.21:
                        1159 	.type	..gh.f.f.1.e.21,@object
                        1160 	.size	..gh.f.f.1.e.21,0
                        1161 	.global	_FblCwGetPayloadLimit
                        1162 _FblCwGetPayloadLimit:
                        1163 --	    .bf
                        1164 .LDW68:
000003f2 840709480000*  1165 	ld.w	sdaoff23(_activeConnection)[gp],r9
000003f8 090601ff       1166 	addi	-255,r9,zero
000003fc d205*          1167 	be	.L2723
                        1168 --line1344
                        1169 ..lin.C.3A.5C_ECU2.5CECU_Rivian_A1.5CTarget.5Crepo_projects.5CpFOTA.5CcL_R2023.2E09.2E01.5Cmake.5Cobj.5Cfbl_cw.55::
                        1170 .LDWlin55:
000003fe a50707500000*  1171 	ld.hu	rosdaoff23(_FblCw_DcmDslConnectionInfo)[r5],r10
00000404 7f00           1172 	jmp	[lp]
                        1173 .L2723:
00000406 0052           1174 	mov	0,r10
                        1175 --	    .ef
                        1176 .LDW78:
                        1177 --line1347
                        1178 ..lin.C.3A.5C_ECU2.5CECU_Rivian_A1.5CTarget.5Crepo_projects.5CpFOTA.5CcL_R2023.2E09.2E01.5Cmake.5Cobj.5Cfbl_cw.56::
                        1179 .LDWlin56:
00000408 7f00           1180 	jmp	[lp]
                        1181 	.type	_FblCwGetPayloadLimit,@function
                        1182 	.size	_FblCwGetPayloadLimit,.-_FblCwGetPayloadLimit
                        1183 	.align	2
                        1184 .LDW88:
                        1185 --_payloadLimit	r10	local
                        1186 
                        1187 	.section ".bss","awb"
                        1188 .L2779:
                        1189 	.type	.L2779,@object
                        1190 	.size	.L2779,0
                        1191 	.data
                        1192 	.section ".RAMCODE","ax"

                                                                      Page 22
                                                              C:\Users\nhuliyap\AppData\Local\Temp\gh_000046k1.s
                        1193 	.align	2
                        1194 	.align	2
                        1195 ..gh.f.f.1.e.22:
                        1196 	.type	..gh.f.f.1.e.22,@object
                        1197 	.size	..gh.f.f.1.e.22,0
                        1198 	.global	_Dcm_StartOfReception
                        1199 _Dcm_StartOfReception:
0000040a 8007e110       1200 	prepare	{r27,r28,r29,r31},0
0000040e 08e8           1201 	mov	r8,r29
00000410 8600           1202 	zxb	r6
00000412 dd00           1203 	zxh	r29
00000414 09d8           1204 	mov	r9,r27
                        1205 --	    .bf
                        1206 .LDW98:
00000416 a40705380000*  1207 	ld.bu	sdaoff23(_FblCw_Initialized)[gp],r7
0000041c 01e2           1208 	mov	1,r28
0000041e e039           1209 	cmp	zero,r7
00000420 9a0d*          1210 	bne	.L2823
00000422 024a           1211 	mov	2,r9
                        1212 .L2855:
                        1213 --line1481
                        1214 ..lin.C.3A.5C_ECU2.5CECU_Rivian_A1.5CTarget.5Crepo_projects.5CpFOTA.5CcL_R2023.2E09.2E01.5Cmake.5Cobj.5Cfbl_cw.57::
                        1215 .LDWlin57:
00000424 2036ff00       1216 	movea	255,zero,r6
00000428 003a           1217 	mov	0,r7
0000042a 1c40           1218 	mov	r28,r8
                        1219 	jarl	_Det_ReportError,lp
                        1219 <EXPANSION BEGIN>
                        1219 jarl22 _Det_ReportError , lp 
0000042c 80ff0000*      1219 <EXPANSION END>
00000430 8565*          1220 	br	.L2854
                        1221 .L2823:
                        1222 --line1363
                        1223 ..lin.C.3A.5C_ECU2.5CECU_Rivian_A1.5CTarget.5Crepo_projects.5CpFOTA.5CcL_R2023.2E09.2E01.5Cmake.5Cobj.5Cfbl_cw.58::
                        1224 .LDWlin58:
00000432 6232           1225 	cmp	2,r6
00000434 e14f124b       1226 	cmovnl	1,r9,r9
00000438 e9f5*          1227 	bnl	.L2855
                        1228 --line1379
                        1229 ..lin.C.3A.5C_ECU2.5CECU_Rivian_A1.5CTarget.5Crepo_projects.5CpFOTA.5CcL_R2023.2E09.2E01.5Cmake.5Cobj.5Cfbl_cw.59::
                        1230 .LDWlin59:
0000043a 840709900000*  1231 	ld.w	sdaoff23(_activeConnection)[gp],r18
00000440 120601ff       1232 	addi	-255,r18,zero
00000444 aa0d*          1233 	bne	.L2829
                        1234 --line1380
                        1235 ..lin.C.3A.5C_ECU2.5CECU_Rivian_A1.5CTarget.5Crepo_projects.5CpFOTA.5CcL_R2023.2E09.2E01.5Cmake.5Cobj.5Cfbl_cw.60::
                        1236 .LDWlin60:
00000446 06f0           1237 	mov	r6,ep
00000448 c1f2           1238 	shl	1,ep
0000044a c5f1           1239 	add	r5,ep
0000044c be0705900000*  1240 	ld.bu	rosdaoff23(_FblCw_DcmDslProtocolRxInfo+1)[ep],r18
00000452 84070f900000*  1241 	st.w	r18,sdaoff23(_activeConnection)[gp]
                        1242 .L2829:
00000458 06f0           1243 	mov	r6,ep
0000045a c1f2           1244 	shl	1,ep
0000045c 310600000000*  1245 	mov	rosdaoff23(_FblCw_DcmDslProtocolRxInfo),r17
00000462 d1f1           1246 	add	r17,ep
00000464 6180           1247 	sld.bu	1[ep],r16
00000466 f091           1248 	cmp	r16,r18
00000468 ca45*          1249 	bne	.L2854
                        1250 --line1384

                                                                      Page 23
                                                              C:\Users\nhuliyap\AppData\Local\Temp\gh_000046k1.s
                        1251 ..lin.C.3A.5C_ECU2.5CECU_Rivian_A1.5CTarget.5Crepo_projects.5CpFOTA.5CcL_R2023.2E09.2E01.5Cmake.5Cobj.5Cfbl_cw.61::
                        1252 .LDWlin61:
0000046a 6078           1253 	sld.bu	0[ep],r15
0000046c 617a           1254 	cmp	1,r15
0000046e 9125*          1255 	bl	.L2844
00000470 8a45*          1256 	bne	.L2854
                        1257 --line1389
                        1258 ..lin.C.3A.5C_ECU2.5CECU_Rivian_A1.5CTarget.5Crepo_projects.5CpFOTA.5CcL_R2023.2E09.2E01.5Cmake.5Cobj.5Cfbl_cw.62::
                        1259 .LDWlin62:
00000472 1d0600f0       1260 	addi	-4096,r29,zero
00000476 c13d*          1261 	bl	.L2845
                        1262 --line1401
                        1263 ..lin.C.3A.5C_ECU2.5CECU_Rivian_A1.5CTarget.5Crepo_projects.5CpFOTA.5CcL_R2023.2E09.2E01.5Cmake.5Cobj.5Cfbl_cw.63::
                        1264 .LDWlin63:
00000478 1d30           1265 	mov	r29,r6
                        1266 	jarl	_FblDiagRxGetPhysBuffer,lp
                        1266 <EXPANSION BEGIN>
                        1266 jarl22 _FblDiagRxGetPhysBuffer , lp 
0000047a 80ff0000*      1266 <EXPANSION END>
                        1267 --line1403
                        1268 ..lin.C.3A.5C_ECU2.5CECU_Rivian_A1.5CTarget.5Crepo_projects.5CpFOTA.5CcL_R2023.2E09.2E01.5Cmake.5Cobj.5Cfbl_cw.64::
                        1269 .LDWlin64:
0000047e 2076ff0f       1270 	movea	4095,zero,r14
00000482 84070f500000*  1271 	st.w	r10,sdaoff23(_rxPduPhys)[gp]
00000488 84070f500000*  1272 	st.w	r10,sdaoff23(_rxBuffer)[gp]
0000048e a4070d700000*  1273 	st.h	r14,sdaoff23(_rxRemainingBufferSize)[gp]
00000494 e051           1274 	cmp	zero,r10
00000496 d22d*          1275 	be	.L2854
                        1276 --line1408
                        1277 ..lin.C.3A.5C_ECU2.5CECU_Rivian_A1.5CTarget.5Crepo_projects.5CpFOTA.5CcL_R2023.2E09.2E01.5Cmake.5Cobj.5Cfbl_cw.65::
                        1278 .LDWlin65:
00000498 a4070de80000*  1279 	st.h	r29,sdaoff23(_rxPduPhys+4)[gp]
0000049e 7b770000       1280 	st.h	r14,0[r27]
000004a2 a4070de80000*  1281 	st.h	r29,sdaoff23(_rxDataLength)[gp]
                        1282 	jarl	_FblDiagRxStartIndication,lp
                        1282 <EXPANSION BEGIN>
                        1282 jarl22 _FblDiagRxStartIndication , lp 
000004a8 80ff0000*      1282 <EXPANSION END>
                        1283 --line1421
                        1284 ..lin.C.3A.5C_ECU2.5CECU_Rivian_A1.5CTarget.5Crepo_projects.5CpFOTA.5CcL_R2023.2E09.2E01.5Cmake.5Cobj.5Cfbl_cw.66::
                        1285 .LDWlin66:
000004ac 00e2           1286 	mov	0,r28
000004ae 9525*          1287 	br	.L2854
                        1288 .L2844:
                        1289 --line1437
                        1290 ..lin.C.3A.5C_ECU2.5CECU_Rivian_A1.5CTarget.5Crepo_projects.5CpFOTA.5CcL_R2023.2E09.2E01.5Cmake.5Cobj.5Cfbl_cw.67::
                        1291 .LDWlin67:
000004b0 1d0600f0       1292 	addi	-4096,r29,zero
000004b4 d11d*          1293 	bl	.L2845
                        1294 --line1439
                        1295 ..lin.C.3A.5C_ECU2.5CECU_Rivian_A1.5CTarget.5Crepo_projects.5CpFOTA.5CcL_R2023.2E09.2E01.5Cmake.5Cobj.5Cfbl_cw.68::
                        1296 .LDWlin68:
000004b6 1d30           1297 	mov	r29,r6
                        1298 	jarl	_FblDiagRxGetFuncBuffer,lp
                        1298 <EXPANSION BEGIN>
                        1298 jarl22 _FblDiagRxGetFuncBuffer , lp 
000004b8 80ff0000*      1298 <EXPANSION END>
                        1299 --line1441
                        1300 ..lin.C.3A.5C_ECU2.5CECU_Rivian_A1.5CTarget.5Crepo_projects.5CpFOTA.5CcL_R2023.2E09.2E01.5Cmake.5Cobj.5Cfbl_cw.69::
                        1301 .LDWlin69:
000004bc 2046ff0f       1302 	movea	4095,zero,r8

                                                                      Page 24
                                                              C:\Users\nhuliyap\AppData\Local\Temp\gh_000046k1.s
000004c0 a4070d400000*  1303 	st.h	r8,sdaoff23(_rxRemainingBufferSize)[gp]
000004c6 84070f500000*  1304 	st.w	r10,sdaoff23(_rxPduFunc)[gp]
000004cc 84070f500000*  1305 	st.w	r10,sdaoff23(_rxBuffer)[gp]
000004d2 7b470000       1306 	st.h	r8,0[r27]
000004d6 00e2           1307 	mov	0,r28
000004d8 e051           1308 	cmp	zero,r10
000004da b20d*          1309 	be	.L2854
                        1310 --line1448
                        1311 ..lin.C.3A.5C_ECU2.5CECU_Rivian_A1.5CTarget.5Crepo_projects.5CpFOTA.5CcL_R2023.2E09.2E01.5Cmake.5Cobj.5Cfbl_cw.70::
                        1312 .LDWlin70:
000004dc a4070de80000*  1313 	st.h	r29,sdaoff23(_rxPduFunc+4)[gp]
000004e2 a4070de80000*  1314 	st.h	r29,sdaoff23(_rxDataLength)[gp]
                        1315 	jarl	_FblDiagRxStartIndication,lp
                        1315 <EXPANSION BEGIN>
                        1315 jarl22 _FblDiagRxStartIndication , lp 
000004e8 80ff0000*      1315 <EXPANSION END>
000004ec a505*          1316 	br	.L2854
                        1317 .L2845:
                        1318 --line1460
                        1319 ..lin.C.3A.5C_ECU2.5CECU_Rivian_A1.5CTarget.5Crepo_projects.5CpFOTA.5CcL_R2023.2E09.2E01.5Cmake.5Cobj.5Cfbl_cw.71::
                        1320 .LDWlin71:
000004ee 03e2           1321 	mov	3,r28
                        1322 .L2854:
000004f0 1c50           1323 	mov	r28,r10
                        1324 --	    .ef
                        1325 .LDW09:
000004f2 4006ff10       1326 	dispose	0,{r27,r28,r29,r31},[lp]
                        1327 	.type	_Dcm_StartOfReception,@function
                        1328 	.size	_Dcm_StartOfReception,.-_Dcm_StartOfReception
                        1329 	.align	2
                        1330 .LDW19:
                        1331 --_errorId	r9	local
                        1332 --_result	r28	local
                        1333 
                        1334 --_id	r6	param
                        1335 --_info	none	param
                        1336 --_TpSduLength	r29	param
                        1337 --_bufferSizePtr	r27	param
                        1338 
                        1339 	.section ".bss","awb"
                        1340 .L3004:
                        1341 	.type	.L3004,@object
                        1342 	.size	.L3004,0
                        1343 	.data
                        1344 	.section ".RAMCODE","ax"
                        1345 	.align	2
                        1346 	.align	2
                        1347 ..gh.f.f.1.e.23:
                        1348 	.type	..gh.f.f.1.e.23,@object
                        1349 	.size	..gh.f.f.1.e.23,0
                        1350 	.global	_Dcm_CopyRxData
                        1351 _Dcm_CopyRxData:
000004f6 8007fb700000*  1352 	prepare	{r25,r26,r27,r28,r29,r31},0,sdaoff23(_cwTaskState)
000004fc 0000*
000004fe 8600           1353 	zxb	r6
00000500 07e8           1354 	mov	r7,r29
00000502 08d0           1355 	mov	r8,r26
                        1356 --	    .bf
                        1357 .LDW29:
00000504 60c8           1358 	sld.bu	0[ep],r25
00000506 a40705880000*  1359 	ld.bu	sdaoff23(_FblCw_Initialized)[gp],r17

                                                                      Page 25
                                                              C:\Users\nhuliyap\AppData\Local\Temp\gh_000046k1.s
0000050c 01e2           1360 	mov	1,r28
0000050e 99960100       1361 	ori	1,r25,r18
00000512 e089           1362 	cmp	zero,r17
00000514 8093           1363 	sst.b	r18,0[ep]
00000516 e20704db       1364 	cmove	2,zero,r27
0000051a f26d*          1365 	be	.L3169
                        1366 --line1503
                        1367 ..lin.C.3A.5C_ECU2.5CECU_Rivian_A1.5CTarget.5Crepo_projects.5CpFOTA.5CcL_R2023.2E09.2E01.5Cmake.5Cobj.5Cfbl_cw.72::
                        1368 .LDWlin72:
0000051c 6232           1369 	cmp	2,r6
0000051e e1df12db       1370 	cmovnl	1,r27,r27
00000522 b96d*          1371 	bnl	.L3169
                        1372 --line1514
                        1373 ..lin.C.3A.5C_ECU2.5CECU_Rivian_A1.5CTarget.5Crepo_projects.5CpFOTA.5CcL_R2023.2E09.2E01.5Cmake.5Cobj.5Cfbl_cw.73::
                        1374 .LDWlin73:
00000524 a40705780000*  1375 	ld.bu	sdaoff23(_fblCwStateStartMsg)[gp],r15
0000052a 817a           1376 	shr	1,r15
0000052c f90d*          1377 	bnl	.L3173
                        1378 --line1515
                        1379 ..lin.C.3A.5C_ECU2.5CECU_Rivian_A1.5CTarget.5Crepo_projects.5CpFOTA.5CcL_R2023.2E09.2E01.5Cmake.5Cobj.5Cfbl_cw.74::
                        1380 .LDWlin74:
0000052e 27370100       1381 	ld.w	0[r7],r6
00000532 e73f0500       1382 	ld.hu	4[r7],r7
                        1383 	jarl	_FblCheckOwnStartMsg,lp
                        1383 <EXPANSION BEGIN>
                        1383 jarl22 _FblCheckOwnStartMsg , lp 
00000536 bfff26fc*      1383 <EXPANSION END>
                        1384 --line1517
                        1385 ..lin.C.3A.5C_ECU2.5CECU_Rivian_A1.5CTarget.5Crepo_projects.5CpFOTA.5CcL_R2023.2E09.2E01.5Cmake.5Cobj.5Cfbl_cw.75::
                        1386 .LDWlin75:
0000053a a40705700000*  1387 	ld.bu	sdaoff23(_fblCwStateStartMsg)[gp],r14
00000540 ce960200       1388 	andi	2,r14,r18
00000544 e19714e3       1389 	cmovne	1,r18,r28
00000548 855d*          1390 	br	.L3169
                        1391 .L3173:
                        1392 --line1525
                        1393 ..lin.C.3A.5C_ECU2.5CECU_Rivian_A1.5CTarget.5Crepo_projects.5CpFOTA.5CcL_R2023.2E09.2E01.5Cmake.5Cobj.5Cfbl_cw.76::
                        1394 .LDWlin76:
0000054a 06f0           1395 	mov	r6,ep
0000054c c1f2           1396 	shl	1,ep
0000054e 2d0600000000*  1397 	mov	rosdaoff23(_FblCw_DcmDslProtocolRxInfo),r13
00000554 cdf1           1398 	add	r13,ep
00000556 6160           1399 	sld.bu	1[ep],r12
00000558 840709580000*  1400 	ld.w	sdaoff23(_activeConnection)[gp],r11
0000055e ec59           1401 	cmp	r12,r11
00000560 ca4d*          1402 	bne	.L3169
                        1403 --line1527
                        1404 ..lin.C.3A.5C_ECU2.5CECU_Rivian_A1.5CTarget.5Crepo_projects.5CpFOTA.5CcL_R2023.2E09.2E01.5Cmake.5Cobj.5Cfbl_cw.77::
                        1405 .LDWlin77:
00000562 6050           1406 	sld.bu	0[ep],r10
00000564 6152           1407 	cmp	1,r10
00000566 c125*          1408 	bl	.L3190
00000568 8a4d*          1409 	bne	.L3169
                        1410 --line1559
                        1411 ..lin.C.3A.5C_ECU2.5CECU_Rivian_A1.5CTarget.5Crepo_projects.5CpFOTA.5CcL_R2023.2E09.2E01.5Cmake.5Cobj.5Cfbl_cw.78::
                        1412 .LDWlin78:
0000056a 840709300000*  1413 	ld.w	sdaoff23(_rxPduPhys)[gp],r6
00000570 e031           1414 	cmp	zero,r6
00000572 b245*          1415 	be	.L3169
                        1416 --line1561
                        1417 ..lin.C.3A.5C_ECU2.5CECU_Rivian_A1.5CTarget.5Crepo_projects.5CpFOTA.5CcL_R2023.2E09.2E01.5Cmake.5Cobj.5Cfbl_cw.79::

                                                                      Page 26
                                                              C:\Users\nhuliyap\AppData\Local\Temp\gh_000046k1.s
                        1418 .LDWlin79:
00000574 e7470500       1419 	ld.hu	4[r7],r8
00000578 a40707480000*  1420 	ld.hu	sdaoff23(_rxRemainingBufferSize)[gp],r9
0000057e e941           1421 	cmp	r9,r8
00000580 cb3d*          1422 	bh	.L3169
                        1423 --line1563
                        1424 ..lin.C.3A.5C_ECU2.5CECU_Rivian_A1.5CTarget.5Crepo_projects.5CpFOTA.5CcL_R2023.2E09.2E01.5Cmake.5Cobj.5Cfbl_cw.80::
                        1425 .LDWlin80:
00000582 273f0100       1426 	ld.w	0[r7],r7
                        1427 	jarl	_ownmemcpy,lp
                        1427 <EXPANSION BEGIN>
                        1427 jarl22 _ownmemcpy , lp 
00000586 80ff0000*      1427 <EXPANSION END>
                        1428 --line1564
                        1429 ..lin.C.3A.5C_ECU2.5CECU_Rivian_A1.5CTarget.5Crepo_projects.5CpFOTA.5CcL_R2023.2E09.2E01.5Cmake.5Cobj.5Cfbl_cw.81::
                        1430 .LDWlin81:
0000058a 3e0600000000*  1431 	mov	sdaoff23(_rxPduPhys),ep
00000590 fd470500       1432 	ld.hu	4[r29],r8
00000594 0035           1433 	sld.w	0[ep],r6
00000596 1be0           1434 	mov	r27,r28
00000598 c831           1435 	add	r8,r6
0000059a 0135           1436 	sst.w	r6,0[ep]
0000059c 3e0600000000*  1437 	mov	sdaoff23(_rxRemainingBufferSize),ep
000005a2 7038           1438 	sld.hu	0[ep],r7
000005a4 a839           1439 	sub	r8,r7
000005a6 803c           1440 	sst.h	r7,0[ep]
000005a8 7a3f0000       1441 	st.h	r7,0[r26]
000005ac e525*          1442 	br	.L3169
                        1443 .L3190:
                        1444 --line1582
                        1445 ..lin.C.3A.5C_ECU2.5CECU_Rivian_A1.5CTarget.5Crepo_projects.5CpFOTA.5CcL_R2023.2E09.2E01.5Cmake.5Cobj.5Cfbl_cw.82::
                        1446 .LDWlin82:
000005ae 840709300000*  1447 	ld.w	sdaoff23(_rxPduFunc)[gp],r6
000005b4 a40707980000*  1448 	ld.hu	sdaoff23(_rxRemainingBufferSize)[gp],r19
000005ba e031           1449 	cmp	zero,r6
000005bc b21d*          1450 	be	.L3191
                        1451 --line1584
                        1452 ..lin.C.3A.5C_ECU2.5CECU_Rivian_A1.5CTarget.5Crepo_projects.5CpFOTA.5CcL_R2023.2E09.2E01.5Cmake.5Cobj.5Cfbl_cw.83::
                        1453 .LDWlin83:
000005be e7470500       1454 	ld.hu	4[r7],r8
000005c2 f341           1455 	cmp	r19,r8
000005c4 ab1d*          1456 	bh	.L3169
                        1457 --line1586
                        1458 ..lin.C.3A.5C_ECU2.5CECU_Rivian_A1.5CTarget.5Crepo_projects.5CpFOTA.5CcL_R2023.2E09.2E01.5Cmake.5Cobj.5Cfbl_cw.84::
                        1459 .LDWlin84:
000005c6 273f0100       1460 	ld.w	0[r7],r7
                        1461 	jarl	_ownmemcpy,lp
                        1461 <EXPANSION BEGIN>
                        1461 jarl22 _ownmemcpy , lp 
000005ca 80ff0000*      1461 <EXPANSION END>
                        1462 --line1587
                        1463 ..lin.C.3A.5C_ECU2.5CECU_Rivian_A1.5CTarget.5Crepo_projects.5CpFOTA.5CcL_R2023.2E09.2E01.5Cmake.5Cobj.5Cfbl_cw.85::
                        1464 .LDWlin85:
000005ce 3e0600000000*  1465 	mov	sdaoff23(_rxPduFunc),ep
000005d4 fd470500       1466 	ld.hu	4[r29],r8
000005d8 009d           1467 	sld.w	0[ep],r19
000005da 1be0           1468 	mov	r27,r28
000005dc c899           1469 	add	r8,r19
000005de 019d           1470 	sst.w	r19,0[ep]
000005e0 3e0600000000*  1471 	mov	sdaoff23(_rxRemainingBufferSize),ep
000005e6 7038           1472 	sld.hu	0[ep],r7

                                                                      Page 27
                                                              C:\Users\nhuliyap\AppData\Local\Temp\gh_000046k1.s
000005e8 a839           1473 	sub	r8,r7
000005ea 803c           1474 	sst.h	r7,0[ep]
000005ec 7a3f0000       1475 	st.h	r7,0[r26]
000005f0 c505*          1476 	br	.L3169
                        1477 .L3191:
                        1478 --line1596
                        1479 ..lin.C.3A.5C_ECU2.5CECU_Rivian_A1.5CTarget.5Crepo_projects.5CpFOTA.5CcL_R2023.2E09.2E01.5Cmake.5Cobj.5Cfbl_cw.86::
                        1480 .LDWlin86:
000005f2 689f0000       1481 	st.h	r19,0[r8]
000005f6 06e0           1482 	mov	r6,r28
                        1483 .L3169:
000005f8 84070dc80000*  1484 	st.b	r25,sdaoff23(_cwTaskState)[gp]
000005fe e0d9           1485 	cmp	zero,r27
00000600 820d*          1486 	be	.L3198
                        1487 --line1643
                        1488 ..lin.C.3A.5C_ECU2.5CECU_Rivian_A1.5CTarget.5Crepo_projects.5CpFOTA.5CcL_R2023.2E09.2E01.5Cmake.5Cobj.5Cfbl_cw.87::
                        1489 .LDWlin87:
00000602 1b48           1490 	mov	r27,r9
00000604 2036ff00       1491 	movea	255,zero,r6
00000608 003a           1492 	mov	0,r7
0000060a 0242           1493 	mov	2,r8
                        1494 	jarl	_Det_ReportError,lp
                        1494 <EXPANSION BEGIN>
                        1494 jarl22 _Det_ReportError , lp 
0000060c 80ff0000*      1494 <EXPANSION END>
                        1495 .L3198:
                        1496 --line1647
                        1497 ..lin.C.3A.5C_ECU2.5CECU_Rivian_A1.5CTarget.5Crepo_projects.5CpFOTA.5CcL_R2023.2E09.2E01.5Cmake.5Cobj.5Cfbl_cw.88::
                        1498 .LDWlin88:
00000610 1c50           1499 	mov	r28,r10
                        1500 --	    .ef
                        1501 .LDW39:
00000612 4006ff70       1502 	dispose	0,{r25,r26,r27,r28,r29,r31},[lp]
                        1503 	.type	_Dcm_CopyRxData,@function
                        1504 	.size	_Dcm_CopyRxData,.-_Dcm_CopyRxData
                        1505 	.align	2
                        1506 .LDW49:
                        1507 --_errorId	r27	local
                        1508 --_result	r28	local
                        1509 --_state	r25	local
                        1510 
                        1511 --_id	r6	param
                        1512 --_info	r29	param
                        1513 --_bufferSizePtr	r26	param
                        1514 
                        1515 	.section ".bss","awb"
                        1516 .L3958:
                        1517 	.type	.L3958,@object
                        1518 	.size	.L3958,0
                        1519 	.data
                        1520 	.section ".RAMCODE","ax"
                        1521 	.align	2
                        1522 	.align	2
                        1523 ..gh.f.f.1.e.24:
                        1524 	.type	..gh.f.f.1.e.24,@object
                        1525 	.size	..gh.f.f.1.e.24,0
                        1526 	.global	_Dcm_CopyTxData
                        1527 _Dcm_CopyTxData:
00000616 8007e170       1528 	prepare	{r25,r26,r27,r28,r29,r31},0
0000061a 8600           1529 	zxb	r6
0000061c 07d8           1530 	mov	r7,r27

                                                                      Page 28
                                                              C:\Users\nhuliyap\AppData\Local\Temp\gh_000046k1.s
0000061e 08f0           1531 	mov	r8,ep
00000620 09c8           1532 	mov	r9,r25
                        1533 --	    .bf
                        1534 .LDW59:
00000622 a40705d00000*  1535 	ld.bu	sdaoff23(_cwTaskState)[gp],r26
00000628 a40705900000*  1536 	ld.bu	sdaoff23(_FblCw_Initialized)[gp],r18
0000062e 01e2           1537 	mov	1,r28
00000630 9a9e0100       1538 	ori	1,r26,r19
00000634 e091           1539 	cmp	zero,r18
00000636 84070d980000*  1540 	st.b	r19,sdaoff23(_cwTaskState)[gp]
0000063c e20704eb       1541 	cmove	2,zero,r29
00000640 923d*          1542 	be	.L4137
                        1543 --line1665
                        1544 ..lin.C.3A.5C_ECU2.5CECU_Rivian_A1.5CTarget.5Crepo_projects.5CpFOTA.5CcL_R2023.2E09.2E01.5Cmake.5Cobj.5Cfbl_cw.89::
                        1545 .LDWlin89:
00000642 e031           1546 	cmp	zero,r6
00000644 e1ef14eb       1547 	cmovne	1,r29,r29
00000648 da35*          1548 	bne	.L4137
                        1549 --line1676
                        1550 ..lin.C.3A.5C_ECU2.5CECU_Rivian_A1.5CTarget.5Crepo_projects.5CpFOTA.5CcL_R2023.2E09.2E01.5Cmake.5Cobj.5Cfbl_cw.90::
                        1551 .LDWlin90:
0000064a e041           1552 	cmp	zero,r8
0000064c 820d*          1553 	be	.L4141
                        1554 --line1677
                        1555 ..lin.C.3A.5C_ECU2.5CECU_Rivian_A1.5CTarget.5Crepo_projects.5CpFOTA.5CcL_R2023.2E09.2E01.5Cmake.5Cobj.5Cfbl_cw.91::
                        1556 .LDWlin91:
0000064e 008b           1557 	sld.b	0[ep],r17
00000650 e089           1558 	cmp	zero,r17
00000652 d205*          1559 	be	.L4141
                        1560 --line1677
                        1561 ..lin.C.3A.5C_ECU2.5CECU_Rivian_A1.5CTarget.5Crepo_projects.5CpFOTA.5CcL_R2023.2E09.2E01.5Cmake.5Cobj.5Cfbl_cw.92::
                        1562 .LDWlin92:
00000654 20365000       1563 	movea	80,zero,r6
                        1564 	jarl	_ApplFblFatalError,lp
                        1564 <EXPANSION BEGIN>
                        1564 jarl22 _ApplFblFatalError , lp 
00000658 80ff0000*      1564 <EXPANSION END>
                        1565 .L4141:
                        1566 --line1680
                        1567 ..lin.C.3A.5C_ECU2.5CECU_Rivian_A1.5CTarget.5Crepo_projects.5CpFOTA.5CcL_R2023.2E09.2E01.5Cmake.5Cobj.5Cfbl_cw.93::
                        1568 .LDWlin93:
0000065c a50705800000*  1569 	ld.bu	rosdaoff23(_FblCw_DcmDslProtocolTxInfo)[r5],r16
00000662 840709780000*  1570 	ld.w	sdaoff23(_activeConnection)[gp],r15
00000668 f079           1571 	cmp	r16,r15
0000066a ca25*          1572 	bne	.L4137
                        1573 --line1682
                        1574 ..lin.C.3A.5C_ECU2.5CECU_Rivian_A1.5CTarget.5Crepo_projects.5CpFOTA.5CcL_R2023.2E09.2E01.5Cmake.5Cobj.5Cfbl_cw.94::
                        1575 .LDWlin94:
0000066c fb470500       1576 	ld.hu	4[r27],r8
00000670 1de0           1577 	mov	r29,r28
00000672 a40707980000*  1578 	ld.hu	sdaoff23(_txPdu+4)[gp],r19
00000678 e041           1579 	cmp	zero,r8
0000067a ca05*          1580 	bne	.L4147
                        1581 --line1684
                        1582 ..lin.C.3A.5C_ECU2.5CECU_Rivian_A1.5CTarget.5Crepo_projects.5CpFOTA.5CcL_R2023.2E09.2E01.5Cmake.5Cobj.5Cfbl_cw.95::
                        1583 .LDWlin95:
0000067c 799f0000       1584 	st.h	r19,0[r25]
00000680 951d*          1585 	br	.L4137
                        1586 .L4147:
                        1587 --line1688
                        1588 ..lin.C.3A.5C_ECU2.5CECU_Rivian_A1.5CTarget.5Crepo_projects.5CpFOTA.5CcL_R2023.2E09.2E01.5Cmake.5Cobj.5Cfbl_cw.96::

                                                                      Page 29
                                                              C:\Users\nhuliyap\AppData\Local\Temp\gh_000046k1.s
                        1589 .LDWlin96:
00000682 f341           1590 	cmp	r19,r8
00000684 eb15*          1591 	bh	.L4150
                        1592 --line1690
                        1593 ..lin.C.3A.5C_ECU2.5CECU_Rivian_A1.5CTarget.5Crepo_projects.5CpFOTA.5CcL_R2023.2E09.2E01.5Cmake.5Cobj.5Cfbl_cw.97::
                        1594 .LDWlin97:
00000686 3b370100       1595 	ld.w	0[r27],r6
0000068a 840709380000*  1596 	ld.w	sdaoff23(_txPdu)[gp],r7
                        1597 	jarl	_ownmemcpy,lp
                        1597 <EXPANSION BEGIN>
                        1597 jarl22 _ownmemcpy , lp 
00000690 80ff0000*      1597 <EXPANSION END>
                        1598 --line1691
                        1599 ..lin.C.3A.5C_ECU2.5CECU_Rivian_A1.5CTarget.5Crepo_projects.5CpFOTA.5CcL_R2023.2E09.2E01.5Cmake.5Cobj.5Cfbl_cw.98::
                        1600 .LDWlin98:
00000694 3e0600000000*  1601 	mov	sdaoff23(_txPdu),ep
0000069a fb470500       1602 	ld.hu	4[r27],r8
0000069e 0035           1603 	sld.w	0[ep],r6
000006a0 7238           1604 	sld.hu	4[ep],r7
000006a2 c831           1605 	add	r8,r6
000006a4 a839           1606 	sub	r8,r7
000006a6 823c           1607 	sst.h	r7,4[ep]
000006a8 0135           1608 	sst.w	r6,0[ep]
000006aa 793f0000       1609 	st.h	r7,0[r25]
000006ae a505*          1610 	br	.L4137
                        1611 .L4150:
                        1612 --line1697
                        1613 ..lin.C.3A.5C_ECU2.5CECU_Rivian_A1.5CTarget.5Crepo_projects.5CpFOTA.5CcL_R2023.2E09.2E01.5Cmake.5Cobj.5Cfbl_cw.99::
                        1614 .LDWlin99:
000006b0 01e2           1615 	mov	1,r28
                        1616 .L4137:
000006b2 84070dd00000*  1617 	st.b	r26,sdaoff23(_cwTaskState)[gp]
000006b8 e0e9           1618 	cmp	zero,r29
000006ba 820d*          1619 	be	.L4153
                        1620 --line1739
                        1621 ..lin.C.3A.5C_ECU2.5CECU_Rivian_A1.5CTarget.5Crepo_projects.5CpFOTA.5CcL_R2023.2E09.2E01.5Cmake.5Cobj.5Cfbl_cw.100::
                        1622 .LDWlin100:
000006bc 1d48           1623 	mov	r29,r9
000006be 2036ff00       1624 	movea	255,zero,r6
000006c2 003a           1625 	mov	0,r7
000006c4 0342           1626 	mov	3,r8
                        1627 	jarl	_Det_ReportError,lp
                        1627 <EXPANSION BEGIN>
                        1627 jarl22 _Det_ReportError , lp 
000006c6 80ff0000*      1627 <EXPANSION END>
                        1628 .L4153:
                        1629 --line1745
                        1630 ..lin.C.3A.5C_ECU2.5CECU_Rivian_A1.5CTarget.5Crepo_projects.5CpFOTA.5CcL_R2023.2E09.2E01.5Cmake.5Cobj.5Cfbl_cw.101::
                        1631 .LDWlin101:
000006ca 1c50           1632 	mov	r28,r10
                        1633 --	    .ef
                        1634 .LDW69:
000006cc 4006ff70       1635 	dispose	0,{r25,r26,r27,r28,r29,r31},[lp]
                        1636 	.type	_Dcm_CopyTxData,@function
                        1637 	.size	_Dcm_CopyTxData,.-_Dcm_CopyTxData
                        1638 	.align	2
                        1639 .LDW79:
                        1640 --_errorId	r29	local
                        1641 --_result	r28	local
                        1642 --_state	r26	local
                        1643 

                                                                      Page 30
                                                              C:\Users\nhuliyap\AppData\Local\Temp\gh_000046k1.s
                        1644 --_id	r6	param
                        1645 --_info	r27	param
                        1646 --_retry	ep	param
                        1647 --_availableDataPtr	r25	param
                        1648 
                        1649 	.section ".bss","awb"
                        1650 .L4288:
                        1651 	.type	.L4288,@object
                        1652 	.size	.L4288,0
                        1653 	.data
                        1654 	.section ".RAMCODE","ax"
                        1655 	.align	2
                        1656 	.align	2
                        1657 ..gh.f.f.1.e.25:
                        1658 	.type	..gh.f.f.1.e.25,@object
                        1659 	.size	..gh.f.f.1.e.25,0
                        1660 	.global	_Dcm_TpRxIndication
                        1661 _Dcm_TpRxIndication:
000006d0 8600           1662 	zxb	r6
000006d2 8700           1663 	zxb	r7
                        1664 --	    .bf
                        1665 .LDW89:
000006d4 a40705980000*  1666 	ld.bu	sdaoff23(_FblCw_Initialized)[gp],r19
000006da 024a           1667 	mov	2,r9
000006dc e099           1668 	cmp	zero,r19
000006de e22d*          1669 	be	.L4458
                        1670 --line1759
                        1671 ..lin.C.3A.5C_ECU2.5CECU_Rivian_A1.5CTarget.5Crepo_projects.5CpFOTA.5CcL_R2023.2E09.2E01.5Cmake.5Cobj.5Cfbl_cw.102::
                        1672 .LDWlin102:
000006e0 6232           1673 	cmp	2,r6
000006e2 014a           1674 	mov	1,r9
000006e4 b92d*          1675 	bnl	.L4458
                        1676 --line1770
                        1677 ..lin.C.3A.5C_ECU2.5CECU_Rivian_A1.5CTarget.5Crepo_projects.5CpFOTA.5CcL_R2023.2E09.2E01.5Cmake.5Cobj.5Cfbl_cw.103::
                        1678 .LDWlin103:
000006e6 06f0           1679 	mov	r6,ep
000006e8 c1f2           1680 	shl	1,ep
000006ea 320600000000*  1681 	mov	rosdaoff23(_FblCw_DcmDslProtocolRxInfo),r18
000006f0 d2f1           1682 	add	r18,ep
000006f2 6188           1683 	sld.bu	1[ep],r17
000006f4 840709800000*  1684 	ld.w	sdaoff23(_activeConnection)[gp],r16
000006fa f181           1685 	cmp	r17,r16
000006fc 9a0d*          1686 	bne	.L4433
                        1687 --line1771
                        1688 ..lin.C.3A.5C_ECU2.5CECU_Rivian_A1.5CTarget.5Crepo_projects.5CpFOTA.5CcL_R2023.2E09.2E01.5Cmake.5Cobj.5Cfbl_cw.104::
                        1689 .LDWlin104:
000006fe 6040           1690 	sld.bu	0[ep],r8
00000700 6142           1691 	cmp	1,r8
00000702 fa05*          1692 	bne	.L4445
00000704 840709780000*  1693 	ld.w	sdaoff23(_rxPduPhys)[gp],r15
0000070a e079           1694 	cmp	zero,r15
0000070c 9a0d*          1695 	bne	.L4444
                        1696 .L4433:
                        1697 --	    .ef
                        1698 .LDW99:
                        1699 --line1865
                        1700 ..lin.C.3A.5C_ECU2.5CECU_Rivian_A1.5CTarget.5Crepo_projects.5CpFOTA.5CcL_R2023.2E09.2E01.5Cmake.5Cobj.5Cfbl_cw.105::
                        1701 .LDWlin105:
0000070e 7f00           1702 	jmp	[lp]
                        1703 .L4445:
00000710 e041           1704 	cmp	zero,r8

                                                                      Page 31
                                                              C:\Users\nhuliyap\AppData\Local\Temp\gh_000046k1.s
00000712 eafd*          1705 	bne	.L4433
00000714 840709700000*  1706 	ld.w	sdaoff23(_rxPduFunc)[gp],r14
0000071a e071           1707 	cmp	zero,r14
0000071c 92fd*          1708 	be	.L4433
                        1709 .L4444:
                        1710 --line1777
                        1711 ..lin.C.3A.5C_ECU2.5CECU_Rivian_A1.5CTarget.5Crepo_projects.5CpFOTA.5CcL_R2023.2E09.2E01.5Cmake.5Cobj.5Cfbl_cw.106::
                        1712 .LDWlin106:
0000071e e039           1713 	cmp	zero,r7
00000720 d205*          1714 	be	.L4450
00000722 683a           1715 	cmp	8,r7
00000724 dbf5*          1716 	bh	.L4433
00000726 80070000*      1717 	jr	_FblDiagRxErrorIndication
                        1718 .L4450:
                        1719 --line1795
                        1720 ..lin.C.3A.5C_ECU2.5CECU_Rivian_A1.5CTarget.5Crepo_projects.5CpFOTA.5CcL_R2023.2E09.2E01.5Cmake.5Cobj.5Cfbl_cw.107::
                        1721 .LDWlin107:
0000072a 840709300000*  1722 	ld.w	sdaoff23(_DiagBuffer)[gp],r6
00000730 a40707380000*  1723 	ld.hu	sdaoff23(_rxDataLength)[gp],r7
00000736 80070000*      1724 	jr	_FblDiagRxIndication
                        1725 .L4458:
                        1726 --line1860
                        1727 ..lin.C.3A.5C_ECU2.5CECU_Rivian_A1.5CTarget.5Crepo_projects.5CpFOTA.5CcL_R2023.2E09.2E01.5Cmake.5Cobj.5Cfbl_cw.108::
                        1728 .LDWlin108:
0000073a 2036ff00       1729 	movea	255,zero,r6
0000073e 003a           1730 	mov	0,r7
00000740 0442           1731 	mov	4,r8
00000742 80070000*      1732 	jr	_Det_ReportError
                        1733 	.type	_Dcm_TpRxIndication,@function
                        1734 	.size	_Dcm_TpRxIndication,.-_Dcm_TpRxIndication
                        1735 	.align	2
                        1736 .LDW001:
                        1737 --_errorId	r9	local
                        1738 
                        1739 --_id	r6	param
                        1740 --_result	r7	param
                        1741 
                        1742 	.section ".bss","awb"
                        1743 .L4574:
                        1744 	.type	.L4574,@object
                        1745 	.size	.L4574,0
                        1746 	.data
                        1747 	.section ".RAMCODE","ax"
                        1748 	.align	2
                        1749 	.align	2
                        1750 ..gh.f.f.1.e.26:
                        1751 	.type	..gh.f.f.1.e.26,@object
                        1752 	.size	..gh.f.f.1.e.26,0
                        1753 	.global	_Dcm_TpTxConfirmation
                        1754 _Dcm_TpTxConfirmation:
00000746 80072100       1755 	prepare	{r31},0
0000074a 8600           1756 	zxb	r6
0000074c 8700           1757 	zxb	r7
                        1758 --	    .bf
                        1759 .LDW101:
0000074e a40705980000*  1760 	ld.bu	sdaoff23(_FblCw_Initialized)[gp],r19
00000754 024a           1761 	mov	2,r9
00000756 e099           1762 	cmp	zero,r19
00000758 b24d*          1763 	be	.L4769
                        1764 --line1878
                        1765 ..lin.C.3A.5C_ECU2.5CECU_Rivian_A1.5CTarget.5Crepo_projects.5CpFOTA.5CcL_R2023.2E09.2E01.5Cmake.5Cobj.5Cfbl_cw.109::

                                                                      Page 32
                                                              C:\Users\nhuliyap\AppData\Local\Temp\gh_000046k1.s
                        1766 .LDWlin109:
0000075a e031           1767 	cmp	zero,r6
0000075c 014a           1768 	mov	1,r9
0000075e 8a4d*          1769 	bne	.L4769
                        1770 --line1889
                        1771 ..lin.C.3A.5C_ECU2.5CECU_Rivian_A1.5CTarget.5Crepo_projects.5CpFOTA.5CcL_R2023.2E09.2E01.5Cmake.5Cobj.5Cfbl_cw.110::
                        1772 .LDWlin110:
00000760 a50705900000*  1773 	ld.bu	rosdaoff23(_FblCw_DcmDslProtocolTxInfo)[r5],r18
00000766 840709880000*  1774 	ld.w	sdaoff23(_activeConnection)[gp],r17
0000076c f289           1775 	cmp	r18,r17
0000076e ea45*          1776 	bne	.L4730
                        1777 --line1890
                        1778 ..lin.C.3A.5C_ECU2.5CECU_Rivian_A1.5CTarget.5Crepo_projects.5CpFOTA.5CcL_R2023.2E09.2E01.5Cmake.5Cobj.5Cfbl_cw.111::
                        1779 .LDWlin111:
00000770 a40705900000*  1780 	ld.bu	sdaoff23(_cwTxState)[gp],r18
00000776 e039           1781 	cmp	zero,r7
00000778 8a25*          1782 	bne	.L4740
                        1783 --line1892
                        1784 ..lin.C.3A.5C_ECU2.5CECU_Rivian_A1.5CTarget.5Crepo_projects.5CpFOTA.5CcL_R2023.2E09.2E01.5Cmake.5Cobj.5Cfbl_cw.112::
                        1785 .LDWlin112:
0000077a 6192           1786 	cmp	1,r18
0000077c 9115*          1787 	bl	.L4745
0000077e a20d*          1788 	be	.L4747
00000780 6292           1789 	cmp	2,r18
00000782 c20d*          1790 	be	.L4749
00000784 6592           1791 	cmp	5,r18
00000786 e22d*          1792 	be	.L4765
                        1793 --line1919
                        1794 ..lin.C.3A.5C_ECU2.5CECU_Rivian_A1.5CTarget.5Crepo_projects.5CpFOTA.5CcL_R2023.2E09.2E01.5Cmake.5Cobj.5Cfbl_cw.113::
                        1795 .LDWlin113:
00000788 20365000       1796 	movea	80,zero,r6
                        1797 	jarl	_ApplFblFatalError,lp
                        1797 <EXPANSION BEGIN>
                        1797 jarl22 _ApplFblFatalError , lp 
0000078c 80ff0000*      1797 <EXPANSION END>
00000790 f505*          1798 	br	.L4745
                        1799 .L4747:
                        1800 --line1900
                        1801 ..lin.C.3A.5C_ECU2.5CECU_Rivian_A1.5CTarget.5Crepo_projects.5CpFOTA.5CcL_R2023.2E09.2E01.5Cmake.5Cobj.5Cfbl_cw.114::
                        1802 .LDWlin114:
00000792 0332           1803 	mov	3,r6
                        1804 	jarl	_FblDiagTxConfirmation,lp
                        1804 <EXPANSION BEGIN>
                        1804 jarl22 _FblDiagTxConfirmation , lp 
00000794 80ff0000*      1804 <EXPANSION END>
                        1805 --line1901
                        1806 ..lin.C.3A.5C_ECU2.5CECU_Rivian_A1.5CTarget.5Crepo_projects.5CpFOTA.5CcL_R2023.2E09.2E01.5Cmake.5Cobj.5Cfbl_cw.115::
                        1807 .LDWlin115:
00000798 b505*          1808 	br	.L4745
                        1809 .L4749:
                        1810 --line1905
                        1811 ..lin.C.3A.5C_ECU2.5CECU_Rivian_A1.5CTarget.5Crepo_projects.5CpFOTA.5CcL_R2023.2E09.2E01.5Cmake.5Cobj.5Cfbl_cw.116::
                        1812 .LDWlin116:
                        1813 	jarl	_FblDiagTxConfirmation,lp
                        1813 <EXPANSION BEGIN>
                        1813 jarl22 _FblDiagTxConfirmation , lp 
0000079a 80ff0000*      1813 <EXPANSION END>
                        1814 .L4745:
                        1815 --line1924
                        1816 ..lin.C.3A.5C_ECU2.5CECU_Rivian_A1.5CTarget.5Crepo_projects.5CpFOTA.5CcL_R2023.2E09.2E01.5Cmake.5Cobj.5Cfbl_cw.117::
                        1817 .LDWlin117:

                                                                      Page 33
                                                              C:\Users\nhuliyap\AppData\Local\Temp\gh_000046k1.s
0000079e a40705800000*  1818 	ld.bu	sdaoff23(_cwTxState)[gp],r16
000007a4 6482           1819 	cmp	4,r16
000007a6 a22d*          1820 	be	.L4730
                        1821 --line1926
                        1822 ..lin.C.3A.5C_ECU2.5CECU_Rivian_A1.5CTarget.5Crepo_projects.5CpFOTA.5CcL_R2023.2E09.2E01.5Cmake.5Cobj.5Cfbl_cw.118::
                        1823 .LDWlin118:
000007a8 84070d000000*  1824 	st.b	zero,sdaoff23(_cwTxState)[gp]
000007ae a4070d000000*  1825 	st.h	zero,sdaoff23(_cwTxTimer)[gp]
000007b4 40063f00       1826 	dispose	0,{r31},[lp]
                        1827 .L4740:
                        1828 --line1932
                        1829 ..lin.C.3A.5C_ECU2.5CECU_Rivian_A1.5CTarget.5Crepo_projects.5CpFOTA.5CcL_R2023.2E09.2E01.5Cmake.5Cobj.5Cfbl_cw.119::
                        1830 .LDWlin119:
000007b8 6192           1831 	cmp	1,r18
000007ba f20d*          1832 	be	.L4762
000007bc 6392           1833 	cmp	3,r18
000007be d20d*          1834 	be	.L4762
000007c0 6592           1835 	cmp	5,r18
000007c2 8215*          1836 	be	.L4765
                        1837 --line1947
                        1838 ..lin.C.3A.5C_ECU2.5CECU_Rivian_A1.5CTarget.5Crepo_projects.5CpFOTA.5CcL_R2023.2E09.2E01.5Cmake.5Cobj.5Cfbl_cw.120::
                        1839 .LDWlin120:
                        1840 	jarl	_FblDiagTxErrorIndication,lp
                        1840 <EXPANSION BEGIN>
                        1840 jarl22 _FblDiagTxErrorIndication , lp 
000007c4 80ff0000*      1840 <EXPANSION END>
                        1841 --line1949
                        1842 ..lin.C.3A.5C_ECU2.5CECU_Rivian_A1.5CTarget.5Crepo_projects.5CpFOTA.5CcL_R2023.2E09.2E01.5Cmake.5Cobj.5Cfbl_cw.121::
                        1843 .LDWlin121:
000007c8 84070d000000*  1844 	st.b	zero,sdaoff23(_cwTxState)[gp]
000007ce a4070d000000*  1845 	st.h	zero,sdaoff23(_cwTxTimer)[gp]
000007d4 40063f00       1846 	dispose	0,{r31},[lp]
                        1847 .L4762:
                        1848 --line1937
                        1849 ..lin.C.3A.5C_ECU2.5CECU_Rivian_A1.5CTarget.5Crepo_projects.5CpFOTA.5CcL_R2023.2E09.2E01.5Cmake.5Cobj.5Cfbl_cw.122::
                        1850 .LDWlin122:
000007d8 0332           1851 	mov	3,r6
                        1852 	jarl	_FblDiagTxErrorIndication,lp
                        1852 <EXPANSION BEGIN>
                        1852 jarl22 _FblDiagTxErrorIndication , lp 
000007da 80ff0000*      1852 <EXPANSION END>
                        1853 --line1938
                        1854 ..lin.C.3A.5C_ECU2.5CECU_Rivian_A1.5CTarget.5Crepo_projects.5CpFOTA.5CcL_R2023.2E09.2E01.5Cmake.5Cobj.5Cfbl_cw.123::
                        1855 .LDWlin123:
000007de 40063f00       1856 	dispose	0,{r31},[lp]
                        1857 .L4765:
                        1858 --line1942
                        1859 ..lin.C.3A.5C_ECU2.5CECU_Rivian_A1.5CTarget.5Crepo_projects.5CpFOTA.5CcL_R2023.2E09.2E01.5Cmake.5Cobj.5Cfbl_cw.124::
                        1860 .LDWlin124:
000007e2 047a           1861 	mov	4,r15
000007e4 84070d780000*  1862 	st.b	r15,sdaoff23(_cwTxState)[gp]
000007ea 40063f00       1863 	dispose	0,{r31},[lp]
                        1864 .L4769:
                        1865 --line1978
                        1866 ..lin.C.3A.5C_ECU2.5CECU_Rivian_A1.5CTarget.5Crepo_projects.5CpFOTA.5CcL_R2023.2E09.2E01.5Cmake.5Cobj.5Cfbl_cw.125::
                        1867 .LDWlin125:
000007ee 2036ff00       1868 	movea	255,zero,r6
000007f2 003a           1869 	mov	0,r7
000007f4 0542           1870 	mov	5,r8
                        1871 	jarl	_Det_ReportError,lp
                        1871 <EXPANSION BEGIN>

                                                                      Page 34
                                                              C:\Users\nhuliyap\AppData\Local\Temp\gh_000046k1.s
                        1871 jarl22 _Det_ReportError , lp 
000007f6 80ff0000*      1871 <EXPANSION END>
                        1872 .L4730:
                        1873 --	    .ef
                        1874 .LDW201:
                        1875 --line1983
                        1876 ..lin.C.3A.5C_ECU2.5CECU_Rivian_A1.5CTarget.5Crepo_projects.5CpFOTA.5CcL_R2023.2E09.2E01.5Cmake.5Cobj.5Cfbl_cw.126::
                        1877 .LDWlin126:
000007fa 40063f00       1878 	dispose	0,{r31},[lp]
                        1879 	.type	_Dcm_TpTxConfirmation,@function
                        1880 	.size	_Dcm_TpTxConfirmation,.-_Dcm_TpTxConfirmation
                        1881 	.align	2
                        1882 .LDW301:
                        1883 --_errorId	r9	local
                        1884 
                        1885 --_id	r6	param
                        1886 --_result	r7	param
                        1887 
                        1888 	.section ".bss","awb"
                        1889 .L4966:
                        1890 	.type	.L4966,@object
                        1891 	.size	.L4966,0
                        1892 	.data
                        1893 	.section ".RAMCODE","ax"
                        1894 	.align	2
                        1895 	.align	2
                        1896 ..gh.f.f.1.e.27:
                        1897 	.type	..gh.f.f.1.e.27,@object
                        1898 	.size	..gh.f.f.1.e.27,0
                        1899 	.global	_ApplCanTimerStart
                        1900 _ApplCanTimerStart:
                        1901 --	    .bf
                        1902 .LDW401:
000007fe 20966400       1903 	movea	100,zero,r18
00000802 84070f900000*  1904 	st.w	r18,sdaoff23(_cwCanHardwareLoopTimer)[gp]
                        1905 --	    .ef
                        1906 .LDW501:
00000808 7f00           1907 	jmp	[lp]
                        1908 	.type	_ApplCanTimerStart,@function
                        1909 	.size	_ApplCanTimerStart,.-_ApplCanTimerStart
                        1910 	.align	2
                        1911 .LDW601:
                        1912 
                        1913 --_source	none	param
                        1914 
                        1915 	.section ".bss","awb"
                        1916 .L5201:
                        1917 	.type	.L5201,@object
                        1918 	.size	.L5201,0
                        1919 	.data
                        1920 	.section ".RAMCODE","ax"
                        1921 	.align	2
                        1922 	.align	2
                        1923 ..gh.f.f.1.e.28:
                        1924 	.type	..gh.f.f.1.e.28,@object
                        1925 	.size	..gh.f.f.1.e.28,0
                        1926 	.global	_ApplCanTimerLoop
                        1927 _ApplCanTimerLoop:
0000080a 80076100       1928 	prepare	{r29,r31},0
                        1929 --	    .bf
                        1930 .LDW701:

                                                                      Page 35
                                                              C:\Users\nhuliyap\AppData\Local\Temp\gh_000046k1.s
0000080e 840709880000*  1931 	ld.w	sdaoff23(_cwCanHardwareLoopTimer)[gp],r17
00000814 e089           1932 	cmp	zero,r17
00000816 a215*          1933 	be	.L5226
                        1934 --line2000
                        1935 ..lin.C.3A.5C_ECU2.5CECU_Rivian_A1.5CTarget.5Crepo_projects.5CpFOTA.5CcL_R2023.2E09.2E01.5Cmake.5Cobj.5Cfbl_cw.127::
                        1936 .LDWlin127:
                        1937 	jarl	_FblLookForWatchdog,lp
                        1937 <EXPANSION BEGIN>
                        1937 jarl22 _FblLookForWatchdog , lp 
00000818 80ff0000*      1937 <EXPANSION END>
0000081c e051           1938 	cmp	zero,r10
0000081e f205*          1939 	be	.L5221
                        1940 --line2001
                        1941 ..lin.C.3A.5C_ECU2.5CECU_Rivian_A1.5CTarget.5Crepo_projects.5CpFOTA.5CcL_R2023.2E09.2E01.5Cmake.5Cobj.5Cfbl_cw.128::
                        1942 .LDWlin128:
00000820 3e0600000000*  1943 	mov	sdaoff23(_cwCanHardwareLoopTimer),ep
00000826 0095           1944 	sld.w	0[ep],r18
00000828 5f92           1945 	add	-1,r18
0000082a 0195           1946 	sst.w	r18,0[ep]
                        1947 .L5221:
0000082c 840709480000*  1948 	ld.w	sdaoff23(_cwCanHardwareLoopTimer)[gp],r9
00000832 e049           1949 	cmp	zero,r9
00000834 eaef0000       1950 	setfne	r29
00000838 a505*          1951 	br	.L5225
                        1952 .L5226:
                        1953 --line2006
                        1954 ..lin.C.3A.5C_ECU2.5CECU_Rivian_A1.5CTarget.5Crepo_projects.5CpFOTA.5CcL_R2023.2E09.2E01.5Cmake.5Cobj.5Cfbl_cw.129::
                        1955 .LDWlin129:
0000083a 11e8           1956 	mov	r17,r29
                        1957 .L5225:
0000083c 1d50           1958 	mov	r29,r10
                        1959 --	    .ef
                        1960 .LDW801:
0000083e 40067f00       1961 	dispose	0,{r29,r31},[lp]
                        1962 	.type	_ApplCanTimerLoop,@function
                        1963 	.size	_ApplCanTimerLoop,.-_ApplCanTimerLoop
                        1964 	.align	2
                        1965 .LDW901:
                        1966 --_result	r29	local
                        1967 
                        1968 --_source	none	param
                        1969 
                        1970 	.section ".bss","awb"
                        1971 .L5282:
                        1972 	.type	.L5282,@object
                        1973 	.size	.L5282,0
                        1974 	.data
                        1975 	.section ".RAMCODE","ax"
                        1976 	.align	2
                        1977 	.align	2
                        1978 ..gh.f.f.1.e.29:
                        1979 	.type	..gh.f.f.1.e.29,@object
                        1980 	.size	..gh.f.f.1.e.29,0
                        1981 	.global	_ApplCanTimerEnd
                        1982 _ApplCanTimerEnd:
                        1983 --	    .bf
                        1984 .LDW011:
00000842 84070f000000*  1985 	st.w	zero,sdaoff23(_cwCanHardwareLoopTimer)[gp]
                        1986 --	    .ef
                        1987 .LDW111:
00000848 7f00           1988 	jmp	[lp]

                                                                      Page 36
                                                              C:\Users\nhuliyap\AppData\Local\Temp\gh_000046k1.s
                        1989 	.type	_ApplCanTimerEnd,@function
                        1990 	.size	_ApplCanTimerEnd,.-_ApplCanTimerEnd
                        1991 	.align	2
                        1992 .LDW211:
                        1993 
                        1994 --_source	none	param
                        1995 
                        1996 	.section ".bss","awb"
                        1997 .L5377:
                        1998 	.type	.L5377,@object
                        1999 	.size	.L5377,0
                        2000 	.data
                        2001 	.section ".RAMCODE","ax"
                        2002 	.align	2
                        2003 	.align	2
                        2004 ..gh.f.f.1.e.30:
                        2005 	.type	..gh.f.f.1.e.30,@object
                        2006 	.size	..gh.f.f.1.e.30,0
                        2007 	.global	_FblCw_ControllerBusOff
                        2008 _FblCw_ControllerBusOff:
                        2009 --	    .bf
                        2010 .LDW311:
0000084a 80070000*      2011 	jr	_ApplFblCanBusOff
                        2012 --	    .ef
                        2013 .LDW411:
                        2014 	.type	_FblCw_ControllerBusOff,@function
                        2015 	.size	_FblCw_ControllerBusOff,.-_FblCw_ControllerBusOff
                        2016 	.align	2
                        2017 .LDW511:
                        2018 
                        2019 --_controllerId	none	param
                        2020 
                        2021 	.section ".bss","awb"
                        2022 .L5425:
                        2023 	.type	.L5425,@object
                        2024 	.size	.L5425,0
                        2025 	.data
                        2026 	.section ".RAMCODE","ax"
                        2027 	.align	2
                        2028 	.align	2
                        2029 ..gh.f.f.1.e.31:
                        2030 	.type	..gh.f.f.1.e.31,@object
                        2031 	.size	..gh.f.f.1.e.31,0
                        2032 	.global	_FblCw_ControllerModeIndication
                        2033 _FblCw_ControllerModeIndication:
                        2034 --	    .bf
                        2035 .LDW611:
                        2036 --	    .ef
                        2037 .LDW711:
0000084e 7f00           2038 	jmp	[lp]
                        2039 	.type	_FblCw_ControllerModeIndication,@function
                        2040 	.size	_FblCw_ControllerModeIndication,.-_FblCw_ControllerModeIndication
                        2041 	.align	2
                        2042 .LDW811:
                        2043 
                        2044 --_controllerId	none	param
                        2045 --_controllerMode	none	param
                        2046 
                        2047 	.section ".bss","awb"
                        2048 .L5472:
                        2049 	.type	.L5472,@object

                                                                      Page 37
                                                              C:\Users\nhuliyap\AppData\Local\Temp\gh_000046k1.s
                        2050 	.size	.L5472,0
                        2051 	.data
                        2052 	.section ".RAMCODE","ax"
                        2053 	.align	2
                        2054 	.align	2
                        2055 ..gh.f.f.1.e.32:
                        2056 	.type	..gh.f.f.1.e.32,@object
                        2057 	.size	..gh.f.f.1.e.32,0
                        2058 	.global	_FblCw_CheckTransceiverWakeFlagIndication
                        2059 _FblCw_CheckTransceiverWakeFlagIndication:
                        2060 --	    .bf
                        2061 .LDW911:
                        2062 --	    .ef
                        2063 .LDW021:
00000850 7f00           2064 	jmp	[lp]
                        2065 	.type	_FblCw_CheckTransceiverWakeFlagIndication,@function
                        2066 	.size	_FblCw_CheckTransceiverWakeFlagIndication,.-_FblCw_CheckTransceiverWakeFlagIndication
                        2067 	.align	2
                        2068 .LDW121:
                        2069 
                        2070 --_transceiverId	none	param
                        2071 
                        2072 	.section ".bss","awb"
                        2073 .L5504:
                        2074 	.type	.L5504,@object
                        2075 	.size	.L5504,0
                        2076 	.data
                        2077 	.section ".RAMCODE","ax"
                        2078 	.align	2
                        2079 	.align	2
                        2080 ..gh.f.f.1.e.33:
                        2081 	.type	..gh.f.f.1.e.33,@object
                        2082 	.size	..gh.f.f.1.e.33,0
                        2083 	.global	_FblCw_ClearTrcvWufFlagIndication
                        2084 _FblCw_ClearTrcvWufFlagIndication:
                        2085 --	    .bf
                        2086 .LDW221:
                        2087 --	    .ef
                        2088 .LDW321:
00000852 7f00           2089 	jmp	[lp]
                        2090 	.type	_FblCw_ClearTrcvWufFlagIndication,@function
                        2091 	.size	_FblCw_ClearTrcvWufFlagIndication,.-_FblCw_ClearTrcvWufFlagIndication
                        2092 	.align	2
                        2093 .LDW421:
                        2094 
                        2095 --_transceiverId	none	param
                        2096 
                        2097 	.section ".bss","awb"
                        2098 .L5536:
                        2099 	.type	.L5536,@object
                        2100 	.size	.L5536,0
                        2101 	.data
                        2102 	.section ".RAMCODE","ax"
                        2103 	.align	2
                        2104 	.align	2
                        2105 ..gh.f.f.1.e.34:
                        2106 	.type	..gh.f.f.1.e.34,@object
                        2107 	.size	..gh.f.f.1.e.34,0
                        2108 	.global	_FblCw_ConfirmPnAvailability
                        2109 _FblCw_ConfirmPnAvailability:
                        2110 --	    .bf

                                                                      Page 38
                                                              C:\Users\nhuliyap\AppData\Local\Temp\gh_000046k1.s
                        2111 .LDW521:
                        2112 --	    .ef
                        2113 .LDW621:
00000854 7f00           2114 	jmp	[lp]
                        2115 	.type	_FblCw_ConfirmPnAvailability,@function
                        2116 	.size	_FblCw_ConfirmPnAvailability,.-_FblCw_ConfirmPnAvailability
                        2117 	.align	2
                        2118 .LDW721:
                        2119 
                        2120 --_transceiverId	none	param
                        2121 
                        2122 	.section ".bss","awb"
                        2123 .L5568:
                        2124 	.type	.L5568,@object
                        2125 	.size	.L5568,0
                        2126 	.data
                        2127 	.section ".RAMCODE","ax"
                        2128 	.align	2
                        2129 	.align	2
                        2130 ..gh.f.f.1.e.35:
                        2131 	.type	..gh.f.f.1.e.35,@object
                        2132 	.size	..gh.f.f.1.e.35,0
                        2133 	.global	_FblCw_TransceiverModeIndication
                        2134 _FblCw_TransceiverModeIndication:
                        2135 --	    .bf
                        2136 .LDW821:
                        2137 --	    .ef
                        2138 .LDW921:
00000856 7f00           2139 	jmp	[lp]
                        2140 	.type	_FblCw_TransceiverModeIndication,@function
                        2141 	.size	_FblCw_TransceiverModeIndication,.-_FblCw_TransceiverModeIndication
                        2142 	.align	2
                        2143 .LDW031:
                        2144 
                        2145 --_transceiverId	none	param
                        2146 --_transceiverMode	none	param
                        2147 
                        2148 	.section ".bss","awb"
                        2149 .L5600:
                        2150 	.type	.L5600,@object
                        2151 	.size	.L5600,0
                        2152 	.data
                        2153 	.section ".RAMCODE","ax"
                        2154 	.align	2
                        2155 --_FblCw_CanIfCtrlInfo	rosdaoff23(_FblCw_CanIfCtrlInfo)	import
                        2156 --_FblCw_DcmDslConnectionInfo	rosdaoff23(_FblCw_DcmDslConnectionInfo)	import
                        2157 --_FblCw_DcmDslProtocolRxInfo	rosdaoff23(_FblCw_DcmDslProtocolRxInfo)	import
                        2158 --_FblCw_DcmDslProtocolTxInfo	rosdaoff23(_FblCw_DcmDslProtocolTxInfo)	import
                        2159 --_FblCw_Initialized	sdaoff23(_FblCw_Initialized)	import
                        2160 --_DiagBuffer	sdaoff23(_DiagBuffer)	import
                        2161 --_fblDiagStates	sdaoff23(_fblDiagStates)	import
                        2162 --_cycleCounter	sdaoff23(_cycleCounter)	static
                        2163 --_cwTxState	sdaoff23(_cwTxState)	static
                        2164 --_cwTxTimer	sdaoff23(_cwTxTimer)	static
                        2165 --_cwTxPendingLength	sdaoff23(_cwTxPendingLength)	static
                        2166 --_cwTaskState	sdaoff23(_cwTaskState)	static
                        2167 --_cwCanHardwareLoopTimer	sdaoff23(_cwCanHardwareLoopTimer)	static
                        2168 --_cwTxPendingBuffer	sdaoff23(_cwTxPendingBuffer)	static
                        2169 --_rxPduPhys	sdaoff23(_rxPduPhys)	static
                        2170 --_rxPduFunc	sdaoff23(_rxPduFunc)	static
                        2171 --_rxBuffer	sdaoff23(_rxBuffer)	static

                                                                      Page 39
                                                              C:\Users\nhuliyap\AppData\Local\Temp\gh_000046k1.s
                        2172 --_txPdu	sdaoff23(_txPdu)	static
                        2173 --_txBuffer	sdaoff23(_txBuffer)	static
                        2174 --_rxDataLength	sdaoff23(_rxDataLength)	static
                        2175 --_rxRemainingBufferSize	sdaoff23(_rxRemainingBufferSize)	static
                        2176 --_activeConnection	sdaoff23(_activeConnection)	static
                        2177 
                        2178 	.data
                        2179 	.sbss	_fblCwStateStartMsg,1,1
                        2180 	.type	_fblCwStateStartMsg,@object
                        2181 	.size	_fblCwStateStartMsg,1
                        2182 	.ghsnote version,17
                        2183 	.ghsnote tools,3
                        2184 	.ghsnote options,144
                        2185 	.section ".RAMCODE","ax"
                        2186 	.align	2
                        2187 ..eof.C.3A.5C_ECU2.5CECU_Rivian_A1.5CTarget.5Crepo_projects.5CpFOTA.5CcL_R2023.2E09.2E01.5Cmake.5Cobj.5Cfbl_cw...43.3A.5C_ECU2.5CECU_Rivian_A1.5CTarget.5Crepo_projects.5CpFOTA.5CcL_R2023.2E09.2E01.5Cmake..64F86472..0::
                        2188 .rh850_flags REGMODE32,DATA_ALIGN8,GP_FIX,EP_NONFIX,TP_FIX,REG2_RESERVE,G3K,SDA_EXTRA_REGS_0
