                                                                      Page 1
                                                              C:\Users\nhuliyap\AppData\Local\Temp\gh_0000d401.s
Command Line: C:\GHS\comp_201517\ease850.exe -w -stderr=err/McalCry.err -elf -b0 -I../source/_common -I../source/common -I../source/ecuabcanif -I../source/ecuabcantrcv -I../source/ecuabcryif -I../source/ecuabfee -I../source/ecuabmemif -I../source/libautosar -I../source/mcalcan -I../source/mcalcry -I../source/mcaldio -I../source/mcaleep -I../source/mcalfls -I../source/mcalmcu -I../source/projectara -I../source/projectcfg -I../source/projectcompiler -I../source/swcservicebswm -I../source/swcservicecantp -I../source/swcservicecomm -I../source/swcservicecsm -I../source/swcservicedcm -I../source/swcservicedem -I../source/swcservicedet -I../source/swcserviceecum -I../source/swcservicenvm -I../source/swcserviceos -I../source/swcservicepdur -I../source/swcserviceschm -I../source/swcservicestartup -I../source/wrappers/swcservicesecm -I../source/wrappers/vsecprim -I../source/wrappers/vstdlib -Ic:/ghs/comp_201517/ansi -Ic:/ghs/comp_201517/include/v800 -Igendata -IC:\GHS\comp_201517\lib\rh850 -cg_underscore -cpu=rh850g3k -nofpu -no_v850_simd -rh850_fpsimd=none -nomacro -patch_dbo=C:\_ECU2\ECU_Rivian_A1\Target\repo_projects\pFOTA\cL_R2023.09.01\make\obj\McalCry.dbo -source=McalCry.c -o obj\gh_0000d401.o -list=lst/McalCry.lst C:\Users\nhuliyap\AppData\Local\Temp\gh_0000d401.s 
Original File: C:\Users\nhuliyap\AppData\Local\Temp\gh_0000d401.s
Source File: McalCry.c
Directory: C:\_ECU2\ECU_Rivian_A1\Target\repo_projects\pFOTA\cL_R2023.09.01\make
Host OS: Windows
EASE: Copyright (C) 1983-2015 Green Hills Software.  All Rights Reserved.
Release: Compiler v2015.1.7
Build Directory: [Directory] BTOWORKER6:c:/build_2015_1_bto/2015-10-21.2100-2015_1_bto/win32-comp-ecom
Revision: [VCInfo] http://toolsvc/branches/release-branch-70-bto/src@544153 (built by build)
Revision Date: Thu Oct 22 07:50:13 2015

Release Date: Thu Oct 22 09:32:32 2015

                           1 --Driver Command: ccrh850 -DBRS_DERIVATIVE_701018 -DBRS_OSC_CLK=16
                           2 --		-DBRS_TIMEBASE_CLOCK=80 -DBRS_EVA_BOARD_
                           3 --		-DBRS_DERIVATIVE_GROUP_F1L -DBRS_OS_USECASE_BRS
                           4 --		-DBRS_PLATFORM_RH850 -DBRS_COMP_GHS
                           5 --		-DBRS_CPU_LOCAL_RAM_SIZE_CORE0=32
                           6 --		-DBRS_CPU_RAM_START_CORE0=0xFEDF8000 -list=lst/McalCry.lst
                           7 --		-object_dir=obj -stderr=err/McalCry.err -c -cpu=rh850 -sda=all
                           8 --		-large_sda -prepare_dispose -pragma_asm_inline -no_callt
                           9 --		-inline_prologue -notda -reserve_r2 -fsoft
                          10 --		--unknown_pragma_warnings -list -g -Ogeneral -shortenum
                          11 --		-registermode=32 -I../source/_common -I../source/common
                          12 --		-I../source/ecuabcanif -I../source/ecuabcantrcv
                          13 --		-I../source/ecuabcryif -I../source/ecuabfee
                          14 --		-I../source/ecuabmemif -I../source/libautosar -I../source/mcalcan
                          15 --		-I../source/mcalcry -I../source/mcaldio -I../source/mcaleep
                          16 --		-I../source/mcalfls -I../source/mcalmcu -I../source/projectara
                          17 --		-I../source/projectcfg -I../source/projectcompiler
                          18 --		-I../source/swcservicebswm -I../source/swcservicecantp
                          19 --		-I../source/swcservicecomm -I../source/swcservicecsm
                          20 --		-I../source/swcservicedcm -I../source/swcservicedem
                          21 --		-I../source/swcservicedet -I../source/swcserviceecum
                          22 --		-I../source/swcservicenvm -I../source/swcserviceos
                          23 --		-I../source/swcservicepdur -I../source/swcserviceschm
                          24 --		-I../source/swcservicestartup -I../source/wrappers/swcservicesecm
                          25 --		-I../source/wrappers/vsecprim -I../source/wrappers/vstdlib
                          26 --		-Ic:/ghs/comp_201517/ansi -Ic:/ghs/comp_201517/include/v800
                          27 --		-Igendata ../source/McalCry/McalCry.c
                          28 --Source File:   ../source/McalCry/McalCry.c
                          29 --Directory:     
                          30 --		C:\_ECU2\ECU_Rivian_A1\Target\repo_projects\pFOTA\cL_R2023.09.01\make
                          31 --Compile Date:  Wed Sep 06 13:34:40 2023
                          32 --Host OS:       Win32
                          33 --Version:       C-RH850 2015.1.7 RELEASE VERSION
                          34 --Release:       Compiler v2015.1.7
                          35 --Revision Date: Thu Oct 22 08:06:12 2015
                          36 --Release Date:  Thu Oct 22 09:34:32 2015
                          37 -- ecom  -g -w -OM
                          38 	.section ".MSR_CODE","ax"
                          39 	.align	2
                          40 ..bof.C.3A.5C_ECU2.5CECU_Rivian_A1.5CTarget.5Crepo_projects.5CpFOTA.5CcL_R2023.2E09.2E01.5Cmake.5Cobj.5CMcalCry...43.3A.5C_ECU2.5CECU_Rivian_A1.5CTarget.5Crepo_projects.5CpFOTA.5CcL_R2023.2E09.2E01.5Cmake..64F863D0..0::
                          41 	.align	2
                          42 ..gh.f.f.1.e.0:
                          43 	.type	..gh.f.f.1.e.0,@object
                          44 	.size	..gh.f.f.1.e.0,0
                          45 	.global	_McalCry_Local_KeyListPreLockKeys
                          46 _McalCry_Local_KeyListPreLockKeys:
00000000 8007e130         47 	prepare	{r26,r27,r28,r29,r31},0
00000004 06d0             48 	mov	r6,r26
                          49 --	    .bf
                          50 .LDW01:

                                                                      Page 2
                                                              C:\Users\nhuliyap\AppData\Local\Temp\gh_0000d401.s
00000006 00da             51 	mov	0,r27
00000008 1be8             52 	mov	r27,r29
0000000a f505*            53 	br	.L399
                          54 .L400:
                          55 --line988
                          56 ..lin.C.3A.5C_ECU2.5CECU_Rivian_A1.5CTarget.5Crepo_projects.5CpFOTA.5CcL_R2023.2E09.2E01.5Cmake.5Cobj.5CMcalCry.1::
                          57 .LDWlin1:
                          58 	jarl	_McalCry_Local_KeyWriteLockGetNotProtected,lp
                          58 <EXPANSION BEGIN>
                          58 jarl22 _McalCry_Local_KeyWriteLockGetNotProtected , lp 
0000000c 80ff0000*        58 <EXPANSION END>
                          59 .L402:
00000010 0ad8             60 	mov	r10,r27
                          61 --line991
                          62 ..lin.C.3A.5C_ECU2.5CECU_Rivian_A1.5CTarget.5Crepo_projects.5CpFOTA.5CcL_R2023.2E09.2E01.5Cmake.5Cobj.5CMcalCry.2::
                          63 .LDWlin2:
00000012 e051             64 	cmp	zero,r10
00000014 8a15*            65 	bne	.L408
                          66 --line983
                          67 ..lin.C.3A.5C_ECU2.5CECU_Rivian_A1.5CTarget.5Crepo_projects.5CpFOTA.5CcL_R2023.2E09.2E01.5Cmake.5Cobj.5CMcalCry.3::
                          68 .LDWlin3:
00000016 41ea             69 	add	1,r29
                          70 .L399:
00000018 9a8f1900         71 	ld.bu	24[r26],r17
0000001c f1e9             72 	cmp	r17,r29
0000001e c91d*            73 	bnl	.L407
                          74 --line984
                          75 ..lin.C.3A.5C_ECU2.5CECU_Rivian_A1.5CTarget.5Crepo_projects.5CpFOTA.5CcL_R2023.2E09.2E01.5Cmake.5Cobj.5CMcalCry.4::
                          76 .LDWlin4:
00000020 1df0             77 	mov	r29,ep
00000022 c3f2             78 	shl	3,ep
00000024 daf1             79 	add	r26,ep
00000026 6490             80 	sld.bu	4[ep],r18
00000028 0035             81 	sld.w	0[ep],r6
0000002a e091             82 	cmp	zero,r18
0000002c 8af5*            83 	bne	.L400
                          84 --line985
                          85 ..lin.C.3A.5C_ECU2.5CECU_Rivian_A1.5CTarget.5Crepo_projects.5CpFOTA.5CcL_R2023.2E09.2E01.5Cmake.5Cobj.5CMcalCry.5::
                          86 .LDWlin5:
                          87 	jarl	_McalCry_Local_KeyReadLockGetNotProtected,lp
                          87 <EXPANSION BEGIN>
                          87 jarl22 _McalCry_Local_KeyReadLockGetNotProtected , lp 
0000002e 80ff0000*        87 <EXPANSION END>
00000032 f5ed*            88 	br	.L402
                          89 .L408:
                          90 --line997
                          91 ..lin.C.3A.5C_ECU2.5CECU_Rivian_A1.5CTarget.5Crepo_projects.5CpFOTA.5CcL_R2023.2E09.2E01.5Cmake.5Cobj.5CMcalCry.6::
                          92 .LDWlin6:
00000034 00e2             93 	mov	0,r28
00000036 e50d*            94 	br	.L412
                          95 .L411:
                          96 --line998
                          97 ..lin.C.3A.5C_ECU2.5CECU_Rivian_A1.5CTarget.5Crepo_projects.5CpFOTA.5CcL_R2023.2E09.2E01.5Cmake.5Cobj.5CMcalCry.7::
                          98 .LDWlin7:
00000038 1cf0             99 	mov	r28,ep
0000003a c3f2            100 	shl	3,ep
0000003c daf1            101 	add	r26,ep
0000003e 6480            102 	sld.bu	4[ep],r16
00000040 0035            103 	sld.w	0[ep],r6
00000042 e081            104 	cmp	zero,r16
00000044 ca05*           105 	bne	.L413

                                                                      Page 3
                                                              C:\Users\nhuliyap\AppData\Local\Temp\gh_0000d401.s
                         106 --line1000
                         107 ..lin.C.3A.5C_ECU2.5CECU_Rivian_A1.5CTarget.5Crepo_projects.5CpFOTA.5CcL_R2023.2E09.2E01.5Cmake.5Cobj.5CMcalCry.8::
                         108 .LDWlin8:
                         109 	jarl	_McalCry_Local_KeyReadLockReleaseNotProtected,lp
                         109 <EXPANSION BEGIN>
                         109 jarl22 _McalCry_Local_KeyReadLockReleaseNotProtected , lp 
00000046 80ff0000*       109 <EXPANSION END>
0000004a b505*           110 	br	.L410
                         111 .L413:
                         112 --line1004
                         113 ..lin.C.3A.5C_ECU2.5CECU_Rivian_A1.5CTarget.5Crepo_projects.5CpFOTA.5CcL_R2023.2E09.2E01.5Cmake.5Cobj.5CMcalCry.9::
                         114 .LDWlin9:
                         115 	jarl	_McalCry_Local_KeyWriteLockReleaseNotProtected,lp
                         115 <EXPANSION BEGIN>
                         115 jarl22 _McalCry_Local_KeyWriteLockReleaseNotProtected , lp 
0000004c 80ff0000*       115 <EXPANSION END>
                         116 .L410:
                         117 --line997
                         118 ..lin.C.3A.5C_ECU2.5CECU_Rivian_A1.5CTarget.5Crepo_projects.5CpFOTA.5CcL_R2023.2E09.2E01.5Cmake.5Cobj.5CMcalCry.10::
                         119 .LDWlin10:
00000050 41e2            120 	add	1,r28
                         121 .L412:
00000052 fde1            122 	cmp	r29,r28
00000054 a1f5*           123 	bl	.L411
                         124 .L407:
                         125 --line1008
                         126 ..lin.C.3A.5C_ECU2.5CECU_Rivian_A1.5CTarget.5Crepo_projects.5CpFOTA.5CcL_R2023.2E09.2E01.5Cmake.5Cobj.5CMcalCry.11::
                         127 .LDWlin11:
00000056 1b50            128 	mov	r27,r10
                         129 --	    .ef
                         130 .LDW11:
00000058 4006ff30        131 	dispose	0,{r26,r27,r28,r29,r31},[lp]
                         132 	.type	_McalCry_Local_KeyListPreLockKeys,@function
                         133 	.size	_McalCry_Local_KeyListPreLockKeys,.-_McalCry_Local_KeyListPreLockKeys
                         134 	.align	2
                         135 .LDW21:
                         136 --_retVal	r27	local
                         137 --_i	r29	local
                         138 --_j	r28	local
                         139 
                         140 --_keyList	r26	param
                         141 
                         142 	.section ".bss","awb"
                         143 .L549:
                         144 	.type	.L549,@object
                         145 	.size	.L549,0
                         146 	.data
                         147 	.section ".MSR_CODE","ax"
                         148 	.align	2
                         149 	.align	2
                         150 	.align	2
                         151 ..gh.f.f.1.e.1:
                         152 	.type	..gh.f.f.1.e.1,@object
                         153 	.size	..gh.f.f.1.e.1,0
                         154 	.global	_McalCry_TryObtainingLock..C.3A.5C_ECU2.5CECU_Rivian_A1.5CTarget.5Crepo_projects.5CpFOTA.5CcL_R2023.2E09.2E01.5Cmake.5Cobj.5CMcalCry.
                         155 _McalCry_TryObtainingLock..C.3A.5C_ECU2.5CECU_Rivian_A1.5CTarget.5Crepo_projects.5CpFOTA.5CcL_R2023.2E09.2E01.5Cmake.5Cobj.5CMcalCry.:
                         156 _McalCry_TryObtainingLock:
0000005c 8007e110        157 	prepare	{r27,r28,r29,r31},0
00000060 07d8            158 	mov	r7,r27
                         159 --	    .bf
                         160 .LDW31:

                                                                      Page 4
                                                              C:\Users\nhuliyap\AppData\Local\Temp\gh_0000d401.s
00000062 3bf74500        161 	ld.w	68[r27],ep
00000066 06e8            162 	mov	r6,r29
00000068 c2ea            163 	shl	2,r29
0000006a 270600000000*   164 	mov	sdaoff23(_McalCry_Lock),r7
00000070 c7e9            165 	add	r7,r29
00000072 3d970100        166 	ld.w	0[r29],r18
00000076 0035            167 	sld.w	0[ep],r6
00000078 e691            168 	cmp	r6,r18
0000007a e0e704e3        169 	cmove	0,r28,r28
0000007e c215*           170 	be	.L688
                         171 --line559
                         172 ..lin.C.3A.5C_ECU2.5CECU_Rivian_A1.5CTarget.5Crepo_projects.5CpFOTA.5CcL_R2023.2E09.2E01.5Cmake.5Cobj.5CMcalCry.12::
                         173 .LDWlin12:
00000080 dbc73400        174 	tst1	0,52[r27]
00000084 8215*           175 	be	.L689
                         176 --line562
                         177 ..lin.C.3A.5C_ECU2.5CECU_Rivian_A1.5CTarget.5Crepo_projects.5CpFOTA.5CcL_R2023.2E09.2E01.5Cmake.5Cobj.5CMcalCry.13::
                         178 .LDWlin13:
00000086 02e2            179 	mov	2,r28
00000088 7f92            180 	cmp	-1,r18
0000008a ea0d*           181 	bne	.L688
                         182 --line564
                         183 ..lin.C.3A.5C_ECU2.5CECU_Rivian_A1.5CTarget.5Crepo_projects.5CpFOTA.5CcL_R2023.2E09.2E01.5Cmake.5Cobj.5CMcalCry.14::
                         184 .LDWlin14:
0000008c 0830            185 	mov	r8,r6
                         186 	jarl	_McalCry_Local_KeyListPreLockKeys,lp
                         186 <EXPANSION BEGIN>
                         186 jarl22 _McalCry_Local_KeyListPreLockKeys , lp 
0000008e bfff72ff*       186 <EXPANSION END>
                         187 --line566
                         188 ..lin.C.3A.5C_ECU2.5CECU_Rivian_A1.5CTarget.5Crepo_projects.5CpFOTA.5CcL_R2023.2E09.2E01.5Cmake.5Cobj.5CMcalCry.15::
                         189 .LDWlin15:
00000092 e051            190 	cmp	zero,r10
00000094 9a0d*           191 	bne	.L688
                         192 --line568
                         193 ..lin.C.3A.5C_ECU2.5CECU_Rivian_A1.5CTarget.5Crepo_projects.5CpFOTA.5CcL_R2023.2E09.2E01.5Cmake.5Cobj.5CMcalCry.16::
                         194 .LDWlin16:
00000096 3bf74500        195 	ld.w	68[r27],ep
0000009a 0ae0            196 	mov	r10,r28
0000009c 0085            197 	sld.w	0[ep],r16
0000009e 7d870100        198 	st.w	r16,0[r29]
000000a2 a505*           199 	br	.L688
                         200 .L689:
                         201 --line574
                         202 ..lin.C.3A.5C_ECU2.5CECU_Rivian_A1.5CTarget.5Crepo_projects.5CpFOTA.5CcL_R2023.2E09.2E01.5Cmake.5Cobj.5CMcalCry.17::
                         203 .LDWlin17:
000000a4 01e2            204 	mov	1,r28
                         205 .L688:
000000a6 1c50            206 	mov	r28,r10
                         207 --	    .ef
                         208 .LDW41:
000000a8 4006ff10        209 	dispose	0,{r27,r28,r29,r31},[lp]
                         210 	.type	_McalCry_TryObtainingLock,@function
                         211 	.size	_McalCry_TryObtainingLock,.-_McalCry_TryObtainingLock
                         212 	.type	_McalCry_TryObtainingLock..C.3A.5C_ECU2.5CECU_Rivian_A1.5CTarget.5Crepo_projects.5CpFOTA.5CcL_R2023.2E09.2E01.5Cmake.5Cobj.5CMcalCry.,@function
                         213 	.size	_McalCry_TryObtainingLock..C.3A.5C_ECU2.5CECU_Rivian_A1.5CTarget.5Crepo_projects.5CpFOTA.5CcL_R2023.2E09.2E01.5Cmake.5Cobj.5CMcalCry.,.-_McalCry_TryObtainingLock..C.3A.5C_ECU2.5CECU_Rivian_A1.5CTarget.5Crepo_projects.5CpFOTA.5CcL_R2023.2E09.2E01.5Cmake.5Cobj.5CMcalCry.
                         214 	.align	2
                         215 .LDW51:
                         216 --_retVal	r28	local
                         217 
                         218 --_objectId	r6	param

                                                                      Page 5
                                                              C:\Users\nhuliyap\AppData\Local\Temp\gh_0000d401.s
                         219 --_job	r27	param
                         220 --_keyList	r8	param
                         221 
                         222 	.section ".bss","awb"
                         223 .L766:
                         224 	.type	.L766,@object
                         225 	.size	.L766,0
                         226 	.section ".sbss","awb"
                         227 	.global	_McalCry_Dispatch_QueuePrimitiveInfoIdx..C.3A.5C_ECU2.5CECU_Rivian_A1.5CTarget.5Crepo_projects.5CpFOTA.5CcL_R2023.2E09.2E01.5Cmake.5Cobj.5CMcalCry.
                         228 _McalCry_Dispatch_QueuePrimitiveInfoIdx..C.3A.5C_ECU2.5CECU_Rivian_A1.5CTarget.5Crepo_projects.5CpFOTA.5CcL_R2023.2E09.2E01.5Cmake.5Cobj.5CMcalCry.:
00000000 0000            229 _McalCry_Dispatch_QueuePrimitiveInfoIdx:	.space	2
                         230 	.type	_McalCry_Dispatch_QueuePrimitiveInfoIdx..C.3A.5C_ECU2.5CECU_Rivian_A1.5CTarget.5Crepo_projects.5CpFOTA.5CcL_R2023.2E09.2E01.5Cmake.5Cobj.5CMcalCry.,@object
                         231 	.size	_McalCry_Dispatch_QueuePrimitiveInfoIdx..C.3A.5C_ECU2.5CECU_Rivian_A1.5CTarget.5Crepo_projects.5CpFOTA.5CcL_R2023.2E09.2E01.5Cmake.5Cobj.5CMcalCry.,2
                         232 	.type	_McalCry_Dispatch_QueuePrimitiveInfoIdx,@object
                         233 	.size	_McalCry_Dispatch_QueuePrimitiveInfoIdx,2
                         234 	.section ".rosdata","a"
                         235 	.align	4
                         236 	.global	_McalCry_IOServiceMaskUpdate..C.3A.5C_ECU2.5CECU_Rivian_A1.5CTarget.5Crepo_projects.5CpFOTA.5CcL_R2023.2E09.2E01.5Cmake.5Cobj.5CMcalCry.
                         237 _McalCry_IOServiceMaskUpdate..C.3A.5C_ECU2.5CECU_Rivian_A1.5CTarget.5Crepo_projects.5CpFOTA.5CcL_R2023.2E09.2E01.5Cmake.5Cobj.5CMcalCry.:
00000000 01010111        238 _McalCry_IOServiceMaskUpdate:	.byte	1,1,1,17
00000004 11131301        239 	.byte	17,19,19,1
00000008 01              240 	.byte	1
00000009 00              241 	.space	1
0000000a 00              242 	.space	1
0000000b 00              243 	.space	1
0000000c 00              244 	.space	1
0000000d 00              245 	.space	1
0000000e 00              246 	.space	1
0000000f 00              247 	.space	1
00000010 00              248 	.space	1
00000011 00              249 	.space	1
00000012 00              250 	.space	1
00000013 00              251 	.space	1
                         252 	.type	_McalCry_IOServiceMaskUpdate..C.3A.5C_ECU2.5CECU_Rivian_A1.5CTarget.5Crepo_projects.5CpFOTA.5CcL_R2023.2E09.2E01.5Cmake.5Cobj.5CMcalCry.,@object
                         253 	.size	_McalCry_IOServiceMaskUpdate..C.3A.5C_ECU2.5CECU_Rivian_A1.5CTarget.5Crepo_projects.5CpFOTA.5CcL_R2023.2E09.2E01.5Cmake.5Cobj.5CMcalCry.,20
                         254 	.type	_McalCry_IOServiceMaskUpdate,@object
                         255 	.size	_McalCry_IOServiceMaskUpdate,20
                         256 	.global	_McalCry_IOServiceMaskUpdateOptional..C.3A.5C_ECU2.5CECU_Rivian_A1.5CTarget.5Crepo_projects.5CpFOTA.5CcL_R2023.2E09.2E01.5Cmake.5Cobj.5CMcalCry.
                         257 _McalCry_IOServiceMaskUpdateOptional..C.3A.5C_ECU2.5CECU_Rivian_A1.5CTarget.5Crepo_projects.5CpFOTA.5CcL_R2023.2E09.2E01.5Cmake.5Cobj.5CMcalCry.:
00000014 00              258 _McalCry_IOServiceMaskUpdateOptional:	.space	1
00000015 00              259 	.space	1
00000016 00              260 	.space	1
00000017 00              261 	.space	1
00000018 00              262 	.space	1
00000019 0202            263 	.byte	2,2
0000001b 00              264 	.space	1
0000001c 00              265 	.space	1
0000001d 00              266 	.space	1
0000001e 00              267 	.space	1
0000001f 00              268 	.space	1
00000020 00              269 	.space	1
00000021 00              270 	.space	1
00000022 00              271 	.space	1
00000023 00              272 	.space	1
00000024 00              273 	.space	1
00000025 00              274 	.space	1
00000026 00              275 	.space	1
00000027 00              276 	.space	1
                         277 	.type	_McalCry_IOServiceMaskUpdateOptional..C.3A.5C_ECU2.5CECU_Rivian_A1.5CTarget.5Crepo_projects.5CpFOTA.5CcL_R2023.2E09.2E01.5Cmake.5Cobj.5CMcalCry.,@object
                         278 	.size	_McalCry_IOServiceMaskUpdateOptional..C.3A.5C_ECU2.5CECU_Rivian_A1.5CTarget.5Crepo_projects.5CpFOTA.5CcL_R2023.2E09.2E01.5Cmake.5Cobj.5CMcalCry.,20
                         279 	.type	_McalCry_IOServiceMaskUpdateOptional,@object

                                                                      Page 6
                                                              C:\Users\nhuliyap\AppData\Local\Temp\gh_0000d401.s
                         280 	.size	_McalCry_IOServiceMaskUpdateOptional,20
                         281 	.global	_McalCry_IOServiceMaskUpdateOptionalClear..C.3A.5C_ECU2.5CECU_Rivian_A1.5CTarget.5Crepo_projects.5CpFOTA.5CcL_R2023.2E09.2E01.5Cmake.5Cobj.5CMcalCry.
                         282 _McalCry_IOServiceMaskUpdateOptionalClear..C.3A.5C_ECU2.5CECU_Rivian_A1.5CTarget.5Crepo_projects.5CpFOTA.5CcL_R2023.2E09.2E01.5Cmake.5Cobj.5CMcalCry.:
00000028 00              283 _McalCry_IOServiceMaskUpdateOptionalClear:	.space	1
00000029 00              284 	.space	1
0000002a 00              285 	.space	1
0000002b 00              286 	.space	1
0000002c 00              287 	.space	1
0000002d 00              288 	.space	1
0000002e 00              289 	.space	1
0000002f fefe            290 	.byte	254,254
00000031 00              291 	.space	1
00000032 00              292 	.space	1
00000033 00              293 	.space	1
00000034 00              294 	.space	1
00000035 00              295 	.space	1
00000036 00              296 	.space	1
00000037 00              297 	.space	1
00000038 00              298 	.space	1
00000039 00              299 	.space	1
0000003a 00              300 	.space	1
0000003b 00              301 	.space	1
                         302 	.type	_McalCry_IOServiceMaskUpdateOptionalClear..C.3A.5C_ECU2.5CECU_Rivian_A1.5CTarget.5Crepo_projects.5CpFOTA.5CcL_R2023.2E09.2E01.5Cmake.5Cobj.5CMcalCry.,@object
                         303 	.size	_McalCry_IOServiceMaskUpdateOptionalClear..C.3A.5C_ECU2.5CECU_Rivian_A1.5CTarget.5Crepo_projects.5CpFOTA.5CcL_R2023.2E09.2E01.5Cmake.5Cobj.5CMcalCry.,20
                         304 	.type	_McalCry_IOServiceMaskUpdateOptionalClear,@object
                         305 	.size	_McalCry_IOServiceMaskUpdateOptionalClear,20
                         306 	.global	_McalCry_IOServiceMaskFinish..C.3A.5C_ECU2.5CECU_Rivian_A1.5CTarget.5Crepo_projects.5CpFOTA.5CcL_R2023.2E09.2E01.5Cmake.5Cobj.5CMcalCry.
                         307 _McalCry_IOServiceMaskFinish..C.3A.5C_ECU2.5CECU_Rivian_A1.5CTarget.5Crepo_projects.5CpFOTA.5CcL_R2023.2E09.2E01.5Cmake.5Cobj.5CMcalCry.:
0000003c 10104210        308 _McalCry_IOServiceMaskFinish:	.byte	16,16,66,16
00000040 10305411        309 	.byte	16,48,84,17
00000044 43              310 	.byte	67
00000045 00              311 	.space	1
00000046 00              312 	.space	1
00000047 1001            313 	.byte	16,1
00000049 00              314 	.space	1
0000004a 00              315 	.space	1
0000004b 1001            316 	.byte	16,1
0000004d 00              317 	.space	1
0000004e 24              318 	.byte	36
0000004f 00              319 	.space	1
                         320 	.type	_McalCry_IOServiceMaskFinish..C.3A.5C_ECU2.5CECU_Rivian_A1.5CTarget.5Crepo_projects.5CpFOTA.5CcL_R2023.2E09.2E01.5Cmake.5Cobj.5CMcalCry.,@object
                         321 	.size	_McalCry_IOServiceMaskFinish..C.3A.5C_ECU2.5CECU_Rivian_A1.5CTarget.5Crepo_projects.5CpFOTA.5CcL_R2023.2E09.2E01.5Cmake.5Cobj.5CMcalCry.,20
                         322 	.type	_McalCry_IOServiceMaskFinish,@object
                         323 	.size	_McalCry_IOServiceMaskFinish,20
                         324 	.global	_McalCry_IOServiceMaskFinishOptional..C.3A.5C_ECU2.5CECU_Rivian_A1.5CTarget.5Crepo_projects.5CpFOTA.5CcL_R2023.2E09.2E01.5Cmake.5Cobj.5CMcalCry.
                         325 _McalCry_IOServiceMaskFinishOptional..C.3A.5C_ECU2.5CECU_Rivian_A1.5CTarget.5Crepo_projects.5CpFOTA.5CcL_R2023.2E09.2E01.5Cmake.5Cobj.5CMcalCry.:
00000050 00              326 _McalCry_IOServiceMaskFinishOptional:	.space	1
00000051 00              327 	.space	1
00000052 00              328 	.space	1
00000053 00              329 	.space	1
00000054 00              330 	.space	1
00000055 00              331 	.space	1
00000056 00              332 	.space	1
00000057 0101            333 	.byte	1,1
00000059 00              334 	.space	1
0000005a 00              335 	.space	1
0000005b 00              336 	.space	1
0000005c 00              337 	.space	1
0000005d 00              338 	.space	1
0000005e 00              339 	.space	1
0000005f 00              340 	.space	1

                                                                      Page 7
                                                              C:\Users\nhuliyap\AppData\Local\Temp\gh_0000d401.s
00000060 00              341 	.space	1
00000061 00              342 	.space	1
00000062 00              343 	.space	1
00000063 00              344 	.space	1
                         345 	.type	_McalCry_IOServiceMaskFinishOptional..C.3A.5C_ECU2.5CECU_Rivian_A1.5CTarget.5Crepo_projects.5CpFOTA.5CcL_R2023.2E09.2E01.5Cmake.5Cobj.5CMcalCry.,@object
                         346 	.size	_McalCry_IOServiceMaskFinishOptional..C.3A.5C_ECU2.5CECU_Rivian_A1.5CTarget.5Crepo_projects.5CpFOTA.5CcL_R2023.2E09.2E01.5Cmake.5Cobj.5CMcalCry.,20
                         347 	.type	_McalCry_IOServiceMaskFinishOptional,@object
                         348 	.size	_McalCry_IOServiceMaskFinishOptional,20
                         349 	.data
                         350 	.section ".MSR_CODE","ax"
                         351 	.align	2
                         352 	.align	2
                         353 ..gh.f.f.1.e.2:
                         354 	.type	..gh.f.f.1.e.2,@object
                         355 	.size	..gh.f.f.1.e.2,0
                         356 	.global	_McalCry_Local_KeyListAddKey
                         357 _McalCry_Local_KeyListAddKey:
                         358 --	    .bf
                         359 .LDW61:
000000ac 0092            360 	mov	0,r18
000000ae d50d*           361 	br	.L848
                         362 .L847:
                         363 --line858
                         364 ..lin.C.3A.5C_ECU2.5CECU_Rivian_A1.5CTarget.5Crepo_projects.5CpFOTA.5CcL_R2023.2E09.2E01.5Cmake.5Cobj.5CMcalCry.18::
                         365 .LDWlin18:
000000b0 12f0            366 	mov	r18,ep
000000b2 c3f2            367 	shl	3,ep
000000b4 c6f1            368 	add	r6,ep
000000b6 009d            369 	sld.w	0[ep],r19
000000b8 e799            370 	cmp	r7,r19
000000ba da05*           371 	bne	.L846
                         372 --line861
                         373 ..lin.C.3A.5C_ECU2.5CECU_Rivian_A1.5CTarget.5Crepo_projects.5CpFOTA.5CcL_R2023.2E09.2E01.5Cmake.5Cobj.5CMcalCry.19::
                         374 .LDWlin19:
000000bc 6498            375 	sld.bu	4[ep],r19
000000be c899            376 	add	r8,r19
000000c0 849b            377 	sst.b	r19,4[ep]
000000c2 7f00            378 	jmp	[lp]
                         379 .L846:
                         380 --line857
                         381 ..lin.C.3A.5C_ECU2.5CECU_Rivian_A1.5CTarget.5Crepo_projects.5CpFOTA.5CcL_R2023.2E09.2E01.5Cmake.5Cobj.5CMcalCry.20::
                         382 .LDWlin20:
000000c4 4192            383 	add	1,r18
000000c6 9200            384 	zxb	r18
                         385 .L848:
000000c8 868f1900        386 	ld.bu	24[r6],r17
000000cc f191            387 	cmp	r17,r18
000000ce 91f5*           388 	bl	.L847
                         389 --line867
                         390 ..lin.C.3A.5C_ECU2.5CECU_Rivian_A1.5CTarget.5Crepo_projects.5CpFOTA.5CcL_R2023.2E09.2E01.5Cmake.5Cobj.5CMcalCry.21::
                         391 .LDWlin21:
000000d0 11f0            392 	mov	r17,ep
000000d2 c3f2            393 	shl	3,ep
000000d4 c6f1            394 	add	r6,ep
000000d6 8443            395 	sst.b	r8,4[ep]
000000d8 11960100        396 	addi	1,r17,r18
000000dc 013d            397 	sst.w	r7,0[ep]
000000de 46971800        398 	st.b	r18,24[r6]
                         399 --	    .ef
                         400 .LDW71:
000000e2 7f00            401 	jmp	[lp]

                                                                      Page 8
                                                              C:\Users\nhuliyap\AppData\Local\Temp\gh_0000d401.s
                         402 	.type	_McalCry_Local_KeyListAddKey,@function
                         403 	.size	_McalCry_Local_KeyListAddKey,.-_McalCry_Local_KeyListAddKey
                         404 	.align	2
                         405 .LDW81:
                         406 --_i	r18	local
                         407 
                         408 --_keyList	r6	param
                         409 --_cryptoKeyId	r7	param
                         410 --_keyAccess	r8	param
                         411 
                         412 	.section ".bss","awb"
                         413 .L925:
                         414 	.type	.L925,@object
                         415 	.size	.L925,0
                         416 	.data
                         417 	.section ".MSR_CODE","ax"
                         418 	.align	2
                         419 	.align	2
                         420 ..gh.f.f.1.e.3:
                         421 	.type	..gh.f.f.1.e.3,@object
                         422 	.size	..gh.f.f.1.e.3,0
                         423 	.global	_McalCry_Local_GetKeyList
                         424 _McalCry_Local_GetKeyList:
000000e4 06f0            425 	mov	r6,ep
                         426 --	    .bf
                         427 .LDW91:
000000e6 47071800        428 	st.b	zero,24[r7]
000000ea 0730            429 	mov	r7,r6
000000ec 243d            430 	sld.w	72[ep],r7
000000ee 0042            431 	mov	0,r8
000000f0 bf07bcff*       432 	jr	_McalCry_Local_KeyListAddKey
                         433 --	    .ef
                         434 .LDW02:
                         435 	.type	_McalCry_Local_GetKeyList,@function
                         436 	.size	_McalCry_Local_GetKeyList,.-_McalCry_Local_GetKeyList
                         437 	.align	2
                         438 .LDW12:
                         439 
                         440 --_job	ep	param
                         441 --_keyList	r7	param
                         442 
                         443 	.section ".bss","awb"
                         444 .L1030:
                         445 	.type	.L1030,@object
                         446 	.size	.L1030,0
                         447 	.data
                         448 	.section ".MSR_CODE","ax"
                         449 	.align	2
                         450 	.align	2
                         451 ..gh.f.f.1.e.4:
                         452 	.type	..gh.f.f.1.e.4,@object
                         453 	.size	..gh.f.f.1.e.4,0
                         454 	.global	_McalCry_Local_GetKeyListAndDet
                         455 _McalCry_Local_GetKeyListAndDet:
000000f4 8007e100        456 	prepare	{r28,r29,r31},0
000000f8 07e8            457 	mov	r7,r29
                         458 --	    .bf
                         459 .LDW22:
000000fa 00e2            460 	mov	0,r28
                         461 	jarl	_McalCry_Local_GetKeyList,lp
                         461 <EXPANSION BEGIN>

                                                                      Page 9
                                                              C:\Users\nhuliyap\AppData\Local\Temp\gh_0000d401.s
                         461 jarl22 _McalCry_Local_GetKeyList , lp 
000000fc bfffe8ff*       461 <EXPANSION END>
                         462 --line967
                         463 ..lin.C.3A.5C_ECU2.5CECU_Rivian_A1.5CTarget.5Crepo_projects.5CpFOTA.5CcL_R2023.2E09.2E01.5Cmake.5Cobj.5CMcalCry.22::
                         464 .LDWlin22:
00000100 1c90            465 	mov	r28,r18
00000102 b50d*           466 	br	.L1057
                         467 .L1056:
                         468 --line968
                         469 ..lin.C.3A.5C_ECU2.5CECU_Rivian_A1.5CTarget.5Crepo_projects.5CpFOTA.5CcL_R2023.2E09.2E01.5Cmake.5Cobj.5CMcalCry.23::
                         470 .LDWlin23:
00000104 12f0            471 	mov	r18,ep
00000106 c3f2            472 	shl	3,ep
00000108 ddf1            473 	add	r29,ep
0000010a 009d            474 	sld.w	0[ep],r19
0000010c 679a            475 	cmp	7,r19
0000010e e1e712e3        476 	cmovnl	1,r28,r28
00000112 f905*           477 	bnl	.L1060
                         478 --line967
                         479 ..lin.C.3A.5C_ECU2.5CECU_Rivian_A1.5CTarget.5Crepo_projects.5CpFOTA.5CcL_R2023.2E09.2E01.5Cmake.5Cobj.5CMcalCry.24::
                         480 .LDWlin24:
00000114 4192            481 	add	1,r18
00000116 9200            482 	zxb	r18
                         483 .L1057:
00000118 9d8f1900        484 	ld.bu	24[r29],r17
0000011c f191            485 	cmp	r17,r18
0000011e b1f5*           486 	bl	.L1056
                         487 .L1060:
                         488 --line973
                         489 ..lin.C.3A.5C_ECU2.5CECU_Rivian_A1.5CTarget.5Crepo_projects.5CpFOTA.5CcL_R2023.2E09.2E01.5Cmake.5Cobj.5CMcalCry.25::
                         490 .LDWlin25:
00000120 1c50            491 	mov	r28,r10
                         492 --	    .ef
                         493 .LDW32:
00000122 4006ff00        494 	dispose	0,{r28,r29,r31},[lp]
                         495 	.type	_McalCry_Local_GetKeyListAndDet,@function
                         496 	.size	_McalCry_Local_GetKeyListAndDet,.-_McalCry_Local_GetKeyListAndDet
                         497 	.align	2
                         498 .LDW42:
                         499 --_retVal	r28	local
                         500 --_i	r18	local
                         501 
                         502 --_job	r6	param
                         503 --_keyList	r29	param
                         504 
                         505 	.section ".bss","awb"
                         506 .L1122:
                         507 	.type	.L1122,@object
                         508 	.size	.L1122,0
                         509 	.data
                         510 	.section ".MSR_CODE","ax"
                         511 	.align	2
                         512 	.align	2
                         513 ..gh.f.f.1.e.5:
                         514 	.type	..gh.f.f.1.e.5,@object
                         515 	.size	..gh.f.f.1.e.5,0
                         516 	.global	_McalCry_Local_KeyListPostFreeKeys
                         517 _McalCry_Local_KeyListPostFreeKeys:
00000126 8007e100        518 	prepare	{r28,r29,r31},0
0000012a 06e0            519 	mov	r6,r28
                         520 --	    .bf

                                                                      Page 10
                                                              C:\Users\nhuliyap\AppData\Local\Temp\gh_0000d401.s
                         521 .LDW52:
0000012c 00ea            522 	mov	0,r29
0000012e f50d*           523 	br	.L1186
                         524 .L1185:
                         525 --line1016
                         526 ..lin.C.3A.5C_ECU2.5CECU_Rivian_A1.5CTarget.5Crepo_projects.5CpFOTA.5CcL_R2023.2E09.2E01.5Cmake.5Cobj.5CMcalCry.26::
                         527 .LDWlin26:
00000130 1df0            528 	mov	r29,ep
00000132 c3f2            529 	shl	3,ep
00000134 dcf1            530 	add	r28,ep
00000136 6490            531 	sld.bu	4[ep],r18
00000138 0035            532 	sld.w	0[ep],r6
0000013a e091            533 	cmp	zero,r18
0000013c ca05*           534 	bne	.L1187
                         535 --line1017
                         536 ..lin.C.3A.5C_ECU2.5CECU_Rivian_A1.5CTarget.5Crepo_projects.5CpFOTA.5CcL_R2023.2E09.2E01.5Cmake.5Cobj.5CMcalCry.27::
                         537 .LDWlin27:
                         538 	jarl	_McalCry_Local_KeyReadLockReleaseNotProtected,lp
                         538 <EXPANSION BEGIN>
                         538 jarl22 _McalCry_Local_KeyReadLockReleaseNotProtected , lp 
0000013e 80ff0000*       538 <EXPANSION END>
00000142 b505*           539 	br	.L1184
                         540 .L1187:
                         541 --line1020
                         542 ..lin.C.3A.5C_ECU2.5CECU_Rivian_A1.5CTarget.5Crepo_projects.5CpFOTA.5CcL_R2023.2E09.2E01.5Cmake.5Cobj.5CMcalCry.28::
                         543 .LDWlin28:
                         544 	jarl	_McalCry_Local_KeyWriteLockReleaseNotProtected,lp
                         544 <EXPANSION BEGIN>
                         544 jarl22 _McalCry_Local_KeyWriteLockReleaseNotProtected , lp 
00000144 80ff0000*       544 <EXPANSION END>
                         545 .L1184:
                         546 --line1015
                         547 ..lin.C.3A.5C_ECU2.5CECU_Rivian_A1.5CTarget.5Crepo_projects.5CpFOTA.5CcL_R2023.2E09.2E01.5Cmake.5Cobj.5CMcalCry.29::
                         548 .LDWlin29:
00000148 41ea            549 	add	1,r29
0000014a 9d00            550 	zxb	r29
                         551 .L1186:
0000014c 9c8f1900        552 	ld.bu	24[r28],r17
00000150 f1e9            553 	cmp	r17,r29
00000152 f1ed*           554 	bl	.L1185
                         555 --	    .ef
                         556 .LDW62:
                         557 --line1023
                         558 ..lin.C.3A.5C_ECU2.5CECU_Rivian_A1.5CTarget.5Crepo_projects.5CpFOTA.5CcL_R2023.2E09.2E01.5Cmake.5Cobj.5CMcalCry.30::
                         559 .LDWlin30:
00000154 4006ff00        560 	dispose	0,{r28,r29,r31},[lp]
                         561 	.type	_McalCry_Local_KeyListPostFreeKeys,@function
                         562 	.size	_McalCry_Local_KeyListPostFreeKeys,.-_McalCry_Local_KeyListPostFreeKeys
                         563 	.align	2
                         564 .LDW72:
                         565 --_i	r29	local
                         566 
                         567 --_keyList	r28	param
                         568 
                         569 	.section ".bss","awb"
                         570 .L1242:
                         571 	.type	.L1242,@object
                         572 	.size	.L1242,0
                         573 	.data
                         574 	.section ".MSR_CODE","ax"
                         575 	.align	2

                                                                      Page 11
                                                              C:\Users\nhuliyap\AppData\Local\Temp\gh_0000d401.s
                         576 	.align	2
                         577 ..gh.f.f.1.e.6:
                         578 	.type	..gh.f.f.1.e.6,@object
                         579 	.size	..gh.f.f.1.e.6,0
                         580 	.global	_McalCry_DispatchJob..C.3A.5C_ECU2.5CECU_Rivian_A1.5CTarget.5Crepo_projects.5CpFOTA.5CcL_R2023.2E09.2E01.5Cmake.5Cobj.5CMcalCry.
                         581 _McalCry_DispatchJob..C.3A.5C_ECU2.5CECU_Rivian_A1.5CTarget.5Crepo_projects.5CpFOTA.5CcL_R2023.2E09.2E01.5Cmake.5Cobj.5CMcalCry.:
                         582 _McalCry_DispatchJob:
00000158 8007e170        583 	prepare	{r25,r26,r27,r28,r29,r31},0
0000015c 06e0            584 	mov	r6,r28
0000015e 07c8            585 	mov	r7,r25
00000160 09e8            586 	mov	r9,r29
00000162 83df1900        587 	ld.bu	24[sp],r27
                         588 --	    .bf
                         589 .LDW82:
00000166 89970500        590 	ld.bu	4[r9],r18
0000016a 0152            591 	mov	1,r10
0000016c e091            592 	cmp	zero,r18
0000016e b205*           593 	be	.L1315
00000170 6192            594 	cmp	1,r18
00000172 ca4d*           595 	bne	.L1311
                         596 .L1315:
00000174 c9c73400        597 	tst1	0,52[r9]
00000178 d215*           598 	be	.L1313
                         599 --line1399
                         600 ..lin.C.3A.5C_ECU2.5CECU_Rivian_A1.5CTarget.5Crepo_projects.5CpFOTA.5CcL_R2023.2E09.2E01.5Cmake.5Cobj.5CMcalCry.31::
                         601 .LDWlin31:
0000017a 1bf0            602 	mov	r27,ep
0000017c c3f2            603 	shl	3,ep
0000017e c5f1            604 	add	r5,ep
00000180 be0705f00000*   605 	ld.bu	rosdaoff23(_McalCry_PrimitiveInfo+5)[ep],ep
00000186 0938            606 	mov	r9,r7
00000188 0a40            607 	mov	r10,r8
0000018a c3f2            608 	shl	3,ep
0000018c c5f1            609 	add	r5,ep
0000018e 9e0709d00000*   610 	ld.w	rosdaoff23(_McalCry_PrimitiveFct+4)[ep],r26
00000194 fac760f9        611 	jarl	[r26],lp
                         612 --line1400
                         613 ..lin.C.3A.5C_ECU2.5CECU_Rivian_A1.5CTarget.5Crepo_projects.5CpFOTA.5CcL_R2023.2E09.2E01.5Cmake.5Cobj.5CMcalCry.32::
                         614 .LDWlin32:
00000198 e051            615 	cmp	zero,r10
0000019a e2970000        616 	setfe	r18
0000019e 5d970400        617 	st.b	r18,4[r29]
                         618 .L1313:
000001a2 6192            619 	cmp	1,r18
000001a4 ba35*           620 	bne	.L1311
000001a6 ddcf3400        621 	tst1	1,52[r29]
000001aa f215*           622 	be	.L1334
                         623 --line1405
                         624 ..lin.C.3A.5C_ECU2.5CECU_Rivian_A1.5CTarget.5Crepo_projects.5CpFOTA.5CcL_R2023.2E09.2E01.5Cmake.5Cobj.5CMcalCry.33::
                         625 .LDWlin33:
000001ac 1bf0            626 	mov	r27,ep
000001ae c3f2            627 	shl	3,ep
000001b0 c5f1            628 	add	r5,ep
000001b2 be0705f00000*   629 	ld.bu	rosdaoff23(_McalCry_PrimitiveInfo+5)[ep],ep
000001b8 1c30            630 	mov	r28,r6
000001ba 1d38            631 	mov	r29,r7
000001bc 0242            632 	mov	2,r8
000001be c3f2            633 	shl	3,ep
000001c0 c5f1            634 	add	r5,ep
000001c2 9e0709d00000*   635 	ld.w	rosdaoff23(_McalCry_PrimitiveFct+4)[ep],r26
000001c8 fac760f9        636 	jarl	[r26],lp

                                                                      Page 12
                                                              C:\Users\nhuliyap\AppData\Local\Temp\gh_0000d401.s
                         637 --line1406
                         638 ..lin.C.3A.5C_ECU2.5CECU_Rivian_A1.5CTarget.5Crepo_projects.5CpFOTA.5CcL_R2023.2E09.2E01.5Cmake.5Cobj.5CMcalCry.34::
                         639 .LDWlin34:
000001cc e051            640 	cmp	zero,r10
000001ce e2970000        641 	setfe	r18
000001d2 5d970400        642 	st.b	r18,4[r29]
000001d6 aa1d*           643 	bne	.L1311
                         644 .L1334:
000001d8 ddd73400        645 	tst1	2,52[r29]
000001dc f215*           646 	be	.L1311
                         647 --line1411
                         648 ..lin.C.3A.5C_ECU2.5CECU_Rivian_A1.5CTarget.5Crepo_projects.5CpFOTA.5CcL_R2023.2E09.2E01.5Cmake.5Cobj.5CMcalCry.35::
                         649 .LDWlin35:
000001de c3da            650 	shl	3,r27
000001e0 c5d9            651 	add	r5,r27
000001e2 bb0705f00000*   652 	ld.bu	rosdaoff23(_McalCry_PrimitiveInfo+5)[r27],ep
000001e8 1c30            653 	mov	r28,r6
000001ea 1d38            654 	mov	r29,r7
000001ec 0442            655 	mov	4,r8
000001ee c3f2            656 	shl	3,ep
000001f0 c5f1            657 	add	r5,ep
000001f2 9e0709e00000*   658 	ld.w	rosdaoff23(_McalCry_PrimitiveFct+4)[ep],r28
000001f8 fcc760f9        659 	jarl	[r28],lp
                         660 --line1412
                         661 ..lin.C.3A.5C_ECU2.5CECU_Rivian_A1.5CTarget.5Crepo_projects.5CpFOTA.5CcL_R2023.2E09.2E01.5Cmake.5Cobj.5CMcalCry.36::
                         662 .LDWlin36:
000001fc 5d070400        663 	st.b	zero,4[r29]
00000200 015a            664 	mov	1,r11
00000202 595f0000        665 	st.b	r11,0[r25]
00000206 4006ff70        666 	dispose	0,{r25,r26,r27,r28,r29,r31},[lp]
                         667 .L1311:
                         668 --	    .ef
                         669 .LDW92:
                         670 --line1433
                         671 ..lin.C.3A.5C_ECU2.5CECU_Rivian_A1.5CTarget.5Crepo_projects.5CpFOTA.5CcL_R2023.2E09.2E01.5Cmake.5Cobj.5CMcalCry.37::
                         672 .LDWlin37:
0000020a 4006ff70        673 	dispose	0,{r25,r26,r27,r28,r29,r31},[lp]
                         674 	.type	_McalCry_DispatchJob,@function
                         675 	.size	_McalCry_DispatchJob,.-_McalCry_DispatchJob
                         676 	.type	_McalCry_DispatchJob..C.3A.5C_ECU2.5CECU_Rivian_A1.5CTarget.5Crepo_projects.5CpFOTA.5CcL_R2023.2E09.2E01.5Cmake.5Cobj.5CMcalCry.,@function
                         677 	.size	_McalCry_DispatchJob..C.3A.5C_ECU2.5CECU_Rivian_A1.5CTarget.5Crepo_projects.5CpFOTA.5CcL_R2023.2E09.2E01.5Cmake.5Cobj.5CMcalCry.,.-_McalCry_DispatchJob..C.3A.5C_ECU2.5CECU_Rivian_A1.5CTarget.5Crepo_projects.5CpFOTA.5CcL_R2023.2E09.2E01.5Cmake.5Cobj.5CMcalCry.
                         678 	.align	2
                         679 .LDW03:
                         680 --_retVal	r10	local
                         681 
                         682 --_objectId	r28	param
                         683 --_unlockingNecessary	r25	param
                         684 --_contextMode	none	param
                         685 --_job	r29	param
                         686 --_primitiveInfoIdx	r27	param
                         687 
                         688 	.section ".bss","awb"
                         689 .L1471:
                         690 	.type	.L1471,@object
                         691 	.size	.L1471,0
                         692 	.data
                         693 	.section ".MSR_CODE","ax"
                         694 	.align	2
                         695 	.align	2
                         696 ..gh.f.f.1.e.7:
                         697 	.type	..gh.f.f.1.e.7,@object

                                                                      Page 13
                                                              C:\Users\nhuliyap\AppData\Local\Temp\gh_0000d401.s
                         698 	.size	..gh.f.f.1.e.7,0
                         699 	.global	_McalCry_Process..C.3A.5C_ECU2.5CECU_Rivian_A1.5CTarget.5Crepo_projects.5CpFOTA.5CcL_R2023.2E09.2E01.5Cmake.5Cobj.5CMcalCry.
                         700 _McalCry_Process..C.3A.5C_ECU2.5CECU_Rivian_A1.5CTarget.5Crepo_projects.5CpFOTA.5CcL_R2023.2E09.2E01.5Cmake.5Cobj.5CMcalCry.:
                         701 _McalCry_Process:
0000020e 8407e330        702 	prepare	{r26,r27,r28,r29,r31},2,sp
00000212 0950            703 	mov	r9,r10
00000214 06e8            704 	mov	r6,r29
00000216 07d8            705 	mov	r7,r27
00000218 08d0            706 	mov	r8,r26
0000021a 8a00            707 	zxb	r10
                         708 --	    .bf
                         709 .LDW13:
0000021c 8603            710 	sst.b	zero,6[ep]
0000021e 8703            711 	sst.b	zero,7[ep]
00000220 04f0            712 	mov	gp,ep
00000222 c6f1            713 	add	r6,ep
00000224 9e070d000000*   714 	st.b	zero,sdaoff23(_McalCry_ProcessJob_Trigger_Write)[ep]
0000022a 0748            715 	mov	r7,r9
0000022c 63570100        716 	st.w	r10,0[sp]
00000230 233e0600        717 	movea	6,sp,r7
00000234 23460700        718 	movea	7,sp,r8
                         719 	jarl	_McalCry_DispatchJob,lp
                         719 <EXPANSION BEGIN>
                         719 jarl22 _McalCry_DispatchJob , lp 
00000238 bfff20ff*       719 <EXPANSION END>
0000023c 0ae0            720 	mov	r10,r28
                         721 --line1227
                         722 ..lin.C.3A.5C_ECU2.5CECU_Rivian_A1.5CTarget.5Crepo_projects.5CpFOTA.5CcL_R2023.2E09.2E01.5Cmake.5Cobj.5CMcalCry.38::
                         723 .LDWlin38:
0000023e e051            724 	cmp	zero,r10
00000240 da05*           725 	bne	.L1581
00000242 83870700        726 	ld.bu	6[sp],r16
00000246 6182            727 	cmp	1,r16
00000248 ba0d*           728 	bne	.L1580
                         729 .L1581:
                         730 --line1231
                         731 ..lin.C.3A.5C_ECU2.5CECU_Rivian_A1.5CTarget.5Crepo_projects.5CpFOTA.5CcL_R2023.2E09.2E01.5Cmake.5Cobj.5CMcalCry.39::
                         732 .LDWlin39:
0000024a 1df0            733 	mov	r29,ep
0000024c c2f2            734 	shl	2,ep
0000024e c4f1            735 	add	gp,ep
00000250 1f72            736 	mov	-1,r14
00000252 9e070f700000*   737 	st.w	r14,sdaoff23(_McalCry_Lock)[ep]
00000258 1a30            738 	mov	r26,r6
                         739 	jarl	_McalCry_Local_KeyListPostFreeKeys,lp
                         739 <EXPANSION BEGIN>
                         739 jarl22 _McalCry_Local_KeyListPostFreeKeys , lp 
0000025a bfffccfe*       739 <EXPANSION END>
                         740 .L1580:
                         741 --line1256
                         742 ..lin.C.3A.5C_ECU2.5CECU_Rivian_A1.5CTarget.5Crepo_projects.5CpFOTA.5CcL_R2023.2E09.2E01.5Cmake.5Cobj.5CMcalCry.40::
                         743 .LDWlin40:
0000025e 3b974100        744 	ld.w	64[r27],r18
00000262 04f0            745 	mov	gp,ep
00000264 ddf1            746 	add	r29,ep
00000266 9e070d000000*   747 	st.b	zero,sdaoff23(_McalCry_DriverObjectState)[ep]
0000026c 92971100        748 	ld.bu	16[r18],r18
00000270 e091            749 	cmp	zero,r18
00000272 fa0d*           750 	bne	.L1583
                         751 --line1257
                         752 ..lin.C.3A.5C_ECU2.5CECU_Rivian_A1.5CTarget.5Crepo_projects.5CpFOTA.5CcL_R2023.2E09.2E01.5Cmake.5Cobj.5CMcalCry.41::

                                                                      Page 14
                                                              C:\Users\nhuliyap\AppData\Local\Temp\gh_0000d401.s
                         753 .LDWlin41:
00000274 c4ea            754 	shl	4,r29
00000276 c5e9            755 	add	r5,r29
00000278 bd0705f00000*   756 	ld.bu	rosdaoff23(_McalCry_ObjectInfo+6)[r29],ep
0000027e 1b30            757 	mov	r27,r6
00000280 1c38            758 	mov	r28,r7
00000282 c2f2            759 	shl	2,ep
00000284 c4f1            760 	add	gp,ep
00000286 9e070f000000*   761 	st.w	zero,sdaoff23(_McalCry_Queue)[ep]
                         762 	jarl	_CryIf_CallbackNotification,lp
                         762 <EXPANSION BEGIN>
                         762 jarl22 _CryIf_CallbackNotification , lp 
0000028c 80ff0000*       762 <EXPANSION END>
                         763 .L1583:
                         764 --line1262
                         765 ..lin.C.3A.5C_ECU2.5CECU_Rivian_A1.5CTarget.5Crepo_projects.5CpFOTA.5CcL_R2023.2E09.2E01.5Cmake.5Cobj.5CMcalCry.42::
                         766 .LDWlin42:
00000290 1c50            767 	mov	r28,r10
                         768 --	    .ef
                         769 .LDW23:
00000292 4406ff30        770 	dispose	2,{r26,r27,r28,r29,r31},[lp]
                         771 	.type	_McalCry_Process,@function
                         772 	.size	_McalCry_Process,.-_McalCry_Process
                         773 	.type	_McalCry_Process..C.3A.5C_ECU2.5CECU_Rivian_A1.5CTarget.5Crepo_projects.5CpFOTA.5CcL_R2023.2E09.2E01.5Cmake.5Cobj.5CMcalCry.,@function
                         774 	.size	_McalCry_Process..C.3A.5C_ECU2.5CECU_Rivian_A1.5CTarget.5Crepo_projects.5CpFOTA.5CcL_R2023.2E09.2E01.5Cmake.5Cobj.5CMcalCry.,.-_McalCry_Process..C.3A.5C_ECU2.5CECU_Rivian_A1.5CTarget.5Crepo_projects.5CpFOTA.5CcL_R2023.2E09.2E01.5Cmake.5Cobj.5CMcalCry.
                         775 	.align	2
                         776 .LDW33:
                         777 --_retVal	r28	local
                         778 --_unlockingNecessary	6[sp]	local
                         779 --_contextMode	7[sp]	local
                         780 
                         781 --_objectId	r29	param
                         782 --_job	r27	param
                         783 --_keyList	r26	param
                         784 --_primitiveInfoIdx	r10	param
                         785 
                         786 	.section ".bss","awb"
                         787 .L1842:
                         788 	.type	.L1842,@object
                         789 	.size	.L1842,0
                         790 	.data
                         791 	.section ".MSR_CODE","ax"
                         792 	.align	2
                         793 	.align	2
                         794 ..gh.f.f.1.e.8:
                         795 	.type	..gh.f.f.1.e.8,@object
                         796 	.size	..gh.f.f.1.e.8,0
                         797 	.global	_McalCry_SearchService..C.3A.5C_ECU2.5CECU_Rivian_A1.5CTarget.5Crepo_projects.5CpFOTA.5CcL_R2023.2E09.2E01.5Cmake.5Cobj.5CMcalCry.
                         798 _McalCry_SearchService..C.3A.5C_ECU2.5CECU_Rivian_A1.5CTarget.5Crepo_projects.5CpFOTA.5CcL_R2023.2E09.2E01.5Cmake.5Cobj.5CMcalCry.:
                         799 _McalCry_SearchService:
00000296 07f0            800 	mov	r7,ep
                         801 --	    .bf
                         802 .LDW43:
00000298 20f5            803 	sld.w	64[ep],ep
0000029a 270600000000*   804 	mov	rosdaoff23(_McalCry_PrimitiveServiceInfo),r7
000002a0 0152            805 	mov	1,r10
000002a2 026d            806 	sld.w	4[ep],r13
000002a4 8d7f0500        807 	ld.bu	4[r13],r15
000002a8 0f90            808 	mov	r15,r18
000002aa c192            809 	shl	1,r18
000002ac c791            810 	add	r7,r18

                                                                      Page 15
                                                              C:\Users\nhuliyap\AppData\Local\Temp\gh_0000d401.s
000002ae b28f0100        811 	ld.bu	1[r18],r17
000002b2 110601ff        812 	addi	-255,r17,zero
000002b6 c235*           813 	be	.L1905
000002b8 0df60800        814 	addi	8,r13,ep
                         815 --line1286
                         816 ..lin.C.3A.5C_ECU2.5CECU_Rivian_A1.5CTarget.5Crepo_projects.5CpFOTA.5CcL_R2023.2E09.2E01.5Cmake.5Cobj.5CMcalCry.43::
                         817 .LDWlin43:
000002bc 6080            818 	sld.bu	0[ep],r16
000002be d87a            819 	shl	24,r15
000002c0 6960            820 	sld.bu	9[ep],r12
000002c2 926f0100        821 	ld.bu	0[r18],r13
000002c6 d082            822 	shl	16,r16
000002c8 0f81            823 	or	r15,r16
000002ca 6878            824 	sld.bu	8[ep],r15
000002cc c87a            825 	shl	8,r15
000002ce 1079            826 	or	r16,r15
000002d0 0f61            827 	or	r15,r12
000002d2 b525*           828 	br	.L1912
                         829 .L1911:
                         830 --line1289
                         831 ..lin.C.3A.5C_ECU2.5CECU_Rivian_A1.5CTarget.5Crepo_projects.5CpFOTA.5CcL_R2023.2E09.2E01.5Cmake.5Cobj.5CMcalCry.44::
                         832 .LDWlin44:
000002d4 11f0            833 	mov	r17,ep
000002d6 c3f2            834 	shl	3,ep
000002d8 330600000000*   835 	mov	rosdaoff23(_McalCry_PrimitiveInfo),r19
000002de d3f1            836 	add	r19,ep
000002e0 0095            837 	sld.w	0[ep],r18
000002e2 ec91            838 	cmp	r12,r18
000002e4 9a1d*           839 	bne	.L1910
                         840 --line1294
                         841 ..lin.C.3A.5C_ECU2.5CECU_Rivian_A1.5CTarget.5Crepo_projects.5CpFOTA.5CcL_R2023.2E09.2E01.5Cmake.5Cobj.5CMcalCry.45::
                         842 .LDWlin45:
000002e6 65f0            843 	sld.bu	5[ep],ep
000002e8 c3f2            844 	shl	3,ep
000002ea c5f1            845 	add	r5,ep
000002ec be0705580000*   846 	ld.bu	rosdaoff23(_McalCry_PrimitiveFct)[ep],r11
000002f2 be0705700000*   847 	ld.bu	rosdaoff23(_McalCry_PrimitiveFct+1)[ep],r14
000002f8 d50d*           848 	br	.L1918
                         849 .L1917:
                         850 --line1298
                         851 ..lin.C.3A.5C_ECU2.5CECU_Rivian_A1.5CTarget.5Crepo_projects.5CpFOTA.5CcL_R2023.2E09.2E01.5Cmake.5Cobj.5CMcalCry.46::
                         852 .LDWlin46:
000002fa 05f0            853 	mov	r5,ep
000002fc cef1            854 	add	r14,ep
000002fe be0705780000*   855 	ld.bu	rosdaoff23(_McalCry_ObjectInfoInd)[ep],r15
00000304 e679            856 	cmp	r6,r15
00000306 da05*           857 	bne	.L1916
                         858 --line1300
                         859 ..lin.C.3A.5C_ECU2.5CECU_Rivian_A1.5CTarget.5Crepo_projects.5CpFOTA.5CcL_R2023.2E09.2E01.5Cmake.5Cobj.5CMcalCry.47::
                         860 .LDWlin47:
00000308 488f0000        861 	st.b	r17,0[r8]
0000030c 0052            862 	mov	0,r10
0000030e 7f00            863 	jmp	[lp]
                         864 .L1916:
                         865 --line1296
                         866 ..lin.C.3A.5C_ECU2.5CECU_Rivian_A1.5CTarget.5Crepo_projects.5CpFOTA.5CcL_R2023.2E09.2E01.5Cmake.5Cobj.5CMcalCry.48::
                         867 .LDWlin48:
00000310 4172            868 	add	1,r14
                         869 .L1918:
00000312 eb71            870 	cmp	r11,r14
00000314 b1f5*           871 	bl	.L1917

                                                                      Page 16
                                                              C:\Users\nhuliyap\AppData\Local\Temp\gh_0000d401.s
                         872 .L1910:
                         873 --line1288
                         874 ..lin.C.3A.5C_ECU2.5CECU_Rivian_A1.5CTarget.5Crepo_projects.5CpFOTA.5CcL_R2023.2E09.2E01.5Cmake.5Cobj.5CMcalCry.49::
                         875 .LDWlin49:
00000316 418a            876 	add	1,r17
                         877 .L1912:
00000318 ed89            878 	cmp	r13,r17
0000031a d1dd*           879 	bl	.L1911
0000031c 7f00            880 	jmp	[lp]
                         881 .L1905:
                         882 --	    .ef
                         883 .LDW53:
                         884 --line1314
                         885 ..lin.C.3A.5C_ECU2.5CECU_Rivian_A1.5CTarget.5Crepo_projects.5CpFOTA.5CcL_R2023.2E09.2E01.5Cmake.5Cobj.5CMcalCry.50::
                         886 .LDWlin50:
0000031e 7f00            887 	jmp	[lp]
                         888 	.type	_McalCry_SearchService,@function
                         889 	.size	_McalCry_SearchService,.-_McalCry_SearchService
                         890 	.type	_McalCry_SearchService..C.3A.5C_ECU2.5CECU_Rivian_A1.5CTarget.5Crepo_projects.5CpFOTA.5CcL_R2023.2E09.2E01.5Cmake.5Cobj.5CMcalCry.,@function
                         891 	.size	_McalCry_SearchService..C.3A.5C_ECU2.5CECU_Rivian_A1.5CTarget.5Crepo_projects.5CpFOTA.5CcL_R2023.2E09.2E01.5Cmake.5Cobj.5CMcalCry.,.-_McalCry_SearchService..C.3A.5C_ECU2.5CECU_Rivian_A1.5CTarget.5Crepo_projects.5CpFOTA.5CcL_R2023.2E09.2E01.5Cmake.5Cobj.5CMcalCry.
                         892 	.align	2
                         893 .LDW63:
                         894 --_retVal	r10	local
                         895 --_primitiveInfoEndIdx	r13	local
                         896 --_primitiveInfoIteratorIdx	r17	local
                         897 --_objectInfoIndEndIdx	r11	local
                         898 --_objectInfoIndIdx	r14	local
                         899 --_primitive	r13	local
                         900 --_algo	ep	local
                         901 --_combi	r12	local
                         902 
                         903 --_objectId	r6	param
                         904 --_job	ep	param
                         905 --_primitiveInfoIdx	r8	param
                         906 
                         907 	.section ".bss","awb"
                         908 .L2045:
                         909 	.type	.L2045,@object
                         910 	.size	.L2045,0
                         911 	.data
                         912 	.section ".MSR_CODE","ax"
                         913 	.align	2
                         914 	.align	2
                         915 ..gh.f.f.1.e.9:
                         916 	.type	..gh.f.f.1.e.9,@object
                         917 	.size	..gh.f.f.1.e.9,0
                         918 	.global	_McalCry_InitMemory
                         919 _McalCry_InitMemory:
                         920 --	    .bf
                         921 .LDW73:
00000320 84070d000000*   922 	st.b	zero,sdaoff23(_McalCry_ModuleInitialized)[gp]
                         923 --	    .ef
                         924 .LDW83:
00000326 7f00            925 	jmp	[lp]
                         926 	.type	_McalCry_InitMemory,@function
                         927 	.size	_McalCry_InitMemory,.-_McalCry_InitMemory
                         928 	.align	2
                         929 .LDW93:
                         930 
                         931 	.section ".bss","awb"
                         932 .L2177:

                                                                      Page 17
                                                              C:\Users\nhuliyap\AppData\Local\Temp\gh_0000d401.s
                         933 	.type	.L2177,@object
                         934 	.size	.L2177,0
                         935 	.data
                         936 	.section ".MSR_CODE","ax"
                         937 	.align	2
                         938 	.align	2
                         939 ..gh.f.f.1.e.10:
                         940 	.type	..gh.f.f.1.e.10,@object
                         941 	.size	..gh.f.f.1.e.10,0
                         942 	.global	_McalCry_Init_KeySimple
                         943 _McalCry_Init_KeySimple:
                         944 --	    .bf
                         945 .LDW04:
00000328 e6f60600        946 	mulhi	6,r6,ep
0000032c 310600000000*   947 	mov	sdaoff23(_McalCry_KeyStorage),r17
00000332 c5f1            948 	add	r5,ep
00000334 be0707900000*   949 	ld.hu	rosdaoff23(_McalCry_KeyElements+2)[ep],r18
0000033a 12f6ffff        950 	addi	-1,r18,ep
0000033e de00            951 	zxh	ep
00000340 d1f1            952 	add	r17,ep
00000342 8003            953 	sst.b	zero,0[ep]
00000344 12f6fcff        954 	addi	-4,r18,ep
00000348 de00            955 	zxh	ep
0000034a d1f1            956 	add	r17,ep
0000034c 8003            957 	sst.b	zero,0[ep]
0000034e 8103            958 	sst.b	zero,1[ep]
00000350 12f6feff        959 	addi	-2,r18,ep
00000354 de00            960 	zxh	ep
00000356 d1f1            961 	add	r17,ep
00000358 8003            962 	sst.b	zero,0[ep]
                         963 --	    .ef
                         964 .LDW14:
0000035a 7f00            965 	jmp	[lp]
                         966 	.type	_McalCry_Init_KeySimple,@function
                         967 	.size	_McalCry_Init_KeySimple,.-_McalCry_Init_KeySimple
                         968 	.align	2
                         969 .LDW24:
                         970 --_keyStorageIdx	ep	local
                         971 
                         972 --_elementIndex	r6	param
                         973 
                         974 	.section ".bss","awb"
                         975 .L2225:
                         976 	.type	.L2225,@object
                         977 	.size	.L2225,0
                         978 	.data
                         979 	.section ".MSR_CODE","ax"
                         980 	.align	2
                         981 	.align	2
                         982 ..gh.f.f.1.e.11:
                         983 	.type	..gh.f.f.1.e.11,@object
                         984 	.size	..gh.f.f.1.e.11,0
                         985 	.global	_McalCry_Init_Key
                         986 _McalCry_Init_Key:
0000035c 8007e100        987 	prepare	{r28,r29,r31},0
                         988 --	    .bf
                         989 .LDW34:
00000360 e6f60600        990 	mulhi	6,r6,ep
00000364 0688            991 	mov	r6,r17
00000366 9100            992 	zxb	r17
00000368 c5f1            993 	add	r5,ep

                                                                      Page 18
                                                              C:\Users\nhuliyap\AppData\Local\Temp\gh_0000d401.s
0000036a be0707e80000*   994 	ld.hu	rosdaoff23(_McalCry_KeyElements+2)[ep],r29
00000370 f1f60600        995 	mulhi	6,r17,ep
00000374 c5f1            996 	add	r5,ep
00000376 be0707e00000*   997 	ld.hu	rosdaoff23(_McalCry_KeyElementInfo)[ep],r28
                         998 	jarl	_McalCry_Init_KeySimple,lp
                         998 <EXPANSION BEGIN>
                         998 jarl22 _McalCry_Init_KeySimple , lp 
0000037c bfffacff*       998 <EXPANSION END>
                         999 --line1491
                        1000 ..lin.C.3A.5C_ECU2.5CECU_Rivian_A1.5CTarget.5Crepo_projects.5CpFOTA.5CcL_R2023.2E09.2E01.5Cmake.5Cobj.5CMcalCry.51::
                        1001 .LDWlin51:
00000380 d83a           1002 	shl	24,r7
00000382 920d*          1003 	be	.L2243
                        1004 --line1492
                        1005 ..lin.C.3A.5C_ECU2.5CECU_Rivian_A1.5CTarget.5Crepo_projects.5CpFOTA.5CcL_R2023.2E09.2E01.5Cmake.5Cobj.5CMcalCry.52::
                        1006 .LDWlin52:
00000384 260600000000*  1007 	mov	sdaoff23(_McalCry_KeyStorage),r6
0000038a dd31           1008 	add	r29,r6
0000038c 1c40           1009 	mov	r28,r8
0000038e 003a           1010 	mov	0,r7
                        1011 	jarl	_VStdLib_MemSet,lp
                        1011 <EXPANSION BEGIN>
                        1011 jarl22 _VStdLib_MemSet , lp 
00000390 80ff0000*      1011 <EXPANSION END>
                        1012 .L2243:
                        1013 --	    .ef
                        1014 .LDW44:
                        1015 --line1495
                        1016 ..lin.C.3A.5C_ECU2.5CECU_Rivian_A1.5CTarget.5Crepo_projects.5CpFOTA.5CcL_R2023.2E09.2E01.5Cmake.5Cobj.5CMcalCry.53::
                        1017 .LDWlin53:
00000394 4006ff00       1018 	dispose	0,{r28,r29,r31},[lp]
                        1019 	.type	_McalCry_Init_Key,@function
                        1020 	.size	_McalCry_Init_Key,.-_McalCry_Init_Key
                        1021 	.align	2
                        1022 .LDW54:
                        1023 --_keyStorageIdx	r29	local
                        1024 --_keyElementLength	r28	local
                        1025 
                        1026 --_elementIndex	r6	param
                        1027 --_initAllBytes	r27	param
                        1028 
                        1029 	.section ".bss","awb"
                        1030 .L2278:
                        1031 	.type	.L2278,@object
                        1032 	.size	.L2278,0
                        1033 	.data
                        1034 	.section ".MSR_CODE","ax"
                        1035 	.align	2
                        1036 	.align	2
                        1037 ..gh.f.f.1.e.12:
                        1038 	.type	..gh.f.f.1.e.12,@object
                        1039 	.size	..gh.f.f.1.e.12,0
                        1040 	.global	_McalCry_Init
                        1041 _McalCry_Init:
00000398 80076100       1042 	prepare	{r29,r31},0
                        1043 --	    .bf
                        1044 .LDW64:
0000039c a40705700000*  1045 	ld.bu	sdaoff23(_McalCry_ModuleInitialized)[gp],r14
000003a2 ceee0100       1046 	andi	1,r14,r29
                        1047 --	    .bs
                        1048 .LDW74:

                                                                      Page 19
                                                              C:\Users\nhuliyap\AppData\Local\Temp\gh_0000d401.s
000003a6 ea35*          1049 	bne	.L2332
                        1050 .L2318:
                        1051 --line1542
                        1052 ..lin.C.3A.5C_ECU2.5CECU_Rivian_A1.5CTarget.5Crepo_projects.5CpFOTA.5CcL_R2023.2E09.2E01.5Cmake.5Cobj.5CMcalCry.54::
                        1053 .LDWlin54:
000003a8 1d30           1054 	mov	r29,r6
000003aa 003a           1055 	mov	0,r7
                        1056 	jarl	_McalCry_Init_Key,lp
                        1056 <EXPANSION BEGIN>
                        1056 jarl22 _McalCry_Init_Key , lp 
000003ac bfffb0ff*      1056 <EXPANSION END>
                        1057 --line1533
                        1058 ..lin.C.3A.5C_ECU2.5CECU_Rivian_A1.5CTarget.5Crepo_projects.5CpFOTA.5CcL_R2023.2E09.2E01.5Cmake.5Cobj.5CMcalCry.55::
                        1059 .LDWlin55:
000003b0 41ea           1060 	add	1,r29
000003b2 6bea           1061 	cmp	11,r29
000003b4 a1fd*          1062 	bl	.L2318
000003b6 0082           1063 	mov	0,r16
                        1064 .L2321:
                        1065 --line1566
                        1066 ..lin.C.3A.5C_ECU2.5CECU_Rivian_A1.5CTarget.5Crepo_projects.5CpFOTA.5CcL_R2023.2E09.2E01.5Cmake.5Cobj.5CMcalCry.56::
                        1067 .LDWlin56:
000003b8 10f0           1068 	mov	r16,ep
000003ba c2f2           1069 	shl	2,ep
000003bc c4f1           1070 	add	gp,ep
000003be 1f62           1071 	mov	-1,r12
000003c0 4182           1072 	add	1,r16
000003c2 9e070f600000*  1073 	st.w	r12,sdaoff23(_McalCry_Lock)[ep]
000003c8 6282           1074 	cmp	2,r16
000003ca 008a           1075 	mov	0,r17
000003cc e1f5*          1076 	bl	.L2321
                        1077 .L2324:
                        1078 --line1577
                        1079 ..lin.C.3A.5C_ECU2.5CECU_Rivian_A1.5CTarget.5Crepo_projects.5CpFOTA.5CcL_R2023.2E09.2E01.5Cmake.5Cobj.5CMcalCry.57::
                        1080 .LDWlin57:
000003ce 11f0           1081 	mov	r17,ep
000003d0 c2f2           1082 	shl	2,ep
000003d2 c4f1           1083 	add	gp,ep
000003d4 418a           1084 	add	1,r17
000003d6 9e070f000000*  1085 	st.w	zero,sdaoff23(_McalCry_Queue)[ep]
000003dc 628a           1086 	cmp	2,r17
000003de 007a           1087 	mov	0,r15
000003e0 f1f5*          1088 	bl	.L2324
                        1089 .L2327:
                        1090 --line1581
                        1091 ..lin.C.3A.5C_ECU2.5CECU_Rivian_A1.5CTarget.5Crepo_projects.5CpFOTA.5CcL_R2023.2E09.2E01.5Cmake.5Cobj.5CMcalCry.58::
                        1092 .LDWlin58:
000003e2 04f0           1093 	mov	gp,ep
000003e4 cff1           1094 	add	r15,ep
000003e6 417a           1095 	add	1,r15
000003e8 9e070d000000*  1096 	st.b	zero,sdaoff23(_McalCry_DriverObjectState)[ep]
000003ee 627a           1097 	cmp	2,r15
000003f0 0092           1098 	mov	0,r18
000003f2 81fd*          1099 	bl	.L2327
                        1100 .L2330:
                        1101 --line1602
                        1102 ..lin.C.3A.5C_ECU2.5CECU_Rivian_A1.5CTarget.5Crepo_projects.5CpFOTA.5CcL_R2023.2E09.2E01.5Cmake.5Cobj.5CMcalCry.59::
                        1103 .LDWlin59:
000003f4 04f0           1104 	mov	gp,ep
000003f6 d2f1           1105 	add	r18,ep
000003f8 0252           1106 	mov	2,r10

                                                                      Page 20
                                                              C:\Users\nhuliyap\AppData\Local\Temp\gh_0000d401.s
000003fa 4192           1107 	add	1,r18
000003fc 9e070d500000*  1108 	st.b	r10,sdaoff23(_McalCry_KeyLock)[ep]
00000402 6792           1109 	cmp	7,r18
00000404 81fd*          1110 	bl	.L2330
                        1111 --line1606
                        1112 ..lin.C.3A.5C_ECU2.5CECU_Rivian_A1.5CTarget.5Crepo_projects.5CpFOTA.5CcL_R2023.2E09.2E01.5Cmake.5Cobj.5CMcalCry.60::
                        1113 .LDWlin60:
00000406 014a           1114 	mov	1,r9
00000408 84070d480000*  1115 	st.b	r9,sdaoff23(_McalCry_ModuleInitialized)[gp]
                        1116 --	    .es
                        1117 .LDW84:
0000040e 40067f00       1118 	dispose	0,{r29,r31},[lp]
                        1119 .L2332:
                        1120 --line1613
                        1121 ..lin.C.3A.5C_ECU2.5CECU_Rivian_A1.5CTarget.5Crepo_projects.5CpFOTA.5CcL_R2023.2E09.2E01.5Cmake.5Cobj.5CMcalCry.61::
                        1122 .LDWlin61:
00000412 003a           1123 	mov	0,r7
00000414 20367200       1124 	movea	114,zero,r6
00000418 0740           1125 	mov	r7,r8
0000041a 014a           1126 	mov	1,r9
                        1127 	jarl	_Det_ReportError,lp
                        1127 <EXPANSION BEGIN>
                        1127 jarl22 _Det_ReportError , lp 
0000041c 80ff0000*      1127 <EXPANSION END>
                        1128 --	    .ef
                        1129 .LDW94:
                        1130 --line1618
                        1131 ..lin.C.3A.5C_ECU2.5CECU_Rivian_A1.5CTarget.5Crepo_projects.5CpFOTA.5CcL_R2023.2E09.2E01.5Cmake.5Cobj.5CMcalCry.62::
                        1132 .LDWlin62:
00000420 40067f00       1133 	dispose	0,{r29,r31},[lp]
                        1134 	.type	_McalCry_Init,@function
                        1135 	.size	_McalCry_Init,.-_McalCry_Init
                        1136 	.align	2
                        1137 .LDW05:
                        1138 --_elementIndex	r29	local
                        1139 --_keyIndex	r18	local
                        1140 --_queueIdx	r17	local
                        1141 --_lockIdx	r16	local
                        1142 --_objectId	r15	local
                        1143 
                        1144 	.section ".bss","awb"
                        1145 .L2465:
                        1146 	.type	.L2465,@object
                        1147 	.size	.L2465,0
                        1148 	.data
                        1149 	.section ".MSR_CODE","ax"
                        1150 	.align	2
                        1151 	.align	2
                        1152 ..gh.f.f.1.e.13:
                        1153 	.type	..gh.f.f.1.e.13,@object
                        1154 	.size	..gh.f.f.1.e.13,0
                        1155 	.global	_McalCry_MainFunction
                        1156 _McalCry_MainFunction:
00000424 8e07e110       1157 	prepare	{r27,r28,r29,r31},7
                        1158 --	    .bf
                        1159 .LDW15:
00000428 a40705880000*  1160 	ld.bu	sdaoff23(_McalCry_ModuleInitialized)[gp],r17
0000042e 818a           1161 	shr	1,r17
00000430 e92d*          1162 	bnl	.L2577
00000432 00ea           1163 	mov	0,r29
                        1164 .L2583:

                                                                      Page 21
                                                              C:\Users\nhuliyap\AppData\Local\Temp\gh_0000d401.s
                        1165 --	    .bs
                        1166 .LDW25:
                        1167 --line1673
                        1168 ..lin.C.3A.5C_ECU2.5CECU_Rivian_A1.5CTarget.5Crepo_projects.5CpFOTA.5CcL_R2023.2E09.2E01.5Cmake.5Cobj.5CMcalCry.63::
                        1169 .LDWlin63:
00000434 1df0           1170 	mov	r29,ep
00000436 c4f2           1171 	shl	4,ep
00000438 c5f1           1172 	add	r5,ep
0000043a be0705f00000*  1173 	ld.bu	rosdaoff23(_McalCry_ObjectInfo+6)[ep],ep
00000440 c2f2           1174 	shl	2,ep
00000442 c4f1           1175 	add	gp,ep
00000444 9e0709e00000*  1176 	ld.w	sdaoff23(_McalCry_Queue)[ep],r28
0000044a e0e1           1177 	cmp	zero,r28
0000044c d21d*          1178 	be	.L2588
                        1179 --line1677
                        1180 ..lin.C.3A.5C_ECU2.5CECU_Rivian_A1.5CTarget.5Crepo_projects.5CpFOTA.5CcL_R2023.2E09.2E01.5Cmake.5Cobj.5CMcalCry.64::
                        1181 .LDWlin64:
0000044e 1c30           1182 	mov	r28,r6
00000450 0338           1183 	mov	sp,r7
                        1184 	jarl	_McalCry_Local_GetKeyList,lp
                        1184 <EXPANSION BEGIN>
                        1184 jarl22 _McalCry_Local_GetKeyList , lp 
00000452 bfff92fc*      1184 <EXPANSION END>
                        1185 --line1678
                        1186 ..lin.C.3A.5C_ECU2.5CECU_Rivian_A1.5CTarget.5Crepo_projects.5CpFOTA.5CcL_R2023.2E09.2E01.5Cmake.5Cobj.5CMcalCry.65::
                        1187 .LDWlin65:
00000456 04f0           1188 	mov	gp,ep
00000458 ddf1           1189 	add	r29,ep
0000045a be0705d80000*  1190 	ld.bu	sdaoff23(_McalCry_Dispatch_QueuePrimitiveInfoIdx)[ep],r27
00000460 1d30           1191 	mov	r29,r6
00000462 1c38           1192 	mov	r28,r7
00000464 0340           1193 	mov	sp,r8
                        1194 	jarl	_McalCry_TryObtainingLock,lp
                        1194 <EXPANSION BEGIN>
                        1194 jarl22 _McalCry_TryObtainingLock , lp 
00000466 bffff6fb*      1194 <EXPANSION END>
0000046a e051           1195 	cmp	zero,r10
0000046c da0d*          1196 	bne	.L2588
                        1197 --line1688
                        1198 ..lin.C.3A.5C_ECU2.5CECU_Rivian_A1.5CTarget.5Crepo_projects.5CpFOTA.5CcL_R2023.2E09.2E01.5Cmake.5Cobj.5CMcalCry.66::
                        1199 .LDWlin66:
0000046e 04f0           1200 	mov	gp,ep
00000470 ddf1           1201 	add	r29,ep
00000472 014a           1202 	mov	1,r9
00000474 9e070d480000*  1203 	st.b	r9,sdaoff23(_McalCry_DriverObjectState)[ep]
0000047a 1d30           1204 	mov	r29,r6
0000047c 1c38           1205 	mov	r28,r7
0000047e 1b48           1206 	mov	r27,r9
00000480 0340           1207 	mov	sp,r8
                        1208 	jarl	_McalCry_Process,lp
                        1208 <EXPANSION BEGIN>
                        1208 jarl22 _McalCry_Process , lp 
00000482 bfff8cfd*      1208 <EXPANSION END>
                        1209 .L2588:
                        1210 --	    .es
                        1211 .LDW35:
                        1212 --line1667
                        1213 ..lin.C.3A.5C_ECU2.5CECU_Rivian_A1.5CTarget.5Crepo_projects.5CpFOTA.5CcL_R2023.2E09.2E01.5Cmake.5Cobj.5CMcalCry.67::
                        1214 .LDWlin67:
00000486 41ea           1215 	add	1,r29
00000488 62ea           1216 	cmp	2,r29

                                                                      Page 22
                                                              C:\Users\nhuliyap\AppData\Local\Temp\gh_0000d401.s
0000048a d1d5*          1217 	bl	.L2583
                        1218 .L2577:
                        1219 --	    .ef
                        1220 .LDW45:
                        1221 --line1700
                        1222 ..lin.C.3A.5C_ECU2.5CECU_Rivian_A1.5CTarget.5Crepo_projects.5CpFOTA.5CcL_R2023.2E09.2E01.5Cmake.5Cobj.5CMcalCry.68::
                        1223 .LDWlin68:
0000048c 4e06ff10       1224 	dispose	7,{r27,r28,r29,r31},[lp]
                        1225 	.type	_McalCry_MainFunction,@function
                        1226 	.size	_McalCry_MainFunction,.-_McalCry_MainFunction
                        1227 	.align	2
                        1228 .LDW55:
                        1229 --_objectId	r29	local
                        1230 --_primitiveInfoIdx	r27	local
                        1231 --_job	r28	local
                        1232 --_keyList	0[sp]	local
                        1233 
                        1234 	.section ".bss","awb"
                        1235 .L3215:
                        1236 	.type	.L3215,@object
                        1237 	.size	.L3215,0
                        1238 	.data
                        1239 	.section ".MSR_CODE","ax"
                        1240 	.align	2
                        1241 	.align	2
                        1242 ..gh.f.f.1.e.14:
                        1243 	.type	..gh.f.f.1.e.14,@object
                        1244 	.size	..gh.f.f.1.e.14,0
                        1245 	.global	_McalCry_ProcessJob
                        1246 _McalCry_ProcessJob:
00000490 9007e130       1247 	prepare	{r26,r27,r28,r29,r31},8
00000494 06d8           1248 	mov	r6,r27
00000496 07e8           1249 	mov	r7,r29
                        1250 --	    .bf
                        1251 .LDW65:
00000498 a40705580000*  1252 	ld.bu	sdaoff23(_McalCry_ModuleInitialized)[gp],r11
0000049e 20e6ff00       1253 	movea	255,zero,r28
000004a2 01d2           1254 	mov	1,r26
000004a4 43070300       1255 	st.b	zero,3[sp]
000004a8 cb5e0100       1256 	andi	1,r11,r11
000004ac ebe724e3       1257 	cmove	r11,r28,r28
000004b0 e2070102*      1258 	be	.L3395
                        1259 --line1716
                        1260 ..lin.C.3A.5C_ECU2.5CECU_Rivian_A1.5CTarget.5Crepo_projects.5CpFOTA.5CcL_R2023.2E09.2E01.5Cmake.5Cobj.5CMcalCry.69::
                        1261 .LDWlin69:
000004b4 6232           1262 	cmp	2,r6
000004b6 e9079f01*      1263 	bnl	.L3382
                        1264 --line1720
                        1265 ..lin.C.3A.5C_ECU2.5CECU_Rivian_A1.5CTarget.5Crepo_projects.5CpFOTA.5CcL_R2023.2E09.2E01.5Cmake.5Cobj.5CMcalCry.70::
                        1266 .LDWlin70:
000004ba e039           1267 	cmp	zero,r7
000004bc e2e704e3       1268 	cmove	2,r28,r28
000004c0 e207f101*      1269 	be	.L3395
                        1270 --line1723
                        1271 ..lin.C.3A.5C_ECU2.5CECU_Rivian_A1.5CTarget.5Crepo_projects.5CpFOTA.5CcL_R2023.2E09.2E01.5Cmake.5Cobj.5CMcalCry.71::
                        1272 .LDWlin71:
000004c4 0730           1273 	mov	r7,r6
000004c6 233e0400       1274 	movea	4,sp,r7
                        1275 	jarl	_McalCry_Local_GetKeyListAndDet,lp
                        1275 <EXPANSION BEGIN>
                        1275 jarl22 _McalCry_Local_GetKeyListAndDet , lp 

                                                                      Page 23
                                                              C:\Users\nhuliyap\AppData\Local\Temp\gh_0000d401.s
000004ca bfff2afc*      1275 <EXPANSION END>
000004ce 6152           1276 	cmp	1,r10
000004d0 e2078501*      1277 	be	.L3382
                        1278 --line1726
                        1279 ..lin.C.3A.5C_ECU2.5CECU_Rivian_A1.5CTarget.5Crepo_projects.5CpFOTA.5CcL_R2023.2E09.2E01.5Cmake.5Cobj.5CMcalCry.72::
                        1280 .LDWlin72:
000004d4 3df74100       1281 	ld.w	64[r29],ep
000004d8 0092           1282 	mov	0,r18
000004da 1280           1283 	mov	r18,r16
000004dc 02f5           1284 	sld.w	4[ep],ep
000004de 6478           1285 	sld.bu	4[ep],r15
000004e0 0f06ecff       1286 	addi	-20,r15,zero
000004e4 e1077101*      1287 	bl	.L3382
000004e8 9d4f3500       1288 	ld.bu	52[r29],r9
000004ec c9060400       1289 	andi	4,r9,zero
000004f0 920d*          1290 	be	.L3313
000004f2 05f0           1291 	mov	r5,ep
000004f4 cff1           1292 	add	r15,ep
000004f6 be0705900000*  1293 	ld.bu	rosdaoff23(_McalCry_IOServiceMaskFinish)[ep],r18
000004fc be0705800000*  1294 	ld.bu	rosdaoff23(_McalCry_IOServiceMaskFinishOptional)[ep],r16
                        1295 .L3313:
00000502 824a           1296 	shr	2,r9
00000504 f90d*          1297 	bnl	.L3315
00000506 05f0           1298 	mov	r5,ep
00000508 cff1           1299 	add	r15,ep
0000050a be0705700000*  1300 	ld.bu	rosdaoff23(_McalCry_IOServiceMaskUpdate)[ep],r14
00000510 be0705600000*  1301 	ld.bu	rosdaoff23(_McalCry_IOServiceMaskUpdateOptionalClear)[ep],r12
00000516 0e91           1302 	or	r14,r18
00000518 be0705700000*  1303 	ld.bu	rosdaoff23(_McalCry_IOServiceMaskUpdateOptional)[ep],r14
0000051e 4c81           1304 	and	r12,r16
00000520 0e81           1305 	or	r14,r16
                        1306 .L3315:
00000522 e091           1307 	cmp	zero,r18
00000524 8275*          1308 	be	.L3305
00000526 1c88           1309 	mov	r28,r17
00000528 d2060100       1310 	andi	1,r18,zero
0000052c c215*          1311 	be	.L3329
0000052e 1df0           1312 	mov	r29,ep
00000530 066d           1313 	sld.w	12[ep],r13
00000532 d0060100       1314 	andi	1,r16,zero
00000536 0445           1315 	sld.w	8[ep],r8
00000538 f205*          1316 	be	.L3323
0000053a e041           1317 	cmp	zero,r8
0000053c ca0d*          1318 	bne	.L3329
0000053e e069           1319 	cmp	zero,r13
00000540 e2e7148b       1320 	cmovne	2,r28,r17
00000544 850d*          1321 	br	.L3329
                        1322 .L3323:
00000546 e041           1323 	cmp	zero,r8
00000548 e2e7048b       1324 	cmove	2,r28,r17
0000054c c205*          1325 	be	.L3329
0000054e e069           1326 	cmp	zero,r13
00000550 e58f048b       1327 	cmove	5,r17,r17
                        1328 .L3329:
00000554 d2060200       1329 	andi	2,r18,zero
00000558 b215*          1330 	be	.L3342
0000055a 1df0           1331 	mov	r29,ep
0000055c 0a65           1332 	sld.w	20[ep],r12
0000055e 8282           1333 	shr	2,r16
00000560 083d           1334 	sld.w	16[ep],r7
00000562 f905*          1335 	bnl	.L3336

                                                                      Page 24
                                                              C:\Users\nhuliyap\AppData\Local\Temp\gh_0000d401.s
00000564 e039           1336 	cmp	zero,r7
00000566 ca0d*          1337 	bne	.L3342
00000568 e061           1338 	cmp	zero,r12
0000056a e28f148b       1339 	cmovne	2,r17,r17
0000056e 850d*          1340 	br	.L3342
                        1341 .L3336:
00000570 e039           1342 	cmp	zero,r7
00000572 e28f048b       1343 	cmove	2,r17,r17
00000576 c205*          1344 	be	.L3342
00000578 e061           1345 	cmp	zero,r12
0000057a e58f048b       1346 	cmove	5,r17,r17
                        1347 .L3342:
0000057e d2060400       1348 	andi	4,r18,zero
00000582 b20d*          1349 	be	.L3349
00000584 1df0           1350 	mov	r29,ep
00000586 0c45           1351 	sld.w	24[ep],r8
00000588 0e5d           1352 	sld.w	28[ep],r11
0000058a e041           1353 	cmp	zero,r8
0000058c e28f048b       1354 	cmove	2,r17,r17
00000590 c205*          1355 	be	.L3349
00000592 e059           1356 	cmp	zero,r11
00000594 e58f048b       1357 	cmove	5,r17,r17
                        1358 .L3349:
00000598 d2061000       1359 	andi	16,r18,zero
0000059c 9215*          1360 	be	.L3357
0000059e 3d372100       1361 	ld.w	32[r29],r6
000005a2 3df72500       1362 	ld.w	36[r29],ep
000005a6 e031           1363 	cmp	zero,r6
000005a8 e28f048b       1364 	cmove	2,r17,r17
000005ac 920d*          1365 	be	.L3357
000005ae e0f1           1366 	cmp	zero,ep
000005b0 e28f048b       1367 	cmove	2,r17,r17
000005b4 d205*          1368 	be	.L3357
000005b6 009d           1369 	sld.w	0[ep],r19
000005b8 e099           1370 	cmp	zero,r19
000005ba e58f048b       1371 	cmove	5,r17,r17
                        1372 .L3357:
000005be d2062000       1373 	andi	32,r18,zero
000005c2 9215*          1374 	be	.L3365
000005c4 3d7f2900       1375 	ld.w	40[r29],r15
000005c8 3df72d00       1376 	ld.w	44[r29],ep
000005cc e079           1377 	cmp	zero,r15
000005ce e28f048b       1378 	cmove	2,r17,r17
000005d2 920d*          1379 	be	.L3365
000005d4 e0f1           1380 	cmp	zero,ep
000005d6 e28f048b       1381 	cmove	2,r17,r17
000005da d205*          1382 	be	.L3365
000005dc 0075           1383 	sld.w	0[ep],r14
000005de e071           1384 	cmp	zero,r14
000005e0 e58f048b       1385 	cmove	5,r17,r17
                        1386 .L3365:
000005e4 8792           1387 	shr	7,r18
000005e6 890d*          1388 	bnl	.L3374
000005e8 3df73100       1389 	ld.w	48[r29],ep
000005ec e0f1           1390 	cmp	zero,ep
000005ee e28f048b       1391 	cmove	2,r17,r17
000005f2 a205*          1392 	be	.L3374
000005f4 80d3           1393 	sst.b	r26,0[ep]
                        1394 .L3374:
000005f6 11e0           1395 	mov	r17,r28
000005f8 62e2           1396 	cmp	2,r28

                                                                      Page 25
                                                              C:\Users\nhuliyap\AppData\Local\Temp\gh_0000d401.s
000005fa b25d*          1397 	be	.L3395
000005fc 65e2           1398 	cmp	5,r28
000005fe 925d*          1399 	be	.L3395
00000600 64e2           1400 	cmp	4,r28
00000602 f255*          1401 	be	.L3395
                        1402 .L3305:
                        1403 --line1728
                        1404 ..lin.C.3A.5C_ECU2.5CECU_Rivian_A1.5CTarget.5Crepo_projects.5CpFOTA.5CcL_R2023.2E09.2E01.5Cmake.5Cobj.5CMcalCry.73::
                        1405 .LDWlin73:
00000604 1b30           1406 	mov	r27,r6
00000606 1d38           1407 	mov	r29,r7
00000608 23460300       1408 	movea	3,sp,r8
                        1409 	jarl	_McalCry_SearchService,lp
                        1409 <EXPANSION BEGIN>
                        1409 jarl22 _McalCry_SearchService , lp 
0000060c bfff8afc*      1409 <EXPANSION END>
00000610 6152           1410 	cmp	1,r10
00000612 e4e704e3       1411 	cmove	4,r28,r28
00000616 d24d*          1412 	be	.L3395
                        1413 --line1743
                        1414 ..lin.C.3A.5C_ECU2.5CECU_Rivian_A1.5CTarget.5Crepo_projects.5CpFOTA.5CcL_R2023.2E09.2E01.5Cmake.5Cobj.5CMcalCry.74::
                        1415 .LDWlin74:
00000618 3d474100       1416 	ld.w	64[r29],r8
0000061c 88471100       1417 	ld.bu	16[r8],r8
00000620 6142           1418 	cmp	1,r8
00000622 ba1d*          1419 	bne	.L3384
                        1420 --line1745
                        1421 ..lin.C.3A.5C_ECU2.5CECU_Rivian_A1.5CTarget.5Crepo_projects.5CpFOTA.5CcL_R2023.2E09.2E01.5Cmake.5Cobj.5CMcalCry.75::
                        1422 .LDWlin75:
00000624 1d38           1423 	mov	r29,r7
00000626 23460400       1424 	movea	4,sp,r8
                        1425 	jarl	_McalCry_TryObtainingLock,lp
                        1425 <EXPANSION BEGIN>
                        1425 jarl22 _McalCry_TryObtainingLock , lp 
0000062a bfff32fa*      1425 <EXPANSION END>
0000062e 0ad0           1426 	mov	r10,r26
                        1427 --line1747
                        1428 ..lin.C.3A.5C_ECU2.5CECU_Rivian_A1.5CTarget.5Crepo_projects.5CpFOTA.5CcL_R2023.2E09.2E01.5Cmake.5Cobj.5CMcalCry.76::
                        1429 .LDWlin76:
00000630 e051           1430 	cmp	zero,r10
00000632 ca3d*          1431 	bne	.L3295
                        1432 --line1749
                        1433 ..lin.C.3A.5C_ECU2.5CECU_Rivian_A1.5CTarget.5Crepo_projects.5CpFOTA.5CcL_R2023.2E09.2E01.5Cmake.5Cobj.5CMcalCry.77::
                        1434 .LDWlin77:
00000634 04f0           1435 	mov	gp,ep
00000636 a34f0300       1436 	ld.bu	3[sp],r9
0000063a dbf1           1437 	add	r27,ep
0000063c 013a           1438 	mov	1,r7
0000063e 9e070d380000*  1439 	st.b	r7,sdaoff23(_McalCry_DriverObjectState)[ep]
00000644 1b30           1440 	mov	r27,r6
00000646 1d38           1441 	mov	r29,r7
00000648 23460400       1442 	movea	4,sp,r8
                        1443 	jarl	_McalCry_Process,lp
                        1443 <EXPANSION BEGIN>
                        1443 jarl22 _McalCry_Process , lp 
0000064c bfffc2fb*      1443 <EXPANSION END>
00000650 0ad0           1444 	mov	r10,r26
00000652 c52d*          1445 	br	.L3295
                        1446 .L3382:
                        1447 --line1729
                        1448 ..lin.C.3A.5C_ECU2.5CECU_Rivian_A1.5CTarget.5Crepo_projects.5CpFOTA.5CcL_R2023.2E09.2E01.5Cmake.5Cobj.5CMcalCry.78::

                                                                      Page 26
                                                              C:\Users\nhuliyap\AppData\Local\Temp\gh_0000d401.s
                        1449 .LDWlin78:
00000654 04e2           1450 	mov	4,r28
00000656 d52d*          1451 	br	.L3395
                        1452 .L3384:
00000658 1bf0           1453 	mov	r27,ep
                        1454 --	    .bs
                        1455 .LDW75:
                        1456 --line1759
                        1457 ..lin.C.3A.5C_ECU2.5CECU_Rivian_A1.5CTarget.5Crepo_projects.5CpFOTA.5CcL_R2023.2E09.2E01.5Cmake.5Cobj.5CMcalCry.79::
                        1458 .LDWlin79:
0000065a c4f2           1459 	shl	4,ep
0000065c c5f1           1460 	add	r5,ep
0000065e be0705700000*  1461 	ld.bu	rosdaoff23(_McalCry_ObjectInfo+6)[ep],r14
00000664 04f0           1462 	mov	gp,ep
00000666 05d2           1463 	mov	5,r26
00000668 c272           1464 	shl	2,r14
0000066a cef1           1465 	add	r14,ep
0000066c 9e0709980000*  1466 	ld.w	sdaoff23(_McalCry_Queue)[ep],r19
00000672 e099           1467 	cmp	zero,r19
00000674 ba1d*          1468 	bne	.L3295
                        1469 --line1761
                        1470 ..lin.C.3A.5C_ECU2.5CECU_Rivian_A1.5CTarget.5Crepo_projects.5CpFOTA.5CcL_R2023.2E09.2E01.5Cmake.5Cobj.5CMcalCry.80::
                        1471 .LDWlin80:
00000676 06f0           1472 	mov	r6,ep
00000678 c2f2           1473 	shl	2,ep
0000067a c4f1           1474 	add	gp,ep
0000067c 9e0709500000*  1475 	ld.w	sdaoff23(_McalCry_Lock)[ep],r10
00000682 7f52           1476 	cmp	-1,r10
00000684 e205*          1477 	be	.L3392
00000686 3df74500       1478 	ld.w	68[r29],ep
0000068a 008d           1479 	sld.w	0[ep],r17
0000068c f151           1480 	cmp	r17,r10
0000068e ea0d*          1481 	bne	.L3295
                        1482 .L3392:
                        1483 --line1764
                        1484 ..lin.C.3A.5C_ECU2.5CECU_Rivian_A1.5CTarget.5Crepo_projects.5CpFOTA.5CcL_R2023.2E09.2E01.5Cmake.5Cobj.5CMcalCry.81::
                        1485 .LDWlin81:
00000690 04f0           1486 	mov	gp,ep
00000692 cef1           1487 	add	r14,ep
00000694 a3870300       1488 	ld.bu	3[sp],r16
00000698 9e070fe80000*  1489 	st.w	r29,sdaoff23(_McalCry_Queue)[ep]
0000069e 04f0           1490 	mov	gp,ep
000006a0 c6f1           1491 	add	r6,ep
000006a2 9e070d800000*  1492 	st.b	r16,sdaoff23(_McalCry_Dispatch_QueuePrimitiveInfoIdx)[ep]
000006a8 13d0           1493 	mov	r19,r26
                        1494 .L3295:
                        1495 --	    .es
                        1496 .LDW85:
000006aa 1c0601ff       1497 	addi	-255,r28,zero
000006ae 820d*          1498 	be	.L3394
                        1499 .L3395:
                        1500 --line1775
                        1501 ..lin.C.3A.5C_ECU2.5CECU_Rivian_A1.5CTarget.5Crepo_projects.5CpFOTA.5CcL_R2023.2E09.2E01.5Cmake.5Cobj.5CMcalCry.82::
                        1502 .LDWlin82:
000006b0 1c48           1503 	mov	r28,r9
000006b2 20367200       1504 	movea	114,zero,r6
000006b6 003a           1505 	mov	0,r7
000006b8 0342           1506 	mov	3,r8
                        1507 	jarl	_Det_ReportError,lp
                        1507 <EXPANSION BEGIN>
                        1507 jarl22 _Det_ReportError , lp 

                                                                      Page 27
                                                              C:\Users\nhuliyap\AppData\Local\Temp\gh_0000d401.s
000006ba 80ff0000*      1507 <EXPANSION END>
                        1508 .L3394:
                        1509 --line1792
                        1510 ..lin.C.3A.5C_ECU2.5CECU_Rivian_A1.5CTarget.5Crepo_projects.5CpFOTA.5CcL_R2023.2E09.2E01.5Cmake.5Cobj.5CMcalCry.83::
                        1511 .LDWlin83:
000006be 1a50           1512 	mov	r26,r10
                        1513 --	    .ef
                        1514 .LDW95:
000006c0 5006ff30       1515 	dispose	8,{r26,r27,r28,r29,r31},[lp]
                        1516 	.type	_McalCry_ProcessJob,@function
                        1517 	.size	_McalCry_ProcessJob,.-_McalCry_ProcessJob
                        1518 	.align	2
                        1519 .LDW06:
                        1520 --_retVal	r26	local
                        1521 --_errorId	r28	local
                        1522 --_keyList	4[sp]	local
                        1523 --_primitiveInfoIdx	3[sp]	local
                        1524 --_cryptoService	r15	local
                        1525 --_mask	r18	local
                        1526 --_optional	r16	local
                        1527 --_errorId	r17	local
                        1528 --_dataLength	r13	local
                        1529 --_dataLength	r13	local
                        1530 --_dataLength	r12	local
                        1531 --_dataLength	r12	local
                        1532 --_dataLength	r11	local
                        1533 --_dataLengthPtr	ep	local
                        1534 --_dataLengthPtr	ep	local
                        1535 --_dataPtr	ep	local
                        1536 
                        1537 --_objectId	r27	param
                        1538 --_job	r29	param
                        1539 
                        1540 	.section ".bss","awb"
                        1541 .L5991:
                        1542 	.type	.L5991,@object
                        1543 	.size	.L5991,0
                        1544 	.data
                        1545 	.section ".MSR_CODE","ax"
                        1546 	.align	2
                        1547 	.align	2
                        1548 ..gh.f.f.1.e.15:
                        1549 	.type	..gh.f.f.1.e.15,@object
                        1550 	.size	..gh.f.f.1.e.15,0
                        1551 	.global	_McalCry_CancelJob
                        1552 _McalCry_CancelJob:
000006c4 8e07e110       1553 	prepare	{r27,r28,r29,r31},7
000006c8 07e8           1554 	mov	r7,r29
                        1555 --	    .bf
                        1556 .LDW16:
000006ca a40705400000*  1557 	ld.bu	sdaoff23(_McalCry_ModuleInitialized)[gp],r8
000006d0 01da           1558 	mov	1,r27
000006d2 c84e0100       1559 	andi	1,r8,r9
000006d6 f205*          1560 	be	.L6552
                        1561 --line1807
                        1562 ..lin.C.3A.5C_ECU2.5CECU_Rivian_A1.5CTarget.5Crepo_projects.5CpFOTA.5CcL_R2023.2E09.2E01.5Cmake.5Cobj.5CMcalCry.84::
                        1563 .LDWlin84:
000006d8 6232           1564 	cmp	2,r6
000006da 044a           1565 	mov	4,r9
000006dc c905*          1566 	bnl	.L6552
                        1567 --line1811

                                                                      Page 28
                                                              C:\Users\nhuliyap\AppData\Local\Temp\gh_0000d401.s
                        1568 ..lin.C.3A.5C_ECU2.5CECU_Rivian_A1.5CTarget.5Crepo_projects.5CpFOTA.5CcL_R2023.2E09.2E01.5Cmake.5Cobj.5CMcalCry.85::
                        1569 .LDWlin85:
000006de e039           1570 	cmp	zero,r7
000006e0 9a0d*          1571 	bne	.L6537
000006e2 024a           1572 	mov	2,r9
                        1573 .L6552:
                        1574 --line1856
                        1575 ..lin.C.3A.5C_ECU2.5CECU_Rivian_A1.5CTarget.5Crepo_projects.5CpFOTA.5CcL_R2023.2E09.2E01.5Cmake.5Cobj.5CMcalCry.86::
                        1576 .LDWlin86:
000006e4 20367200       1577 	movea	114,zero,r6
000006e8 003a           1578 	mov	0,r7
000006ea 0e42           1579 	mov	14,r8
                        1580 	jarl	_Det_ReportError,lp
                        1580 <EXPANSION BEGIN>
                        1580 jarl22 _Det_ReportError , lp 
000006ec 80ff0000*      1580 <EXPANSION END>
000006f0 b54d*          1581 	br	.L6551
                        1582 .L6537:
                        1583 --line1819
                        1584 ..lin.C.3A.5C_ECU2.5CECU_Rivian_A1.5CTarget.5Crepo_projects.5CpFOTA.5CcL_R2023.2E09.2E01.5Cmake.5Cobj.5CMcalCry.87::
                        1585 .LDWlin87:
000006f2 04f0           1586 	mov	gp,ep
000006f4 c6f1           1587 	add	r6,ep
000006f6 be0705380000*  1588 	ld.bu	sdaoff23(_McalCry_DriverObjectState)[ep],r7
000006fc e039           1589 	cmp	zero,r7
000006fe ca45*          1590 	bne	.L6551
                        1591 --	    .bs
                        1592 .LDW26:
                        1593 --line1820
                        1594 ..lin.C.3A.5C_ECU2.5CECU_Rivian_A1.5CTarget.5Crepo_projects.5CpFOTA.5CcL_R2023.2E09.2E01.5Cmake.5Cobj.5CMcalCry.88::
                        1595 .LDWlin88:
00000700 06f0           1596 	mov	r6,ep
00000702 c4f2           1597 	shl	4,ep
00000704 c5f1           1598 	add	r5,ep
00000706 be0705400000*  1599 	ld.bu	rosdaoff23(_McalCry_ObjectInfo+6)[ep],r8
0000070c 320600000000*  1600 	mov	sdaoff23(_McalCry_Queue),r18
00000712 08f0           1601 	mov	r8,ep
00000714 c2f2           1602 	shl	2,ep
00000716 d2f1           1603 	add	r18,ep
00000718 00f5           1604 	sld.w	0[ep],ep
0000071a e0f1           1605 	cmp	zero,ep
0000071c e20d*          1606 	be	.L6542
0000071e 22f5           1607 	sld.w	68[ep],ep
00000720 3d874500       1608 	ld.w	68[r29],r16
00000724 007d           1609 	sld.w	0[ep],r15
00000726 30870100       1610 	ld.w	0[r16],r16
0000072a f079           1611 	cmp	r16,r15
0000072c ea05*          1612 	bne	.L6542
                        1613 --line1826
                        1614 ..lin.C.3A.5C_ECU2.5CECU_Rivian_A1.5CTarget.5Crepo_projects.5CpFOTA.5CcL_R2023.2E09.2E01.5Cmake.5Cobj.5CMcalCry.89::
                        1615 .LDWlin89:
0000072e 08f0           1616 	mov	r8,ep
00000730 c2f2           1617 	shl	2,ep
00000732 d2f1           1618 	add	r18,ep
00000734 0105           1619 	sst.w	zero,0[ep]
00000736 07d8           1620 	mov	r7,r27
                        1621 .L6542:
00000738 3df74500       1622 	ld.w	68[r29],ep
0000073c 06e0           1623 	mov	r6,r28
0000073e c2e2           1624 	shl	2,r28
00000740 2d0600000000*  1625 	mov	sdaoff23(_McalCry_Lock),r13

                                                                      Page 29
                                                              C:\Users\nhuliyap\AppData\Local\Temp\gh_0000d401.s
00000746 cde1           1626 	add	r13,r28
00000748 0065           1627 	sld.w	0[ep],r12
0000074a 3c5f0100       1628 	ld.w	0[r28],r11
0000074e ec59           1629 	cmp	r12,r11
00000750 fa0d*          1630 	bne	.L6540
                        1631 --	    .bs
                        1632 .LDW36:
                        1633 --line1833
                        1634 ..lin.C.3A.5C_ECU2.5CECU_Rivian_A1.5CTarget.5Crepo_projects.5CpFOTA.5CcL_R2023.2E09.2E01.5Cmake.5Cobj.5CMcalCry.90::
                        1635 .LDWlin90:
00000752 1d30           1636 	mov	r29,r6
00000754 0338           1637 	mov	sp,r7
                        1638 	jarl	_McalCry_Local_GetKeyList,lp
                        1638 <EXPANSION BEGIN>
                        1638 jarl22 _McalCry_Local_GetKeyList , lp 
00000756 bfff8ef9*      1638 <EXPANSION END>
                        1639 --line1835
                        1640 ..lin.C.3A.5C_ECU2.5CECU_Rivian_A1.5CTarget.5Crepo_projects.5CpFOTA.5CcL_R2023.2E09.2E01.5Cmake.5Cobj.5CMcalCry.91::
                        1641 .LDWlin91:
0000075a 1f52           1642 	mov	-1,r10
0000075c 7c570100       1643 	st.w	r10,0[r28]
00000760 5d070400       1644 	st.b	zero,4[r29]
00000764 0330           1645 	mov	sp,r6
                        1646 	jarl	_McalCry_Local_KeyListPostFreeKeys,lp
                        1646 <EXPANSION BEGIN>
                        1646 jarl22 _McalCry_Local_KeyListPostFreeKeys , lp 
00000766 bfffc0f9*      1646 <EXPANSION END>
                        1647 --line1838
                        1648 ..lin.C.3A.5C_ECU2.5CECU_Rivian_A1.5CTarget.5Crepo_projects.5CpFOTA.5CcL_R2023.2E09.2E01.5Cmake.5Cobj.5CMcalCry.92::
                        1649 .LDWlin92:
0000076a 00da           1650 	mov	0,r27
                        1651 --	    .es
                        1652 .LDW46:
0000076c b505*          1653 	br	.L6548
                        1654 .L6540:
                        1655 --	    .es
                        1656 .LDW56:
                        1657 --line1843
                        1658 ..lin.C.3A.5C_ECU2.5CECU_Rivian_A1.5CTarget.5Crepo_projects.5CpFOTA.5CcL_R2023.2E09.2E01.5Cmake.5Cobj.5CMcalCry.93::
                        1659 .LDWlin93:
0000076e e0d9           1660 	cmp	zero,r27
00000770 ba0d*          1661 	bne	.L6551
                        1662 .L6548:
                        1663 --line1847
                        1664 ..lin.C.3A.5C_ECU2.5CECU_Rivian_A1.5CTarget.5Crepo_projects.5CpFOTA.5CcL_R2023.2E09.2E01.5Cmake.5Cobj.5CMcalCry.94::
                        1665 .LDWlin94:
00000772 3d474100       1666 	ld.w	64[r29],r8
00000776 88471100       1667 	ld.bu	16[r8],r8
0000077a e041           1668 	cmp	zero,r8
0000077c da05*          1669 	bne	.L6551
                        1670 --line1849
                        1671 ..lin.C.3A.5C_ECU2.5CECU_Rivian_A1.5CTarget.5Crepo_projects.5CpFOTA.5CcL_R2023.2E09.2E01.5Cmake.5Cobj.5CMcalCry.95::
                        1672 .LDWlin95:
0000077e 1d30           1673 	mov	r29,r6
00000780 0c3a           1674 	mov	12,r7
                        1675 	jarl	_CryIf_CallbackNotification,lp
                        1675 <EXPANSION BEGIN>
                        1675 jarl22 _CryIf_CallbackNotification , lp 
00000782 80ff0000*      1675 <EXPANSION END>
                        1676 .L6551:
                        1677 --line1862

                                                                      Page 30
                                                              C:\Users\nhuliyap\AppData\Local\Temp\gh_0000d401.s
                        1678 ..lin.C.3A.5C_ECU2.5CECU_Rivian_A1.5CTarget.5Crepo_projects.5CpFOTA.5CcL_R2023.2E09.2E01.5Cmake.5Cobj.5CMcalCry.96::
                        1679 .LDWlin96:
00000786 1b50           1680 	mov	r27,r10
                        1681 --	    .ef
                        1682 .LDW66:
00000788 4e06ff10       1683 	dispose	7,{r27,r28,r29,r31},[lp]
                        1684 	.type	_McalCry_CancelJob,@function
                        1685 	.size	_McalCry_CancelJob,.-_McalCry_CancelJob
                        1686 	.align	2
                        1687 .LDW76:
                        1688 --_retVal	r27	local
                        1689 --_errorId	r9	local
                        1690 --_queueIdx	r8	local
                        1691 --_queuedJob	ep	local
                        1692 --_keyList	0[sp]	local
                        1693 
                        1694 --_objectId	r6	param
                        1695 --_job	r29	param
                        1696 
                        1697 	.section ".bss","awb"
                        1698 .L7275:
                        1699 	.type	.L7275,@object
                        1700 	.size	.L7275,0
                        1701 	.data
                        1702 	.section ".MSR_CODE","ax"
                        1703 	.align	2
                        1704 --_McalCry_KeyElementInfo	rosdaoff23(_McalCry_KeyElementInfo)	import
                        1705 --_McalCry_KeyElements	rosdaoff23(_McalCry_KeyElements)	import
                        1706 --_McalCry_ObjectInfo	rosdaoff23(_McalCry_ObjectInfo)	import
                        1707 --_McalCry_ObjectInfoInd	rosdaoff23(_McalCry_ObjectInfoInd)	import
                        1708 --_McalCry_PrimitiveFct	rosdaoff23(_McalCry_PrimitiveFct)	import
                        1709 --_McalCry_PrimitiveInfo	rosdaoff23(_McalCry_PrimitiveInfo)	import
                        1710 --_McalCry_PrimitiveServiceInfo	rosdaoff23(_McalCry_PrimitiveServiceInfo)	import
                        1711 --_McalCry_DriverObjectState	sdaoff23(_McalCry_DriverObjectState)	import
                        1712 --_McalCry_KeyLock	sdaoff23(_McalCry_KeyLock)	import
                        1713 --_McalCry_KeyStorage	sdaoff23(_McalCry_KeyStorage)	import
                        1714 --_McalCry_Lock	sdaoff23(_McalCry_Lock)	import
                        1715 --_McalCry_Queue	sdaoff23(_McalCry_Queue)	import
                        1716 --_McalCry_IOServiceMaskUpdate	rosdaoff23(_McalCry_IOServiceMaskUpdate)	static
                        1717 --_McalCry_IOServiceMaskUpdateOptional	rosdaoff23(_McalCry_IOServiceMaskUpdateOptional)	static
                        1718 --_McalCry_IOServiceMaskUpdateOptionalClear	rosdaoff23(_McalCry_IOServiceMaskUpdateOptionalClear)	static
                        1719 --_McalCry_IOServiceMaskFinish	rosdaoff23(_McalCry_IOServiceMaskFinish)	static
                        1720 --_McalCry_IOServiceMaskFinishOptional	rosdaoff23(_McalCry_IOServiceMaskFinishOptional)	static
                        1721 --_McalCry_Dispatch_QueuePrimitiveInfoIdx	sdaoff23(_McalCry_Dispatch_QueuePrimitiveInfoIdx)	static
                        1722 
                        1723 	.section ".sdata","aw"
                        1724 	.global	_McalCry_ModuleInitialized
00000000 00             1725 _McalCry_ModuleInitialized:	.byte	0
                        1726 	.type	_McalCry_ModuleInitialized,@object
                        1727 	.size	_McalCry_ModuleInitialized,1
                        1728 	.data
                        1729 	.sbss	_McalCry_ProcessJob_Trigger_Write,2,1
                        1730 	.type	_McalCry_ProcessJob_Trigger_Write,@object
                        1731 	.size	_McalCry_ProcessJob_Trigger_Write,2
                        1732 	.ghsnote version,17
                        1733 	.ghsnote tools,3
                        1734 	.ghsnote options,144
                        1735 	.section ".MSR_CODE","ax"
                        1736 	.align	2
                        1737 ..eof.C.3A.5C_ECU2.5CECU_Rivian_A1.5CTarget.5Crepo_projects.5CpFOTA.5CcL_R2023.2E09.2E01.5Cmake.5Cobj.5CMcalCry...43.3A.5C_ECU2.5CECU_Rivian_A1.5CTarget.5Crepo_projects.5CpFOTA.5CcL_R2023.2E09.2E01.5Cmake..64F863D0..0::
                        1738 .rh850_flags REGMODE32,DATA_ALIGN8,GP_FIX,EP_NONFIX,TP_FIX,REG2_RESERVE,G3K,SDA_EXTRA_REGS_0

                                                                      Page 31
                                                              C:\Users\nhuliyap\AppData\Local\Temp\gh_0000d401.s
