                                                                      Page 1
                                                              C:\Users\nhuliyap\AppData\Local\Temp\gh_00005nc1.s
Command Line: C:\GHS\comp_201517\ease850.exe -w -stderr=err/r_fdl_hw_access.err -elf -b0 -I../source/_common -I../source/common -I../source/ecuabcanif -I../source/ecuabcantrcv -I../source/ecuabcryif -I../source/ecuabfee -I../source/ecuabmemif -I../source/libautosar -I../source/mcalcan -I../source/mcalcry -I../source/mcaldio -I../source/mcaleep -I../source/mcalfls -I../source/mcalmcu -I../source/projectara -I../source/projectcfg -I../source/projectcompiler -I../source/swcservicebswm -I../source/swcservicecantp -I../source/swcservicecomm -I../source/swcservicecsm -I../source/swcservicedcm -I../source/swcservicedem -I../source/swcservicedet -I../source/swcserviceecum -I../source/swcservicenvm -I../source/swcserviceos -I../source/swcservicepdur -I../source/swcserviceschm -I../source/swcservicestartup -I../source/wrappers/swcservicesecm -I../source/wrappers/vsecprim -I../source/wrappers/vstdlib -Ic:/ghs/comp_201517/ansi -Ic:/ghs/comp_201517/include/v800 -Igendata -IC:\GHS\comp_201517\lib\rh850 -cg_underscore -cpu=rh850g3k -nofpu -no_v850_simd -rh850_fpsimd=none -nomacro -patch_dbo=C:\_ECU2\ECU_Rivian_A1\Target\repo_projects\pFOTA\cL_R2023.09.01\make\obj\r_fdl_hw_access.dbo -source=r_fdl_hw_access.c -o obj\gh_00005nc1.o -list=lst/r_fdl_hw_access.lst C:\Users\nhuliyap\AppData\Local\Temp\gh_00005nc1.s 
Original File: C:\Users\nhuliyap\AppData\Local\Temp\gh_00005nc1.s
Source File: r_fdl_hw_access.c
Directory: C:\_ECU2\ECU_Rivian_A1\Target\repo_projects\pFOTA\cL_R2023.09.01\make
Host OS: Windows
EASE: Copyright (C) 1983-2015 Green Hills Software.  All Rights Reserved.
Release: Compiler v2015.1.7
Build Directory: [Directory] BTOWORKER6:c:/build_2015_1_bto/2015-10-21.2100-2015_1_bto/win32-comp-ecom
Revision: [VCInfo] http://toolsvc/branches/release-branch-70-bto/src@544153 (built by build)
Revision Date: Thu Oct 22 07:50:13 2015

Release Date: Thu Oct 22 09:32:32 2015

                           1 --Driver Command: ccrh850 -DBRS_DERIVATIVE_701018 -DBRS_OSC_CLK=16
                           2 --		-DBRS_TIMEBASE_CLOCK=80 -DBRS_EVA_BOARD_
                           3 --		-DBRS_DERIVATIVE_GROUP_F1L -DBRS_OS_USECASE_BRS
                           4 --		-DBRS_PLATFORM_RH850 -DBRS_COMP_GHS
                           5 --		-DBRS_CPU_LOCAL_RAM_SIZE_CORE0=32
                           6 --		-DBRS_CPU_RAM_START_CORE0=0xFEDF8000
                           7 --		-list=lst/r_fdl_hw_access.lst -object_dir=obj
                           8 --		-stderr=err/r_fdl_hw_access.err -c -cpu=rh850 -sda=all -large_sda
                           9 --		-prepare_dispose -pragma_asm_inline -no_callt -inline_prologue
                          10 --		-notda -reserve_r2 -fsoft --unknown_pragma_warnings -list -g
                          11 --		-Ogeneral -shortenum -registermode=32 -I../source/_common
                          12 --		-I../source/common -I../source/ecuabcanif
                          13 --		-I../source/ecuabcantrcv -I../source/ecuabcryif
                          14 --		-I../source/ecuabfee -I../source/ecuabmemif
                          15 --		-I../source/libautosar -I../source/mcalcan -I../source/mcalcry
                          16 --		-I../source/mcaldio -I../source/mcaleep -I../source/mcalfls
                          17 --		-I../source/mcalmcu -I../source/projectara -I../source/projectcfg
                          18 --		-I../source/projectcompiler -I../source/swcservicebswm
                          19 --		-I../source/swcservicecantp -I../source/swcservicecomm
                          20 --		-I../source/swcservicecsm -I../source/swcservicedcm
                          21 --		-I../source/swcservicedem -I../source/swcservicedet
                          22 --		-I../source/swcserviceecum -I../source/swcservicenvm
                          23 --		-I../source/swcserviceos -I../source/swcservicepdur
                          24 --		-I../source/swcserviceschm -I../source/swcservicestartup
                          25 --		-I../source/wrappers/swcservicesecm -I../source/wrappers/vsecprim
                          26 --		-I../source/wrappers/vstdlib -Ic:/ghs/comp_201517/ansi
                          27 --		-Ic:/ghs/comp_201517/include/v800 -Igendata
                          28 --		../source/McalFls/r_fdl_hw_access.c
                          29 --Source File:   ../source/McalFls/r_fdl_hw_access.c
                          30 --Directory:     
                          31 --		C:\_ECU2\ECU_Rivian_A1\Target\repo_projects\pFOTA\cL_R2023.09.01\make
                          32 --Compile Date:  Wed Sep 06 13:37:43 2023
                          33 --Host OS:       Win32
                          34 --Version:       C-RH850 2015.1.7 RELEASE VERSION
                          35 --Release:       Compiler v2015.1.7
                          36 --Revision Date: Thu Oct 22 08:06:12 2015
                          37 --Release Date:  Thu Oct 22 09:34:32 2015
                          38 -- ecom  -g -w -OM
                          39 	.text
                          40 ..bof.C.3A.5C_ECU2.5CECU_Rivian_A1.5CTarget.5Crepo_projects.5CpFOTA.5CcL_R2023.2E09.2E01.5Cmake.5Cobj.5Cr_fdl_hw_access...43.3A.5C_ECU2.5CECU_Rivian_A1.5CTarget.5Crepo_projects.5CpFOTA.5CcL_R2023.2E09.2E01.5Cmake..64F86487..0::
                          41 	.align	2
                          42 ..gh.f.f.1.e.0:
                          43 	.type	..gh.f.f.1.e.0,@object
                          44 	.size	..gh.f.f.1.e.0,0
                          45 	.global	_R_FDL_IFct_ReadMemoryU32..C.3A.5C_ECU2.5CECU_Rivian_A1.5CTarget.5Crepo_projects.5CpFOTA.5CcL_R2023.2E09.2E01.5Cmake.5Cobj.5Cr_fdl_hw_access.
                          46 _R_FDL_IFct_ReadMemoryU32..C.3A.5C_ECU2.5CECU_Rivian_A1.5CTarget.5Crepo_projects.5CpFOTA.5CcL_R2023.2E09.2E01.5Cmake.5Cobj.5Cr_fdl_hw_access.:
                          47 _R_FDL_IFct_ReadMemoryU32:
00000000 06f0             48 	mov	r6,ep
                          49 --	    .bf
                          50 .LDW01:

                                                                      Page 2
                                                              C:\Users\nhuliyap\AppData\Local\Temp\gh_00005nc1.s
00000002 0055             51 	sld.w	0[ep],r10
                          52 --	    .ef
                          53 .LDW11:
00000004 7f00             54 	jmp	[lp]
                          55 	.type	_R_FDL_IFct_ReadMemoryU32,@function
                          56 	.size	_R_FDL_IFct_ReadMemoryU32,.-_R_FDL_IFct_ReadMemoryU32
                          57 	.type	_R_FDL_IFct_ReadMemoryU32..C.3A.5C_ECU2.5CECU_Rivian_A1.5CTarget.5Crepo_projects.5CpFOTA.5CcL_R2023.2E09.2E01.5Cmake.5Cobj.5Cr_fdl_hw_access.,@function
                          58 	.size	_R_FDL_IFct_ReadMemoryU32..C.3A.5C_ECU2.5CECU_Rivian_A1.5CTarget.5Crepo_projects.5CpFOTA.5CcL_R2023.2E09.2E01.5Cmake.5Cobj.5Cr_fdl_hw_access.,.-_R_FDL_IFct_ReadMemoryU32..C.3A.5C_ECU2.5CECU_Rivian_A1.5CTarget.5Crepo_projects.5CpFOTA.5CcL_R2023.2E09.2E01.5Cmake.5Cobj.5Cr_fdl_hw_access.
                          59 	.align	2
                          60 .LDW21:
                          61 
                          62 --_addr_u32	ep	param
                          63 
                          64 	.section ".bss","awb"
                          65 .L65:
                          66 	.type	.L65,@object
                          67 	.size	.L65,0
                          68 	.data
                          69 	.text
                          70 	.align	2
                          71 	.align	2
                          72 ..gh.f.f.1.e.1:
                          73 	.type	..gh.f.f.1.e.1,@object
                          74 	.size	..gh.f.f.1.e.1,0
                          75 	.global	_R_FDL_IFct_ReadMemoryU08..C.3A.5C_ECU2.5CECU_Rivian_A1.5CTarget.5Crepo_projects.5CpFOTA.5CcL_R2023.2E09.2E01.5Cmake.5Cobj.5Cr_fdl_hw_access.
                          76 _R_FDL_IFct_ReadMemoryU08..C.3A.5C_ECU2.5CECU_Rivian_A1.5CTarget.5Crepo_projects.5CpFOTA.5CcL_R2023.2E09.2E01.5Cmake.5Cobj.5Cr_fdl_hw_access.:
                          77 _R_FDL_IFct_ReadMemoryU08:
00000006 06f0             78 	mov	r6,ep
                          79 --	    .bf
                          80 .LDW31:
00000008 6050             81 	sld.bu	0[ep],r10
                          82 --	    .ef
                          83 .LDW41:
0000000a 7f00             84 	jmp	[lp]
                          85 	.type	_R_FDL_IFct_ReadMemoryU08,@function
                          86 	.size	_R_FDL_IFct_ReadMemoryU08,.-_R_FDL_IFct_ReadMemoryU08
                          87 	.type	_R_FDL_IFct_ReadMemoryU08..C.3A.5C_ECU2.5CECU_Rivian_A1.5CTarget.5Crepo_projects.5CpFOTA.5CcL_R2023.2E09.2E01.5Cmake.5Cobj.5Cr_fdl_hw_access.,@function
                          88 	.size	_R_FDL_IFct_ReadMemoryU08..C.3A.5C_ECU2.5CECU_Rivian_A1.5CTarget.5Crepo_projects.5CpFOTA.5CcL_R2023.2E09.2E01.5Cmake.5Cobj.5Cr_fdl_hw_access.,.-_R_FDL_IFct_ReadMemoryU08..C.3A.5C_ECU2.5CECU_Rivian_A1.5CTarget.5Crepo_projects.5CpFOTA.5CcL_R2023.2E09.2E01.5Cmake.5Cobj.5Cr_fdl_hw_access.
                          89 	.align	2
                          90 .LDW51:
                          91 
                          92 --_addr_u32	ep	param
                          93 
                          94 	.section ".bss","awb"
                          95 .L116:
                          96 	.type	.L116,@object
                          97 	.size	.L116,0
                          98 	.data
                          99 	.text
                         100 	.align	2
                         101 	.align	2
                         102 ..gh.f.f.1.e.2:
                         103 	.type	..gh.f.f.1.e.2,@object
                         104 	.size	..gh.f.f.1.e.2,0
                         105 	.global	_R_FDL_IFct_ReadMemoryU16..C.3A.5C_ECU2.5CECU_Rivian_A1.5CTarget.5Crepo_projects.5CpFOTA.5CcL_R2023.2E09.2E01.5Cmake.5Cobj.5Cr_fdl_hw_access.
                         106 _R_FDL_IFct_ReadMemoryU16..C.3A.5C_ECU2.5CECU_Rivian_A1.5CTarget.5Crepo_projects.5CpFOTA.5CcL_R2023.2E09.2E01.5Cmake.5Cobj.5Cr_fdl_hw_access.:
                         107 _R_FDL_IFct_ReadMemoryU16:
0000000c 06f0            108 	mov	r6,ep
                         109 --	    .bf
                         110 .LDW61:
0000000e 7050            111 	sld.hu	0[ep],r10

                                                                      Page 3
                                                              C:\Users\nhuliyap\AppData\Local\Temp\gh_00005nc1.s
                         112 --	    .ef
                         113 .LDW71:
00000010 7f00            114 	jmp	[lp]
                         115 	.type	_R_FDL_IFct_ReadMemoryU16,@function
                         116 	.size	_R_FDL_IFct_ReadMemoryU16,.-_R_FDL_IFct_ReadMemoryU16
                         117 	.type	_R_FDL_IFct_ReadMemoryU16..C.3A.5C_ECU2.5CECU_Rivian_A1.5CTarget.5Crepo_projects.5CpFOTA.5CcL_R2023.2E09.2E01.5Cmake.5Cobj.5Cr_fdl_hw_access.,@function
                         118 	.size	_R_FDL_IFct_ReadMemoryU16..C.3A.5C_ECU2.5CECU_Rivian_A1.5CTarget.5Crepo_projects.5CpFOTA.5CcL_R2023.2E09.2E01.5Cmake.5Cobj.5Cr_fdl_hw_access.,.-_R_FDL_IFct_ReadMemoryU16..C.3A.5C_ECU2.5CECU_Rivian_A1.5CTarget.5Crepo_projects.5CpFOTA.5CcL_R2023.2E09.2E01.5Cmake.5Cobj.5Cr_fdl_hw_access.
                         119 	.align	2
                         120 .LDW81:
                         121 
                         122 --_addr_u32	ep	param
                         123 
                         124 	.section ".bss","awb"
                         125 .L164:
                         126 	.type	.L164,@object
                         127 	.size	.L164,0
                         128 	.data
                         129 	.text
                         130 	.align	2
                         131 	.align	2
                         132 ..gh.f.f.1.e.3:
                         133 	.type	..gh.f.f.1.e.3,@object
                         134 	.size	..gh.f.f.1.e.3,0
                         135 	.global	_R_FDL_IFct_WriteMemoryU08
                         136 _R_FDL_IFct_WriteMemoryU08:
00000012 06f0            137 	mov	r6,ep
                         138 --	    .bf
                         139 .LDW91:
00000014 803b            140 	sst.b	r7,0[ep]
                         141 --	    .ef
                         142 .LDW02:
00000016 7f00            143 	jmp	[lp]
                         144 	.type	_R_FDL_IFct_WriteMemoryU08,@function
                         145 	.size	_R_FDL_IFct_WriteMemoryU08,.-_R_FDL_IFct_WriteMemoryU08
                         146 	.align	2
                         147 .LDW12:
                         148 
                         149 --_addr_u32	ep	param
                         150 --_val_u08	r7	param
                         151 
                         152 	.section ".bss","awb"
                         153 .L209:
                         154 	.type	.L209,@object
                         155 	.size	.L209,0
                         156 	.data
                         157 	.text
                         158 	.align	2
                         159 	.align	2
                         160 ..gh.f.f.1.e.4:
                         161 	.type	..gh.f.f.1.e.4,@object
                         162 	.size	..gh.f.f.1.e.4,0
                         163 	.global	_R_FDL_IFct_WriteMemoryU16..C.3A.5C_ECU2.5CECU_Rivian_A1.5CTarget.5Crepo_projects.5CpFOTA.5CcL_R2023.2E09.2E01.5Cmake.5Cobj.5Cr_fdl_hw_access.
                         164 _R_FDL_IFct_WriteMemoryU16..C.3A.5C_ECU2.5CECU_Rivian_A1.5CTarget.5Crepo_projects.5CpFOTA.5CcL_R2023.2E09.2E01.5Cmake.5Cobj.5Cr_fdl_hw_access.:
                         165 _R_FDL_IFct_WriteMemoryU16:
00000018 06f0            166 	mov	r6,ep
                         167 --	    .bf
                         168 .LDW22:
0000001a 803c            169 	sst.h	r7,0[ep]
                         170 --	    .ef
                         171 .LDW32:
0000001c 7f00            172 	jmp	[lp]

                                                                      Page 4
                                                              C:\Users\nhuliyap\AppData\Local\Temp\gh_00005nc1.s
                         173 	.type	_R_FDL_IFct_WriteMemoryU16,@function
                         174 	.size	_R_FDL_IFct_WriteMemoryU16,.-_R_FDL_IFct_WriteMemoryU16
                         175 	.type	_R_FDL_IFct_WriteMemoryU16..C.3A.5C_ECU2.5CECU_Rivian_A1.5CTarget.5Crepo_projects.5CpFOTA.5CcL_R2023.2E09.2E01.5Cmake.5Cobj.5Cr_fdl_hw_access.,@function
                         176 	.size	_R_FDL_IFct_WriteMemoryU16..C.3A.5C_ECU2.5CECU_Rivian_A1.5CTarget.5Crepo_projects.5CpFOTA.5CcL_R2023.2E09.2E01.5Cmake.5Cobj.5Cr_fdl_hw_access.,.-_R_FDL_IFct_WriteMemoryU16..C.3A.5C_ECU2.5CECU_Rivian_A1.5CTarget.5Crepo_projects.5CpFOTA.5CcL_R2023.2E09.2E01.5Cmake.5Cobj.5Cr_fdl_hw_access.
                         177 	.align	2
                         178 .LDW42:
                         179 
                         180 --_addr_u32	ep	param
                         181 --_val_u16	r7	param
                         182 
                         183 	.section ".bss","awb"
                         184 .L257:
                         185 	.type	.L257,@object
                         186 	.size	.L257,0
                         187 	.data
                         188 	.text
                         189 	.align	2
                         190 	.align	2
                         191 ..gh.f.f.1.e.5:
                         192 	.type	..gh.f.f.1.e.5,@object
                         193 	.size	..gh.f.f.1.e.5,0
                         194 	.global	_R_FDL_IFct_WriteMemoryU32..C.3A.5C_ECU2.5CECU_Rivian_A1.5CTarget.5Crepo_projects.5CpFOTA.5CcL_R2023.2E09.2E01.5Cmake.5Cobj.5Cr_fdl_hw_access.
                         195 _R_FDL_IFct_WriteMemoryU32..C.3A.5C_ECU2.5CECU_Rivian_A1.5CTarget.5Crepo_projects.5CpFOTA.5CcL_R2023.2E09.2E01.5Cmake.5Cobj.5Cr_fdl_hw_access.:
                         196 _R_FDL_IFct_WriteMemoryU32:
0000001e 06f0            197 	mov	r6,ep
                         198 --	    .bf
                         199 .LDW52:
00000020 013d            200 	sst.w	r7,0[ep]
                         201 --	    .ef
                         202 .LDW62:
00000022 7f00            203 	jmp	[lp]
                         204 	.type	_R_FDL_IFct_WriteMemoryU32,@function
                         205 	.size	_R_FDL_IFct_WriteMemoryU32,.-_R_FDL_IFct_WriteMemoryU32
                         206 	.type	_R_FDL_IFct_WriteMemoryU32..C.3A.5C_ECU2.5CECU_Rivian_A1.5CTarget.5Crepo_projects.5CpFOTA.5CcL_R2023.2E09.2E01.5Cmake.5Cobj.5Cr_fdl_hw_access.,@function
                         207 	.size	_R_FDL_IFct_WriteMemoryU32..C.3A.5C_ECU2.5CECU_Rivian_A1.5CTarget.5Crepo_projects.5CpFOTA.5CcL_R2023.2E09.2E01.5Cmake.5Cobj.5Cr_fdl_hw_access.,.-_R_FDL_IFct_WriteMemoryU32..C.3A.5C_ECU2.5CECU_Rivian_A1.5CTarget.5Crepo_projects.5CpFOTA.5CcL_R2023.2E09.2E01.5Cmake.5Cobj.5Cr_fdl_hw_access.
                         208 	.align	2
                         209 .LDW72:
                         210 
                         211 --_addr_u32	ep	param
                         212 --_val_u32	r7	param
                         213 
                         214 	.section ".bss","awb"
                         215 .L305:
                         216 	.type	.L305,@object
                         217 	.size	.L305,0
                         218 	.data
                         219 	.text
                         220 	.align	2
                         221 	.align	2
                         222 ..gh.f.f.1.e.6:
                         223 	.type	..gh.f.f.1.e.6,@object
                         224 	.size	..gh.f.f.1.e.6,0
                         225 	.global	_R_FDL_IFct_CalcFOpUnitCnt_BC
                         226 _R_FDL_IFct_CalcFOpUnitCnt_BC:
00000024 06f0            227 	mov	r6,ep
                         228 --	    .bf
                         229 .LDW82:
00000026 0790            230 	mov	r7,r18
00000028 8c92            231 	shr	12,r18
0000002a 0085            232 	sld.w	0[ep],r16
0000002c cc92            233 	shl	12,r18

                                                                      Page 5
                                                              C:\Users\nhuliyap\AppData\Local\Temp\gh_00005nc1.s
0000002e 128e0010        234 	addi	4096,r18,r17
00000032 a789            235 	sub	r7,r17
00000034 f089            236 	cmp	r16,r17
00000036 f1872283        237 	cmovl	r17,r16,r16
0000003a 0185            238 	sst.w	r16,0[ep]
                         239 --	    .ef
                         240 .LDW92:
0000003c 7f00            241 	jmp	[lp]
                         242 	.type	_R_FDL_IFct_CalcFOpUnitCnt_BC,@function
                         243 	.size	_R_FDL_IFct_CalcFOpUnitCnt_BC,.-_R_FDL_IFct_CalcFOpUnitCnt_BC
                         244 	.align	2
                         245 .LDW03:
                         246 --_cntTmp	r16	local
                         247 --_cntTmpMax	r17	local
                         248 
                         249 --_cnt_pu32	ep	param
                         250 --_addr_u32	r7	param
                         251 
                         252 	.section ".bss","awb"
                         253 .L368:
                         254 	.type	.L368,@object
                         255 	.size	.L368,0
                         256 	.data
                         257 	.text
                         258 	.align	2
                         259 	.align	2
                         260 	.align	2
                         261 ..gh.f.f.1.e.7:
                         262 	.type	..gh.f.f.1.e.7,@object
                         263 	.size	..gh.f.f.1.e.7,0
                         264 	.global	_R_FDL_IFct_ChkAccessBoundaries
                         265 _R_FDL_IFct_ChkAccessBoundaries:
0000003e 0878            266 	mov	r8,r15
00000040 af00            267 	sxb	r15
00000042 0970            268 	mov	r9,r14
                         269 --	    .bf
                         270 .LDW13:
00000044 840709f00000*   271 	ld.w	sdaoff23(_g_fdl_str)[gp],ep
0000004a 0152            272 	mov	1,r10
0000004c 004a            273 	mov	0,r9
0000004e 7198            274 	sld.hu	2[ep],r19
00000050 7288            275 	sld.hu	4[ep],r17
00000052 7390            276 	sld.hu	6[ep],r18
00000054 c69a            277 	shl	6,r19
00000056 c68a            278 	shl	6,r17
00000058 c692            279 	shl	6,r18
0000005a 136effff        280 	addi	-1,r19,r13
0000005e e039            281 	cmp	zero,r7
00000060 c22d*           282 	be	.L421
                         283 --line150
                         284 ..lin.C.3A.5C_ECU2.5CECU_Rivian_A1.5CTarget.5Crepo_projects.5CpFOTA.5CcL_R2023.2E09.2E01.5Cmake.5Cobj.5Cr_fdl_hw_access.1::
                         285 .LDWlin1:
00000062 c639            286 	add	r6,r7
00000064 0786ffff        287 	addi	-1,r7,r16
00000068 f031            288 	cmp	r16,r6
0000006a fb25*           289 	bh	.L421
0000006c 840709600000*   290 	ld.w	sdaoff23(_g_fdl_str+52)[gp],r12
00000072 ec81            291 	cmp	r12,r16
00000074 a925*           292 	bnl	.L421
00000076 0e46ffff        293 	addi	-1,r14,r8
0000007a 4641            294 	and	r6,r8

                                                                      Page 6
                                                              C:\Users\nhuliyap\AppData\Local\Temp\gh_00005nc1.s
0000007c ea1d*           295 	bne	.L421
                         296 --line160
                         297 ..lin.C.3A.5C_ECU2.5CECU_Rivian_A1.5CTarget.5Crepo_projects.5CpFOTA.5CcL_R2023.2E09.2E01.5Cmake.5Cobj.5Cr_fdl_hw_access.2::
                         298 .LDWlin2:
0000007e e091            299 	cmp	zero,r18
00000080 f20d*           300 	be	.L407
                         301 --line162
                         302 ..lin.C.3A.5C_ECU2.5CECU_Rivian_A1.5CTarget.5Crepo_projects.5CpFOTA.5CcL_R2023.2E09.2E01.5Cmake.5Cobj.5Cr_fdl_hw_access.3::
                         303 .LDWlin3:
00000082 d191            304 	add	r17,r18
00000084 123effff        305 	addi	-1,r18,r7
00000088 f131            306 	cmp	r17,r6
0000008a d105*           307 	bl	.L409
0000008c e781            308 	cmp	r7,r16
                         309 --line165
                         310 ..lin.C.3A.5C_ECU2.5CECU_Rivian_A1.5CTarget.5Crepo_projects.5CpFOTA.5CcL_R2023.2E09.2E01.5Cmake.5Cobj.5Cr_fdl_hw_access.4::
                         311 .LDWlin4:
0000008e e34f0000        312 	setfnh	r9
00000092 e305*           313 	bnh	.L407
                         314 .L409:
                         315 --line169
                         316 ..lin.C.3A.5C_ECU2.5CECU_Rivian_A1.5CTarget.5Crepo_projects.5CpFOTA.5CcL_R2023.2E09.2E01.5Cmake.5Cobj.5Cr_fdl_hw_access.5::
                         317 .LDWlin5:
00000094 f181            318 	cmp	r17,r16
00000096 c105*           319 	bl	.L407
00000098 e731            320 	cmp	r7,r6
                         321 --line171
                         322 ..lin.C.3A.5C_ECU2.5CECU_Rivian_A1.5CTarget.5Crepo_projects.5CpFOTA.5CcL_R2023.2E09.2E01.5Cmake.5Cobj.5Cr_fdl_hw_access.6::
                         323 .LDWlin6:
0000009a e4570653        324 	cmovnh	4,r10,r10
                         325 .L407:
0000009e 627a            326 	cmp	2,r15
000000a0 ca05*           327 	bne	.L416
                         328 --line178
                         329 ..lin.C.3A.5C_ECU2.5CECU_Rivian_A1.5CTarget.5Crepo_projects.5CpFOTA.5CcL_R2023.2E09.2E01.5Cmake.5Cobj.5Cr_fdl_hw_access.7::
                         330 .LDWlin7:
000000a2 e049            331 	cmp	zero,r9
000000a4 a20d*           332 	be	.L421
                         333 --	    .ef
                         334 .LDW23:
                         335 --line197
                         336 ..lin.C.3A.5C_ECU2.5CECU_Rivian_A1.5CTarget.5Crepo_projects.5CpFOTA.5CcL_R2023.2E09.2E01.5Cmake.5Cobj.5Cr_fdl_hw_access.8::
                         337 .LDWlin8:
000000a6 7f00            338 	jmp	[lp]
                         339 .L416:
                         340 --line184
                         341 ..lin.C.3A.5C_ECU2.5CECU_Rivian_A1.5CTarget.5Crepo_projects.5CpFOTA.5CcL_R2023.2E09.2E01.5Cmake.5Cobj.5Cr_fdl_hw_access.9::
                         342 .LDWlin9:
000000a8 617a            343 	cmp	1,r15
000000aa fa05*           344 	bne	.L421
                         345 --line186
                         346 ..lin.C.3A.5C_ECU2.5CECU_Rivian_A1.5CTarget.5Crepo_projects.5CpFOTA.5CcL_R2023.2E09.2E01.5Cmake.5Cobj.5Cr_fdl_hw_access.10::
                         347 .LDWlin10:
000000ac ed81            348 	cmp	r13,r16
000000ae db05*           349 	bh	.L421
000000b0 614a            350 	cmp	1,r9
000000b2 e4570453        351 	cmove	4,r10,r10
000000b6 7f00            352 	jmp	[lp]
                         353 .L421:
                         354 --line193
                         355 ..lin.C.3A.5C_ECU2.5CECU_Rivian_A1.5CTarget.5Crepo_projects.5CpFOTA.5CcL_R2023.2E09.2E01.5Cmake.5Cobj.5Cr_fdl_hw_access.11::

                                                                      Page 7
                                                              C:\Users\nhuliyap\AppData\Local\Temp\gh_00005nc1.s
                         356 .LDWlin11:
000000b8 0452            357 	mov	4,r10
000000ba 7f00            358 	jmp	[lp]
                         359 	.type	_R_FDL_IFct_ChkAccessBoundaries,@function
                         360 	.size	_R_FDL_IFct_ChkAccessBoundaries,.-_R_FDL_IFct_ChkAccessBoundaries
                         361 	.align	2
                         362 .LDW33:
                         363 --_eelPoolStart	r17	local
                         364 --_eelPoolSize	r18	local
                         365 --_eelPoolEnd	r7	local
                         366 --_fdlPoolEnd	r13	local
                         367 --_addEnd	r16	local
                         368 --_ret	r10	local
                         369 --_inEelRange	r9	local
                         370 
                         371 --_addrStart_u32	r6	param
                         372 --_bCnt_u32	r7	param
                         373 --_accType_enu	r15	param
                         374 --_granularity_u32	r14	param
                         375 
                         376 	.section ".bss","awb"
                         377 .L562:
                         378 	.type	.L562,@object
                         379 	.size	.L562,0
                         380 	.data
                         381 	.text
                         382 	.align	2
                         383 	.align	2
                         384 ..gh.f.f.1.e.8:
                         385 	.type	..gh.f.f.1.e.8,@object
                         386 	.size	..gh.f.f.1.e.8,0
                         387 	.global	_R_FDL_IFct_ChkAccessRight..C.3A.5C_ECU2.5CECU_Rivian_A1.5CTarget.5Crepo_projects.5CpFOTA.5CcL_R2023.2E09.2E01.5Cmake.5Cobj.5Cr_fdl_hw_access.
                         388 _R_FDL_IFct_ChkAccessRight..C.3A.5C_ECU2.5CECU_Rivian_A1.5CTarget.5Crepo_projects.5CpFOTA.5CcL_R2023.2E09.2E01.5Cmake.5Cobj.5Cr_fdl_hw_access.:
                         389 _R_FDL_IFct_ChkAccessRight:
000000bc 80076100        390 	prepare	{r29,r31},0
000000c0 0640            391 	mov	r6,r8
000000c2 a800            392 	sxb	r8
                         393 --	    .bf
                         394 .LDW43:
000000c4 26063000a1ff    395 	mov	-6225872,r6
                         396 	jarl	_R_FDL_IFct_ReadMemoryU32,lp
                         396 <EXPANSION BEGIN>
                         396 jarl22 _R_FDL_IFct_ReadMemoryU32 , lp 
000000ca bfff36ff*       396 <EXPANSION END>
000000ce 0ae8            397 	mov	r10,r29
                         398 --line210
                         399 ..lin.C.3A.5C_ECU2.5CECU_Rivian_A1.5CTarget.5Crepo_projects.5CpFOTA.5CcL_R2023.2E09.2E01.5Cmake.5Cobj.5Cr_fdl_hw_access.12::
                         400 .LDWlin12:
000000d0 4432            401 	add	4,r6
                         402 	jarl	_R_FDL_IFct_ReadMemoryU32,lp
                         402 <EXPANSION BEGIN>
                         402 jarl22 _R_FDL_IFct_ReadMemoryU32 , lp 
000000d2 bfff2eff*       402 <EXPANSION END>
000000d6 bd51            403 	sub	r29,r10
                         404 --line225
                         405 ..lin.C.3A.5C_ECU2.5CECU_Rivian_A1.5CTarget.5Crepo_projects.5CpFOTA.5CcL_R2023.2E09.2E01.5Cmake.5Cobj.5Cr_fdl_hw_access.13::
                         406 .LDWlin13:
000000d8 0748            407 	mov	r7,r9
000000da 1d30            408 	mov	r29,r6
000000dc 0a3e0400        409 	addi	4,r10,r7
                         410 	jarl	_R_FDL_IFct_ChkAccessBoundaries,lp

                                                                      Page 8
                                                              C:\Users\nhuliyap\AppData\Local\Temp\gh_00005nc1.s
                         410 <EXPANSION BEGIN>
                         410 jarl22 _R_FDL_IFct_ChkAccessBoundaries , lp 
000000e0 bfff5eff*       410 <EXPANSION END>
                         411 --line227
                         412 ..lin.C.3A.5C_ECU2.5CECU_Rivian_A1.5CTarget.5Crepo_projects.5CpFOTA.5CcL_R2023.2E09.2E01.5Cmake.5Cobj.5Cr_fdl_hw_access.14::
                         413 .LDWlin14:
000000e4 6452            414 	cmp	4,r10
000000e6 ed570453        415 	cmove	13,r10,r10
                         416 --	    .ef
                         417 .LDW53:
000000ea 40067f00        418 	dispose	0,{r29,r31},[lp]
                         419 	.type	_R_FDL_IFct_ChkAccessRight,@function
                         420 	.size	_R_FDL_IFct_ChkAccessRight,.-_R_FDL_IFct_ChkAccessRight
                         421 	.type	_R_FDL_IFct_ChkAccessRight..C.3A.5C_ECU2.5CECU_Rivian_A1.5CTarget.5Crepo_projects.5CpFOTA.5CcL_R2023.2E09.2E01.5Cmake.5Cobj.5Cr_fdl_hw_access.,@function
                         422 	.size	_R_FDL_IFct_ChkAccessRight..C.3A.5C_ECU2.5CECU_Rivian_A1.5CTarget.5Crepo_projects.5CpFOTA.5CcL_R2023.2E09.2E01.5Cmake.5Cobj.5Cr_fdl_hw_access.,.-_R_FDL_IFct_ChkAccessRight..C.3A.5C_ECU2.5CECU_Rivian_A1.5CTarget.5Crepo_projects.5CpFOTA.5CcL_R2023.2E09.2E01.5Cmake.5Cobj.5Cr_fdl_hw_access.
                         423 	.align	2
                         424 .LDW63:
                         425 --_ret	r10	local
                         426 --_addStart	r29	local
                         427 
                         428 --_accType_enu	r28	param
                         429 --_granularity_u32	r27	param
                         430 
                         431 	.section ".bss","awb"
                         432 .L760:
                         433 	.type	.L760,@object
                         434 	.size	.L760,0
                         435 	.data
                         436 	.text
                         437 	.align	2
                         438 	.align	2
                         439 ..gh.f.f.1.e.9:
                         440 	.type	..gh.f.f.1.e.9,@object
                         441 	.size	..gh.f.f.1.e.9,0
                         442 	.global	_R_FDL_FCUFct_ForcedStop
                         443 _R_FDL_FCUFct_ForcedStop:
000000ee 80072100        444 	prepare	{r31},0
                         445 --	    .bf
                         446 .LDW73:
000000f2 4036a2ff        447 	movhi	hi(-6160384),zero,r6
000000f6 203eb300        448 	movea	179,zero,r7
                         449 	jarl	_R_FDL_IFct_WriteMemoryU08,lp
                         449 <EXPANSION BEGIN>
                         449 jarl22 _R_FDL_IFct_WriteMemoryU08 , lp 
000000fa bfff18ff*       449 <EXPANSION END>
                         450 .L785:
                         451 --line245
                         452 ..lin.C.3A.5C_ECU2.5CECU_Rivian_A1.5CTarget.5Crepo_projects.5CpFOTA.5CcL_R2023.2E09.2E01.5Cmake.5Cobj.5Cr_fdl_hw_access.15::
                         453 .LDWlin15:
000000fe 26068000a1ff    454 	mov	-6225792,r6
                         455 	jarl	_R_FDL_IFct_ReadMemoryU32,lp
                         455 <EXPANSION BEGIN>
                         455 jarl22 _R_FDL_IFct_ReadMemoryU32 , lp 
00000104 bffffcfe*       455 <EXPANSION END>
                         456 --line247
                         457 ..lin.C.3A.5C_ECU2.5CECU_Rivian_A1.5CTarget.5Crepo_projects.5CpFOTA.5CcL_R2023.2E09.2E01.5Cmake.5Cobj.5Cr_fdl_hw_access.16::
                         458 .LDWlin16:
00000108 ca960080        459 	andi	32768,r10,r18
0000010c 12060080        460 	addi	-32768,r18,zero
00000110 faf5*           461 	bne	.L785
                         462 --	    .ef

                                                                      Page 9
                                                              C:\Users\nhuliyap\AppData\Local\Temp\gh_00005nc1.s
                         463 .LDW83:
                         464 --line248
                         465 ..lin.C.3A.5C_ECU2.5CECU_Rivian_A1.5CTarget.5Crepo_projects.5CpFOTA.5CcL_R2023.2E09.2E01.5Cmake.5Cobj.5Cr_fdl_hw_access.17::
                         466 .LDWlin17:
00000112 40063f00        467 	dispose	0,{r31},[lp]
                         468 	.type	_R_FDL_FCUFct_ForcedStop,@function
                         469 	.size	_R_FDL_FCUFct_ForcedStop,.-_R_FDL_FCUFct_ForcedStop
                         470 	.align	2
                         471 .LDW93:
                         472 
                         473 	.section ".bss","awb"
                         474 .L822:
                         475 	.type	.L822,@object
                         476 	.size	.L822,0
                         477 	.data
                         478 	.text
                         479 	.align	2
                         480 	.align	2
                         481 ..gh.f.f.1.e.10:
                         482 	.type	..gh.f.f.1.e.10,@object
                         483 	.size	..gh.f.f.1.e.10,0
                         484 	.global	_R_FDL_FCUFct_ClearStatus
                         485 _R_FDL_FCUFct_ClearStatus:
00000116 80076100        486 	prepare	{r29,r31},0
                         487 --	    .bf
                         488 .LDW04:
0000011a 3d061000a1ff    489 	mov	-6225904,r29
00000120 1d367000        490 	addi	112,r29,r6
                         491 	jarl	_R_FDL_IFct_ReadMemoryU32,lp
                         491 <EXPANSION BEGIN>
                         491 jarl22 _R_FDL_IFct_ReadMemoryU32 , lp 
00000124 bfffdcfe*       491 <EXPANSION END>
                         492 --line260
                         493 ..lin.C.3A.5C_ECU2.5CECU_Rivian_A1.5CTarget.5Crepo_projects.5CpFOTA.5CcL_R2023.2E09.2E01.5Cmake.5Cobj.5Cr_fdl_hw_access.18::
                         494 .LDWlin18:
00000128 ca960040        495 	andi	16384,r10,r18
0000012c 120600c0        496 	addi	-16384,r18,zero
00000130 ba0d*           497 	bne	.L857
                         498 --line261
                         499 ..lin.C.3A.5C_ECU2.5CECU_Rivian_A1.5CTarget.5Crepo_projects.5CpFOTA.5CcL_R2023.2E09.2E01.5Cmake.5Cobj.5Cr_fdl_hw_access.19::
                         500 .LDWlin19:
00000132 1d30            501 	mov	r29,r6
                         502 	jarl	_R_FDL_IFct_ReadMemoryU08,lp
                         502 <EXPANSION BEGIN>
                         502 jarl22 _R_FDL_IFct_ReadMemoryU08 , lp 
00000134 bfffd2fe*       502 <EXPANSION END>
                         503 --line263
                         504 ..lin.C.3A.5C_ECU2.5CECU_Rivian_A1.5CTarget.5Crepo_projects.5CpFOTA.5CcL_R2023.2E09.2E01.5Cmake.5Cobj.5Cr_fdl_hw_access.20::
                         505 .LDWlin20:
00000138 0a06f0ff        506 	addi	-16,r10,zero
0000013c d205*           507 	be	.L857
                         508 --line265
                         509 ..lin.C.3A.5C_ECU2.5CECU_Rivian_A1.5CTarget.5Crepo_projects.5CpFOTA.5CcL_R2023.2E09.2E01.5Cmake.5Cobj.5Cr_fdl_hw_access.21::
                         510 .LDWlin21:
0000013e 203e1000        511 	movea	16,zero,r7
                         512 	jarl	_R_FDL_IFct_WriteMemoryU08,lp
                         512 <EXPANSION BEGIN>
                         512 jarl22 _R_FDL_IFct_WriteMemoryU08 , lp 
00000142 bfffd0fe*       512 <EXPANSION END>
                         513 .L857:
                         514 --line269

                                                                      Page 10
                                                              C:\Users\nhuliyap\AppData\Local\Temp\gh_00005nc1.s
                         515 ..lin.C.3A.5C_ECU2.5CECU_Rivian_A1.5CTarget.5Crepo_projects.5CpFOTA.5CcL_R2023.2E09.2E01.5Cmake.5Cobj.5Cr_fdl_hw_access.22::
                         516 .LDWlin22:
00000146 4036a2ff        517 	movhi	65442,zero,r6
0000014a 203e5000        518 	movea	80,zero,r7
                         519 	jarl	_R_FDL_IFct_WriteMemoryU08,lp
                         519 <EXPANSION BEGIN>
                         519 jarl22 _R_FDL_IFct_WriteMemoryU08 , lp 
0000014e bfffc4fe*       519 <EXPANSION END>
                         520 --	    .ef
                         521 .LDW14:
                         522 --line270
                         523 ..lin.C.3A.5C_ECU2.5CECU_Rivian_A1.5CTarget.5Crepo_projects.5CpFOTA.5CcL_R2023.2E09.2E01.5Cmake.5Cobj.5Cr_fdl_hw_access.23::
                         524 .LDWlin23:
00000152 40067f00        525 	dispose	0,{r29,r31},[lp]
                         526 	.type	_R_FDL_FCUFct_ClearStatus,@function
                         527 	.size	_R_FDL_FCUFct_ClearStatus,.-_R_FDL_FCUFct_ClearStatus
                         528 	.align	2
                         529 .LDW24:
                         530 
                         531 	.section ".bss","awb"
                         532 .L896:
                         533 	.type	.L896,@object
                         534 	.size	.L896,0
                         535 	.data
                         536 	.text
                         537 	.align	2
                         538 	.align	2
                         539 ..gh.f.f.1.e.11:
                         540 	.type	..gh.f.f.1.e.11,@object
                         541 	.size	..gh.f.f.1.e.11,0
                         542 	.global	_R_FDL_IFct_ExeCodeInRAM..C.3A.5C_ECU2.5CECU_Rivian_A1.5CTarget.5Crepo_projects.5CpFOTA.5CcL_R2023.2E09.2E01.5Cmake.5Cobj.5Cr_fdl_hw_access.
                         543 _R_FDL_IFct_ExeCodeInRAM..C.3A.5C_ECU2.5CECU_Rivian_A1.5CTarget.5Crepo_projects.5CpFOTA.5CcL_R2023.2E09.2E01.5Cmake.5Cobj.5Cr_fdl_hw_access.:
                         544 _R_FDL_IFct_ExeCodeInRAM:
00000156 be076100        545 	prepare	{r29,r31},31
0000015a 031ea8ff        546 	addi	-88,sp,sp
                         547 --	    .bf
                         548 .LDW34:
0000015e 03960f00        549 	addi	15,sp,r18
00000162 8492            550 	shr	4,r18
00000164 c492            551 	shl	4,r18
00000166 c331            552 	add	sp,r6
00000168 b231            553 	sub	r18,r6
0000016a 0082            554 	mov	0,r16
                         555 .L945:
0000016c 1088            556 	mov	r16,r17
0000016e c18a            557 	shl	1,r17
00000170 03f0            558 	mov	sp,ep
00000172 d1f1            559 	add	r17,ep
00000174 c689            560 	add	r6,r17
00000176 f19f0100        561 	ld.hu	0[r17],r19
0000017a 4182            562 	add	1,r16
0000017c 100697ff        563 	addi	-105,r16,zero
00000180 809c            564 	sst.h	r19,0[ep]
00000182 d9f5*           565 	bnl	.L945
                         566 --line980
                         567 ..lin.C.3A.5C_ECU2.5CECU_Rivian_A1.5CTarget.5Crepo_projects.5CpFOTA.5CcL_R2023.2E09.2E01.5Cmake.5Cobj.5Cr_fdl_hw_access.24::
                         568 .LDWlin24:
00000184 12e8            569 	mov	r18,r29
00000186 e0076001        570 	di
0000018a 0730            571 	mov	r7,r6
0000018c fdc760f9        572 	jarl	[r29],lp

                                                                      Page 11
                                                              C:\Users\nhuliyap\AppData\Local\Temp\gh_00005nc1.s
                         573 --line986
                         574 ..lin.C.3A.5C_ECU2.5CECU_Rivian_A1.5CTarget.5Crepo_projects.5CpFOTA.5CcL_R2023.2E09.2E01.5Cmake.5Cobj.5Cr_fdl_hw_access.25::
                         575 .LDWlin25:
00000190 e0876001        576 	ei
                         577 --	    .ef
                         578 .LDW44:
00000194 031e5800        579 	addi	88,sp,sp
00000198 7e067f00        580 	dispose	31,{r29,r31},[lp]
                         581 	.type	_R_FDL_IFct_ExeCodeInRAM,@function
                         582 	.size	_R_FDL_IFct_ExeCodeInRAM,.-_R_FDL_IFct_ExeCodeInRAM
                         583 	.type	_R_FDL_IFct_ExeCodeInRAM..C.3A.5C_ECU2.5CECU_Rivian_A1.5CTarget.5Crepo_projects.5CpFOTA.5CcL_R2023.2E09.2E01.5Cmake.5Cobj.5Cr_fdl_hw_access.,@function
                         584 	.size	_R_FDL_IFct_ExeCodeInRAM..C.3A.5C_ECU2.5CECU_Rivian_A1.5CTarget.5Crepo_projects.5CpFOTA.5CcL_R2023.2E09.2E01.5Cmake.5Cobj.5Cr_fdl_hw_access.,.-_R_FDL_IFct_ExeCodeInRAM..C.3A.5C_ECU2.5CECU_Rivian_A1.5CTarget.5Crepo_projects.5CpFOTA.5CcL_R2023.2E09.2E01.5Cmake.5Cobj.5Cr_fdl_hw_access.
                         585 	.align	2
                         586 .LDW54:
                         587 --_i	r16	local
                         588 --_addAl	r18	local
                         589 --_pSrc	r6	local
                         590 --_pFctExe	r29	local
                         591 --_ramCodeBuffer	0[sp]	local
                         592 
                         593 --_pFct	r6	param
                         594 --_param_pu32	r7	param
                         595 
                         596 	.section ".bss","awb"
                         597 .L998:
                         598 	.type	.L998,@object
                         599 	.size	.L998,0
                         600 	.data
                         601 	.text
                         602 	.align	2
                         603 	.align	2
                         604 ..gh.f.f.1.e.12:
                         605 	.type	..gh.f.f.1.e.12,@object
                         606 	.size	..gh.f.f.1.e.12,0
                         607 	.global	_R_FDL_IFct_GetFWParam_Asm..C.3A.5C_ECU2.5CECU_Rivian_A1.5CTarget.5Crepo_projects.5CpFOTA.5CcL_R2023.2E09.2E01.5Cmake.5Cobj.5Cr_fdl_hw_access.
                         608 _R_FDL_IFct_GetFWParam_Asm..C.3A.5C_ECU2.5CECU_Rivian_A1.5CTarget.5Crepo_projects.5CpFOTA.5CcL_R2023.2E09.2E01.5Cmake.5Cobj.5Cr_fdl_hw_access.:
                         609 _R_FDL_IFct_GetFWParam_Asm:
                         610 --	    .bf
                         611 .LDW64:
                         612 ..gh.beginasm.13:
                         613 	.type	..gh.beginasm.13,@object
                         614 	.size	..gh.beginasm.13,0
0000019c 20460100        615  movea 0x01, r0, r8                    
                         616 
                         617 ..gh.endasm.14:
                         618 	.type	..gh.endasm.14,@object
                         619 	.size	..gh.endasm.14,0
                         620 --line300
                         621 ..lin.C.3A.5C_ECU2.5CECU_Rivian_A1.5CTarget.5Crepo_projects.5CpFOTA.5CcL_R2023.2E09.2E01.5Cmake.5Cobj.5Cr_fdl_hw_access.26::
                         622 .LDWlin26:
                         623 ..gh.beginasm.15:
                         624 	.type	..gh.beginasm.15,@object
                         625 	.size	..gh.beginasm.15,0
000001a0 c515*           626  br _R_FDL_IFct_GetFWParam_Asm_SWBFA   
                         627 
                         628 ..gh.endasm.16:
                         629 	.type	..gh.endasm.16,@object
                         630 	.size	..gh.endasm.16,0
                         631 --line302
                         632 ..lin.C.3A.5C_ECU2.5CECU_Rivian_A1.5CTarget.5Crepo_projects.5CpFOTA.5CcL_R2023.2E09.2E01.5Cmake.5Cobj.5Cr_fdl_hw_access.27::
                         633 .LDWlin27:

                                                                      Page 12
                                                              C:\Users\nhuliyap\AppData\Local\Temp\gh_00005nc1.s
                         634 ..gh.beginasm.17:
                         635 	.type	..gh.beginasm.17,@object
                         636 	.size	..gh.beginasm.17,0
                         637  _R_FDL_IFct_GetFWParam_Asm_Read:      
                         638 
                         639 ..gh.endasm.18:
                         640 	.type	..gh.endasm.18,@object
                         641 	.size	..gh.endasm.18,0
                         642 --line304
                         643 ..lin.C.3A.5C_ECU2.5CECU_Rivian_A1.5CTarget.5Crepo_projects.5CpFOTA.5CcL_R2023.2E09.2E01.5Cmake.5Cobj.5Cr_fdl_hw_access.28::
                         644 .LDWlin28:
                         645 ..gh.beginasm.19:
                         646 	.type	..gh.beginasm.19,@object
                         647 	.size	..gh.beginasm.19,0
000001a2 263f0100        648  ld.w 0[r6], r7                       
                         649 
                         650 ..gh.endasm.20:
                         651 	.type	..gh.endasm.20,@object
                         652 	.size	..gh.endasm.20,0
                         653 --line305
                         654 ..lin.C.3A.5C_ECU2.5CECU_Rivian_A1.5CTarget.5Crepo_projects.5CpFOTA.5CcL_R2023.2E09.2E01.5Cmake.5Cobj.5Cr_fdl_hw_access.29::
                         655 .LDWlin29:
                         656 ..gh.beginasm.21:
                         657 	.type	..gh.beginasm.21,@object
                         658 	.size	..gh.beginasm.21,0
000001a6 874f0100        659  ld.bu 0[r7], r9                      
                         660 
                         661 ..gh.endasm.22:
                         662 	.type	..gh.endasm.22,@object
                         663 	.size	..gh.endasm.22,0
                         664 --line307
                         665 ..lin.C.3A.5C_ECU2.5CECU_Rivian_A1.5CTarget.5Crepo_projects.5CpFOTA.5CcL_R2023.2E09.2E01.5Cmake.5Cobj.5Cr_fdl_hw_access.30::
                         666 .LDWlin30:
                         667 ..gh.beginasm.23:
                         668 	.type	..gh.beginasm.23,@object
                         669 	.size	..gh.beginasm.23,0
000001aa a7570100        670  ld.bu 1[r7], r10                     
                         671 
                         672 ..gh.endasm.24:
                         673 	.type	..gh.endasm.24,@object
                         674 	.size	..gh.endasm.24,0
                         675 --line308
                         676 ..lin.C.3A.5C_ECU2.5CECU_Rivian_A1.5CTarget.5Crepo_projects.5CpFOTA.5CcL_R2023.2E09.2E01.5Cmake.5Cobj.5Cr_fdl_hw_access.31::
                         677 .LDWlin31:
                         678 ..gh.beginasm.25:
                         679 	.type	..gh.beginasm.25,@object
                         680 	.size	..gh.beginasm.25,0
000001ae c852            681  shl 8, r10                           
                         682 
                         683 ..gh.endasm.26:
                         684 	.type	..gh.endasm.26,@object
                         685 	.size	..gh.endasm.26,0
                         686 --line309
                         687 ..lin.C.3A.5C_ECU2.5CECU_Rivian_A1.5CTarget.5Crepo_projects.5CpFOTA.5CcL_R2023.2E09.2E01.5Cmake.5Cobj.5Cr_fdl_hw_access.32::
                         688 .LDWlin32:
                         689 ..gh.beginasm.27:
                         690 	.type	..gh.beginasm.27,@object
                         691 	.size	..gh.beginasm.27,0
000001b0 ca49            692  add r10, r9                          
                         693 
                         694 ..gh.endasm.28:

                                                                      Page 13
                                                              C:\Users\nhuliyap\AppData\Local\Temp\gh_00005nc1.s
                         695 	.type	..gh.endasm.28,@object
                         696 	.size	..gh.endasm.28,0
                         697 --line311
                         698 ..lin.C.3A.5C_ECU2.5CECU_Rivian_A1.5CTarget.5Crepo_projects.5CpFOTA.5CcL_R2023.2E09.2E01.5Cmake.5Cobj.5Cr_fdl_hw_access.33::
                         699 .LDWlin33:
                         700 ..gh.beginasm.29:
                         701 	.type	..gh.beginasm.29,@object
                         702 	.size	..gh.beginasm.29,0
000001b2 87570300        703  ld.bu 2[r7], r10                     
                         704 
                         705 ..gh.endasm.30:
                         706 	.type	..gh.endasm.30,@object
                         707 	.size	..gh.endasm.30,0
                         708 --line312
                         709 ..lin.C.3A.5C_ECU2.5CECU_Rivian_A1.5CTarget.5Crepo_projects.5CpFOTA.5CcL_R2023.2E09.2E01.5Cmake.5Cobj.5Cr_fdl_hw_access.34::
                         710 .LDWlin34:
                         711 ..gh.beginasm.31:
                         712 	.type	..gh.beginasm.31,@object
                         713 	.size	..gh.beginasm.31,0
000001b6 d052            714  shl 16, r10                          
                         715 
                         716 ..gh.endasm.32:
                         717 	.type	..gh.endasm.32,@object
                         718 	.size	..gh.endasm.32,0
                         719 --line313
                         720 ..lin.C.3A.5C_ECU2.5CECU_Rivian_A1.5CTarget.5Crepo_projects.5CpFOTA.5CcL_R2023.2E09.2E01.5Cmake.5Cobj.5Cr_fdl_hw_access.35::
                         721 .LDWlin35:
                         722 ..gh.beginasm.33:
                         723 	.type	..gh.beginasm.33,@object
                         724 	.size	..gh.beginasm.33,0
000001b8 ca49            725  add r10, r9                          
                         726 
                         727 ..gh.endasm.34:
                         728 	.type	..gh.endasm.34,@object
                         729 	.size	..gh.endasm.34,0
                         730 --line315
                         731 ..lin.C.3A.5C_ECU2.5CECU_Rivian_A1.5CTarget.5Crepo_projects.5CpFOTA.5CcL_R2023.2E09.2E01.5Cmake.5Cobj.5Cr_fdl_hw_access.36::
                         732 .LDWlin36:
                         733 ..gh.beginasm.35:
                         734 	.type	..gh.beginasm.35,@object
                         735 	.size	..gh.beginasm.35,0
000001ba a7570300        736  ld.bu 3[r7], r10                     
                         737 
                         738 ..gh.endasm.36:
                         739 	.type	..gh.endasm.36,@object
                         740 	.size	..gh.endasm.36,0
                         741 --line316
                         742 ..lin.C.3A.5C_ECU2.5CECU_Rivian_A1.5CTarget.5Crepo_projects.5CpFOTA.5CcL_R2023.2E09.2E01.5Cmake.5Cobj.5Cr_fdl_hw_access.37::
                         743 .LDWlin37:
                         744 ..gh.beginasm.37:
                         745 	.type	..gh.beginasm.37,@object
                         746 	.size	..gh.beginasm.37,0
000001be d852            747  shl 24, r10                          
                         748 
                         749 ..gh.endasm.38:
                         750 	.type	..gh.endasm.38,@object
                         751 	.size	..gh.endasm.38,0
                         752 --line317
                         753 ..lin.C.3A.5C_ECU2.5CECU_Rivian_A1.5CTarget.5Crepo_projects.5CpFOTA.5CcL_R2023.2E09.2E01.5Cmake.5Cobj.5Cr_fdl_hw_access.38::
                         754 .LDWlin38:
                         755 ..gh.beginasm.39:

                                                                      Page 14
                                                              C:\Users\nhuliyap\AppData\Local\Temp\gh_00005nc1.s
                         756 	.type	..gh.beginasm.39,@object
                         757 	.size	..gh.beginasm.39,0
000001c0 ca49            758  add r10, r9                          
                         759 
                         760 ..gh.endasm.40:
                         761 	.type	..gh.endasm.40,@object
                         762 	.size	..gh.endasm.40,0
                         763 --line319
                         764 ..lin.C.3A.5C_ECU2.5CECU_Rivian_A1.5CTarget.5Crepo_projects.5CpFOTA.5CcL_R2023.2E09.2E01.5Cmake.5Cobj.5Cr_fdl_hw_access.39::
                         765 .LDWlin39:
                         766 ..gh.beginasm.41:
                         767 	.type	..gh.beginasm.41,@object
                         768 	.size	..gh.beginasm.41,0
000001c2 664f0500        769  st.w r9, 4[r6]                       
                         770 
                         771 ..gh.endasm.42:
                         772 	.type	..gh.endasm.42,@object
                         773 	.size	..gh.endasm.42,0
                         774 --line321
                         775 ..lin.C.3A.5C_ECU2.5CECU_Rivian_A1.5CTarget.5Crepo_projects.5CpFOTA.5CcL_R2023.2E09.2E01.5Cmake.5Cobj.5Cr_fdl_hw_access.40::
                         776 .LDWlin40:
                         777 ..gh.beginasm.43:
                         778 	.type	..gh.beginasm.43,@object
                         779 	.size	..gh.beginasm.43,0
000001c6 0040            780  mov r0, r8                           
                         781 
                         782 ..gh.endasm.44:
                         783 	.type	..gh.endasm.44,@object
                         784 	.size	..gh.endasm.44,0
                         785 --line323
                         786 ..lin.C.3A.5C_ECU2.5CECU_Rivian_A1.5CTarget.5Crepo_projects.5CpFOTA.5CcL_R2023.2E09.2E01.5Cmake.5Cobj.5Cr_fdl_hw_access.41::
                         787 .LDWlin41:
                         788 ..gh.beginasm.45:
                         789 	.type	..gh.beginasm.45,@object
                         790 	.size	..gh.beginasm.45,0
                         791  _R_FDL_IFct_GetFWParam_Asm_SWBFA:    
                         792 
                         793 ..gh.endasm.46:
                         794 	.type	..gh.endasm.46,@object
                         795 	.size	..gh.endasm.46,0
                         796 --line325
                         797 ..lin.C.3A.5C_ECU2.5CECU_Rivian_A1.5CTarget.5Crepo_projects.5CpFOTA.5CcL_R2023.2E09.2E01.5Cmake.5Cobj.5Cr_fdl_hw_access.42::
                         798 .LDWlin42:
                         799 ..gh.beginasm.47:
                         800 	.type	..gh.beginasm.47,@object
                         801 	.size	..gh.beginasm.47,0
000001c8 27060890c5ff    802  mov 0xffc59008, r7                   
                         803 
                         804 ..gh.endasm.48:
                         805 	.type	..gh.endasm.48,@object
                         806 	.size	..gh.endasm.48,0
                         807 --line326
                         808 ..lin.C.3A.5C_ECU2.5CECU_Rivian_A1.5CTarget.5Crepo_projects.5CpFOTA.5CcL_R2023.2E09.2E01.5Cmake.5Cobj.5Cr_fdl_hw_access.43::
                         809 .LDWlin43:
                         810 ..gh.beginasm.49:
                         811 	.type	..gh.beginasm.49,@object
                         812 	.size	..gh.beginasm.49,0
000001ce 47470000        813  st.b r8, 0[r7]                       
                         814 
                         815 ..gh.endasm.50:
                         816 	.type	..gh.endasm.50,@object

                                                                      Page 15
                                                              C:\Users\nhuliyap\AppData\Local\Temp\gh_00005nc1.s
                         817 	.size	..gh.endasm.50,0
                         818 --line327
                         819 ..lin.C.3A.5C_ECU2.5CECU_Rivian_A1.5CTarget.5Crepo_projects.5CpFOTA.5CcL_R2023.2E09.2E01.5Cmake.5Cobj.5Cr_fdl_hw_access.44::
                         820 .LDWlin44:
                         821 ..gh.beginasm.51:
                         822 	.type	..gh.beginasm.51,@object
                         823 	.size	..gh.beginasm.51,0
000001d2 073f0000        824  ld.b 0[r7], r7                       
                         825 
                         826 ..gh.endasm.52:
                         827 	.type	..gh.endasm.52,@object
                         828 	.size	..gh.endasm.52,0
                         829 --line328
                         830 ..lin.C.3A.5C_ECU2.5CECU_Rivian_A1.5CTarget.5Crepo_projects.5CpFOTA.5CcL_R2023.2E09.2E01.5Cmake.5Cobj.5Cr_fdl_hw_access.45::
                         831 .LDWlin45:
                         832 ..gh.beginasm.53:
                         833 	.type	..gh.beginasm.53,@object
                         834 	.size	..gh.beginasm.53,0
000001d6 1c00            835  synci                                
                         836 
                         837 ..gh.endasm.54:
                         838 	.type	..gh.endasm.54,@object
                         839 	.size	..gh.endasm.54,0
                         840 --line330
                         841 ..lin.C.3A.5C_ECU2.5CECU_Rivian_A1.5CTarget.5Crepo_projects.5CpFOTA.5CcL_R2023.2E09.2E01.5Cmake.5Cobj.5Cr_fdl_hw_access.46::
                         842 .LDWlin46:
                         843 ..gh.beginasm.55:
                         844 	.type	..gh.beginasm.55,@object
                         845 	.size	..gh.beginasm.55,0
000001d8 f83f4020        846  stsr 24, r7, 4                       
                         847 
                         848 ..gh.endasm.56:
                         849 	.type	..gh.endasm.56,@object
                         850 	.size	..gh.endasm.56,0
                         851 --line331
                         852 ..lin.C.3A.5C_ECU2.5CECU_Rivian_A1.5CTarget.5Crepo_projects.5CpFOTA.5CcL_R2023.2E09.2E01.5Cmake.5Cobj.5Cr_fdl_hw_access.47::
                         853 .LDWlin47:
                         854 ..gh.beginasm.57:
                         855 	.type	..gh.beginasm.57,@object
                         856 	.size	..gh.beginasm.57,0
000001dc 873e0001        857  ori 0x0100, r7, r7                   
                         858 
                         859 ..gh.endasm.58:
                         860 	.type	..gh.endasm.58,@object
                         861 	.size	..gh.endasm.58,0
                         862 --line332
                         863 ..lin.C.3A.5C_ECU2.5CECU_Rivian_A1.5CTarget.5Crepo_projects.5CpFOTA.5CcL_R2023.2E09.2E01.5Cmake.5Cobj.5Cr_fdl_hw_access.48::
                         864 .LDWlin48:
                         865 ..gh.beginasm.59:
                         866 	.type	..gh.beginasm.59,@object
                         867 	.size	..gh.beginasm.59,0
000001e0 e7c72020        868  ldsr r7, 24, 4                       
                         869 
                         870 ..gh.endasm.60:
                         871 	.type	..gh.endasm.60,@object
                         872 	.size	..gh.endasm.60,0
                         873 --line334
                         874 ..lin.C.3A.5C_ECU2.5CECU_Rivian_A1.5CTarget.5Crepo_projects.5CpFOTA.5CcL_R2023.2E09.2E01.5Cmake.5Cobj.5Cr_fdl_hw_access.49::
                         875 .LDWlin49:
                         876 ..gh.beginasm.61:
                         877 	.type	..gh.beginasm.61,@object

                                                                      Page 16
                                                              C:\Users\nhuliyap\AppData\Local\Temp\gh_00005nc1.s
                         878 	.size	..gh.beginasm.61,0
                         879 _R_FDL_IFct_GetFWParam_Asm_Polling:
                         880 
                         881 ..gh.endasm.62:
                         882 	.type	..gh.endasm.62,@object
                         883 	.size	..gh.endasm.62,0
                         884 --line335
                         885 ..lin.C.3A.5C_ECU2.5CECU_Rivian_A1.5CTarget.5Crepo_projects.5CpFOTA.5CcL_R2023.2E09.2E01.5Cmake.5Cobj.5Cr_fdl_hw_access.50::
                         886 .LDWlin50:
                         887 ..gh.beginasm.63:
                         888 	.type	..gh.beginasm.63,@object
                         889 	.size	..gh.beginasm.63,0
000001e4 f83f4020        890  stsr 24, r7, 4                       
                         891 
                         892 ..gh.endasm.64:
                         893 	.type	..gh.endasm.64,@object
                         894 	.size	..gh.endasm.64,0
                         895 --line336
                         896 ..lin.C.3A.5C_ECU2.5CECU_Rivian_A1.5CTarget.5Crepo_projects.5CpFOTA.5CcL_R2023.2E09.2E01.5Cmake.5Cobj.5Cr_fdl_hw_access.51::
                         897 .LDWlin51:
                         898 ..gh.beginasm.65:
                         899 	.type	..gh.beginasm.65,@object
                         900 	.size	..gh.beginasm.65,0
000001e8 c73e0001        901 andi    0x0100, r7, r7
                         902 
                         903 ..gh.endasm.66:
                         904 	.type	..gh.endasm.66,@object
                         905 	.size	..gh.endasm.66,0
                         906 --line337
                         907 ..lin.C.3A.5C_ECU2.5CECU_Rivian_A1.5CTarget.5Crepo_projects.5CpFOTA.5CcL_R2023.2E09.2E01.5Cmake.5Cobj.5Cr_fdl_hw_access.52::
                         908 .LDWlin52:
                         909 ..gh.beginasm.67:
                         910 	.type	..gh.beginasm.67,@object
                         911 	.size	..gh.beginasm.67,0
000001ec e039            912 cmp     r0, r7
                         913 
                         914 ..gh.endasm.68:
                         915 	.type	..gh.endasm.68,@object
                         916 	.size	..gh.endasm.68,0
                         917 --line338
                         918 ..lin.C.3A.5C_ECU2.5CECU_Rivian_A1.5CTarget.5Crepo_projects.5CpFOTA.5CcL_R2023.2E09.2E01.5Cmake.5Cobj.5Cr_fdl_hw_access.53::
                         919 .LDWlin53:
                         920 ..gh.beginasm.69:
                         921 	.type	..gh.beginasm.69,@object
                         922 	.size	..gh.beginasm.69,0
000001ee bafd*           923 bne _R_FDL_IFct_GetFWParam_Asm_Polling
                         924 
                         925 ..gh.endasm.70:
                         926 	.type	..gh.endasm.70,@object
                         927 	.size	..gh.endasm.70,0
                         928 --line339
                         929 ..lin.C.3A.5C_ECU2.5CECU_Rivian_A1.5CTarget.5Crepo_projects.5CpFOTA.5CcL_R2023.2E09.2E01.5Cmake.5Cobj.5Cr_fdl_hw_access.54::
                         930 .LDWlin54:
                         931 ..gh.beginasm.71:
                         932 	.type	..gh.beginasm.71,@object
                         933 	.size	..gh.beginasm.71,0
000001f0 1c00            934 synci
                         935 
                         936 ..gh.endasm.72:
                         937 	.type	..gh.endasm.72,@object
                         938 	.size	..gh.endasm.72,0

                                                                      Page 17
                                                              C:\Users\nhuliyap\AppData\Local\Temp\gh_00005nc1.s
                         939 --line341
                         940 ..lin.C.3A.5C_ECU2.5CECU_Rivian_A1.5CTarget.5Crepo_projects.5CpFOTA.5CcL_R2023.2E09.2E01.5Cmake.5Cobj.5Cr_fdl_hw_access.55::
                         941 .LDWlin55:
                         942 ..gh.beginasm.73:
                         943 	.type	..gh.beginasm.73,@object
                         944 	.size	..gh.beginasm.73,0
000001f2 e63f4008        945  stsr 6, r7, 1                        
                         946 
                         947 ..gh.endasm.74:
                         948 	.type	..gh.endasm.74,@object
                         949 	.size	..gh.endasm.74,0
                         950 --line342
                         951 ..lin.C.3A.5C_ECU2.5CECU_Rivian_A1.5CTarget.5Crepo_projects.5CpFOTA.5CcL_R2023.2E09.2E01.5Cmake.5Cobj.5Cr_fdl_hw_access.56::
                         952 .LDWlin56:
                         953 ..gh.beginasm.75:
                         954 	.type	..gh.beginasm.75,@object
                         955 	.size	..gh.beginasm.75,0
000001f6 c73ee000        956  andi 0x00E0, r7, r7                  
                         957 
                         958 ..gh.endasm.76:
                         959 	.type	..gh.endasm.76,@object
                         960 	.size	..gh.endasm.76,0
                         961 --line344
                         962 ..lin.C.3A.5C_ECU2.5CECU_Rivian_A1.5CTarget.5Crepo_projects.5CpFOTA.5CcL_R2023.2E09.2E01.5Cmake.5Cobj.5Cr_fdl_hw_access.57::
                         963 .LDWlin57:
                         964 ..gh.beginasm.77:
                         965 	.type	..gh.beginasm.77,@object
                         966 	.size	..gh.beginasm.77,0
000001fa 204e2000        967  movea 0x20, r0, r9                   
                         968 
                         969 ..gh.endasm.78:
                         970 	.type	..gh.endasm.78,@object
                         971 	.size	..gh.endasm.78,0
                         972 --line345
                         973 ..lin.C.3A.5C_ECU2.5CECU_Rivian_A1.5CTarget.5Crepo_projects.5CpFOTA.5CcL_R2023.2E09.2E01.5Cmake.5Cobj.5Cr_fdl_hw_access.58::
                         974 .LDWlin58:
                         975 ..gh.beginasm.79:
                         976 	.type	..gh.beginasm.79,@object
                         977 	.size	..gh.beginasm.79,0
000001fe e749            978  cmp r7, r9                           
                         979 
                         980 ..gh.endasm.80:
                         981 	.type	..gh.endasm.80,@object
                         982 	.size	..gh.endasm.80,0
                         983 --line346
                         984 ..lin.C.3A.5C_ECU2.5CECU_Rivian_A1.5CTarget.5Crepo_projects.5CpFOTA.5CcL_R2023.2E09.2E01.5Cmake.5Cobj.5Cr_fdl_hw_access.59::
                         985 .LDWlin59:
                         986 ..gh.beginasm.81:
                         987 	.type	..gh.beginasm.81,@object
                         988 	.size	..gh.beginasm.81,0
00000200 fa0d*           989  bne _R_FDL_IFct_GetFWParam_Asm_G3M   
                         990 
                         991 ..gh.endasm.82:
                         992 	.type	..gh.endasm.82,@object
                         993 	.size	..gh.endasm.82,0
                         994 --line348
                         995 ..lin.C.3A.5C_ECU2.5CECU_Rivian_A1.5CTarget.5Crepo_projects.5CpFOTA.5CcL_R2023.2E09.2E01.5Cmake.5Cobj.5Cr_fdl_hw_access.60::
                         996 .LDWlin60:
                         997 ..gh.beginasm.83:
                         998 	.type	..gh.beginasm.83,@object
                         999 	.size	..gh.beginasm.83,0

                                                                      Page 18
                                                              C:\Users\nhuliyap\AppData\Local\Temp\gh_00005nc1.s
00000202 013a           1000  mov 0x01, r7                         
                        1001 
                        1002 ..gh.endasm.84:
                        1003 	.type	..gh.endasm.84,@object
                        1004 	.size	..gh.endasm.84,0
                        1005 --line349
                        1006 ..lin.C.3A.5C_ECU2.5CECU_Rivian_A1.5CTarget.5Crepo_projects.5CpFOTA.5CcL_R2023.2E09.2E01.5Cmake.5Cobj.5Cr_fdl_hw_access.61::
                        1007 .LDWlin61:
                        1008 ..gh.beginasm.85:
                        1009 	.type	..gh.beginasm.85,@object
                        1010 	.size	..gh.beginasm.85,0
00000204 29060007bcff   1011  mov 0xFFBC0700, r9                   
                        1012 
                        1013 ..gh.endasm.86:
                        1014 	.type	..gh.endasm.86,@object
                        1015 	.size	..gh.endasm.86,0
                        1016 --line350
                        1017 ..lin.C.3A.5C_ECU2.5CECU_Rivian_A1.5CTarget.5Crepo_projects.5CpFOTA.5CcL_R2023.2E09.2E01.5Cmake.5Cobj.5Cr_fdl_hw_access.62::
                        1018 .LDWlin62:
                        1019 ..gh.beginasm.87:
                        1020 	.type	..gh.beginasm.87,@object
                        1021 	.size	..gh.beginasm.87,0
0000020a 49070000       1022  st.b r0, 0[r9]                       
                        1023 
                        1024 ..gh.endasm.88:
                        1025 	.type	..gh.endasm.88,@object
                        1026 	.size	..gh.endasm.88,0
                        1027 --line351
                        1028 ..lin.C.3A.5C_ECU2.5CECU_Rivian_A1.5CTarget.5Crepo_projects.5CpFOTA.5CcL_R2023.2E09.2E01.5Cmake.5Cobj.5Cr_fdl_hw_access.63::
                        1029 .LDWlin63:
                        1030 ..gh.beginasm.89:
                        1031 	.type	..gh.beginasm.89,@object
                        1032 	.size	..gh.beginasm.89,0
0000020e 493f0000       1033  st.b r7, 0[r9]                       
                        1034 
                        1035 ..gh.endasm.90:
                        1036 	.type	..gh.endasm.90,@object
                        1037 	.size	..gh.endasm.90,0
                        1038 --line352
                        1039 ..lin.C.3A.5C_ECU2.5CECU_Rivian_A1.5CTarget.5Crepo_projects.5CpFOTA.5CcL_R2023.2E09.2E01.5Cmake.5Cobj.5Cr_fdl_hw_access.64::
                        1040 .LDWlin64:
                        1041 ..gh.beginasm.91:
                        1042 	.type	..gh.beginasm.91,@object
                        1043 	.size	..gh.beginasm.91,0
00000212 49070000       1044  st.b r0, 0[r9]                       
                        1045 
                        1046 ..gh.endasm.92:
                        1047 	.type	..gh.endasm.92,@object
                        1048 	.size	..gh.endasm.92,0
                        1049 --line353
                        1050 ..lin.C.3A.5C_ECU2.5CECU_Rivian_A1.5CTarget.5Crepo_projects.5CpFOTA.5CcL_R2023.2E09.2E01.5Cmake.5Cobj.5Cr_fdl_hw_access.65::
                        1051 .LDWlin65:
                        1052 ..gh.beginasm.93:
                        1053 	.type	..gh.beginasm.93,@object
                        1054 	.size	..gh.beginasm.93,0
00000216 093f0000       1055  ld.b 0[r9], r7                       
                        1056 
                        1057 ..gh.endasm.94:
                        1058 	.type	..gh.endasm.94,@object
                        1059 	.size	..gh.endasm.94,0
                        1060 --line354

                                                                      Page 19
                                                              C:\Users\nhuliyap\AppData\Local\Temp\gh_00005nc1.s
                        1061 ..lin.C.3A.5C_ECU2.5CECU_Rivian_A1.5CTarget.5Crepo_projects.5CpFOTA.5CcL_R2023.2E09.2E01.5Cmake.5Cobj.5Cr_fdl_hw_access.66::
                        1062 .LDWlin66:
                        1063 ..gh.beginasm.95:
                        1064 	.type	..gh.beginasm.95,@object
                        1065 	.size	..gh.beginasm.95,0
0000021a 1c00           1066  synci                                
                        1067 
                        1068 ..gh.endasm.96:
                        1069 	.type	..gh.endasm.96,@object
                        1070 	.size	..gh.endasm.96,0
                        1071 --line355
                        1072 ..lin.C.3A.5C_ECU2.5CECU_Rivian_A1.5CTarget.5Crepo_projects.5CpFOTA.5CcL_R2023.2E09.2E01.5Cmake.5Cobj.5Cr_fdl_hw_access.67::
                        1073 .LDWlin67:
                        1074 ..gh.beginasm.97:
                        1075 	.type	..gh.beginasm.97,@object
                        1076 	.size	..gh.beginasm.97,0
0000021c 950d*          1077  br _R_FDL_IFct_GetFWParam_Asm_CCEnd  
                        1078 
                        1079 ..gh.endasm.98:
                        1080 	.type	..gh.endasm.98,@object
                        1081 	.size	..gh.endasm.98,0
                        1082 --line357
                        1083 ..lin.C.3A.5C_ECU2.5CECU_Rivian_A1.5CTarget.5Crepo_projects.5CpFOTA.5CcL_R2023.2E09.2E01.5Cmake.5Cobj.5Cr_fdl_hw_access.68::
                        1084 .LDWlin68:
                        1085 ..gh.beginasm.99:
                        1086 	.type	..gh.beginasm.99,@object
                        1087 	.size	..gh.beginasm.99,0
                        1088  _R_FDL_IFct_GetFWParam_Asm_G3M:      
                        1089 
                        1090 ..gh.endasm.100:
                        1091 	.type	..gh.endasm.100,@object
                        1092 	.size	..gh.endasm.100,0
                        1093 --line358
                        1094 ..lin.C.3A.5C_ECU2.5CECU_Rivian_A1.5CTarget.5Crepo_projects.5CpFOTA.5CcL_R2023.2E09.2E01.5Cmake.5Cobj.5Cr_fdl_hw_access.69::
                        1095 .LDWlin69:
                        1096 ..gh.beginasm.101:
                        1097 	.type	..gh.beginasm.101,@object
                        1098 	.size	..gh.beginasm.101,0
0000021e f83f4068       1099  stsr 24, r7, 13                      
                        1100 
                        1101 ..gh.endasm.102:
                        1102 	.type	..gh.endasm.102,@object
                        1103 	.size	..gh.endasm.102,0
                        1104 --line359
                        1105 ..lin.C.3A.5C_ECU2.5CECU_Rivian_A1.5CTarget.5Crepo_projects.5CpFOTA.5CcL_R2023.2E09.2E01.5Cmake.5Cobj.5Cr_fdl_hw_access.70::
                        1106 .LDWlin70:
                        1107 ..gh.beginasm.103:
                        1108 	.type	..gh.beginasm.103,@object
                        1109 	.size	..gh.beginasm.103,0
00000222 873e0200       1110  ori 0x02, r7, r7                     
                        1111 
                        1112 ..gh.endasm.104:
                        1113 	.type	..gh.endasm.104,@object
                        1114 	.size	..gh.endasm.104,0
                        1115 --line360
                        1116 ..lin.C.3A.5C_ECU2.5CECU_Rivian_A1.5CTarget.5Crepo_projects.5CpFOTA.5CcL_R2023.2E09.2E01.5Cmake.5Cobj.5Cr_fdl_hw_access.71::
                        1117 .LDWlin71:
                        1118 ..gh.beginasm.105:
                        1119 	.type	..gh.beginasm.105,@object
                        1120 	.size	..gh.beginasm.105,0
00000226 e7c72068       1121  ldsr r7, 24, 13                      

                                                                      Page 20
                                                              C:\Users\nhuliyap\AppData\Local\Temp\gh_00005nc1.s
                        1122 
                        1123 ..gh.endasm.106:
                        1124 	.type	..gh.endasm.106,@object
                        1125 	.size	..gh.endasm.106,0
                        1126 --line361
                        1127 ..lin.C.3A.5C_ECU2.5CECU_Rivian_A1.5CTarget.5Crepo_projects.5CpFOTA.5CcL_R2023.2E09.2E01.5Cmake.5Cobj.5Cr_fdl_hw_access.72::
                        1128 .LDWlin72:
                        1129 ..gh.beginasm.107:
                        1130 	.type	..gh.beginasm.107,@object
                        1131 	.size	..gh.beginasm.107,0
0000022a f83f4068       1132  stsr 24, r7, 13                      
                        1133 
                        1134 ..gh.endasm.108:
                        1135 	.type	..gh.endasm.108,@object
                        1136 	.size	..gh.endasm.108,0
                        1137 --line363
                        1138 ..lin.C.3A.5C_ECU2.5CECU_Rivian_A1.5CTarget.5Crepo_projects.5CpFOTA.5CcL_R2023.2E09.2E01.5Cmake.5Cobj.5Cr_fdl_hw_access.73::
                        1139 .LDWlin73:
                        1140 ..gh.beginasm.109:
                        1141 	.type	..gh.beginasm.109,@object
                        1142 	.size	..gh.beginasm.109,0
                        1143  _R_FDL_IFct_GetFWParam_Asm_CCEnd:    
                        1144 
                        1145 ..gh.endasm.110:
                        1146 	.type	..gh.endasm.110,@object
                        1147 	.size	..gh.endasm.110,0
                        1148 --line365
                        1149 ..lin.C.3A.5C_ECU2.5CECU_Rivian_A1.5CTarget.5Crepo_projects.5CpFOTA.5CcL_R2023.2E09.2E01.5Cmake.5Cobj.5Cr_fdl_hw_access.74::
                        1150 .LDWlin74:
                        1151 ..gh.beginasm.111:
                        1152 	.type	..gh.beginasm.111,@object
                        1153 	.size	..gh.beginasm.111,0
0000022e e801           1154  cmp r8, r0                           
                        1155 
                        1156 ..gh.endasm.112:
                        1157 	.type	..gh.endasm.112,@object
                        1158 	.size	..gh.endasm.112,0
                        1159 --line366
                        1160 ..lin.C.3A.5C_ECU2.5CECU_Rivian_A1.5CTarget.5Crepo_projects.5CpFOTA.5CcL_R2023.2E09.2E01.5Cmake.5Cobj.5Cr_fdl_hw_access.75::
                        1161 .LDWlin75:
                        1162 ..gh.beginasm.113:
                        1163 	.type	..gh.beginasm.113,@object
                        1164 	.size	..gh.beginasm.113,0
00000230 9abd*          1165  bnz _R_FDL_IFct_GetFWParam_Asm_Read  
                        1166 
                        1167 ..gh.endasm.114:
                        1168 	.type	..gh.endasm.114,@object
                        1169 	.size	..gh.endasm.114,0
                        1170 --	    .ef
                        1171 .LDW74:
                        1172 --line367
                        1173 ..lin.C.3A.5C_ECU2.5CECU_Rivian_A1.5CTarget.5Crepo_projects.5CpFOTA.5CcL_R2023.2E09.2E01.5Cmake.5Cobj.5Cr_fdl_hw_access.76::
                        1174 .LDWlin76:
00000232 7f00           1175 	jmp	[lp]
                        1176 	.type	_R_FDL_IFct_GetFWParam_Asm,@function
                        1177 	.size	_R_FDL_IFct_GetFWParam_Asm,.-_R_FDL_IFct_GetFWParam_Asm
                        1178 	.type	_R_FDL_IFct_GetFWParam_Asm..C.3A.5C_ECU2.5CECU_Rivian_A1.5CTarget.5Crepo_projects.5CpFOTA.5CcL_R2023.2E09.2E01.5Cmake.5Cobj.5Cr_fdl_hw_access.,@function
                        1179 	.size	_R_FDL_IFct_GetFWParam_Asm..C.3A.5C_ECU2.5CECU_Rivian_A1.5CTarget.5Crepo_projects.5CpFOTA.5CcL_R2023.2E09.2E01.5Cmake.5Cobj.5Cr_fdl_hw_access.,.-_R_FDL_IFct_GetFWParam_Asm..C.3A.5C_ECU2.5CECU_Rivian_A1.5CTarget.5Crepo_projects.5CpFOTA.5CcL_R2023.2E09.2E01.5Cmake.5Cobj.5Cr_fdl_hw_access.
                        1180 	.align	2
                        1181 .LDW84:
                        1182 

                                                                      Page 21
                                                              C:\Users\nhuliyap\AppData\Local\Temp\gh_00005nc1.s
                        1183 --_param_pu32	none	param
                        1184 
                        1185 	.section ".bss","awb"
                        1186 .L1057:
                        1187 	.type	.L1057,@object
                        1188 	.size	.L1057,0
                        1189 	.data
                        1190 	.text
                        1191 	.align	2
                        1192 	.align	2
                        1193 ..gh.f.f.1.e.115:
                        1194 	.type	..gh.f.f.1.e.115,@object
                        1195 	.size	..gh.f.f.1.e.115,0
                        1196 	.global	_R_FDL_IFct_GetFWParam..C.3A.5C_ECU2.5CECU_Rivian_A1.5CTarget.5Crepo_projects.5CpFOTA.5CcL_R2023.2E09.2E01.5Cmake.5Cobj.5Cr_fdl_hw_access.
                        1197 _R_FDL_IFct_GetFWParam..C.3A.5C_ECU2.5CECU_Rivian_A1.5CTarget.5Crepo_projects.5CpFOTA.5CcL_R2023.2E09.2E01.5Cmake.5Cobj.5Cr_fdl_hw_access.:
                        1198 _R_FDL_IFct_GetFWParam:
00000234 84072100       1199 	prepare	{r31},2
                        1200 --	    .bf
                        1201 .LDW94:
00000238 63370100       1202 	st.w	r6,0[sp]
0000023c 260600000000*  1203 	mov	_R_FDL_IFct_GetFWParam_Asm,r6
00000242 0338           1204 	mov	sp,r7
                        1205 	jarl	_R_FDL_IFct_ExeCodeInRAM,lp
                        1205 <EXPANSION BEGIN>
                        1205 jarl22 _R_FDL_IFct_ExeCodeInRAM , lp 
00000244 bfff12ff*      1205 <EXPANSION END>
                        1206 --line283
                        1207 ..lin.C.3A.5C_ECU2.5CECU_Rivian_A1.5CTarget.5Crepo_projects.5CpFOTA.5CcL_R2023.2E09.2E01.5Cmake.5Cobj.5Cr_fdl_hw_access.77::
                        1208 .LDWlin77:
00000248 23570500       1209 	ld.w	4[sp],r10
                        1210 --	    .ef
                        1211 .LDW05:
0000024c 44063f00       1212 	dispose	2,{r31},[lp]
                        1213 	.type	_R_FDL_IFct_GetFWParam,@function
                        1214 	.size	_R_FDL_IFct_GetFWParam,.-_R_FDL_IFct_GetFWParam
                        1215 	.type	_R_FDL_IFct_GetFWParam..C.3A.5C_ECU2.5CECU_Rivian_A1.5CTarget.5Crepo_projects.5CpFOTA.5CcL_R2023.2E09.2E01.5Cmake.5Cobj.5Cr_fdl_hw_access.,@function
                        1216 	.size	_R_FDL_IFct_GetFWParam..C.3A.5C_ECU2.5CECU_Rivian_A1.5CTarget.5Crepo_projects.5CpFOTA.5CcL_R2023.2E09.2E01.5Cmake.5Cobj.5Cr_fdl_hw_access.,.-_R_FDL_IFct_GetFWParam..C.3A.5C_ECU2.5CECU_Rivian_A1.5CTarget.5Crepo_projects.5CpFOTA.5CcL_R2023.2E09.2E01.5Cmake.5Cobj.5Cr_fdl_hw_access.
                        1217 	.align	2
                        1218 .LDW15:
                        1219 --_getFWParam	0[sp]	local
                        1220 
                        1221 --_addr_u32	r6	param
                        1222 
                        1223 	.section ".bss","awb"
                        1224 .L1105:
                        1225 	.type	.L1105,@object
                        1226 	.size	.L1105,0
                        1227 	.data
                        1228 	.text
                        1229 	.align	2
                        1230 	.align	2
                        1231 ..gh.f.f.1.e.116:
                        1232 	.type	..gh.f.f.1.e.116,@object
                        1233 	.size	..gh.f.f.1.e.116,0
                        1234 	.global	_R_FDL_FCUFct_GetDFSize
                        1235 _R_FDL_FCUFct_GetDFSize:
00000250 80072100       1236 	prepare	{r31},0
                        1237 --	    .bf
                        1238 .LDW25:
00000254 260670020100   1239 	mov	66160,r6
                        1240 	jarl	_R_FDL_IFct_GetFWParam,lp

                                                                      Page 22
                                                              C:\Users\nhuliyap\AppData\Local\Temp\gh_00005nc1.s
                        1240 <EXPANSION BEGIN>
                        1240 jarl22 _R_FDL_IFct_GetFWParam , lp 
0000025a bfffdaff*      1240 <EXPANSION END>
                        1241 --line540
                        1242 ..lin.C.3A.5C_ECU2.5CECU_Rivian_A1.5CTarget.5Crepo_projects.5CpFOTA.5CcL_R2023.2E09.2E01.5Cmake.5Cobj.5Cr_fdl_hw_access.78::
                        1243 .LDWlin78:
0000025e 0a36c800       1244 	addi	200,r10,r6
                        1245 	jarl	_R_FDL_IFct_ReadMemoryU32,lp
                        1245 <EXPANSION BEGIN>
                        1245 jarl22 _R_FDL_IFct_ReadMemoryU32 , lp 
00000262 bfff9efd*      1245 <EXPANSION END>
                        1246 --line544
                        1247 ..lin.C.3A.5C_ECU2.5CECU_Rivian_A1.5CTarget.5Crepo_projects.5CpFOTA.5CcL_R2023.2E09.2E01.5Cmake.5Cobj.5Cr_fdl_hw_access.79::
                        1248 .LDWlin79:
00000266 ca00           1249 	zxh	r10
00000268 ca52           1250 	shl	10,r10
                        1251 --	    .ef
                        1252 .LDW35:
0000026a 40063f00       1253 	dispose	0,{r31},[lp]
                        1254 	.type	_R_FDL_FCUFct_GetDFSize,@function
                        1255 	.size	_R_FDL_FCUFct_GetDFSize,.-_R_FDL_FCUFct_GetDFSize
                        1256 	.align	2
                        1257 .LDW45:
                        1258 
                        1259 	.section ".bss","awb"
                        1260 .L1156:
                        1261 	.type	.L1156,@object
                        1262 	.size	.L1156,0
                        1263 	.data
                        1264 	.text
                        1265 	.align	2
                        1266 	.align	2
                        1267 ..gh.f.f.1.e.117:
                        1268 	.type	..gh.f.f.1.e.117,@object
                        1269 	.size	..gh.f.f.1.e.117,0
                        1270 	.global	_R_FDL_FCUFct_SetFrequency
                        1271 _R_FDL_FCUFct_SetFrequency:
0000026e 8007e1f1       1272 	prepare	{r23,r24,r25,r26,r27,r28,r29,r31},0
                        1273 --	    .bf
                        1274 .LDW55:
00000272 840709f00000*  1275 	ld.w	sdaoff23(_g_fdl_str)[gp],ep
00000278 00ca           1276 	mov	0,r25
0000027a 260618020100   1277 	mov	66072,r6
00000280 70e0           1278 	sld.hu	0[ep],r28
                        1279 	jarl	_R_FDL_IFct_GetFWParam,lp
                        1279 <EXPANSION BEGIN>
                        1279 jarl22 _R_FDL_IFct_GetFWParam , lp 
00000282 bfffb2ff*      1279 <EXPANSION END>
                        1280 --line564
                        1281 ..lin.C.3A.5C_ECU2.5CECU_Rivian_A1.5CTarget.5Crepo_projects.5CpFOTA.5CcL_R2023.2E09.2E01.5Cmake.5Cobj.5Cr_fdl_hw_access.80::
                        1282 .LDWlin80:
00000286 8852           1283 	shr	8,r10
00000288 0ae8           1284 	mov	r10,r29
0000028a 9d00           1285 	zxb	r29
0000028c 1d0601ff       1286 	addi	-255,r29,zero
00000290 b275*          1287 	be	.L1176
                        1288 --line567
                        1289 ..lin.C.3A.5C_ECU2.5CECU_Rivian_A1.5CTarget.5Crepo_projects.5CpFOTA.5CcL_R2023.2E09.2E01.5Cmake.5Cobj.5Cr_fdl_hw_access.81::
                        1290 .LDWlin81:
00000292 260638020100   1291 	mov	66104,r6
                        1292 	jarl	_R_FDL_IFct_GetFWParam,lp

                                                                      Page 23
                                                              C:\Users\nhuliyap\AppData\Local\Temp\gh_00005nc1.s
                        1292 <EXPANSION BEGIN>
                        1292 jarl22 _R_FDL_IFct_GetFWParam , lp 
00000298 bfff9cff*      1292 <EXPANSION END>
                        1293 --line568
                        1294 ..lin.C.3A.5C_ECU2.5CECU_Rivian_A1.5CTarget.5Crepo_projects.5CpFOTA.5CcL_R2023.2E09.2E01.5Cmake.5Cobj.5Cr_fdl_hw_access.82::
                        1295 .LDWlin82:
0000029c 3a0683de1b43   1296 	mov	1125899907,r26
000002a2 1a40           1297 	mov	r26,r8
000002a4 ea47224a       1298 	mulu	r10,r8,r9
000002a8 260634020100   1299 	mov	66100,r6
000002ae 09d8           1300 	mov	r9,r27
000002b0 92da           1301 	shr	18,r27
                        1302 	jarl	_R_FDL_IFct_GetFWParam,lp
                        1302 <EXPANSION BEGIN>
                        1302 jarl22 _R_FDL_IFct_GetFWParam , lp 
000002b2 bfff82ff*      1302 <EXPANSION END>
                        1303 --line570
                        1304 ..lin.C.3A.5C_ECU2.5CECU_Rivian_A1.5CTarget.5Crepo_projects.5CpFOTA.5CcL_R2023.2E09.2E01.5Cmake.5Cobj.5Cr_fdl_hw_access.83::
                        1305 .LDWlin83:
000002b6 ead7223a       1306 	mulu	r10,r26,r7
000002ba 380683de1b43   1307 	mov	1125899907,r24
000002c0 07d0           1308 	mov	r7,r26
000002c2 92d2           1309 	shr	18,r26
000002c4 64ea           1310 	cmp	4,r29
000002c6 f925*          1311 	bnl	.L1178
                        1312 --line574
                        1313 ..lin.C.3A.5C_ECU2.5CECU_Rivian_A1.5CTarget.5Crepo_projects.5CpFOTA.5CcL_R2023.2E09.2E01.5Cmake.5Cobj.5Cr_fdl_hw_access.84::
                        1314 .LDWlin84:
000002c8 260664020100   1315 	mov	66148,r6
                        1316 	jarl	_R_FDL_IFct_GetFWParam,lp
                        1316 <EXPANSION BEGIN>
                        1316 jarl22 _R_FDL_IFct_GetFWParam , lp 
000002ce bfff66ff*      1316 <EXPANSION END>
                        1317 --line575
                        1318 ..lin.C.3A.5C_ECU2.5CECU_Rivian_A1.5CTarget.5Crepo_projects.5CpFOTA.5CcL_R2023.2E09.2E01.5Cmake.5Cobj.5Cr_fdl_hw_access.85::
                        1319 .LDWlin85:
000002d2 0ae8           1320 	mov	r10,r29
000002d4 260674020100   1321 	mov	66164,r6
                        1322 	jarl	_R_FDL_IFct_GetFWParam,lp
                        1322 <EXPANSION BEGIN>
                        1322 jarl22 _R_FDL_IFct_GetFWParam , lp 
000002da bfff5aff*      1322 <EXPANSION END>
                        1323 --line578
                        1324 ..lin.C.3A.5C_ECU2.5CECU_Rivian_A1.5CTarget.5Crepo_projects.5CpFOTA.5CcL_R2023.2E09.2E01.5Cmake.5Cobj.5Cr_fdl_hw_access.86::
                        1325 .LDWlin86:
000002de eac722ba       1326 	mulu	r10,r24,r23
000002e2 260670020100   1327 	mov	66160,r6
                        1328 	jarl	_R_FDL_IFct_GetFWParam,lp
                        1328 <EXPANSION BEGIN>
                        1328 jarl22 _R_FDL_IFct_GetFWParam , lp 
000002e8 bfff4cff*      1328 <EXPANSION END>
                        1329 --line581
                        1330 ..lin.C.3A.5C_ECU2.5CECU_Rivian_A1.5CTarget.5Crepo_projects.5CpFOTA.5CcL_R2023.2E09.2E01.5Cmake.5Cobj.5Cr_fdl_hw_access.87::
                        1331 .LDWlin87:
000002ec 0a36d400       1332 	addi	212,r10,r6
                        1333 	jarl	_R_FDL_IFct_ReadMemoryU32,lp
                        1333 <EXPANSION BEGIN>
                        1333 jarl22 _R_FDL_IFct_ReadMemoryU32 , lp 
000002f0 bfff10fd*      1333 <EXPANSION END>
                        1334 --line583
                        1335 ..lin.C.3A.5C_ECU2.5CECU_Rivian_A1.5CTarget.5Crepo_projects.5CpFOTA.5CcL_R2023.2E09.2E01.5Cmake.5Cobj.5Cr_fdl_hw_access.88::

                                                                      Page 24
                                                              C:\Users\nhuliyap\AppData\Local\Temp\gh_00005nc1.s
                        1336 .LDWlin88:
000002f4 3306002cc6ff   1337 	mov	-3789824,r19
000002fa 3106ffffff00   1338 	mov	16777215,r17
00000300 13960034       1339 	addi	13312,r19,r18
00000304 5151           1340 	and	r17,r10
00000306 300630313000   1341 	mov	3158320,r16
0000030c f051           1342 	cmp	r16,r10
0000030e f3973453       1343 	cmovne	r19,r18,r10
00000312 c515*          1344 	br	.L1183
                        1345 .L1178:
                        1346 --line594
                        1347 ..lin.C.3A.5C_ECU2.5CECU_Rivian_A1.5CTarget.5Crepo_projects.5CpFOTA.5CcL_R2023.2E09.2E01.5Cmake.5Cobj.5Cr_fdl_hw_access.89::
                        1348 .LDWlin89:
00000314 260665020100   1349 	mov	66149,r6
                        1350 	jarl	_R_FDL_IFct_GetFWParam,lp
                        1350 <EXPANSION BEGIN>
                        1350 jarl22 _R_FDL_IFct_GetFWParam , lp 
0000031a bfff1aff*      1350 <EXPANSION END>
                        1351 --line595
                        1352 ..lin.C.3A.5C_ECU2.5CECU_Rivian_A1.5CTarget.5Crepo_projects.5CpFOTA.5CcL_R2023.2E09.2E01.5Cmake.5Cobj.5Cr_fdl_hw_access.90::
                        1353 .LDWlin90:
0000031e 0ae8           1354 	mov	r10,r29
00000320 260678020100   1355 	mov	66168,r6
                        1356 	jarl	_R_FDL_IFct_GetFWParam,lp
                        1356 <EXPANSION BEGIN>
                        1356 jarl22 _R_FDL_IFct_GetFWParam , lp 
00000326 bfff0eff*      1356 <EXPANSION END>
                        1357 --line598
                        1358 ..lin.C.3A.5C_ECU2.5CECU_Rivian_A1.5CTarget.5Crepo_projects.5CpFOTA.5CcL_R2023.2E09.2E01.5Cmake.5Cobj.5Cr_fdl_hw_access.91::
                        1359 .LDWlin91:
0000032a eac7227a       1360 	mulu	r10,r24,r15
0000032e 260688020100   1361 	mov	66184,r6
00000334 0fb8           1362 	mov	r15,r23
                        1363 	jarl	_R_FDL_IFct_GetFWParam,lp
                        1363 <EXPANSION BEGIN>
                        1363 jarl22 _R_FDL_IFct_GetFWParam , lp 
00000336 bffffefe*      1363 <EXPANSION END>
                        1364 .L1183:
0000033a 1790           1365 	mov	r23,r18
0000033c 9292           1366 	shr	18,r18
0000033e 9d00           1367 	zxb	r29
                        1368 --line603
                        1369 ..lin.C.3A.5C_ECU2.5CECU_Rivian_A1.5CTarget.5Crepo_projects.5CpFOTA.5CcL_R2023.2E09.2E01.5Cmake.5Cobj.5Cr_fdl_hw_access.92::
                        1370 .LDWlin92:
00000340 84070f500000*  1371 	st.w	r10,sdaoff23(_g_fdl_str+56)[gp]
00000346 fbe1           1372 	cmp	r27,r28
00000348 e115*          1373 	bl	.L1184
0000034a fae1           1374 	cmp	r26,r28
0000034c cb15*          1375 	bh	.L1184
                        1376 --line605
                        1377 ..lin.C.3A.5C_ECU2.5CECU_Rivian_A1.5CTarget.5Crepo_projects.5CpFOTA.5CcL_R2023.2E09.2E01.5Cmake.5Cobj.5Cr_fdl_hw_access.93::
                        1378 .LDWlin93:
0000034e 1d0601ff       1379 	addi	-255,r29,zero
00000352 820d*          1380 	be	.L1189
                        1381 --line611
                        1382 ..lin.C.3A.5C_ECU2.5CECU_Rivian_A1.5CTarget.5Crepo_projects.5CpFOTA.5CcL_R2023.2E09.2E01.5Cmake.5Cobj.5Cr_fdl_hw_access.94::
                        1383 .LDWlin94:
00000354 1d88           1384 	mov	r29,r17
00000356 dc89           1385 	add	r28,r17
00000358 1196ffff       1386 	addi	-1,r17,r18
0000035c d200           1387 	zxh	r18

                                                                      Page 25
                                                              C:\Users\nhuliyap\AppData\Local\Temp\gh_00005nc1.s
0000035e fd97fc02       1388 	divq	r29,r18,zero
                        1389 .L1189:
00000362 123e001e       1390 	addi	7680,r18,r7
00000366 c700           1391 	zxh	r7
00000368 2606e400a1ff   1392 	mov	-6225692,r6
                        1393 	jarl	_R_FDL_IFct_WriteMemoryU16,lp
                        1393 <EXPANSION BEGIN>
                        1393 jarl22 _R_FDL_IFct_WriteMemoryU16 , lp 
0000036e bfffaafc*      1393 <EXPANSION END>
00000372 a505*          1394 	br	.L1176
                        1395 .L1184:
                        1396 --line619
                        1397 ..lin.C.3A.5C_ECU2.5CECU_Rivian_A1.5CTarget.5Crepo_projects.5CpFOTA.5CcL_R2023.2E09.2E01.5Cmake.5Cobj.5Cr_fdl_hw_access.95::
                        1398 .LDWlin95:
00000374 03ca           1399 	mov	3,r25
                        1400 .L1176:
00000376 1950           1401 	mov	r25,r10
                        1402 --	    .ef
                        1403 .LDW65:
00000378 4006fff1       1404 	dispose	0,{r23,r24,r25,r26,r27,r28,r29,r31},[lp]
                        1405 	.type	_R_FDL_FCUFct_SetFrequency,@function
                        1406 	.size	_R_FDL_FCUFct_SetFrequency,.-_R_FDL_FCUFct_SetFrequency
                        1407 	.align	2
                        1408 .LDW75:
                        1409 --_ret	r25	local
                        1410 --_fCpu	r28	local
                        1411 --_fFaci	r18	local
                        1412 --_fwVer	r29	local
                        1413 --_fDivider	r29	local
                        1414 --_fMin	r27	local
                        1415 --_fMax	r26	local
                        1416 --_fPClk	r18	local
                        1417 
                        1418 	.section ".bss","awb"
                        1419 .L1292:
                        1420 	.type	.L1292,@object
                        1421 	.size	.L1292,0
                        1422 	.data
                        1423 	.text
                        1424 	.align	2
                        1425 	.align	2
                        1426 ..gh.f.f.1.e.118:
                        1427 	.type	..gh.f.f.1.e.118,@object
                        1428 	.size	..gh.f.f.1.e.118,0
                        1429 	.global	_R_FDL_FCUFct_VerifyChecksum
                        1430 _R_FDL_FCUFct_VerifyChecksum:
0000037c 8007e110       1431 	prepare	{r27,r28,r29,r31},0
                        1432 --	    .bf
                        1433 .LDW85:
00000380 26065400a1ff   1434 	mov	-6225836,r6
00000386 803e01c4       1435 	ori	50177,zero,r7
                        1436 	jarl	_R_FDL_IFct_WriteMemoryU16,lp
                        1436 <EXPANSION BEGIN>
                        1436 jarl22 _R_FDL_IFct_WriteMemoryU16 , lp 
0000038a bfff8efc*      1436 <EXPANSION END>
                        1437 --line638
                        1438 ..lin.C.3A.5C_ECU2.5CECU_Rivian_A1.5CTarget.5Crepo_projects.5CpFOTA.5CcL_R2023.2E09.2E01.5Cmake.5Cobj.5Cr_fdl_hw_access.96::
                        1439 .LDWlin96:
0000038e 840709e00000*  1440 	ld.w	sdaoff23(_g_fdl_str+60)[gp],r28
00000394 06eeac1f       1441 	addi	8108,r6,r29
00000398 00da           1442 	mov	0,r27

                                                                      Page 26
                                                              C:\Users\nhuliyap\AppData\Local\Temp\gh_00005nc1.s
0000039a c2e2           1443 	shl	2,r28
0000039c dde1           1444 	add	r29,r28
0000039e e505*          1445 	br	.L1411
                        1446 .L1410:
                        1447 --line643
                        1448 ..lin.C.3A.5C_ECU2.5CECU_Rivian_A1.5CTarget.5Crepo_projects.5CpFOTA.5CcL_R2023.2E09.2E01.5Cmake.5Cobj.5Cr_fdl_hw_access.97::
                        1449 .LDWlin97:
000003a0 1d30           1450 	mov	r29,r6
                        1451 	jarl	_R_FDL_IFct_ReadMemoryU16,lp
                        1451 <EXPANSION BEGIN>
                        1451 jarl22 _R_FDL_IFct_ReadMemoryU16 , lp 
000003a2 bfff6afc*      1451 <EXPANSION END>
000003a6 cad9           1452 	add	r10,r27
                        1453 --line642
                        1454 ..lin.C.3A.5C_ECU2.5CECU_Rivian_A1.5CTarget.5Crepo_projects.5CpFOTA.5CcL_R2023.2E09.2E01.5Cmake.5Cobj.5Cr_fdl_hw_access.98::
                        1455 .LDWlin98:
000003a8 42ea           1456 	add	2,r29
                        1457 .L1411:
000003aa fce9           1458 	cmp	r28,r29
000003ac a1fd*          1459 	bl	.L1410
                        1460 --line657
                        1461 ..lin.C.3A.5C_ECU2.5CECU_Rivian_A1.5CTarget.5Crepo_projects.5CpFOTA.5CcL_R2023.2E09.2E01.5Cmake.5Cobj.5Cr_fdl_hw_access.99::
                        1462 .LDWlin99:
000003ae 840709400000*  1463 	ld.w	sdaoff23(_g_fdl_str+64)[gp],r8
000003b4 014a           1464 	mov	1,r9
000003b6 26065400a1ff   1465 	mov	-6225836,r6
000003bc e8d9           1466 	cmp	r8,r27
000003be ed4f1453       1467 	cmovne	13,r9,r10
000003c2 5f3a           1468 	add	-1,r7
                        1469 	jarl	_R_FDL_IFct_WriteMemoryU16,lp
                        1469 <EXPANSION BEGIN>
                        1469 jarl22 _R_FDL_IFct_WriteMemoryU16 , lp 
000003c4 bfff54fc*      1469 <EXPANSION END>
                        1470 --	    .ef
                        1471 .LDW95:
                        1472 --line667
                        1473 ..lin.C.3A.5C_ECU2.5CECU_Rivian_A1.5CTarget.5Crepo_projects.5CpFOTA.5CcL_R2023.2E09.2E01.5Cmake.5Cobj.5Cr_fdl_hw_access.100::
                        1474 .LDWlin100:
000003c8 4006ff10       1475 	dispose	0,{r27,r28,r29,r31},[lp]
                        1476 	.type	_R_FDL_FCUFct_VerifyChecksum,@function
                        1477 	.size	_R_FDL_FCUFct_VerifyChecksum,.-_R_FDL_FCUFct_VerifyChecksum
                        1478 	.align	2
                        1479 .LDW06:
                        1480 --_ret	r29	local
                        1481 --_add	r29	local
                        1482 --_addEnd	r28	local
                        1483 --_chkSum	r27	local
                        1484 
                        1485 	.section ".bss","awb"
                        1486 .L1474:
                        1487 	.type	.L1474,@object
                        1488 	.size	.L1474,0
                        1489 	.data
                        1490 	.text
                        1491 	.align	2
                        1492 	.align	2
                        1493 ..gh.f.f.1.e.119:
                        1494 	.type	..gh.f.f.1.e.119,@object
                        1495 	.size	..gh.f.f.1.e.119,0
                        1496 	.global	_R_FDL_FCUFct_InitRAM_Asm..C.3A.5C_ECU2.5CECU_Rivian_A1.5CTarget.5Crepo_projects.5CpFOTA.5CcL_R2023.2E09.2E01.5Cmake.5Cobj.5Cr_fdl_hw_access.
                        1497 _R_FDL_FCUFct_InitRAM_Asm..C.3A.5C_ECU2.5CECU_Rivian_A1.5CTarget.5Crepo_projects.5CpFOTA.5CcL_R2023.2E09.2E01.5Cmake.5Cobj.5Cr_fdl_hw_access.:

                                                                      Page 27
                                                              C:\Users\nhuliyap\AppData\Local\Temp\gh_00005nc1.s
                        1498 _R_FDL_FCUFct_InitRAM_Asm:
                        1499 --	    .bf
                        1500 .LDW16:
                        1501 ..gh.beginasm.120:
                        1502 	.type	..gh.beginasm.120,@object
                        1503 	.size	..gh.beginasm.120,0
000003cc 20460100       1504  movea 0x01, r0, r8                   
                        1505 
                        1506 ..gh.endasm.121:
                        1507 	.type	..gh.endasm.121,@object
                        1508 	.size	..gh.endasm.121,0
                        1509 --line709
                        1510 ..lin.C.3A.5C_ECU2.5CECU_Rivian_A1.5CTarget.5Crepo_projects.5CpFOTA.5CcL_R2023.2E09.2E01.5Cmake.5Cobj.5Cr_fdl_hw_access.101::
                        1511 .LDWlin101:
                        1512 ..gh.beginasm.122:
                        1513 	.type	..gh.beginasm.122,@object
                        1514 	.size	..gh.beginasm.122,0
000003d0 c51d*          1515  br _R_FDL_FCUFct_InitRAM_Asm_SWBFA   
                        1516 
                        1517 ..gh.endasm.123:
                        1518 	.type	..gh.endasm.123,@object
                        1519 	.size	..gh.endasm.123,0
                        1520 --line711
                        1521 ..lin.C.3A.5C_ECU2.5CECU_Rivian_A1.5CTarget.5Crepo_projects.5CpFOTA.5CcL_R2023.2E09.2E01.5Cmake.5Cobj.5Cr_fdl_hw_access.102::
                        1522 .LDWlin102:
                        1523 ..gh.beginasm.124:
                        1524 	.type	..gh.beginasm.124,@object
                        1525 	.size	..gh.beginasm.124,0
                        1526  _R_FDL_FCUFct_InitRAM_Asm_Copy:      
                        1527 
                        1528 ..gh.endasm.125:
                        1529 	.type	..gh.endasm.125,@object
                        1530 	.size	..gh.endasm.125,0
                        1531 --line713
                        1532 ..lin.C.3A.5C_ECU2.5CECU_Rivian_A1.5CTarget.5Crepo_projects.5CpFOTA.5CcL_R2023.2E09.2E01.5Cmake.5Cobj.5Cr_fdl_hw_access.103::
                        1533 .LDWlin103:
                        1534 ..gh.beginasm.126:
                        1535 	.type	..gh.beginasm.126,@object
                        1536 	.size	..gh.beginasm.126,0
000003d2 263f0100       1537  ld.w 0[r6], r7                       
                        1538 
                        1539 ..gh.endasm.127:
                        1540 	.type	..gh.endasm.127,@object
                        1541 	.size	..gh.endasm.127,0
                        1542 --line714
                        1543 ..lin.C.3A.5C_ECU2.5CECU_Rivian_A1.5CTarget.5Crepo_projects.5CpFOTA.5CcL_R2023.2E09.2E01.5Cmake.5Cobj.5Cr_fdl_hw_access.104::
                        1544 .LDWlin104:
                        1545 ..gh.beginasm.128:
                        1546 	.type	..gh.beginasm.128,@object
                        1547 	.size	..gh.beginasm.128,0
000003d6 26470500       1548  ld.w 4[r6], r8                       
                        1549 
                        1550 ..gh.endasm.129:
                        1551 	.type	..gh.endasm.129,@object
                        1552 	.size	..gh.endasm.129,0
                        1553 --line715
                        1554 ..lin.C.3A.5C_ECU2.5CECU_Rivian_A1.5CTarget.5Crepo_projects.5CpFOTA.5CcL_R2023.2E09.2E01.5Cmake.5Cobj.5Cr_fdl_hw_access.105::
                        1555 .LDWlin105:
                        1556 ..gh.beginasm.130:
                        1557 	.type	..gh.beginasm.130,@object
                        1558 	.size	..gh.beginasm.130,0

                                                                      Page 28
                                                              C:\Users\nhuliyap\AppData\Local\Temp\gh_00005nc1.s
000003da 264f0900       1559  ld.w 8[r6], r9                       
                        1560 
                        1561 ..gh.endasm.131:
                        1562 	.type	..gh.endasm.131,@object
                        1563 	.size	..gh.endasm.131,0
                        1564 --line717
                        1565 ..lin.C.3A.5C_ECU2.5CECU_Rivian_A1.5CTarget.5Crepo_projects.5CpFOTA.5CcL_R2023.2E09.2E01.5Cmake.5Cobj.5Cr_fdl_hw_access.106::
                        1566 .LDWlin106:
                        1567 ..gh.beginasm.132:
                        1568 	.type	..gh.beginasm.132,@object
                        1569 	.size	..gh.beginasm.132,0
                        1570  _R_FDL_FCUFct_InitRAM_Asm_Loop:      
                        1571 
                        1572 ..gh.endasm.133:
                        1573 	.type	..gh.endasm.133,@object
                        1574 	.size	..gh.endasm.133,0
                        1575 --line718
                        1576 ..lin.C.3A.5C_ECU2.5CECU_Rivian_A1.5CTarget.5Crepo_projects.5CpFOTA.5CcL_R2023.2E09.2E01.5Cmake.5Cobj.5Cr_fdl_hw_access.107::
                        1577 .LDWlin107:
                        1578 ..gh.beginasm.134:
                        1579 	.type	..gh.beginasm.134,@object
                        1580 	.size	..gh.beginasm.134,0
000003de 27570100       1581  ld.w 0[r7], r10                      
                        1582 
                        1583 ..gh.endasm.135:
                        1584 	.type	..gh.endasm.135,@object
                        1585 	.size	..gh.endasm.135,0
                        1586 --line719
                        1587 ..lin.C.3A.5C_ECU2.5CECU_Rivian_A1.5CTarget.5Crepo_projects.5CpFOTA.5CcL_R2023.2E09.2E01.5Cmake.5Cobj.5Cr_fdl_hw_access.108::
                        1588 .LDWlin108:
                        1589 ..gh.beginasm.136:
                        1590 	.type	..gh.beginasm.136,@object
                        1591 	.size	..gh.beginasm.136,0
000003e2 68570100       1592  st.w r10, 0[r8]                      
                        1593 
                        1594 ..gh.endasm.137:
                        1595 	.type	..gh.endasm.137,@object
                        1596 	.size	..gh.endasm.137,0
                        1597 --line720
                        1598 ..lin.C.3A.5C_ECU2.5CECU_Rivian_A1.5CTarget.5Crepo_projects.5CpFOTA.5CcL_R2023.2E09.2E01.5Cmake.5Cobj.5Cr_fdl_hw_access.109::
                        1599 .LDWlin109:
                        1600 ..gh.beginasm.138:
                        1601 	.type	..gh.beginasm.138,@object
                        1602 	.size	..gh.beginasm.138,0
000003e6 443a           1603  add 4, r7                            
                        1604 
                        1605 ..gh.endasm.139:
                        1606 	.type	..gh.endasm.139,@object
                        1607 	.size	..gh.endasm.139,0
                        1608 --line721
                        1609 ..lin.C.3A.5C_ECU2.5CECU_Rivian_A1.5CTarget.5Crepo_projects.5CpFOTA.5CcL_R2023.2E09.2E01.5Cmake.5Cobj.5Cr_fdl_hw_access.110::
                        1610 .LDWlin110:
                        1611 ..gh.beginasm.140:
                        1612 	.type	..gh.beginasm.140,@object
                        1613 	.size	..gh.beginasm.140,0
000003e8 4442           1614  add 4, r8                            
                        1615 
                        1616 ..gh.endasm.141:
                        1617 	.type	..gh.endasm.141,@object
                        1618 	.size	..gh.endasm.141,0
                        1619 --line722

                                                                      Page 29
                                                              C:\Users\nhuliyap\AppData\Local\Temp\gh_00005nc1.s
                        1620 ..lin.C.3A.5C_ECU2.5CECU_Rivian_A1.5CTarget.5Crepo_projects.5CpFOTA.5CcL_R2023.2E09.2E01.5Cmake.5Cobj.5Cr_fdl_hw_access.111::
                        1621 .LDWlin111:
                        1622 ..gh.beginasm.142:
                        1623 	.type	..gh.beginasm.142,@object
                        1624 	.size	..gh.beginasm.142,0
000003ea 5c4a           1625  add -4, r9                           
                        1626 
                        1627 ..gh.endasm.143:
                        1628 	.type	..gh.endasm.143,@object
                        1629 	.size	..gh.endasm.143,0
                        1630 --line723
                        1631 ..lin.C.3A.5C_ECU2.5CECU_Rivian_A1.5CTarget.5Crepo_projects.5CpFOTA.5CcL_R2023.2E09.2E01.5Cmake.5Cobj.5Cr_fdl_hw_access.112::
                        1632 .LDWlin112:
                        1633 ..gh.beginasm.144:
                        1634 	.type	..gh.beginasm.144,@object
                        1635 	.size	..gh.beginasm.144,0
000003ec 9afd*          1636  bnz _R_FDL_FCUFct_InitRAM_Asm_Loop   
                        1637 
                        1638 ..gh.endasm.145:
                        1639 	.type	..gh.endasm.145,@object
                        1640 	.size	..gh.endasm.145,0
                        1641 --line725
                        1642 ..lin.C.3A.5C_ECU2.5CECU_Rivian_A1.5CTarget.5Crepo_projects.5CpFOTA.5CcL_R2023.2E09.2E01.5Cmake.5Cobj.5Cr_fdl_hw_access.113::
                        1643 .LDWlin113:
                        1644 ..gh.beginasm.146:
                        1645 	.type	..gh.beginasm.146,@object
                        1646 	.size	..gh.beginasm.146,0
000003ee 263f0d00       1647  ld.w 12[r6], r7                      
                        1648 
                        1649 ..gh.endasm.147:
                        1650 	.type	..gh.endasm.147,@object
                        1651 	.size	..gh.endasm.147,0
                        1652 --line726
                        1653 ..lin.C.3A.5C_ECU2.5CECU_Rivian_A1.5CTarget.5Crepo_projects.5CpFOTA.5CcL_R2023.2E09.2E01.5Cmake.5Cobj.5Cr_fdl_hw_access.114::
                        1654 .LDWlin114:
                        1655 ..gh.beginasm.148:
                        1656 	.type	..gh.beginasm.148,@object
                        1657 	.size	..gh.beginasm.148,0
000003f2 27570100       1658  ld.w 0[r7], r10                      
                        1659 
                        1660 ..gh.endasm.149:
                        1661 	.type	..gh.endasm.149,@object
                        1662 	.size	..gh.endasm.149,0
                        1663 --line727
                        1664 ..lin.C.3A.5C_ECU2.5CECU_Rivian_A1.5CTarget.5Crepo_projects.5CpFOTA.5CcL_R2023.2E09.2E01.5Cmake.5Cobj.5Cr_fdl_hw_access.115::
                        1665 .LDWlin115:
                        1666 ..gh.beginasm.150:
                        1667 	.type	..gh.beginasm.150,@object
                        1668 	.size	..gh.beginasm.150,0
000003f6 66570100       1669  st.w r10, 0[r6]                      
                        1670 
                        1671 ..gh.endasm.151:
                        1672 	.type	..gh.endasm.151,@object
                        1673 	.size	..gh.endasm.151,0
                        1674 --line728
                        1675 ..lin.C.3A.5C_ECU2.5CECU_Rivian_A1.5CTarget.5Crepo_projects.5CpFOTA.5CcL_R2023.2E09.2E01.5Cmake.5Cobj.5Cr_fdl_hw_access.116::
                        1676 .LDWlin116:
                        1677 ..gh.beginasm.152:
                        1678 	.type	..gh.beginasm.152,@object
                        1679 	.size	..gh.beginasm.152,0
000003fa 263f1100       1680  ld.w 16[r6], r7                      

                                                                      Page 30
                                                              C:\Users\nhuliyap\AppData\Local\Temp\gh_00005nc1.s
                        1681 
                        1682 ..gh.endasm.153:
                        1683 	.type	..gh.endasm.153,@object
                        1684 	.size	..gh.endasm.153,0
                        1685 --line729
                        1686 ..lin.C.3A.5C_ECU2.5CECU_Rivian_A1.5CTarget.5Crepo_projects.5CpFOTA.5CcL_R2023.2E09.2E01.5Cmake.5Cobj.5Cr_fdl_hw_access.117::
                        1687 .LDWlin117:
                        1688 ..gh.beginasm.154:
                        1689 	.type	..gh.beginasm.154,@object
                        1690 	.size	..gh.beginasm.154,0
000003fe 27570100       1691  ld.w 0[r7], r10                      
                        1692 
                        1693 ..gh.endasm.155:
                        1694 	.type	..gh.endasm.155,@object
                        1695 	.size	..gh.endasm.155,0
                        1696 --line730
                        1697 ..lin.C.3A.5C_ECU2.5CECU_Rivian_A1.5CTarget.5Crepo_projects.5CpFOTA.5CcL_R2023.2E09.2E01.5Cmake.5Cobj.5Cr_fdl_hw_access.118::
                        1698 .LDWlin118:
                        1699 ..gh.beginasm.156:
                        1700 	.type	..gh.beginasm.156,@object
                        1701 	.size	..gh.beginasm.156,0
00000402 66570500       1702  st.w r10, 4[r6]                      
                        1703 
                        1704 ..gh.endasm.157:
                        1705 	.type	..gh.endasm.157,@object
                        1706 	.size	..gh.endasm.157,0
                        1707 --line732
                        1708 ..lin.C.3A.5C_ECU2.5CECU_Rivian_A1.5CTarget.5Crepo_projects.5CpFOTA.5CcL_R2023.2E09.2E01.5Cmake.5Cobj.5Cr_fdl_hw_access.119::
                        1709 .LDWlin119:
                        1710 ..gh.beginasm.158:
                        1711 	.type	..gh.beginasm.158,@object
                        1712 	.size	..gh.beginasm.158,0
00000406 0040           1713  mov r0, r8                           
                        1714 
                        1715 ..gh.endasm.159:
                        1716 	.type	..gh.endasm.159,@object
                        1717 	.size	..gh.endasm.159,0
                        1718 --line734
                        1719 ..lin.C.3A.5C_ECU2.5CECU_Rivian_A1.5CTarget.5Crepo_projects.5CpFOTA.5CcL_R2023.2E09.2E01.5Cmake.5Cobj.5Cr_fdl_hw_access.120::
                        1720 .LDWlin120:
                        1721 ..gh.beginasm.160:
                        1722 	.type	..gh.beginasm.160,@object
                        1723 	.size	..gh.beginasm.160,0
                        1724  _R_FDL_FCUFct_InitRAM_Asm_SWBFA:     
                        1725 
                        1726 ..gh.endasm.161:
                        1727 	.type	..gh.endasm.161,@object
                        1728 	.size	..gh.endasm.161,0
                        1729 --line736
                        1730 ..lin.C.3A.5C_ECU2.5CECU_Rivian_A1.5CTarget.5Crepo_projects.5CpFOTA.5CcL_R2023.2E09.2E01.5Cmake.5Cobj.5Cr_fdl_hw_access.121::
                        1731 .LDWlin121:
                        1732 ..gh.beginasm.162:
                        1733 	.type	..gh.beginasm.162,@object
                        1734 	.size	..gh.beginasm.162,0
00000408 27060890c5ff   1735  mov 0xffc59008, r7                   
                        1736 
                        1737 ..gh.endasm.163:
                        1738 	.type	..gh.endasm.163,@object
                        1739 	.size	..gh.endasm.163,0
                        1740 --line737
                        1741 ..lin.C.3A.5C_ECU2.5CECU_Rivian_A1.5CTarget.5Crepo_projects.5CpFOTA.5CcL_R2023.2E09.2E01.5Cmake.5Cobj.5Cr_fdl_hw_access.122::

                                                                      Page 31
                                                              C:\Users\nhuliyap\AppData\Local\Temp\gh_00005nc1.s
                        1742 .LDWlin122:
                        1743 ..gh.beginasm.164:
                        1744 	.type	..gh.beginasm.164,@object
                        1745 	.size	..gh.beginasm.164,0
0000040e 47470000       1746  st.b r8, 0[r7]                       
                        1747 
                        1748 ..gh.endasm.165:
                        1749 	.type	..gh.endasm.165,@object
                        1750 	.size	..gh.endasm.165,0
                        1751 --line738
                        1752 ..lin.C.3A.5C_ECU2.5CECU_Rivian_A1.5CTarget.5Crepo_projects.5CpFOTA.5CcL_R2023.2E09.2E01.5Cmake.5Cobj.5Cr_fdl_hw_access.123::
                        1753 .LDWlin123:
                        1754 ..gh.beginasm.166:
                        1755 	.type	..gh.beginasm.166,@object
                        1756 	.size	..gh.beginasm.166,0
00000412 073f0000       1757  ld.b 0[r7], r7                       
                        1758 
                        1759 ..gh.endasm.167:
                        1760 	.type	..gh.endasm.167,@object
                        1761 	.size	..gh.endasm.167,0
                        1762 --line739
                        1763 ..lin.C.3A.5C_ECU2.5CECU_Rivian_A1.5CTarget.5Crepo_projects.5CpFOTA.5CcL_R2023.2E09.2E01.5Cmake.5Cobj.5Cr_fdl_hw_access.124::
                        1764 .LDWlin124:
                        1765 ..gh.beginasm.168:
                        1766 	.type	..gh.beginasm.168,@object
                        1767 	.size	..gh.beginasm.168,0
00000416 1c00           1768  synci                                
                        1769 
                        1770 ..gh.endasm.169:
                        1771 	.type	..gh.endasm.169,@object
                        1772 	.size	..gh.endasm.169,0
                        1773 --line741
                        1774 ..lin.C.3A.5C_ECU2.5CECU_Rivian_A1.5CTarget.5Crepo_projects.5CpFOTA.5CcL_R2023.2E09.2E01.5Cmake.5Cobj.5Cr_fdl_hw_access.125::
                        1775 .LDWlin125:
                        1776 ..gh.beginasm.170:
                        1777 	.type	..gh.beginasm.170,@object
                        1778 	.size	..gh.beginasm.170,0
00000418 f83f4020       1779  stsr 24, r7, 4                       
                        1780 
                        1781 ..gh.endasm.171:
                        1782 	.type	..gh.endasm.171,@object
                        1783 	.size	..gh.endasm.171,0
                        1784 --line742
                        1785 ..lin.C.3A.5C_ECU2.5CECU_Rivian_A1.5CTarget.5Crepo_projects.5CpFOTA.5CcL_R2023.2E09.2E01.5Cmake.5Cobj.5Cr_fdl_hw_access.126::
                        1786 .LDWlin126:
                        1787 ..gh.beginasm.172:
                        1788 	.type	..gh.beginasm.172,@object
                        1789 	.size	..gh.beginasm.172,0
0000041c 873e0001       1790  ori 0x0100, r7, r7                   
                        1791 
                        1792 ..gh.endasm.173:
                        1793 	.type	..gh.endasm.173,@object
                        1794 	.size	..gh.endasm.173,0
                        1795 --line743
                        1796 ..lin.C.3A.5C_ECU2.5CECU_Rivian_A1.5CTarget.5Crepo_projects.5CpFOTA.5CcL_R2023.2E09.2E01.5Cmake.5Cobj.5Cr_fdl_hw_access.127::
                        1797 .LDWlin127:
                        1798 ..gh.beginasm.174:
                        1799 	.type	..gh.beginasm.174,@object
                        1800 	.size	..gh.beginasm.174,0
00000420 e7c72020       1801  ldsr r7, 24, 4                       
                        1802 

                                                                      Page 32
                                                              C:\Users\nhuliyap\AppData\Local\Temp\gh_00005nc1.s
                        1803 ..gh.endasm.175:
                        1804 	.type	..gh.endasm.175,@object
                        1805 	.size	..gh.endasm.175,0
                        1806 --line745
                        1807 ..lin.C.3A.5C_ECU2.5CECU_Rivian_A1.5CTarget.5Crepo_projects.5CpFOTA.5CcL_R2023.2E09.2E01.5Cmake.5Cobj.5Cr_fdl_hw_access.128::
                        1808 .LDWlin128:
                        1809 ..gh.beginasm.176:
                        1810 	.type	..gh.beginasm.176,@object
                        1811 	.size	..gh.beginasm.176,0
                        1812 _R_FDL_FCUFct_InitRAM_Polling:        
                        1813 
                        1814 ..gh.endasm.177:
                        1815 	.type	..gh.endasm.177,@object
                        1816 	.size	..gh.endasm.177,0
                        1817 --line746
                        1818 ..lin.C.3A.5C_ECU2.5CECU_Rivian_A1.5CTarget.5Crepo_projects.5CpFOTA.5CcL_R2023.2E09.2E01.5Cmake.5Cobj.5Cr_fdl_hw_access.129::
                        1819 .LDWlin129:
                        1820 ..gh.beginasm.178:
                        1821 	.type	..gh.beginasm.178,@object
                        1822 	.size	..gh.beginasm.178,0
00000424 f83f4020       1823  stsr 24, r7, 4                       
                        1824 
                        1825 ..gh.endasm.179:
                        1826 	.type	..gh.endasm.179,@object
                        1827 	.size	..gh.endasm.179,0
                        1828 --line747
                        1829 ..lin.C.3A.5C_ECU2.5CECU_Rivian_A1.5CTarget.5Crepo_projects.5CpFOTA.5CcL_R2023.2E09.2E01.5Cmake.5Cobj.5Cr_fdl_hw_access.130::
                        1830 .LDWlin130:
                        1831 ..gh.beginasm.180:
                        1832 	.type	..gh.beginasm.180,@object
                        1833 	.size	..gh.beginasm.180,0
00000428 c73e0001       1834  andi    0x0100, r7, r7               
                        1835 
                        1836 ..gh.endasm.181:
                        1837 	.type	..gh.endasm.181,@object
                        1838 	.size	..gh.endasm.181,0
                        1839 --line748
                        1840 ..lin.C.3A.5C_ECU2.5CECU_Rivian_A1.5CTarget.5Crepo_projects.5CpFOTA.5CcL_R2023.2E09.2E01.5Cmake.5Cobj.5Cr_fdl_hw_access.131::
                        1841 .LDWlin131:
                        1842 ..gh.beginasm.182:
                        1843 	.type	..gh.beginasm.182,@object
                        1844 	.size	..gh.beginasm.182,0
0000042c e039           1845  cmp     r0, r7                       
                        1846 
                        1847 ..gh.endasm.183:
                        1848 	.type	..gh.endasm.183,@object
                        1849 	.size	..gh.endasm.183,0
                        1850 --line749
                        1851 ..lin.C.3A.5C_ECU2.5CECU_Rivian_A1.5CTarget.5Crepo_projects.5CpFOTA.5CcL_R2023.2E09.2E01.5Cmake.5Cobj.5Cr_fdl_hw_access.132::
                        1852 .LDWlin132:
                        1853 ..gh.beginasm.184:
                        1854 	.type	..gh.beginasm.184,@object
                        1855 	.size	..gh.beginasm.184,0
0000042e bafd*          1856  bne _R_FDL_FCUFct_InitRAM_Polling    
                        1857 
                        1858 ..gh.endasm.185:
                        1859 	.type	..gh.endasm.185,@object
                        1860 	.size	..gh.endasm.185,0
                        1861 --line750
                        1862 ..lin.C.3A.5C_ECU2.5CECU_Rivian_A1.5CTarget.5Crepo_projects.5CpFOTA.5CcL_R2023.2E09.2E01.5Cmake.5Cobj.5Cr_fdl_hw_access.133::
                        1863 .LDWlin133:

                                                                      Page 33
                                                              C:\Users\nhuliyap\AppData\Local\Temp\gh_00005nc1.s
                        1864 ..gh.beginasm.186:
                        1865 	.type	..gh.beginasm.186,@object
                        1866 	.size	..gh.beginasm.186,0
00000430 1c00           1867  synci                                
                        1868 
                        1869 ..gh.endasm.187:
                        1870 	.type	..gh.endasm.187,@object
                        1871 	.size	..gh.endasm.187,0
                        1872 --line752
                        1873 ..lin.C.3A.5C_ECU2.5CECU_Rivian_A1.5CTarget.5Crepo_projects.5CpFOTA.5CcL_R2023.2E09.2E01.5Cmake.5Cobj.5Cr_fdl_hw_access.134::
                        1874 .LDWlin134:
                        1875 ..gh.beginasm.188:
                        1876 	.type	..gh.beginasm.188,@object
                        1877 	.size	..gh.beginasm.188,0
00000432 e63f4008       1878  stsr 6, r7, 1                        
                        1879 
                        1880 ..gh.endasm.189:
                        1881 	.type	..gh.endasm.189,@object
                        1882 	.size	..gh.endasm.189,0
                        1883 --line753
                        1884 ..lin.C.3A.5C_ECU2.5CECU_Rivian_A1.5CTarget.5Crepo_projects.5CpFOTA.5CcL_R2023.2E09.2E01.5Cmake.5Cobj.5Cr_fdl_hw_access.135::
                        1885 .LDWlin135:
                        1886 ..gh.beginasm.190:
                        1887 	.type	..gh.beginasm.190,@object
                        1888 	.size	..gh.beginasm.190,0
00000436 c73ee000       1889  andi 0x00E0, r7, r7                  
                        1890 
                        1891 ..gh.endasm.191:
                        1892 	.type	..gh.endasm.191,@object
                        1893 	.size	..gh.endasm.191,0
                        1894 --line754
                        1895 ..lin.C.3A.5C_ECU2.5CECU_Rivian_A1.5CTarget.5Crepo_projects.5CpFOTA.5CcL_R2023.2E09.2E01.5Cmake.5Cobj.5Cr_fdl_hw_access.136::
                        1896 .LDWlin136:
                        1897 ..gh.beginasm.192:
                        1898 	.type	..gh.beginasm.192,@object
                        1899 	.size	..gh.beginasm.192,0
0000043a 204e2000       1900  movea 0x20, r0, r9                   
                        1901 
                        1902 ..gh.endasm.193:
                        1903 	.type	..gh.endasm.193,@object
                        1904 	.size	..gh.endasm.193,0
                        1905 --line755
                        1906 ..lin.C.3A.5C_ECU2.5CECU_Rivian_A1.5CTarget.5Crepo_projects.5CpFOTA.5CcL_R2023.2E09.2E01.5Cmake.5Cobj.5Cr_fdl_hw_access.137::
                        1907 .LDWlin137:
                        1908 ..gh.beginasm.194:
                        1909 	.type	..gh.beginasm.194,@object
                        1910 	.size	..gh.beginasm.194,0
0000043e e749           1911  cmp r7, r9                           
                        1912 
                        1913 ..gh.endasm.195:
                        1914 	.type	..gh.endasm.195,@object
                        1915 	.size	..gh.endasm.195,0
                        1916 --line756
                        1917 ..lin.C.3A.5C_ECU2.5CECU_Rivian_A1.5CTarget.5Crepo_projects.5CpFOTA.5CcL_R2023.2E09.2E01.5Cmake.5Cobj.5Cr_fdl_hw_access.138::
                        1918 .LDWlin138:
                        1919 ..gh.beginasm.196:
                        1920 	.type	..gh.beginasm.196,@object
                        1921 	.size	..gh.beginasm.196,0
00000440 fa0d*          1922  bne _R_FDL_FCUFct_InitRAM_Asm_G3M    
                        1923 
                        1924 ..gh.endasm.197:

                                                                      Page 34
                                                              C:\Users\nhuliyap\AppData\Local\Temp\gh_00005nc1.s
                        1925 	.type	..gh.endasm.197,@object
                        1926 	.size	..gh.endasm.197,0
                        1927 --line758
                        1928 ..lin.C.3A.5C_ECU2.5CECU_Rivian_A1.5CTarget.5Crepo_projects.5CpFOTA.5CcL_R2023.2E09.2E01.5Cmake.5Cobj.5Cr_fdl_hw_access.139::
                        1929 .LDWlin139:
                        1930 ..gh.beginasm.198:
                        1931 	.type	..gh.beginasm.198,@object
                        1932 	.size	..gh.beginasm.198,0
00000442 013a           1933  mov 0x01, r7                         
                        1934 
                        1935 ..gh.endasm.199:
                        1936 	.type	..gh.endasm.199,@object
                        1937 	.size	..gh.endasm.199,0
                        1938 --line759
                        1939 ..lin.C.3A.5C_ECU2.5CECU_Rivian_A1.5CTarget.5Crepo_projects.5CpFOTA.5CcL_R2023.2E09.2E01.5Cmake.5Cobj.5Cr_fdl_hw_access.140::
                        1940 .LDWlin140:
                        1941 ..gh.beginasm.200:
                        1942 	.type	..gh.beginasm.200,@object
                        1943 	.size	..gh.beginasm.200,0
00000444 29060007bcff   1944  mov 0xFFBC0700, r9                   
                        1945 
                        1946 ..gh.endasm.201:
                        1947 	.type	..gh.endasm.201,@object
                        1948 	.size	..gh.endasm.201,0
                        1949 --line760
                        1950 ..lin.C.3A.5C_ECU2.5CECU_Rivian_A1.5CTarget.5Crepo_projects.5CpFOTA.5CcL_R2023.2E09.2E01.5Cmake.5Cobj.5Cr_fdl_hw_access.141::
                        1951 .LDWlin141:
                        1952 ..gh.beginasm.202:
                        1953 	.type	..gh.beginasm.202,@object
                        1954 	.size	..gh.beginasm.202,0
0000044a 49070000       1955  st.b r0, 0[r9]                       
                        1956 
                        1957 ..gh.endasm.203:
                        1958 	.type	..gh.endasm.203,@object
                        1959 	.size	..gh.endasm.203,0
                        1960 --line761
                        1961 ..lin.C.3A.5C_ECU2.5CECU_Rivian_A1.5CTarget.5Crepo_projects.5CpFOTA.5CcL_R2023.2E09.2E01.5Cmake.5Cobj.5Cr_fdl_hw_access.142::
                        1962 .LDWlin142:
                        1963 ..gh.beginasm.204:
                        1964 	.type	..gh.beginasm.204,@object
                        1965 	.size	..gh.beginasm.204,0
0000044e 493f0000       1966  st.b r7, 0[r9]                       
                        1967 
                        1968 ..gh.endasm.205:
                        1969 	.type	..gh.endasm.205,@object
                        1970 	.size	..gh.endasm.205,0
                        1971 --line762
                        1972 ..lin.C.3A.5C_ECU2.5CECU_Rivian_A1.5CTarget.5Crepo_projects.5CpFOTA.5CcL_R2023.2E09.2E01.5Cmake.5Cobj.5Cr_fdl_hw_access.143::
                        1973 .LDWlin143:
                        1974 ..gh.beginasm.206:
                        1975 	.type	..gh.beginasm.206,@object
                        1976 	.size	..gh.beginasm.206,0
00000452 49070000       1977  st.b r0, 0[r9]                       
                        1978 
                        1979 ..gh.endasm.207:
                        1980 	.type	..gh.endasm.207,@object
                        1981 	.size	..gh.endasm.207,0
                        1982 --line763
                        1983 ..lin.C.3A.5C_ECU2.5CECU_Rivian_A1.5CTarget.5Crepo_projects.5CpFOTA.5CcL_R2023.2E09.2E01.5Cmake.5Cobj.5Cr_fdl_hw_access.144::
                        1984 .LDWlin144:
                        1985 ..gh.beginasm.208:

                                                                      Page 35
                                                              C:\Users\nhuliyap\AppData\Local\Temp\gh_00005nc1.s
                        1986 	.type	..gh.beginasm.208,@object
                        1987 	.size	..gh.beginasm.208,0
00000456 093f0000       1988  ld.b 0[r9], r7                       
                        1989 
                        1990 ..gh.endasm.209:
                        1991 	.type	..gh.endasm.209,@object
                        1992 	.size	..gh.endasm.209,0
                        1993 --line764
                        1994 ..lin.C.3A.5C_ECU2.5CECU_Rivian_A1.5CTarget.5Crepo_projects.5CpFOTA.5CcL_R2023.2E09.2E01.5Cmake.5Cobj.5Cr_fdl_hw_access.145::
                        1995 .LDWlin145:
                        1996 ..gh.beginasm.210:
                        1997 	.type	..gh.beginasm.210,@object
                        1998 	.size	..gh.beginasm.210,0
0000045a 1c00           1999  synci                                
                        2000 
                        2001 ..gh.endasm.211:
                        2002 	.type	..gh.endasm.211,@object
                        2003 	.size	..gh.endasm.211,0
                        2004 --line765
                        2005 ..lin.C.3A.5C_ECU2.5CECU_Rivian_A1.5CTarget.5Crepo_projects.5CpFOTA.5CcL_R2023.2E09.2E01.5Cmake.5Cobj.5Cr_fdl_hw_access.146::
                        2006 .LDWlin146:
                        2007 ..gh.beginasm.212:
                        2008 	.type	..gh.beginasm.212,@object
                        2009 	.size	..gh.beginasm.212,0
0000045c 950d*          2010  br _R_FDL_FCUFct_InitRAM_Asm_CCEnd   
                        2011 
                        2012 ..gh.endasm.213:
                        2013 	.type	..gh.endasm.213,@object
                        2014 	.size	..gh.endasm.213,0
                        2015 --line767
                        2016 ..lin.C.3A.5C_ECU2.5CECU_Rivian_A1.5CTarget.5Crepo_projects.5CpFOTA.5CcL_R2023.2E09.2E01.5Cmake.5Cobj.5Cr_fdl_hw_access.147::
                        2017 .LDWlin147:
                        2018 ..gh.beginasm.214:
                        2019 	.type	..gh.beginasm.214,@object
                        2020 	.size	..gh.beginasm.214,0
                        2021  _R_FDL_FCUFct_InitRAM_Asm_G3M:       
                        2022 
                        2023 ..gh.endasm.215:
                        2024 	.type	..gh.endasm.215,@object
                        2025 	.size	..gh.endasm.215,0
                        2026 --line768
                        2027 ..lin.C.3A.5C_ECU2.5CECU_Rivian_A1.5CTarget.5Crepo_projects.5CpFOTA.5CcL_R2023.2E09.2E01.5Cmake.5Cobj.5Cr_fdl_hw_access.148::
                        2028 .LDWlin148:
                        2029 ..gh.beginasm.216:
                        2030 	.type	..gh.beginasm.216,@object
                        2031 	.size	..gh.beginasm.216,0
0000045e f83f4068       2032  stsr 24, r7, 13                      
                        2033 
                        2034 ..gh.endasm.217:
                        2035 	.type	..gh.endasm.217,@object
                        2036 	.size	..gh.endasm.217,0
                        2037 --line769
                        2038 ..lin.C.3A.5C_ECU2.5CECU_Rivian_A1.5CTarget.5Crepo_projects.5CpFOTA.5CcL_R2023.2E09.2E01.5Cmake.5Cobj.5Cr_fdl_hw_access.149::
                        2039 .LDWlin149:
                        2040 ..gh.beginasm.218:
                        2041 	.type	..gh.beginasm.218,@object
                        2042 	.size	..gh.beginasm.218,0
00000462 873e0200       2043  ori 0x02, r7, r7                     
                        2044 
                        2045 ..gh.endasm.219:
                        2046 	.type	..gh.endasm.219,@object

                                                                      Page 36
                                                              C:\Users\nhuliyap\AppData\Local\Temp\gh_00005nc1.s
                        2047 	.size	..gh.endasm.219,0
                        2048 --line770
                        2049 ..lin.C.3A.5C_ECU2.5CECU_Rivian_A1.5CTarget.5Crepo_projects.5CpFOTA.5CcL_R2023.2E09.2E01.5Cmake.5Cobj.5Cr_fdl_hw_access.150::
                        2050 .LDWlin150:
                        2051 ..gh.beginasm.220:
                        2052 	.type	..gh.beginasm.220,@object
                        2053 	.size	..gh.beginasm.220,0
00000466 e7c72068       2054  ldsr r7, 24, 13                      
                        2055 
                        2056 ..gh.endasm.221:
                        2057 	.type	..gh.endasm.221,@object
                        2058 	.size	..gh.endasm.221,0
                        2059 --line771
                        2060 ..lin.C.3A.5C_ECU2.5CECU_Rivian_A1.5CTarget.5Crepo_projects.5CpFOTA.5CcL_R2023.2E09.2E01.5Cmake.5Cobj.5Cr_fdl_hw_access.151::
                        2061 .LDWlin151:
                        2062 ..gh.beginasm.222:
                        2063 	.type	..gh.beginasm.222,@object
                        2064 	.size	..gh.beginasm.222,0
0000046a f83f4068       2065  stsr 24, r7, 13                      
                        2066 
                        2067 ..gh.endasm.223:
                        2068 	.type	..gh.endasm.223,@object
                        2069 	.size	..gh.endasm.223,0
                        2070 --line773
                        2071 ..lin.C.3A.5C_ECU2.5CECU_Rivian_A1.5CTarget.5Crepo_projects.5CpFOTA.5CcL_R2023.2E09.2E01.5Cmake.5Cobj.5Cr_fdl_hw_access.152::
                        2072 .LDWlin152:
                        2073 ..gh.beginasm.224:
                        2074 	.type	..gh.beginasm.224,@object
                        2075 	.size	..gh.beginasm.224,0
                        2076  _R_FDL_FCUFct_InitRAM_Asm_CCEnd:     
                        2077 
                        2078 ..gh.endasm.225:
                        2079 	.type	..gh.endasm.225,@object
                        2080 	.size	..gh.endasm.225,0
                        2081 --line775
                        2082 ..lin.C.3A.5C_ECU2.5CECU_Rivian_A1.5CTarget.5Crepo_projects.5CpFOTA.5CcL_R2023.2E09.2E01.5Cmake.5Cobj.5Cr_fdl_hw_access.153::
                        2083 .LDWlin153:
                        2084 ..gh.beginasm.226:
                        2085 	.type	..gh.beginasm.226,@object
                        2086 	.size	..gh.beginasm.226,0
0000046e e801           2087  cmp r8, r0                           
                        2088 
                        2089 ..gh.endasm.227:
                        2090 	.type	..gh.endasm.227,@object
                        2091 	.size	..gh.endasm.227,0
                        2092 --line776
                        2093 ..lin.C.3A.5C_ECU2.5CECU_Rivian_A1.5CTarget.5Crepo_projects.5CpFOTA.5CcL_R2023.2E09.2E01.5Cmake.5Cobj.5Cr_fdl_hw_access.154::
                        2094 .LDWlin154:
                        2095 ..gh.beginasm.228:
                        2096 	.type	..gh.beginasm.228,@object
                        2097 	.size	..gh.beginasm.228,0
00000470 9ab5*          2098  bnz _R_FDL_FCUFct_InitRAM_Asm_Copy   
                        2099 
                        2100 ..gh.endasm.229:
                        2101 	.type	..gh.endasm.229,@object
                        2102 	.size	..gh.endasm.229,0
                        2103 --	    .ef
                        2104 .LDW26:
                        2105 --line777
                        2106 ..lin.C.3A.5C_ECU2.5CECU_Rivian_A1.5CTarget.5Crepo_projects.5CpFOTA.5CcL_R2023.2E09.2E01.5Cmake.5Cobj.5Cr_fdl_hw_access.155::
                        2107 .LDWlin155:

                                                                      Page 37
                                                              C:\Users\nhuliyap\AppData\Local\Temp\gh_00005nc1.s
00000472 7f00           2108 	jmp	[lp]
                        2109 	.type	_R_FDL_FCUFct_InitRAM_Asm,@function
                        2110 	.size	_R_FDL_FCUFct_InitRAM_Asm,.-_R_FDL_FCUFct_InitRAM_Asm
                        2111 	.type	_R_FDL_FCUFct_InitRAM_Asm..C.3A.5C_ECU2.5CECU_Rivian_A1.5CTarget.5Crepo_projects.5CpFOTA.5CcL_R2023.2E09.2E01.5Cmake.5Cobj.5Cr_fdl_hw_access.,@function
                        2112 	.size	_R_FDL_FCUFct_InitRAM_Asm..C.3A.5C_ECU2.5CECU_Rivian_A1.5CTarget.5Crepo_projects.5CpFOTA.5CcL_R2023.2E09.2E01.5Cmake.5Cobj.5Cr_fdl_hw_access.,.-_R_FDL_FCUFct_InitRAM_Asm..C.3A.5C_ECU2.5CECU_Rivian_A1.5CTarget.5Crepo_projects.5CpFOTA.5CcL_R2023.2E09.2E01.5Cmake.5Cobj.5Cr_fdl_hw_access.
                        2113 	.align	2
                        2114 .LDW36:
                        2115 
                        2116 --_param_pu32	none	param
                        2117 
                        2118 	.section ".bss","awb"
                        2119 .L1553:
                        2120 	.type	.L1553,@object
                        2121 	.size	.L1553,0
                        2122 	.data
                        2123 	.text
                        2124 	.align	2
                        2125 	.align	2
                        2126 ..gh.f.f.1.e.230:
                        2127 	.type	..gh.f.f.1.e.230,@object
                        2128 	.size	..gh.f.f.1.e.230,0
                        2129 	.global	_R_FDL_FCUFct_InitRAM
                        2130 _R_FDL_FCUFct_InitRAM:
00000474 8c072300       2131 	prepare	{r31},6,sp
                        2132 --	    .bf
                        2133 .LDW46:
00000478 320600700100   2134 	mov	94208,r18
0000047e 127ef80f       2135 	addi	4088,r18,r15
00000482 31060020a1ff   2136 	mov	-6217728,r17
00000488 20860010       2137 	movea	4096,zero,r16
0000048c 0f760400       2138 	addi	4,r15,r14
00000490 0195           2139 	sst.w	r18,0[ep]
00000492 038d           2140 	sst.w	r17,4[ep]
00000494 0585           2141 	sst.w	r16,8[ep]
00000496 077d           2142 	sst.w	r15,12[ep]
00000498 0975           2143 	sst.w	r14,16[ep]
0000049a 113654e0       2144 	addi	-8108,r17,r6
0000049e 803e03c4       2145 	ori	50179,zero,r7
                        2146 	jarl	_R_FDL_IFct_WriteMemoryU16,lp
                        2146 <EXPANSION BEGIN>
                        2146 jarl22 _R_FDL_IFct_WriteMemoryU16 , lp 
000004a2 bfff76fb*      2146 <EXPANSION END>
                        2147 --line686
                        2148 ..lin.C.3A.5C_ECU2.5CECU_Rivian_A1.5CTarget.5Crepo_projects.5CpFOTA.5CcL_R2023.2E09.2E01.5Cmake.5Cobj.5Cr_fdl_hw_access.156::
                        2149 .LDWlin156:
000004a6 260600000000*  2150 	mov	_R_FDL_FCUFct_InitRAM_Asm,r6
000004ac 0338           2151 	mov	sp,r7
                        2152 	jarl	_R_FDL_IFct_ExeCodeInRAM,lp
                        2152 <EXPANSION BEGIN>
                        2152 jarl22 _R_FDL_IFct_ExeCodeInRAM , lp 
000004ae bfffa8fc*      2152 <EXPANSION END>
                        2153 --line688
                        2154 ..lin.C.3A.5C_ECU2.5CECU_Rivian_A1.5CTarget.5Crepo_projects.5CpFOTA.5CcL_R2023.2E09.2E01.5Cmake.5Cobj.5Cr_fdl_hw_access.157::
                        2155 .LDWlin157:
000004b2 03f0           2156 	mov	sp,ep
000004b4 006d           2157 	sld.w	0[ep],r13
000004b6 0265           2158 	sld.w	4[ep],r12
000004b8 26065400a1ff   2159 	mov	-6225836,r6
000004be 803e00c4       2160 	ori	50176,zero,r7
000004c2 84070f680000*  2161 	st.w	r13,sdaoff23(_g_fdl_str+60)[gp]
000004c8 84070f600000*  2162 	st.w	r12,sdaoff23(_g_fdl_str+64)[gp]

                                                                      Page 38
                                                              C:\Users\nhuliyap\AppData\Local\Temp\gh_00005nc1.s
                        2163 	jarl	_R_FDL_IFct_WriteMemoryU16,lp
                        2163 <EXPANSION BEGIN>
                        2163 jarl22 _R_FDL_IFct_WriteMemoryU16 , lp 
000004ce bfff4afb*      2163 <EXPANSION END>
                        2164 --	    .ef
                        2165 .LDW56:
                        2166 --line693
                        2167 ..lin.C.3A.5C_ECU2.5CECU_Rivian_A1.5CTarget.5Crepo_projects.5CpFOTA.5CcL_R2023.2E09.2E01.5Cmake.5Cobj.5Cr_fdl_hw_access.158::
                        2168 .LDWlin158:
000004d2 4c063f00       2169 	dispose	6,{r31},[lp]
                        2170 	.type	_R_FDL_FCUFct_InitRAM,@function
                        2171 	.size	_R_FDL_FCUFct_InitRAM,.-_R_FDL_FCUFct_InitRAM
                        2172 	.align	2
                        2173 .LDW66:
                        2174 --_initRamParam	0[sp]	local
                        2175 
                        2176 	.section ".bss","awb"
                        2177 .L1601:
                        2178 	.type	.L1601,@object
                        2179 	.size	.L1601,0
                        2180 	.data
                        2181 	.text
                        2182 	.align	2
                        2183 	.align	2
                        2184 ..gh.f.f.1.e.231:
                        2185 	.type	..gh.f.f.1.e.231,@object
                        2186 	.size	..gh.f.f.1.e.231,0
                        2187 	.global	_R_FDL_FCUFct_SwitchMode_Start
                        2188 _R_FDL_FCUFct_SwitchMode_Start:
000004d6 8007e110       2189 	prepare	{r27,r28,r29,r31},0
                        2190 --	    .bf
                        2191 .LDW76:
000004da c6e6ffff       2192 	andi	65535,r6,r28
000004de fa15*          2193 	bne	.L1621
000004e0 00da           2194 	mov	0,r27
                        2195 --line1002
                        2196 ..lin.C.3A.5C_ECU2.5CECU_Rivian_A1.5CTarget.5Crepo_projects.5CpFOTA.5CcL_R2023.2E09.2E01.5Cmake.5Cobj.5Cr_fdl_hw_access.159::
                        2197 .LDWlin159:
000004e2 26068000a1ff   2198 	mov	-6225792,r6
                        2199 	jarl	_R_FDL_IFct_ReadMemoryU32,lp
                        2199 <EXPANSION BEGIN>
                        2199 jarl22 _R_FDL_IFct_ReadMemoryU32 , lp 
000004e8 bfff18fb*      2199 <EXPANSION END>
                        2200 --line1004
                        2201 ..lin.C.3A.5C_ECU2.5CECU_Rivian_A1.5CTarget.5Crepo_projects.5CpFOTA.5CcL_R2023.2E09.2E01.5Cmake.5Cobj.5Cr_fdl_hw_access.160::
                        2202 .LDWlin160:
000004ec ca060070       2203 	andi	28672,r10,zero
000004f0 b205*          2204 	be	.L1623
                        2205 --line1006
                        2206 ..lin.C.3A.5C_ECU2.5CECU_Rivian_A1.5CTarget.5Crepo_projects.5CpFOTA.5CcL_R2023.2E09.2E01.5Cmake.5Cobj.5Cr_fdl_hw_access.161::
                        2207 .LDWlin161:
                        2208 	jarl	_R_FDL_FCUFct_ClearStatus,lp
                        2208 <EXPANSION BEGIN>
                        2208 jarl22 _R_FDL_FCUFct_ClearStatus , lp 
000004f2 bfff24fc*      2208 <EXPANSION END>
                        2209 .L1623:
                        2210 --line1008
                        2211 ..lin.C.3A.5C_ECU2.5CECU_Rivian_A1.5CTarget.5Crepo_projects.5CpFOTA.5CcL_R2023.2E09.2E01.5Cmake.5Cobj.5Cr_fdl_hw_access.162::
                        2212 .LDWlin162:
000004f6 26068400a1ff   2213 	mov	-6225788,r6
000004fc 803e00aa       2214 	ori	43520,zero,r7

                                                                      Page 39
                                                              C:\Users\nhuliyap\AppData\Local\Temp\gh_00005nc1.s
                        2215 	jarl	_R_FDL_IFct_WriteMemoryU16,lp
                        2215 <EXPANSION BEGIN>
                        2215 jarl22 _R_FDL_IFct_WriteMemoryU16 , lp 
00000500 bfff18fb*      2215 <EXPANSION END>
                        2216 --line1009
                        2217 ..lin.C.3A.5C_ECU2.5CECU_Rivian_A1.5CTarget.5Crepo_projects.5CpFOTA.5CcL_R2023.2E09.2E01.5Cmake.5Cobj.5Cr_fdl_hw_access.163::
                        2218 .LDWlin163:
00000504 a4070d000000*  2219 	st.h	zero,sdaoff23(_g_fdl_str+68)[gp]
0000050a e51d*          2220 	br	.L1625
                        2221 .L1621:
0000050c 3d063000a1ff   2222 	mov	-6225872,r29
                        2223 --line1012
                        2224 ..lin.C.3A.5C_ECU2.5CECU_Rivian_A1.5CTarget.5Crepo_projects.5CpFOTA.5CcL_R2023.2E09.2E01.5Cmake.5Cobj.5Cr_fdl_hw_access.164::
                        2225 .LDWlin164:
00000512 1d365400       2226 	addi	84,r29,r6
                        2227 	jarl	_R_FDL_IFct_ReadMemoryU16,lp
                        2227 <EXPANSION BEGIN>
                        2227 jarl22 _R_FDL_IFct_ReadMemoryU16 , lp 
00000516 bffff6fa*      2227 <EXPANSION END>
                        2228 --line1013
                        2229 ..lin.C.3A.5C_ECU2.5CECU_Rivian_A1.5CTarget.5Crepo_projects.5CpFOTA.5CcL_R2023.2E09.2E01.5Cmake.5Cobj.5Cr_fdl_hw_access.165::
                        2230 .LDWlin165:
0000051a ca460100       2231 	andi	1,r10,r8
0000051e e50714db       2232 	cmovne	5,zero,r27
00000522 aa15*          2233 	bne	.L1625
                        2234 --line1019
                        2235 ..lin.C.3A.5C_ECU2.5CECU_Rivian_A1.5CTarget.5Crepo_projects.5CpFOTA.5CcL_R2023.2E09.2E01.5Cmake.5Cobj.5Cr_fdl_hw_access.166::
                        2236 .LDWlin166:
00000524 eae1           2237 	cmp	r10,r28
00000526 d20d*          2238 	be	.L1629
                        2239 --line1021
                        2240 ..lin.C.3A.5C_ECU2.5CECU_Rivian_A1.5CTarget.5Crepo_projects.5CpFOTA.5CcL_R2023.2E09.2E01.5Cmake.5Cobj.5Cr_fdl_hw_access.167::
                        2241 .LDWlin167:
00000528 1c3e00aa       2242 	addi	-22016,r28,r7
0000052c c700           2243 	zxh	r7
                        2244 	jarl	_R_FDL_IFct_WriteMemoryU16,lp
                        2244 <EXPANSION BEGIN>
                        2244 jarl22 _R_FDL_IFct_WriteMemoryU16 , lp 
0000052e bfffeafa*      2244 <EXPANSION END>
                        2245 --line1023
                        2246 ..lin.C.3A.5C_ECU2.5CECU_Rivian_A1.5CTarget.5Crepo_projects.5CpFOTA.5CcL_R2023.2E09.2E01.5Cmake.5Cobj.5Cr_fdl_hw_access.168::
                        2247 .LDWlin168:
00000532 1d30           2248 	mov	r29,r6
00000534 0838           2249 	mov	r8,r7
                        2250 	jarl	_R_FDL_IFct_WriteMemoryU32,lp
                        2250 <EXPANSION BEGIN>
                        2250 jarl22 _R_FDL_IFct_WriteMemoryU32 , lp 
00000536 bfffe8fa*      2250 <EXPANSION END>
                        2251 --line1024
                        2252 ..lin.C.3A.5C_ECU2.5CECU_Rivian_A1.5CTarget.5Crepo_projects.5CpFOTA.5CcL_R2023.2E09.2E01.5Cmake.5Cobj.5Cr_fdl_hw_access.169::
                        2253 .LDWlin169:
0000053a 4432           2254 	add	4,r6
                        2255 	jarl	_R_FDL_IFct_WriteMemoryU32,lp
                        2255 <EXPANSION BEGIN>
                        2255 jarl22 _R_FDL_IFct_WriteMemoryU32 , lp 
0000053c bfffe2fa*      2255 <EXPANSION END>
                        2256 .L1629:
                        2257 --line1026
                        2258 ..lin.C.3A.5C_ECU2.5CECU_Rivian_A1.5CTarget.5Crepo_projects.5CpFOTA.5CcL_R2023.2E09.2E01.5Cmake.5Cobj.5Cr_fdl_hw_access.170::
                        2259 .LDWlin170:
00000540 a4070de00000*  2260 	st.h	r28,sdaoff23(_g_fdl_str+68)[gp]

                                                                      Page 40
                                                              C:\Users\nhuliyap\AppData\Local\Temp\gh_00005nc1.s
                        2261 .L1625:
00000546 1b50           2262 	mov	r27,r10
                        2263 --	    .ef
                        2264 .LDW86:
00000548 4006ff10       2265 	dispose	0,{r27,r28,r29,r31},[lp]
                        2266 	.type	_R_FDL_FCUFct_SwitchMode_Start,@function
                        2267 	.size	_R_FDL_FCUFct_SwitchMode_Start,.-_R_FDL_FCUFct_SwitchMode_Start
                        2268 	.align	2
                        2269 .LDW96:
                        2270 --_regFENTRYR	r10	local
                        2271 --_ret	r27	local
                        2272 
                        2273 --_mode_u16	r28	param
                        2274 
                        2275 	.section ".bss","awb"
                        2276 .L1694:
                        2277 	.type	.L1694,@object
                        2278 	.size	.L1694,0
                        2279 	.data
                        2280 	.text
                        2281 	.align	2
                        2282 	.align	2
                        2283 ..gh.f.f.1.e.232:
                        2284 	.type	..gh.f.f.1.e.232,@object
                        2285 	.size	..gh.f.f.1.e.232,0
                        2286 	.global	_R_FDL_FCUFct_SwitchMode_Check
                        2287 _R_FDL_FCUFct_SwitchMode_Check:
0000054c 80072100       2288 	prepare	{r31},0
                        2289 --	    .bf
                        2290 .LDW07:
00000550 26068400a1ff   2291 	mov	-6225788,r6
                        2292 	jarl	_R_FDL_IFct_ReadMemoryU16,lp
                        2292 <EXPANSION BEGIN>
                        2292 jarl22 _R_FDL_IFct_ReadMemoryU16 , lp 
00000556 bfffb6fa*      2292 <EXPANSION END>
                        2293 --line1059
                        2294 ..lin.C.3A.5C_ECU2.5CECU_Rivian_A1.5CTarget.5Crepo_projects.5CpFOTA.5CcL_R2023.2E09.2E01.5Cmake.5Cobj.5Cr_fdl_hw_access.171::
                        2295 .LDWlin171:
                        2296 	jarl	_R_FDL_IFct_ReadMemoryU16,lp
                        2296 <EXPANSION BEGIN>
                        2296 jarl22 _R_FDL_IFct_ReadMemoryU16 , lp 
0000055a bfffb2fa*      2296 <EXPANSION END>
                        2297 --line1061
                        2298 ..lin.C.3A.5C_ECU2.5CECU_Rivian_A1.5CTarget.5Crepo_projects.5CpFOTA.5CcL_R2023.2E09.2E01.5Cmake.5Cobj.5Cr_fdl_hw_access.172::
                        2299 .LDWlin172:
0000055e a40707480000*  2300 	ld.hu	sdaoff23(_g_fdl_str+68)[gp],r9
00000564 ea49           2301 	cmp	r10,r9
00000566 ea570000       2302 	setfne	r10
                        2303 --	    .ef
                        2304 .LDW17:
0000056a 40063f00       2305 	dispose	0,{r31},[lp]
                        2306 	.type	_R_FDL_FCUFct_SwitchMode_Check,@function
                        2307 	.size	_R_FDL_FCUFct_SwitchMode_Check,.-_R_FDL_FCUFct_SwitchMode_Check
                        2308 	.align	2
                        2309 .LDW27:
                        2310 --_regFENTRYR	r10	local
                        2311 --_ret	r29	local
                        2312 
                        2313 	.section ".bss","awb"
                        2314 .L1819:
                        2315 	.type	.L1819,@object

                                                                      Page 41
                                                              C:\Users\nhuliyap\AppData\Local\Temp\gh_00005nc1.s
                        2316 	.size	.L1819,0
                        2317 	.data
                        2318 	.text
                        2319 	.align	2
                        2320 	.align	2
                        2321 ..gh.f.f.1.e.233:
                        2322 	.type	..gh.f.f.1.e.233,@object
                        2323 	.size	..gh.f.f.1.e.233,0
                        2324 	.global	_R_FDL_FCUFct_GetStat
                        2325 _R_FDL_FCUFct_GetStat:
0000056e 8007e100       2326 	prepare	{r28,r29,r31},0
                        2327 --	    .bf
                        2328 .LDW37:
00000572 3c068000a1ff   2329 	mov	-6225792,r28
00000578 1c365400       2330 	addi	84,r28,r6
                        2331 	jarl	_R_FDL_IFct_ReadMemoryU08,lp
                        2331 <EXPANSION BEGIN>
                        2331 jarl22 _R_FDL_IFct_ReadMemoryU08 , lp 
0000057c bfff8afa*      2331 <EXPANSION END>
                        2332 --line1092
                        2333 ..lin.C.3A.5C_ECU2.5CECU_Rivian_A1.5CTarget.5Crepo_projects.5CpFOTA.5CcL_R2023.2E09.2E01.5Cmake.5Cobj.5Cr_fdl_hw_access.173::
                        2334 .LDWlin173:
00000580 8152           2335 	shr	1,r10
00000582 f90d*          2336 	bnl	.L1850
00000584 840709f00000*  2337 	ld.w	sdaoff23(_g_fdl_str+40)[gp],ep
0000058a 0043           2338 	sld.b	0[ep],r8
0000058c 6242           2339 	cmp	2,r8
0000058e 9a0d*          2340 	bne	.L1850
                        2341 --line1094
                        2342 ..lin.C.3A.5C_ECU2.5CECU_Rivian_A1.5CTarget.5Crepo_projects.5CpFOTA.5CcL_R2023.2E09.2E01.5Cmake.5Cobj.5Cr_fdl_hw_access.174::
                        2343 .LDWlin174:
00000590 09ea           2344 	mov	9,r29
00000592 4432           2345 	add	4,r6
                        2346 	jarl	_R_FDL_IFct_ReadMemoryU32,lp
                        2346 <EXPANSION BEGIN>
                        2346 jarl22 _R_FDL_IFct_ReadMemoryU32 , lp 
00000594 bfff6cfa*      2346 <EXPANSION END>
00000598 84070f500000*  2347 	st.w	r10,sdaoff23(_g_fdl_str+48)[gp]
0000059e e51d*          2348 	br	.L1853
                        2349 .L1850:
                        2350 --line1098
                        2351 ..lin.C.3A.5C_ECU2.5CECU_Rivian_A1.5CTarget.5Crepo_projects.5CpFOTA.5CcL_R2023.2E09.2E01.5Cmake.5Cobj.5Cr_fdl_hw_access.175::
                        2352 .LDWlin175:
000005a0 1c30           2353 	mov	r28,r6
                        2354 	jarl	_R_FDL_IFct_ReadMemoryU32,lp
                        2354 <EXPANSION BEGIN>
                        2354 jarl22 _R_FDL_IFct_ReadMemoryU32 , lp 
000005a2 bfff5efa*      2354 <EXPANSION END>
                        2355 --line1136
                        2356 ..lin.C.3A.5C_ECU2.5CECU_Rivian_A1.5CTarget.5Crepo_projects.5CpFOTA.5CcL_R2023.2E09.2E01.5Cmake.5Cobj.5Cr_fdl_hw_access.176::
                        2357 .LDWlin176:
000005a6 ca060010       2358 	andi	4096,r10,zero
000005aa 07ea           2359 	mov	7,r29
000005ac fa15*          2360 	bne	.L1853
                        2361 --line1142
                        2362 ..lin.C.3A.5C_ECU2.5CECU_Rivian_A1.5CTarget.5Crepo_projects.5CpFOTA.5CcL_R2023.2E09.2E01.5Cmake.5Cobj.5Cr_fdl_hw_access.177::
                        2363 .LDWlin177:
000005ae ca360020       2364 	andi	8192,r10,r6
000005b2 08ea           2365 	mov	8,r29
000005b4 ba15*          2366 	bne	.L1853
                        2367 --line1148

                                                                      Page 42
                                                              C:\Users\nhuliyap\AppData\Local\Temp\gh_00005nc1.s
                        2368 ..lin.C.3A.5C_ECU2.5CECU_Rivian_A1.5CTarget.5Crepo_projects.5CpFOTA.5CcL_R2023.2E09.2E01.5Cmake.5Cobj.5Cr_fdl_hw_access.178::
                        2369 .LDWlin178:
000005b6 ca060001       2370 	andi	256,r10,zero
000005ba f205*          2371 	be	.L1862
000005bc 840709f00000*  2372 	ld.w	sdaoff23(_g_fdl_str+40)[gp],ep
000005c2 0093           2373 	sld.b	0[ep],r18
000005c4 6192           2374 	cmp	1,r18
000005c6 d20d*          2375 	be	.L1861
                        2376 .L1862:
000005c8 8a52           2377 	shr	10,r10
000005ca d90d*          2378 	bnl	.L1860
000005cc 840709f00000*  2379 	ld.w	sdaoff23(_g_fdl_str+40)[gp],ep
000005d2 01ea           2380 	mov	1,r29
000005d4 0083           2381 	sld.b	0[ep],r16
000005d6 e081           2382 	cmp	zero,r16
000005d8 ea05*          2383 	bne	.L1860
                        2384 .L1853:
                        2385 --line1163
                        2386 ..lin.C.3A.5C_ECU2.5CECU_Rivian_A1.5CTarget.5Crepo_projects.5CpFOTA.5CcL_R2023.2E09.2E01.5Cmake.5Cobj.5Cr_fdl_hw_access.179::
                        2387 .LDWlin179:
000005da 1d50           2388 	mov	r29,r10
                        2389 --	    .ef
                        2390 .LDW47:
000005dc 4006ff00       2391 	dispose	0,{r28,r29,r31},[lp]
                        2392 .L1861:
                        2393 --line1153
                        2394 ..lin.C.3A.5C_ECU2.5CECU_Rivian_A1.5CTarget.5Crepo_projects.5CpFOTA.5CcL_R2023.2E09.2E01.5Cmake.5Cobj.5Cr_fdl_hw_access.180::
                        2395 .LDWlin180:
000005e0 12e8           2396 	mov	r18,r29
000005e2 c5fd*          2397 	br	.L1853
                        2398 .L1860:
                        2399 --line1157
                        2400 ..lin.C.3A.5C_ECU2.5CECU_Rivian_A1.5CTarget.5Crepo_projects.5CpFOTA.5CcL_R2023.2E09.2E01.5Cmake.5Cobj.5Cr_fdl_hw_access.181::
                        2401 .LDWlin181:
000005e4 06e8           2402 	mov	r6,r29
000005e6 a5fd*          2403 	br	.L1853
                        2404 	.type	_R_FDL_FCUFct_GetStat,@function
                        2405 	.size	_R_FDL_FCUFct_GetStat,.-_R_FDL_FCUFct_GetStat
                        2406 	.align	2
                        2407 .LDW57:
                        2408 --_stat	r29	local
                        2409 --_regFSTATR	r10	local
                        2410 --_regFBCSTAT	r10	local
                        2411 
                        2412 	.section ".bss","awb"
                        2413 .L1954:
                        2414 	.type	.L1954,@object
                        2415 	.size	.L1954,0
                        2416 	.data
                        2417 	.text
                        2418 	.align	2
                        2419 	.align	2
                        2420 ..gh.f.f.1.e.234:
                        2421 	.type	..gh.f.f.1.e.234,@object
                        2422 	.size	..gh.f.f.1.e.234,0
                        2423 	.global	_R_FDL_FCUFct_StartWriteOperation
                        2424 _R_FDL_FCUFct_StartWriteOperation:
000005e8 8007a1e0       2425 	prepare	{r24,r25,r26,r28,r31},0
000005ec 09c0           2426 	mov	r9,r24
000005ee 06d0           2427 	mov	r6,r26
000005f0 08e0           2428 	mov	r8,r28

                                                                      Page 43
                                                              C:\Users\nhuliyap\AppData\Local\Temp\gh_00005nc1.s
000005f2 b800           2429 	sxb	r24
                        2430 --	    .bf
                        2431 .LDW67:
000005f4 26063000a1ff   2432 	mov	-6225872,r6
                        2433 	jarl	_R_FDL_IFct_WriteMemoryU32,lp
                        2433 <EXPANSION BEGIN>
                        2433 jarl22 _R_FDL_IFct_WriteMemoryU32 , lp 
000005fa bfff24fa*      2433 <EXPANSION END>
                        2434 --line1181
                        2435 ..lin.C.3A.5C_ECU2.5CECU_Rivian_A1.5CTarget.5Crepo_projects.5CpFOTA.5CcL_R2023.2E09.2E01.5Cmake.5Cobj.5Cr_fdl_hw_access.182::
                        2436 .LDWlin182:
000005fe c741           2437 	add	r7,r8
00000600 083effff       2438 	addi	-1,r8,r7
00000604 4432           2439 	add	4,r6
                        2440 	jarl	_R_FDL_IFct_WriteMemoryU32,lp
                        2440 <EXPANSION BEGIN>
                        2440 jarl22 _R_FDL_IFct_WriteMemoryU32 , lp 
00000606 bfff18fa*      2440 <EXPANSION END>
                        2441 --line1191
                        2442 ..lin.C.3A.5C_ECU2.5CECU_Rivian_A1.5CTarget.5Crepo_projects.5CpFOTA.5CcL_R2023.2E09.2E01.5Cmake.5Cobj.5Cr_fdl_hw_access.183::
                        2443 .LDWlin183:
0000060a 4036a2ff       2444 	movhi	65442,zero,r6
0000060e 203ee800       2445 	movea	232,zero,r7
                        2446 	jarl	_R_FDL_IFct_WriteMemoryU16,lp
                        2446 <EXPANSION BEGIN>
                        2446 jarl22 _R_FDL_IFct_WriteMemoryU16 , lp 
00000612 bfff06fa*      2446 <EXPANSION END>
                        2447 --line1193
                        2448 ..lin.C.3A.5C_ECU2.5CECU_Rivian_A1.5CTarget.5Crepo_projects.5CpFOTA.5CcL_R2023.2E09.2E01.5Cmake.5Cobj.5Cr_fdl_hw_access.184::
                        2449 .LDWlin184:
00000616 81e2           2450 	shr	1,r28
00000618 1c38           2451 	mov	r28,r7
0000061a c700           2452 	zxh	r7
                        2453 	jarl	_R_FDL_IFct_WriteMemoryU16,lp
                        2453 <EXPANSION BEGIN>
                        2453 jarl22 _R_FDL_IFct_WriteMemoryU16 , lp 
0000061c bffffcf9*      2453 <EXPANSION END>
                        2454 --line1197
                        2455 ..lin.C.3A.5C_ECU2.5CECU_Rivian_A1.5CTarget.5Crepo_projects.5CpFOTA.5CcL_R2023.2E09.2E01.5Cmake.5Cobj.5Cr_fdl_hw_access.185::
                        2456 .LDWlin185:
00000620 1cc8           2457 	mov	r28,r25
00000622 e0e1           2458 	cmp	zero,r28
00000624 921d*          2459 	be	.L2084
                        2460 .L2131:
                        2461 --line1198
                        2462 ..lin.C.3A.5C_ECU2.5CECU_Rivian_A1.5CTarget.5Crepo_projects.5CpFOTA.5CcL_R2023.2E09.2E01.5Cmake.5Cobj.5Cr_fdl_hw_access.186::
                        2463 .LDWlin186:
00000626 1a360100       2464 	addi	1,r26,r6
                        2465 	jarl	_R_FDL_IFct_ReadMemoryU08,lp
                        2465 <EXPANSION BEGIN>
                        2465 jarl22 _R_FDL_IFct_ReadMemoryU08 , lp 
0000062a bfffdcf9*      2465 <EXPANSION END>
0000062e c852           2466 	shl	8,r10
00000630 0a38           2467 	mov	r10,r7
                        2468 --line1200
                        2469 ..lin.C.3A.5C_ECU2.5CECU_Rivian_A1.5CTarget.5Crepo_projects.5CpFOTA.5CcL_R2023.2E09.2E01.5Cmake.5Cobj.5Cr_fdl_hw_access.187::
                        2470 .LDWlin187:
00000632 1a30           2471 	mov	r26,r6
                        2472 	jarl	_R_FDL_IFct_ReadMemoryU08,lp
                        2472 <EXPANSION BEGIN>
                        2472 jarl22 _R_FDL_IFct_ReadMemoryU08 , lp 

                                                                      Page 44
                                                              C:\Users\nhuliyap\AppData\Local\Temp\gh_00005nc1.s
00000634 bfffd2f9*      2472 <EXPANSION END>
00000638 ca39           2473 	add	r10,r7
                        2474 --line1202
                        2475 ..lin.C.3A.5C_ECU2.5CECU_Rivian_A1.5CTarget.5Crepo_projects.5CpFOTA.5CcL_R2023.2E09.2E01.5Cmake.5Cobj.5Cr_fdl_hw_access.188::
                        2476 .LDWlin188:
0000063a 42d2           2477 	add	2,r26
0000063c 4036a2ff       2478 	movhi	65442,zero,r6
                        2479 	jarl	_R_FDL_IFct_WriteMemoryU16,lp
                        2479 <EXPANSION BEGIN>
                        2479 jarl22 _R_FDL_IFct_WriteMemoryU16 , lp 
00000640 bfffd8f9*      2479 <EXPANSION END>
                        2480 .L2132:
                        2481 --line1207
                        2482 ..lin.C.3A.5C_ECU2.5CECU_Rivian_A1.5CTarget.5Crepo_projects.5CpFOTA.5CcL_R2023.2E09.2E01.5Cmake.5Cobj.5Cr_fdl_hw_access.189::
                        2483 .LDWlin189:
00000644 26068000a1ff   2484 	mov	-6225792,r6
                        2485 	jarl	_R_FDL_IFct_ReadMemoryU32,lp
                        2485 <EXPANSION BEGIN>
                        2485 jarl22 _R_FDL_IFct_ReadMemoryU32 , lp 
0000064a bfffb6f9*      2485 <EXPANSION END>
                        2486 --line1209
                        2487 ..lin.C.3A.5C_ECU2.5CECU_Rivian_A1.5CTarget.5Crepo_projects.5CpFOTA.5CcL_R2023.2E09.2E01.5Cmake.5Cobj.5Cr_fdl_hw_access.190::
                        2488 .LDWlin190:
0000064e 8b52           2489 	shr	11,r10
00000650 a1fd*          2490 	bl	.L2132
                        2491 --line1197
                        2492 ..lin.C.3A.5C_ECU2.5CECU_Rivian_A1.5CTarget.5Crepo_projects.5CpFOTA.5CcL_R2023.2E09.2E01.5Cmake.5Cobj.5Cr_fdl_hw_access.191::
                        2493 .LDWlin191:
00000652 f9062d00*      2494 	loop	r25,.L2131
                        2495 .L2084:
                        2496 --line1212
                        2497 ..lin.C.3A.5C_ECU2.5CECU_Rivian_A1.5CTarget.5Crepo_projects.5CpFOTA.5CcL_R2023.2E09.2E01.5Cmake.5Cobj.5Cr_fdl_hw_access.192::
                        2498 .LDWlin192:
00000656 1c38           2499 	mov	r28,r7
00000658 1830           2500 	mov	r24,r6
0000065a c13a           2501 	shl	1,r7
                        2502 	jarl	_R_FDL_IFct_ChkAccessRight,lp
                        2502 <EXPANSION BEGIN>
                        2502 jarl22 _R_FDL_IFct_ChkAccessRight , lp 
0000065c bfff60fa*      2502 <EXPANSION END>
00000660 0ae0           2503 	mov	r10,r28
                        2504 --line1213
                        2505 ..lin.C.3A.5C_ECU2.5CECU_Rivian_A1.5CTarget.5Crepo_projects.5CpFOTA.5CcL_R2023.2E09.2E01.5Cmake.5Cobj.5Cr_fdl_hw_access.193::
                        2506 .LDWlin193:
00000662 6152           2507 	cmp	1,r10
00000664 8a0d*          2508 	bne	.L2091
                        2509 --line1214
                        2510 ..lin.C.3A.5C_ECU2.5CECU_Rivian_A1.5CTarget.5Crepo_projects.5CpFOTA.5CcL_R2023.2E09.2E01.5Cmake.5Cobj.5Cr_fdl_hw_access.194::
                        2511 .LDWlin194:
00000666 4036a2ff       2512 	movhi	65442,zero,r6
0000066a 203ed000       2513 	movea	208,zero,r7
                        2514 	jarl	_R_FDL_IFct_WriteMemoryU16,lp
                        2514 <EXPANSION BEGIN>
                        2514 jarl22 _R_FDL_IFct_WriteMemoryU16 , lp 
0000066e bfffaaf9*      2514 <EXPANSION END>
00000672 b505*          2515 	br	.L2093
                        2516 .L2091:
                        2517 --line1217
                        2518 ..lin.C.3A.5C_ECU2.5CECU_Rivian_A1.5CTarget.5Crepo_projects.5CpFOTA.5CcL_R2023.2E09.2E01.5Cmake.5Cobj.5Cr_fdl_hw_access.195::
                        2519 .LDWlin195:
                        2520 	jarl	_R_FDL_FCUFct_ForcedStop,lp

                                                                      Page 45
                                                              C:\Users\nhuliyap\AppData\Local\Temp\gh_00005nc1.s
                        2520 <EXPANSION BEGIN>
                        2520 jarl22 _R_FDL_FCUFct_ForcedStop , lp 
00000674 bfff7afa*      2520 <EXPANSION END>
                        2521 .L2093:
                        2522 --line1224
                        2523 ..lin.C.3A.5C_ECU2.5CECU_Rivian_A1.5CTarget.5Crepo_projects.5CpFOTA.5CcL_R2023.2E09.2E01.5Cmake.5Cobj.5Cr_fdl_hw_access.196::
                        2524 .LDWlin196:
00000678 1c50           2525 	mov	r28,r10
                        2526 --	    .ef
                        2527 .LDW77:
0000067a 4006bfe0       2528 	dispose	0,{r24,r25,r26,r28,r31},[lp]
                        2529 	.type	_R_FDL_FCUFct_StartWriteOperation,@function
                        2530 	.size	_R_FDL_FCUFct_StartWriteOperation,.-_R_FDL_FCUFct_StartWriteOperation
                        2531 	.align	2
                        2532 .LDW87:
                        2533 --_regFSTATR	r10	local
                        2534 --_ret	r28	local
                        2535 --_data	r27	local
                        2536 
                        2537 --_addSrc_u32	r26	param
                        2538 --_addDest_u32	r27	param
                        2539 --_cnt_u32	r28	param
                        2540 --_accType_enu	r24	param
                        2541 
                        2542 	.section ".bss","awb"
                        2543 .L2496:
                        2544 	.type	.L2496,@object
                        2545 	.size	.L2496,0
                        2546 	.data
                        2547 	.text
                        2548 	.align	2
                        2549 	.align	2
                        2550 ..gh.f.f.1.e.235:
                        2551 	.type	..gh.f.f.1.e.235,@object
                        2552 	.size	..gh.f.f.1.e.235,0
                        2553 	.global	_R_FDL_FCUFct_StartBCEraseOperation
                        2554 _R_FDL_FCUFct_StartBCEraseOperation:
0000067e 8007a100       2555 	prepare	{r28,r31},0
00000682 07e0           2556 	mov	r7,r28
00000684 8800           2557 	zxb	r8
00000686 a900           2558 	sxb	r9
                        2559 --	    .bf
                        2560 .LDW97:
00000688 0638           2561 	mov	r6,r7
0000068a 26063000a1ff   2562 	mov	-6225872,r6
                        2563 	jarl	_R_FDL_IFct_WriteMemoryU32,lp
                        2563 <EXPANSION BEGIN>
                        2563 jarl22 _R_FDL_IFct_WriteMemoryU32 , lp 
00000690 bfff8ef9*      2563 <EXPANSION END>
                        2564 --line1238
                        2565 ..lin.C.3A.5C_ECU2.5CECU_Rivian_A1.5CTarget.5Crepo_projects.5CpFOTA.5CcL_R2023.2E09.2E01.5Cmake.5Cobj.5Cr_fdl_hw_access.197::
                        2566 .LDWlin197:
00000694 1c38           2567 	mov	r28,r7
00000696 4432           2568 	add	4,r6
                        2569 	jarl	_R_FDL_IFct_WriteMemoryU32,lp
                        2569 <EXPANSION BEGIN>
                        2569 jarl22 _R_FDL_IFct_WriteMemoryU32 , lp 
00000698 bfff86f9*      2569 <EXPANSION END>
                        2570 --line1240
                        2571 ..lin.C.3A.5C_ECU2.5CECU_Rivian_A1.5CTarget.5Crepo_projects.5CpFOTA.5CcL_R2023.2E09.2E01.5Cmake.5Cobj.5Cr_fdl_hw_access.198::
                        2572 .LDWlin198:

                                                                      Page 46
                                                              C:\Users\nhuliyap\AppData\Local\Temp\gh_00005nc1.s
0000069c 0838           2573 	mov	r8,r7
0000069e 4036a2ff       2574 	movhi	65442,zero,r6
                        2575 	jarl	_R_FDL_IFct_WriteMemoryU08,lp
                        2575 <EXPANSION BEGIN>
                        2575 jarl22 _R_FDL_IFct_WriteMemoryU08 , lp 
000006a2 bfff70f9*      2575 <EXPANSION END>
                        2576 --line1242
                        2577 ..lin.C.3A.5C_ECU2.5CECU_Rivian_A1.5CTarget.5Crepo_projects.5CpFOTA.5CcL_R2023.2E09.2E01.5Cmake.5Cobj.5Cr_fdl_hw_access.199::
                        2578 .LDWlin199:
000006a6 0930           2579 	mov	r9,r6
000006a8 043a           2580 	mov	4,r7
                        2581 	jarl	_R_FDL_IFct_ChkAccessRight,lp
                        2581 <EXPANSION BEGIN>
                        2581 jarl22 _R_FDL_IFct_ChkAccessRight , lp 
000006aa bfff12fa*      2581 <EXPANSION END>
000006ae 0ae0           2582 	mov	r10,r28
                        2583 --line1243
                        2584 ..lin.C.3A.5C_ECU2.5CECU_Rivian_A1.5CTarget.5Crepo_projects.5CpFOTA.5CcL_R2023.2E09.2E01.5Cmake.5Cobj.5Cr_fdl_hw_access.200::
                        2585 .LDWlin200:
000006b0 6152           2586 	cmp	1,r10
000006b2 8a0d*          2587 	bne	.L2592
                        2588 --line1244
                        2589 ..lin.C.3A.5C_ECU2.5CECU_Rivian_A1.5CTarget.5Crepo_projects.5CpFOTA.5CcL_R2023.2E09.2E01.5Cmake.5Cobj.5Cr_fdl_hw_access.201::
                        2590 .LDWlin201:
000006b4 4036a2ff       2591 	movhi	65442,zero,r6
000006b8 203ed000       2592 	movea	208,zero,r7
                        2593 	jarl	_R_FDL_IFct_WriteMemoryU08,lp
                        2593 <EXPANSION BEGIN>
                        2593 jarl22 _R_FDL_IFct_WriteMemoryU08 , lp 
000006bc bfff56f9*      2593 <EXPANSION END>
000006c0 b505*          2594 	br	.L2594
                        2595 .L2592:
                        2596 --line1247
                        2597 ..lin.C.3A.5C_ECU2.5CECU_Rivian_A1.5CTarget.5Crepo_projects.5CpFOTA.5CcL_R2023.2E09.2E01.5Cmake.5Cobj.5Cr_fdl_hw_access.202::
                        2598 .LDWlin202:
                        2599 	jarl	_R_FDL_FCUFct_ForcedStop,lp
                        2599 <EXPANSION BEGIN>
                        2599 jarl22 _R_FDL_FCUFct_ForcedStop , lp 
000006c2 bfff2cfa*      2599 <EXPANSION END>
                        2600 .L2594:
                        2601 --line1250
                        2602 ..lin.C.3A.5C_ECU2.5CECU_Rivian_A1.5CTarget.5Crepo_projects.5CpFOTA.5CcL_R2023.2E09.2E01.5Cmake.5Cobj.5Cr_fdl_hw_access.203::
                        2603 .LDWlin203:
000006c6 1c50           2604 	mov	r28,r10
                        2605 --	    .ef
                        2606 .LDW08:
000006c8 4006bf00       2607 	dispose	0,{r28,r31},[lp]
                        2608 	.type	_R_FDL_FCUFct_StartBCEraseOperation,@function
                        2609 	.size	_R_FDL_FCUFct_StartBCEraseOperation,.-_R_FDL_FCUFct_StartBCEraseOperation
                        2610 	.align	2
                        2611 .LDW18:
                        2612 --_ret	r28	local
                        2613 
                        2614 --_addStart_u32	r6	param
                        2615 --_addEnd_u32	r28	param
                        2616 --_fcuCmd_u08	r27	param
                        2617 --_accType_enu	r26	param
                        2618 
                        2619 	.section ".bss","awb"
                        2620 .L2640:
                        2621 	.type	.L2640,@object

                                                                      Page 47
                                                              C:\Users\nhuliyap\AppData\Local\Temp\gh_00005nc1.s
                        2622 	.size	.L2640,0
                        2623 	.data
                        2624 	.text
                        2625 	.align	2
                        2626 	.align	2
                        2627 ..gh.f.f.1.e.236:
                        2628 	.type	..gh.f.f.1.e.236,@object
                        2629 	.size	..gh.f.f.1.e.236,0
                        2630 	.global	_R_FDL_FCUFct_ReadOperation
                        2631 _R_FDL_FCUFct_ReadOperation:
000006cc 8007e1f0       2632 	prepare	{r24,r25,r26,r27,r28,r29,r31},0
000006d0 06d0           2633 	mov	r6,r26
000006d2 07c8           2634 	mov	r7,r25
                        2635 --	    .bf
                        2636 .LDW28:
000006d4 26ef0100       2637 	ld.w	0[r6],r29
000006d8 840709480000*  2638 	ld.w	sdaoff23(_g_fdl_str+56)[gp],r9
000006de 08d8           2639 	mov	r8,r27
000006e0 c2da           2640 	shl	2,r27
000006e2 5dee20ff       2641 	movhi	65312,r29,r29
000006e6 00e2           2642 	mov	0,r28
000006e8 ddd9           2643 	add	r29,r27
000006ea 09360800       2644 	addi	8,r9,r6
000006ee 013a           2645 	mov	1,r7
                        2646 	jarl	_R_FDL_IFct_WriteMemoryU08,lp
                        2646 <EXPANSION BEGIN>
                        2646 jarl22 _R_FDL_IFct_WriteMemoryU08 , lp 
000006f0 bfff22f9*      2646 <EXPANSION END>
                        2647 --line1273
                        2648 ..lin.C.3A.5C_ECU2.5CECU_Rivian_A1.5CTarget.5Crepo_projects.5CpFOTA.5CcL_R2023.2E09.2E01.5Cmake.5Cobj.5Cr_fdl_hw_access.204::
                        2649 .LDWlin204:
000006f4 840709400000*  2650 	ld.w	sdaoff23(_g_fdl_str+56)[gp],r8
000006fa 08361400       2651 	addi	20,r8,r6
                        2652 	jarl	_R_FDL_IFct_ReadMemoryU08,lp
                        2652 <EXPANSION BEGIN>
                        2652 jarl22 _R_FDL_IFct_ReadMemoryU08 , lp 
000006fe bfff08f9*      2652 <EXPANSION END>
                        2653 --line1274
                        2654 ..lin.C.3A.5C_ECU2.5CECU_Rivian_A1.5CTarget.5Crepo_projects.5CpFOTA.5CcL_R2023.2E09.2E01.5Cmake.5Cobj.5Cr_fdl_hw_access.205::
                        2655 .LDWlin205:
00000702 840709380000*  2656 	ld.w	sdaoff23(_g_fdl_str+56)[gp],r7
00000708 0ac0           2657 	mov	r10,r24
0000070a 07361400       2658 	addi	20,r7,r6
0000070e 1c38           2659 	mov	r28,r7
                        2660 	jarl	_R_FDL_IFct_WriteMemoryU08,lp
                        2660 <EXPANSION BEGIN>
                        2660 jarl22 _R_FDL_IFct_WriteMemoryU08 , lp 
00000710 bfff02f9*      2660 <EXPANSION END>
                        2661 .L2689:
                        2662 --line1278
                        2663 ..lin.C.3A.5C_ECU2.5CECU_Rivian_A1.5CTarget.5Crepo_projects.5CpFOTA.5CcL_R2023.2E09.2E01.5Cmake.5Cobj.5Cr_fdl_hw_access.206::
                        2664 .LDWlin206:
00000714 1d30           2665 	mov	r29,r6
                        2666 	jarl	_R_FDL_IFct_ReadMemoryU32,lp
                        2666 <EXPANSION BEGIN>
                        2666 jarl22 _R_FDL_IFct_ReadMemoryU32 , lp 
00000716 bfffeaf8*      2666 <EXPANSION END>
                        2667 --line1279
                        2668 ..lin.C.3A.5C_ECU2.5CECU_Rivian_A1.5CTarget.5Crepo_projects.5CpFOTA.5CcL_R2023.2E09.2E01.5Cmake.5Cobj.5Cr_fdl_hw_access.207::
                        2669 .LDWlin207:
0000071a 1930           2670 	mov	r25,r6

                                                                      Page 48
                                                              C:\Users\nhuliyap\AppData\Local\Temp\gh_00005nc1.s
0000071c 0a38           2671 	mov	r10,r7
                        2672 	jarl	_R_FDL_IFct_WriteMemoryU32,lp
                        2672 <EXPANSION BEGIN>
                        2672 jarl22 _R_FDL_IFct_WriteMemoryU32 , lp 
0000071e bfff00f9*      2672 <EXPANSION END>
                        2673 --line1281
                        2674 ..lin.C.3A.5C_ECU2.5CECU_Rivian_A1.5CTarget.5Crepo_projects.5CpFOTA.5CcL_R2023.2E09.2E01.5Cmake.5Cobj.5Cr_fdl_hw_access.208::
                        2675 .LDWlin208:
00000722 840709300000*  2676 	ld.w	sdaoff23(_g_fdl_str+56)[gp],r6
00000728 4432           2677 	add	4,r6
                        2678 	jarl	_R_FDL_IFct_ReadMemoryU32,lp
                        2678 <EXPANSION BEGIN>
                        2678 jarl22 _R_FDL_IFct_ReadMemoryU32 , lp 
0000072a bfffd6f8*      2678 <EXPANSION END>
                        2679 --line1303
                        2680 ..lin.C.3A.5C_ECU2.5CECU_Rivian_A1.5CTarget.5Crepo_projects.5CpFOTA.5CcL_R2023.2E09.2E01.5Cmake.5Cobj.5Cr_fdl_hw_access.209::
                        2681 .LDWlin209:
0000072e e051           2682 	cmp	zero,r10
00000730 a21d*          2683 	be	.L2690
                        2684 --line1305
                        2685 ..lin.C.3A.5C_ECU2.5CECU_Rivian_A1.5CTarget.5Crepo_projects.5CpFOTA.5CcL_R2023.2E09.2E01.5Cmake.5Cobj.5Cr_fdl_hw_access.210::
                        2686 .LDWlin210:
00000732 ca3e0200       2687 	andi	2,r10,r7
00000736 623a           2688 	cmp	2,r7
00000738 fa05*          2689 	bne	.L2692
                        2690 --line1307
                        2691 ..lin.C.3A.5C_ECU2.5CECU_Rivian_A1.5CTarget.5Crepo_projects.5CpFOTA.5CcL_R2023.2E09.2E01.5Cmake.5Cobj.5Cr_fdl_hw_access.211::
                        2692 .LDWlin211:
0000073a 5d36e000       2693 	movhi	224,r29,r6
0000073e 7a370100       2694 	st.w	r6,0[r26]
00000742 0ce2           2695 	mov	12,r28
00000744 850d*          2696 	br	.L2694
                        2697 .L2692:
                        2698 --line1313
                        2699 ..lin.C.3A.5C_ECU2.5CECU_Rivian_A1.5CTarget.5Crepo_projects.5CpFOTA.5CcL_R2023.2E09.2E01.5Cmake.5Cobj.5Cr_fdl_hw_access.212::
                        2700 .LDWlin212:
00000746 e0e1           2701 	cmp	zero,r28
00000748 ea05*          2702 	bne	.L2694
                        2703 --line1315
                        2704 ..lin.C.3A.5C_ECU2.5CECU_Rivian_A1.5CTarget.5Crepo_projects.5CpFOTA.5CcL_R2023.2E09.2E01.5Cmake.5Cobj.5Cr_fdl_hw_access.213::
                        2705 .LDWlin213:
0000074a 5d9ee000       2706 	movhi	224,r29,r19
0000074e 7a9f0100       2707 	st.w	r19,0[r26]
00000752 0be2           2708 	mov	11,r28
                        2709 .L2694:
00000754 840709980000*  2710 	ld.w	sdaoff23(_g_fdl_str+56)[gp],r19
0000075a 013a           2711 	mov	1,r7
0000075c 13360800       2712 	addi	8,r19,r6
                        2713 	jarl	_R_FDL_IFct_WriteMemoryU08,lp
                        2713 <EXPANSION BEGIN>
                        2713 jarl22 _R_FDL_IFct_WriteMemoryU08 , lp 
00000760 bfffb2f8*      2713 <EXPANSION END>
                        2714 .L2690:
                        2715 --line1322
                        2716 ..lin.C.3A.5C_ECU2.5CECU_Rivian_A1.5CTarget.5Crepo_projects.5CpFOTA.5CcL_R2023.2E09.2E01.5Cmake.5Cobj.5Cr_fdl_hw_access.214::
                        2717 .LDWlin214:
00000764 44ea           2718 	add	4,r29
00000766 44ca           2719 	add	4,r25
00000768 fbe9           2720 	cmp	r27,r29
0000076a b905*          2721 	bnl	.L2687
0000076c 6ce2           2722 	cmp	12,r28

                                                                      Page 49
                                                              C:\Users\nhuliyap\AppData\Local\Temp\gh_00005nc1.s
0000076e bad5*          2723 	bne	.L2689
                        2724 .L2687:
                        2725 --line1327
                        2726 ..lin.C.3A.5C_ECU2.5CECU_Rivian_A1.5CTarget.5Crepo_projects.5CpFOTA.5CcL_R2023.2E09.2E01.5Cmake.5Cobj.5Cr_fdl_hw_access.215::
                        2727 .LDWlin215:
00000770 840709900000*  2728 	ld.w	sdaoff23(_g_fdl_str+56)[gp],r18
00000776 1838           2729 	mov	r24,r7
00000778 12361400       2730 	addi	20,r18,r6
                        2731 	jarl	_R_FDL_IFct_WriteMemoryU08,lp
                        2731 <EXPANSION BEGIN>
                        2731 jarl22 _R_FDL_IFct_WriteMemoryU08 , lp 
0000077c bfff96f8*      2731 <EXPANSION END>
                        2732 --line1329
                        2733 ..lin.C.3A.5C_ECU2.5CECU_Rivian_A1.5CTarget.5Crepo_projects.5CpFOTA.5CcL_R2023.2E09.2E01.5Cmake.5Cobj.5Cr_fdl_hw_access.216::
                        2734 .LDWlin216:
00000780 1c50           2735 	mov	r28,r10
                        2736 --	    .ef
                        2737 .LDW38:
00000782 4006fff0       2738 	dispose	0,{r24,r25,r26,r27,r28,r29,r31},[lp]
                        2739 	.type	_R_FDL_FCUFct_ReadOperation,@function
                        2740 	.size	_R_FDL_FCUFct_ReadOperation,.-_R_FDL_FCUFct_ReadOperation
                        2741 	.align	2
                        2742 .LDW48:
                        2743 --_ret	r28	local
                        2744 --_addEnd	r27	local
                        2745 --_add	r29	local
                        2746 --_regDFERINT	r24	local
                        2747 --_regDFERSTR	r10	local
                        2748 
                        2749 --_pAddSrc_u32	r26	param
                        2750 --_addDest_u32	r25	param
                        2751 --_cnt_u32	r8	param
                        2752 
                        2753 	.section ".bss","awb"
                        2754 .L2766:
                        2755 	.type	.L2766,@object
                        2756 	.size	.L2766,0
                        2757 	.data
                        2758 	.text
                        2759 	.align	2
                        2760 	.align	2
                        2761 ..gh.f.f.1.e.237:
                        2762 	.type	..gh.f.f.1.e.237,@object
                        2763 	.size	..gh.f.f.1.e.237,0
                        2764 	.global	_R_FDL_FCUFct_ChkStartable
                        2765 _R_FDL_FCUFct_ChkStartable:
00000786 8007e100       2766 	prepare	{r28,r29,r31},0
0000078a 06e0           2767 	mov	r6,r28
0000078c bc00           2768 	sxb	r28
                        2769 --	    .bf
                        2770 .LDW58:
0000078e 26068000a1ff   2771 	mov	-6225792,r6
                        2772 	jarl	_R_FDL_IFct_ReadMemoryU32,lp
                        2772 <EXPANSION BEGIN>
                        2772 jarl22 _R_FDL_IFct_ReadMemoryU32 , lp 
00000794 bfff6cf8*      2772 <EXPANSION END>
                        2773 --line1347
                        2774 ..lin.C.3A.5C_ECU2.5CECU_Rivian_A1.5CTarget.5Crepo_projects.5CpFOTA.5CcL_R2023.2E09.2E01.5Cmake.5Cobj.5Cr_fdl_hw_access.217::
                        2775 .LDWlin217:
00000798 61e2           2776 	cmp	1,r28
0000079a fa05*          2777 	bne	.L2867

                                                                      Page 50
                                                              C:\Users\nhuliyap\AppData\Local\Temp\gh_00005nc1.s
0000079c 1ce8           2778 	mov	r28,r29
                        2779 --line1350
                        2780 ..lin.C.3A.5C_ECU2.5CECU_Rivian_A1.5CTarget.5Crepo_projects.5CpFOTA.5CcL_R2023.2E09.2E01.5Cmake.5Cobj.5Cr_fdl_hw_access.218::
                        2781 .LDWlin218:
0000079e 8952           2782 	shr	9,r10
000007a0 910d*          2783 	bl	.L2873
                        2784 .L2871:
                        2785 --line1362
                        2786 ..lin.C.3A.5C_ECU2.5CECU_Rivian_A1.5CTarget.5Crepo_projects.5CpFOTA.5CcL_R2023.2E09.2E01.5Cmake.5Cobj.5Cr_fdl_hw_access.219::
                        2787 .LDWlin219:
000007a2 1d50           2788 	mov	r29,r10
                        2789 --	    .ef
                        2790 .LDW68:
000007a4 4006ff00       2791 	dispose	0,{r28,r29,r31},[lp]
                        2792 .L2867:
                        2793 --line1356
                        2794 ..lin.C.3A.5C_ECU2.5CECU_Rivian_A1.5CTarget.5Crepo_projects.5CpFOTA.5CcL_R2023.2E09.2E01.5Cmake.5Cobj.5Cr_fdl_hw_access.220::
                        2795 .LDWlin220:
000007a8 ca060003       2796 	andi	768,r10,zero
000007ac e2ef0000       2797 	setfe	r29
000007b0 95fd*          2798 	br	.L2871
                        2799 .L2873:
                        2800 --line1358
                        2801 ..lin.C.3A.5C_ECU2.5CECU_Rivian_A1.5CTarget.5Crepo_projects.5CpFOTA.5CcL_R2023.2E09.2E01.5Cmake.5Cobj.5Cr_fdl_hw_access.221::
                        2802 .LDWlin221:
000007b2 00ea           2803 	mov	0,r29
000007b4 f5f5*          2804 	br	.L2871
                        2805 	.type	_R_FDL_FCUFct_ChkStartable,@function
                        2806 	.size	_R_FDL_FCUFct_ChkStartable,.-_R_FDL_FCUFct_ChkStartable
                        2807 	.align	2
                        2808 .LDW78:
                        2809 --_regFSTATR	r10	local
                        2810 --_ret	r29	local
                        2811 
                        2812 --_cmd_enu	r28	param
                        2813 
                        2814 	.section ".bss","awb"
                        2815 .L2926:
                        2816 	.type	.L2926,@object
                        2817 	.size	.L2926,0
                        2818 	.data
                        2819 	.text
                        2820 	.align	2
                        2821 	.align	2
                        2822 ..gh.f.f.1.e.238:
                        2823 	.type	..gh.f.f.1.e.238,@object
                        2824 	.size	..gh.f.f.1.e.238,0
                        2825 	.global	_R_FDL_FCUFct_ChkSuspendable
                        2826 _R_FDL_FCUFct_ChkSuspendable:
000007b6 80072100       2827 	prepare	{r31},0
                        2828 --	    .bf
                        2829 .LDW88:
000007ba 26068000a1ff   2830 	mov	-6225792,r6
                        2831 	jarl	_R_FDL_IFct_ReadMemoryU32,lp
                        2831 <EXPANSION BEGIN>
                        2831 jarl22 _R_FDL_IFct_ReadMemoryU32 , lp 
000007c0 bfff40f8*      2831 <EXPANSION END>
                        2832 --line1374
                        2833 ..lin.C.3A.5C_ECU2.5CECU_Rivian_A1.5CTarget.5Crepo_projects.5CpFOTA.5CcL_R2023.2E09.2E01.5Cmake.5Cobj.5Cr_fdl_hw_access.222::
                        2834 .LDWlin222:
000007c4 ca560008       2835 	andi	2048,r10,r10

                                                                      Page 51
                                                              C:\Users\nhuliyap\AppData\Local\Temp\gh_00005nc1.s
000007c8 8b52           2836 	shr	11,r10
                        2837 --	    .ef
                        2838 .LDW98:
000007ca 40063f00       2839 	dispose	0,{r31},[lp]
                        2840 	.type	_R_FDL_FCUFct_ChkSuspendable,@function
                        2841 	.size	_R_FDL_FCUFct_ChkSuspendable,.-_R_FDL_FCUFct_ChkSuspendable
                        2842 	.align	2
                        2843 .LDW09:
                        2844 --_regFSTATR	r10	local
                        2845 --_ret	r10	local
                        2846 
                        2847 	.section ".bss","awb"
                        2848 .L3022:
                        2849 	.type	.L3022,@object
                        2850 	.size	.L3022,0
                        2851 	.data
                        2852 	.text
                        2853 	.align	2
                        2854 	.align	2
                        2855 ..gh.f.f.1.e.239:
                        2856 	.type	..gh.f.f.1.e.239,@object
                        2857 	.size	..gh.f.f.1.e.239,0
                        2858 	.global	_R_FDL_FCUFct_Suspend
                        2859 _R_FDL_FCUFct_Suspend:
                        2860 --	    .bf
                        2861 .LDW19:
000007ce 4036a2ff       2862 	movhi	hi(-6160384),zero,r6
000007d2 203eb000       2863 	movea	176,zero,r7
000007d6 bf0742f8*      2864 	jr	_R_FDL_IFct_WriteMemoryU16
                        2865 --	    .ef
                        2866 .LDW29:
                        2867 	.type	_R_FDL_FCUFct_Suspend,@function
                        2868 	.size	_R_FDL_FCUFct_Suspend,.-_R_FDL_FCUFct_Suspend
                        2869 	.align	2
                        2870 .LDW39:
                        2871 
                        2872 	.section ".bss","awb"
                        2873 .L3073:
                        2874 	.type	.L3073,@object
                        2875 	.size	.L3073,0
                        2876 	.data
                        2877 	.text
                        2878 	.align	2
                        2879 	.align	2
                        2880 ..gh.f.f.1.e.240:
                        2881 	.type	..gh.f.f.1.e.240,@object
                        2882 	.size	..gh.f.f.1.e.240,0
                        2883 	.global	_R_FDL_FCUFct_ResumeChkNeed
                        2884 _R_FDL_FCUFct_ResumeChkNeed:
000007da 80072100       2885 	prepare	{r31},0
                        2886 --	    .bf
                        2887 .LDW49:
000007de 26068000a1ff   2888 	mov	-6225792,r6
                        2889 	jarl	_R_FDL_IFct_ReadMemoryU32,lp
                        2889 <EXPANSION BEGIN>
                        2889 jarl22 _R_FDL_IFct_ReadMemoryU32 , lp 
000007e4 bfff1cf8*      2889 <EXPANSION END>
                        2890 --line1407
                        2891 ..lin.C.3A.5C_ECU2.5CECU_Rivian_A1.5CTarget.5Crepo_projects.5CpFOTA.5CcL_R2023.2E09.2E01.5Cmake.5Cobj.5Cr_fdl_hw_access.223::
                        2892 .LDWlin223:
000007e8 ca060003       2893 	andi	768,r10,zero

                                                                      Page 52
                                                              C:\Users\nhuliyap\AppData\Local\Temp\gh_00005nc1.s
000007ec ea570000       2894 	setfne	r10
                        2895 --	    .ef
                        2896 .LDW59:
000007f0 40063f00       2897 	dispose	0,{r31},[lp]
                        2898 	.type	_R_FDL_FCUFct_ResumeChkNeed,@function
                        2899 	.size	_R_FDL_FCUFct_ResumeChkNeed,.-_R_FDL_FCUFct_ResumeChkNeed
                        2900 	.align	2
                        2901 .LDW69:
                        2902 --_regFSTATR	r10	local
                        2903 --_ret	r10	local
                        2904 
                        2905 	.section ".bss","awb"
                        2906 .L3134:
                        2907 	.type	.L3134,@object
                        2908 	.size	.L3134,0
                        2909 	.data
                        2910 	.text
                        2911 	.align	2
                        2912 	.align	2
                        2913 ..gh.f.f.1.e.241:
                        2914 	.type	..gh.f.f.1.e.241,@object
                        2915 	.size	..gh.f.f.1.e.241,0
                        2916 	.global	_R_FDL_FCUFct_Resume
                        2917 _R_FDL_FCUFct_Resume:
                        2918 --	    .bf
                        2919 .LDW79:
000007f4 4036a2ff       2920 	movhi	hi(-6160384),zero,r6
000007f8 203ed000       2921 	movea	208,zero,r7
000007fc bf071cf8*      2922 	jr	_R_FDL_IFct_WriteMemoryU16
                        2923 --	    .ef
                        2924 .LDW89:
                        2925 	.type	_R_FDL_FCUFct_Resume,@function
                        2926 	.size	_R_FDL_FCUFct_Resume,.-_R_FDL_FCUFct_Resume
                        2927 	.align	2
                        2928 .LDW99:
                        2929 
                        2930 	.section ".bss","awb"
                        2931 .L3185:
                        2932 	.type	.L3185,@object
                        2933 	.size	.L3185,0
                        2934 	.data
                        2935 	.text
                        2936 	.align	2
                        2937 	.align	2
                        2938 ..gh.f.f.1.e.242:
                        2939 	.type	..gh.f.f.1.e.242,@object
                        2940 	.size	..gh.f.f.1.e.242,0
                        2941 	.global	_R_FDL_FCUFct_ChkReady
                        2942 _R_FDL_FCUFct_ChkReady:
00000800 80072100       2943 	prepare	{r31},0
                        2944 --	    .bf
                        2945 .LDW001:
00000804 26068000a1ff   2946 	mov	-6225792,r6
                        2947 	jarl	_R_FDL_IFct_ReadMemoryU32,lp
                        2947 <EXPANSION BEGIN>
                        2947 jarl22 _R_FDL_IFct_ReadMemoryU32 , lp 
0000080a bffff6f7*      2947 <EXPANSION END>
                        2948 --line1445
                        2949 ..lin.C.3A.5C_ECU2.5CECU_Rivian_A1.5CTarget.5Crepo_projects.5CpFOTA.5CcL_R2023.2E09.2E01.5Cmake.5Cobj.5Cr_fdl_hw_access.224::
                        2950 .LDWlin224:
0000080e ca560080       2951 	andi	32768,r10,r10

                                                                      Page 53
                                                              C:\Users\nhuliyap\AppData\Local\Temp\gh_00005nc1.s
00000812 8f52           2952 	shr	15,r10
                        2953 --	    .ef
                        2954 .LDW101:
00000814 40063f00       2955 	dispose	0,{r31},[lp]
                        2956 	.type	_R_FDL_FCUFct_ChkReady,@function
                        2957 	.size	_R_FDL_FCUFct_ChkReady,.-_R_FDL_FCUFct_ChkReady
                        2958 	.align	2
                        2959 .LDW201:
                        2960 --_ret	r10	local
                        2961 --_regFSTATR	r10	local
                        2962 
                        2963 	.section ".bss","awb"
                        2964 .L3246:
                        2965 	.type	.L3246,@object
                        2966 	.size	.L3246,0
                        2967 	.data
                        2968 	.text
                        2969 	.align	2
                        2970 	.align	2
                        2971 ..gh.f.f.1.e.243:
                        2972 	.type	..gh.f.f.1.e.243,@object
                        2973 	.size	..gh.f.f.1.e.243,0
                        2974 	.global	_R_FDL_FCUFct_CheckFatalError
                        2975 _R_FDL_FCUFct_CheckFatalError:
00000818 80072100       2976 	prepare	{r31},0
                        2977 --	    .bf
                        2978 .LDW301:
0000081c 26068000a1ff   2979 	mov	-6225792,r6
                        2980 	jarl	_R_FDL_IFct_ReadMemoryU32,lp
                        2980 <EXPANSION BEGIN>
                        2980 jarl22 _R_FDL_IFct_ReadMemoryU32 , lp 
00000822 bfffdef7*      2980 <EXPANSION END>
                        2981 --line1511
                        2982 ..lin.C.3A.5C_ECU2.5CECU_Rivian_A1.5CTarget.5Crepo_projects.5CpFOTA.5CcL_R2023.2E09.2E01.5Cmake.5Cobj.5Cr_fdl_hw_access.225::
                        2983 .LDWlin225:
00000826 2906aa400200   2984 	mov	147626,r9
0000082c 0a40           2985 	mov	r10,r8
0000082e 4a49           2986 	and	r10,r9
00000830 ed071453       2987 	cmovne	13,zero,r10
00000834 ca05*          2988 	bne	.L3267
                        2989 --line1517
                        2990 ..lin.C.3A.5C_ECU2.5CECU_Rivian_A1.5CTarget.5Crepo_projects.5CpFOTA.5CcL_R2023.2E09.2E01.5Cmake.5Cobj.5Cr_fdl_hw_access.226::
                        2991 .LDWlin226:
00000836 8742           2992 	shr	7,r8
00000838 e5570253       2993 	cmovl	5,r10,r10
                        2994 .L3267:
                        2995 --	    .ef
                        2996 .LDW401:
0000083c 40063f00       2997 	dispose	0,{r31},[lp]
                        2998 	.type	_R_FDL_FCUFct_CheckFatalError,@function
                        2999 	.size	_R_FDL_FCUFct_CheckFatalError,.-_R_FDL_FCUFct_CheckFatalError
                        3000 	.align	2
                        3001 .LDW501:
                        3002 --_ret	r10	local
                        3003 --_regFSTATR	r8	local
                        3004 
                        3005 	.section ".bss","awb"
                        3006 .L3317:
                        3007 	.type	.L3317,@object
                        3008 	.size	.L3317,0
                        3009 	.data

                                                                      Page 54
                                                              C:\Users\nhuliyap\AppData\Local\Temp\gh_00005nc1.s
                        3010 	.text
                        3011 	.align	2
                        3012 --_g_fdl_str	sdaoff23(_g_fdl_str)	import
                        3013 
                        3014 	.data
                        3015 	.ghsnote version,17
                        3016 	.ghsnote tools,8195
                        3017 	.ghsnote options,144
                        3018 	.text
                        3019 	.align	2
                        3020 ..eof.C.3A.5C_ECU2.5CECU_Rivian_A1.5CTarget.5Crepo_projects.5CpFOTA.5CcL_R2023.2E09.2E01.5Cmake.5Cobj.5Cr_fdl_hw_access...43.3A.5C_ECU2.5CECU_Rivian_A1.5CTarget.5Crepo_projects.5CpFOTA.5CcL_R2023.2E09.2E01.5Cmake..64F86487..0::
                        3021 .rh850_flags REGMODE32,DATA_ALIGN8,GP_FIX,EP_NONFIX,TP_FIX,REG2_RESERVE,G3K,SDA_EXTRA_REGS_0
