                                                                      Page 1
                                                              C:\Users\nhuliyap\AppData\Local\Temp\gh_0000ahs1.s
Command Line: C:\GHS\comp_201517\ease850.exe -w -stderr=err/actSHA2_64.err -elf -b0 -I../source/_common -I../source/common -I../source/ecuabcanif -I../source/ecuabcantrcv -I../source/ecuabcryif -I../source/ecuabfee -I../source/ecuabmemif -I../source/libautosar -I../source/mcalcan -I../source/mcalcry -I../source/mcaldio -I../source/mcaleep -I../source/mcalfls -I../source/mcalmcu -I../source/projectara -I../source/projectcfg -I../source/projectcompiler -I../source/swcservicebswm -I../source/swcservicecantp -I../source/swcservicecomm -I../source/swcservicecsm -I../source/swcservicedcm -I../source/swcservicedem -I../source/swcservicedet -I../source/swcserviceecum -I../source/swcservicenvm -I../source/swcserviceos -I../source/swcservicepdur -I../source/swcserviceschm -I../source/swcservicestartup -I../source/wrappers/swcservicesecm -I../source/wrappers/vsecprim -I../source/wrappers/vstdlib -Ic:/ghs/comp_201517/ansi -Ic:/ghs/comp_201517/include/v800 -Igendata -IC:\GHS\comp_201517\lib\rh850 -cg_underscore -cpu=rh850g3k -nofpu -no_v850_simd -rh850_fpsimd=none -nomacro -patch_dbo=C:\_ECU2\ECU_Rivian_A1\Target\repo_projects\pFOTA\cL_LATEST\make\obj\actSHA2_64.dbo -source=actSHA2_64.c -o obj\gh_0000ahs1.o -list=lst/actSHA2_64.lst C:\Users\nhuliyap\AppData\Local\Temp\gh_0000ahs1.s 
Original File: C:\Users\nhuliyap\AppData\Local\Temp\gh_0000ahs1.s
Source File: actSHA2_64.c
Directory: C:\_ECU2\ECU_Rivian_A1\Target\repo_projects\pFOTA\cL_LATEST\make
Host OS: Windows
EASE: Copyright (C) 1983-2015 Green Hills Software.  All Rights Reserved.
Release: Compiler v2015.1.7
Build Directory: [Directory] BTOWORKER6:c:/build_2015_1_bto/2015-10-21.2100-2015_1_bto/win32-comp-ecom
Revision: [VCInfo] http://toolsvc/branches/release-branch-70-bto/src@544153 (built by build)
Revision Date: Thu Oct 22 07:50:13 2015

Release Date: Thu Oct 22 09:32:32 2015

                           1 --Driver Command: ccrh850 -DBRS_DERIVATIVE_701018 -DBRS_OSC_CLK=16
                           2 --		-DBRS_TIMEBASE_CLOCK=80 -DBRS_EVA_BOARD_
                           3 --		-DBRS_DERIVATIVE_GROUP_F1L -DBRS_OS_USECASE_BRS
                           4 --		-DBRS_PLATFORM_RH850 -DBRS_COMP_GHS
                           5 --		-DBRS_CPU_LOCAL_RAM_SIZE_CORE0=32
                           6 --		-DBRS_CPU_RAM_START_CORE0=0xFEDF8000 -list=lst/actSHA2_64.lst
                           7 --		-object_dir=obj -stderr=err/actSHA2_64.err -c -cpu=rh850 -sda=all
                           8 --		-large_sda -prepare_dispose -pragma_asm_inline -no_callt
                           9 --		-inline_prologue -notda -reserve_r2 -fsoft
                          10 --		--unknown_pragma_warnings -list -g -Ogeneral -shortenum
                          11 --		-registermode=32 -I../source/_common -I../source/common
                          12 --		-I../source/ecuabcanif -I../source/ecuabcantrcv
                          13 --		-I../source/ecuabcryif -I../source/ecuabfee
                          14 --		-I../source/ecuabmemif -I../source/libautosar -I../source/mcalcan
                          15 --		-I../source/mcalcry -I../source/mcaldio -I../source/mcaleep
                          16 --		-I../source/mcalfls -I../source/mcalmcu -I../source/projectara
                          17 --		-I../source/projectcfg -I../source/projectcompiler
                          18 --		-I../source/swcservicebswm -I../source/swcservicecantp
                          19 --		-I../source/swcservicecomm -I../source/swcservicecsm
                          20 --		-I../source/swcservicedcm -I../source/swcservicedem
                          21 --		-I../source/swcservicedet -I../source/swcserviceecum
                          22 --		-I../source/swcservicenvm -I../source/swcserviceos
                          23 --		-I../source/swcservicepdur -I../source/swcserviceschm
                          24 --		-I../source/swcservicestartup -I../source/wrappers/swcservicesecm
                          25 --		-I../source/wrappers/vsecprim -I../source/wrappers/vstdlib
                          26 --		-Ic:/ghs/comp_201517/ansi -Ic:/ghs/comp_201517/include/v800
                          27 --		-Igendata ../source/wrappers/vSecPrim/actSHA2_64.c
                          28 --Source File:   ../source/wrappers/vSecPrim/actSHA2_64.c
                          29 --Directory:     
                          30 --		C:\_ECU2\ECU_Rivian_A1\Target\repo_projects\pFOTA\cL_LATEST\make
                          31 --Compile Date:  Wed Sep 06 14:08:53 2023
                          32 --Host OS:       Win32
                          33 --Version:       C-RH850 2015.1.7 RELEASE VERSION
                          34 --Release:       Compiler v2015.1.7
                          35 --Revision Date: Thu Oct 22 08:06:12 2015
                          36 --Release Date:  Thu Oct 22 09:34:32 2015
                          37 -- ecom  -g -w -OM
                          38 	.section ".MSR_CODE","ax"
                          39 	.align	2
                          40 	.align	2
                          41 ..bof.C.3A.5C_ECU2.5CECU_Rivian_A1.5CTarget.5Crepo_projects.5CpFOTA.5CcL_LATEST.5Cmake.5Cobj.5CactSHA2_64...43.3A.5C_ECU2.5CECU_Rivian_A1.5CTarget.5Crepo_projects.5CpFOTA.5CcL_LATEST.5Cmake..64F86BD5..0::
                          42 	.align	2
                          43 ..gh.f.f.1.e.0:
                          44 	.type	..gh.f.f.1.e.0,@object
                          45 	.size	..gh.f.f.1.e.0,0
                          46 	.global	_actSHA2_64_Transform..C.3A.5C_ECU2.5CECU_Rivian_A1.5CTarget.5Crepo_projects.5CpFOTA.5CcL_LATEST.5Cmake.5Cobj.5CactSHA2_64.
                          47 _actSHA2_64_Transform..C.3A.5C_ECU2.5CECU_Rivian_A1.5CTarget.5Crepo_projects.5CpFOTA.5CcL_LATEST.5Cmake.5Cobj.5CactSHA2_64.:
                          48 _actSHA2_64_Transform:
00000000 be07e1e2         49 	prepare	{r22,r24,r25,r26,r28,r29,r31},31
00000004 031eb4ff         50 	addi	-76,sp,sp

                                                                      Page 2
                                                              C:\Users\nhuliyap\AppData\Local\Temp\gh_0000ahs1.s
00000008 07c0             51 	mov	r7,r24
0000000a 08c8             52 	mov	r8,r25
                          53 --	    .bf
                          54 .LDW01:
0000000c 000a             55 	mov	0,r1
                          56 .L6:
0000000e 0178             57 	mov	r1,r15
00000010 c37a             58 	shl	3,r15
00000012 03f0             59 	mov	sp,ep
00000014 cff1             60 	add	r15,ep
00000016 c779             61 	add	r7,r15
00000018 af0709900000     62 	ld.dw	0[r15],r18
0000001e 410a             63 	add	1,r1
00000020 680a             64 	cmp	8,r1
00000022 be070f900000     65 	st.dw	r18,0[ep]
00000028 b1f5*            66 	bl	.L6
                          67 --line287
                          68 ..lin.C.3A.5C_ECU2.5CECU_Rivian_A1.5CTarget.5Crepo_projects.5CpFOTA.5CcL_LATEST.5Cmake.5Cobj.5CactSHA2_64.1::
                          69 .LDWlin1:
0000002a 0638             70 	mov	r6,r7
0000002c 23364000         71 	movea	64,sp,r6
00000030 20468000         72 	movea	128,zero,r8
                          73 	jarl	_actCpyBEtoU64,lp
                          73 <EXPANSION BEGIN>
                          73 jarl22 _actCpyBEtoU64 , lp 
00000034 80ff0000*        73 <EXPANSION END>
                          74 --line289
                          75 ..lin.C.3A.5C_ECU2.5CECU_Rivian_A1.5CTarget.5Crepo_projects.5CpFOTA.5CcL_LATEST.5Cmake.5Cobj.5CactSHA2_64.2::
                          76 .LDWlin2:
00000038 1930             77 	mov	r25,r6
                          78 	jarl	_actWatchdogTriggerFunction,lp
                          78 <EXPANSION BEGIN>
                          78 jarl22 _actWatchdogTriggerFunction , lp 
0000003a 80ff0000*        78 <EXPANSION END>
                          79 --line291
                          80 ..lin.C.3A.5C_ECU2.5CECU_Rivian_A1.5CTarget.5Crepo_projects.5CpFOTA.5CcL_LATEST.5Cmake.5Cobj.5CactSHA2_64.3::
                          81 .LDWlin3:
0000003e 00d2             82 	mov	0,r26
                          83 .L9:
00000040 000a             84 	mov	0,r1
00000042 e0d1             85 	cmp	zero,r26
00000044 ea07b101*        86 	bne	.L18
                          87 .L14:
                          88 --line320
                          89 ..lin.C.3A.5C_ECU2.5CECU_Rivian_A1.5CTarget.5Crepo_projects.5CpFOTA.5CcL_LATEST.5Cmake.5Cobj.5CactSHA2_64.4::
                          90 .LDWlin4:
00000048 0472             91 	mov	4,r14
0000004a a171             92 	sub	r1,r14
0000004c cef60700         93 	andi	7,r14,ep
00000050 c3f2             94 	shl	3,ep
00000052 c3f1             95 	add	sp,ep
00000054 be0709300000     96 	ld.dw	0[ep],r6
0000005a 1f7a             97 	mov	-1,r15
0000005c a179             98 	sub	r1,r15
0000005e cffe0700         99 	andi	7,r15,lp
00000062 1e6a            100 	mov	-2,r13
00000064 0658            101 	mov	r6,r11
00000066 0750            102 	mov	r7,r10
00000068 a169            103 	sub	r1,r13
0000006a 0748            104 	mov	r7,r9
0000006c 0678            105 	mov	r6,r15

                                                                      Page 3
                                                              C:\Users\nhuliyap\AppData\Local\Temp\gh_0000ahs1.s
0000006e 925a            106 	shr	18,r11
00000070 ce52            107 	shl	14,r10
00000072 cdf60700        108 	andi	7,r13,ep
00000076 8e4a            109 	shr	14,r9
00000078 d27a            110 	shl	18,r15
0000007a 0b51            111 	or	r11,r10
0000007c 0660            112 	mov	r6,r12
0000007e 0770            113 	mov	r7,r14
00000080 c3f2            114 	shl	3,ep
00000082 0979            115 	or	r9,r15
00000084 0788            116 	mov	r7,r17
00000086 0658            117 	mov	r6,r11
00000088 8e62            118 	shr	14,r12
0000008a d272            119 	shl	18,r14
0000008c c3f1            120 	add	sp,ep
0000008e 1d4a            121 	mov	-3,r9
00000090 928a            122 	shr	18,r17
00000092 ce5a            123 	shl	14,r11
00000094 0c71            124 	or	r12,r14
00000096 be0709e00000    125 	ld.dw	0[ep],r28
0000009c a149            126 	sub	r1,r9
0000009e 1159            127 	or	r17,r11
000000a0 0780            128 	mov	r7,r16
000000a2 0660            129 	mov	r6,r12
000000a4 c9f60700        130 	andi	7,r9,ep
000000a8 2a71            131 	xor	r10,r14
000000aa 2b79            132 	xor	r11,r15
000000ac 8982            133 	shr	9,r16
000000ae d762            134 	shl	23,r12
000000b0 c3f2            135 	shl	3,ep
000000b2 0750            136 	mov	r7,r10
000000b4 0658            137 	mov	r6,r11
000000b6 0c81            138 	or	r12,r16
000000b8 c3f1            139 	add	sp,ep
000000ba d752            140 	shl	23,r10
000000bc 895a            141 	shr	9,r11
000000be be0709600000    142 	ld.dw	0[ep],r12
000000c4 0a59            143 	or	r10,r11
000000c6 2f59            144 	xor	r15,r11
000000c8 1c50            145 	mov	r28,r10
000000ca 1d78            146 	mov	r29,r15
000000cc 2c51            147 	xor	r12,r10
000000ce 2d79            148 	xor	r13,r15
000000d0 c3fa            149 	shl	3,lp
000000d2 4651            150 	and	r6,r10
000000d4 4779            151 	and	r7,r15
000000d6 c3f9            152 	add	sp,lp
000000d8 2e81            153 	xor	r14,r16
000000da 3c51            154 	xor	r28,r10
000000dc 3d79            155 	xor	r29,r15
000000de d051            156 	add	r16,r10
000000e0 eb7fa25b        157 	adfl	r11,r15,r11
000000e4 0138            158 	mov	r1,r7
000000e6 c33a            159 	shl	3,r7
000000e8 3e0600000000*   160 	mov	rosdaoff23(_actSHA2_64_K),ep
000000ee c7f1            161 	add	r7,ep
000000f0 c339            162 	add	sp,r7
000000f2 be0709400000    163 	ld.dw	0[ep],r8
000000f8 a70709740000    164 	ld.dw	64[r7],r14
000000fe bf0709900000    165 	ld.dw	0[lp],r18
00000104 c871            166 	add	r8,r14

                                                                      Page 4
                                                              C:\Users\nhuliyap\AppData\Local\Temp\gh_0000ahs1.s
00000106 e97fa24b        167 	adfl	r9,r15,r9
0000010a ca71            168 	add	r10,r14
0000010c eb4fa243        169 	adfl	r11,r9,r8
00000110 0e60            170 	mov	r14,r12
00000112 d261            171 	add	r18,r12
00000114 f347a26b        172 	adfl	r19,r8,r13
00000118 0342            173 	mov	3,r8
0000011a a141            174 	sub	r1,r8
0000011c c8f60700        175 	andi	7,r8,ep
00000120 c3f2            176 	shl	3,ep
00000122 bf070f600000    177 	st.dw	r12,0[lp]
00000128 c3f1            178 	add	sp,ep
0000012a be0709300000    179 	ld.dw	0[ep],r6
00000130 0c40            180 	mov	r12,r8
00000132 0262            181 	mov	2,r12
00000134 c641            182 	add	r6,r8
00000136 e76fa24b        183 	adfl	r7,r13,r9
0000013a 0138            184 	mov	r1,r7
0000013c be070f400000    185 	st.dw	r8,0[ep]
00000142 8039            186 	subr	zero,r7
00000144 c7f60700        187 	andi	7,r7,ep
00000148 c3f2            188 	shl	3,ep
0000014a c3f1            189 	add	sp,ep
0000014c be0709400000    190 	ld.dw	0[ep],r8
00000152 0132            191 	mov	1,r6
00000154 a131            192 	sub	r1,r6
00000156 c6f60700        193 	andi	7,r6,ep
0000015a 0978            194 	mov	r9,r15
0000015c 08e8            195 	mov	r8,r29
0000015e 0980            196 	mov	r9,r16
00000160 0868            197 	mov	r8,r13
00000162 c3f2            198 	shl	3,ep
00000164 9c7a            199 	shr	28,r15
00000166 c4ea            200 	shl	4,r29
00000168 de82            201 	shl	30,r16
0000016a 826a            202 	shr	2,r13
0000016c 0888            203 	mov	r8,r17
0000016e 09e0            204 	mov	r9,r28
00000170 0970            205 	mov	r9,r14
00000172 0830            206 	mov	r8,r6
00000174 c3f1            207 	add	sp,ep
00000176 0fe9            208 	or	r15,r29
00000178 1069            209 	or	r16,r13
0000017a 9c8a            210 	shr	28,r17
0000017c c4e2            211 	shl	4,r28
0000017e 8272            212 	shr	2,r14
00000180 de32            213 	shl	30,r6
00000182 be0709500000    214 	ld.dw	0[ep],r10
00000188 2de9            215 	xor	r13,r29
0000018a a161            216 	sub	r1,r12
0000018c 11e1            217 	or	r17,r28
0000018e 0671            218 	or	r6,r14
00000190 0968            219 	mov	r9,r13
00000192 0838            220 	mov	r8,r7
00000194 ccf60700        221 	andi	7,r12,ep
00000198 2ee1            222 	xor	r14,r28
0000019a d96a            223 	shl	25,r13
0000019c 873a            224 	shr	7,r7
0000019e c3f2            225 	shl	3,ep
000001a0 0980            226 	mov	r9,r16
000001a2 0870            227 	mov	r8,r14

                                                                      Page 5
                                                              C:\Users\nhuliyap\AppData\Local\Temp\gh_0000ahs1.s
000001a4 0d39            228 	or	r13,r7
000001a6 c3f1            229 	add	sp,ep
000001a8 8782            230 	shr	7,r16
000001aa d972            231 	shl	25,r14
000001ac be0709600000    232 	ld.dw	0[ep],r12
000001b2 0e81            233 	or	r14,r16
000001b4 0a70            234 	mov	r10,r14
000001b6 0b78            235 	mov	r11,r15
000001b8 0851            236 	or	r8,r10
000001ba 0959            237 	or	r9,r11
000001bc 4871            238 	and	r8,r14
000001be 4979            239 	and	r9,r15
000001c0 4c51            240 	and	r12,r10
000001c2 4d59            241 	and	r13,r11
000001c4 bf0709900000    242 	ld.dw	0[lp],r18
000001ca 3c81            243 	xor	r28,r16
000001cc 3d39            244 	xor	r29,r7
000001ce 0e51            245 	or	r14,r10
000001d0 0f59            246 	or	r15,r11
000001d2 d051            247 	add	r16,r10
000001d4 e75fa27b        248 	adfl	r7,r11,r15
000001d8 0a30            249 	mov	r10,r6
000001da d231            250 	add	r18,r6
000001dc f37fa23b        251 	adfl	r19,r15,r7
000001e0 410a            252 	add	1,r1
000001e2 bf070f300000    253 	st.dw	r6,0[lp]
000001e8 0106f0ff        254 	addi	-16,r1,zero
000001ec f9075dfe*       255 	bnl	.L14
000001f0 80077402*       256 	br	.L15
                         257 .L18:
                         258 --line329
                         259 ..lin.C.3A.5C_ECU2.5CECU_Rivian_A1.5CTarget.5Crepo_projects.5CpFOTA.5CcL_LATEST.5Cmake.5Cobj.5CactSHA2_64.5::
                         260 .LDWlin5:
000001f4 0176feff        261 	addi	-2,r1,r14
000001f8 ce360f00        262 	andi	15,r14,r6
000001fc 23964000        263 	movea	64,sp,r18
00000200 c332            264 	shl	3,r6
00000202 d231            265 	add	r18,r6
00000204 a60709500000    266 	ld.dw	0[r6],r10
0000020a 016e0100        267 	addi	1,r1,r13
0000020e cd9e0f00        268 	andi	15,r13,r19
00000212 c39a            269 	shl	3,r19
00000214 0a48            270 	mov	r10,r9
00000216 0be0            271 	mov	r11,r28
00000218 934a            272 	shr	19,r9
0000021a cde2            273 	shl	13,r28
0000021c 09e1            274 	or	r9,r28
0000021e 0b30            275 	mov	r11,r6
00000220 0a48            276 	mov	r10,r9
00000222 c332            277 	shl	3,r6
00000224 9d4a            278 	shr	29,r9
00000226 0649            279 	or	r6,r9
00000228 0b38            280 	mov	r11,r7
0000022a 0b60            281 	mov	r11,r12
0000022c 0b30            282 	mov	r11,r6
0000022e 865a            283 	shr	6,r11
00000230 d299            284 	add	r18,r19
00000232 0b68            285 	mov	r11,r13
00000234 b30709800000    286 	ld.dw	0[r19],r16
0000023a 015ef9ff        287 	addi	-7,r1,r11
0000023e 0ae8            288 	mov	r10,r29

                                                                      Page 6
                                                              C:\Users\nhuliyap\AppData\Local\Temp\gh_0000ahs1.s
00000240 0a40            289 	mov	r10,r8
00000242 cb9e0f00        290 	andi	15,r11,r19
00000246 8652            291 	shr	6,r10
00000248 da32            292 	shl	26,r6
0000024a c39a            293 	shl	3,r19
0000024c 0a31            294 	or	r10,r6
0000024e d299            295 	add	r18,r19
00000250 933a            296 	shr	19,r7
00000252 cdea            297 	shl	13,r29
00000254 9d62            298 	shr	29,r12
00000256 c342            299 	shl	3,r8
00000258 b30709500000    300 	ld.dw	0[r19],r10
0000025e c1f60f00        301 	andi	15,r1,ep
00000262 07e9            302 	or	r7,r29
00000264 0861            303 	or	r8,r12
00000266 c3f2            304 	shl	3,ep
00000268 3c61            305 	xor	r28,r12
0000026a 3d49            306 	xor	r29,r9
0000026c d2f1            307 	add	r18,ep
0000026e 2c31            308 	xor	r12,r6
00000270 2969            309 	xor	r9,r13
00000272 c651            310 	add	r6,r10
00000274 ed5fa29b        311 	adfl	r13,r11,r19
00000278 1068            312 	mov	r16,r13
0000027a 11e0            313 	mov	r17,r28
0000027c 816a            314 	shr	1,r13
0000027e dfe2            315 	shl	31,r28
00000280 0de1            316 	or	r13,r28
00000282 1158            317 	mov	r17,r11
00000284 1068            318 	mov	r16,r13
00000286 815a            319 	shr	1,r11
00000288 df6a            320 	shl	31,r13
0000028a 0b69            321 	or	r11,r13
0000028c 1060            322 	mov	r16,r12
0000028e 1140            323 	mov	r17,r8
00000290 1148            324 	mov	r17,r9
00000292 1058            325 	mov	r16,r11
00000294 8862            326 	shr	8,r12
00000296 d842            327 	shl	24,r8
00000298 884a            328 	shr	8,r9
0000029a d85a            329 	shl	24,r11
0000029c 1138            330 	mov	r17,r7
0000029e 0c41            331 	or	r12,r8
000002a0 0959            332 	or	r9,r11
000002a2 8782            333 	shr	7,r16
000002a4 d93a            334 	shl	25,r7
000002a6 3c41            335 	xor	r28,r8
000002a8 2d59            336 	xor	r13,r11
000002aa 0781            337 	or	r7,r16
000002ac 878a            338 	shr	7,r17
000002ae be0709700000    339 	ld.dw	0[ep],r14
000002b4 2881            340 	xor	r8,r16
000002b6 2b89            341 	xor	r11,r17
000002b8 ca81            342 	add	r10,r16
000002ba f38fa253        343 	adfl	r19,r17,r10
000002be ce81            344 	add	r14,r16
000002c0 ef57a28b        345 	adfl	r15,r10,r17
000002c4 0452            346 	mov	4,r10
000002c6 be070f800000    347 	st.dw	r16,0[ep]
000002cc a151            348 	sub	r1,r10
000002ce caf60700        349 	andi	7,r10,ep

                                                                      Page 7
                                                              C:\Users\nhuliyap\AppData\Local\Temp\gh_0000ahs1.s
000002d2 c3f2            350 	shl	3,ep
000002d4 c3f1            351 	add	sp,ep
000002d6 be0709300000    352 	ld.dw	0[ep],r6
000002dc 1e4a            353 	mov	-2,r9
000002de a149            354 	sub	r1,r9
000002e0 c9f60700        355 	andi	7,r9,ep
000002e4 0778            356 	mov	r7,r15
000002e6 0668            357 	mov	r6,r13
000002e8 0698            358 	mov	r6,r19
000002ea 07b0            359 	mov	r7,r22
000002ec 8e7a            360 	shr	14,r15
000002ee d26a            361 	shl	18,r13
000002f0 929a            362 	shr	18,r19
000002f2 ceb2            363 	shl	14,r22
000002f4 0f69            364 	or	r15,r13
000002f6 13b1            365 	or	r19,r22
000002f8 0640            366 	mov	r6,r8
000002fa 0790            367 	mov	r7,r18
000002fc 0778            368 	mov	r7,r15
000002fe 0698            369 	mov	r6,r19
00000300 8e42            370 	shr	14,r8
00000302 d292            371 	shl	18,r18
00000304 927a            372 	shr	18,r15
00000306 ce9a            373 	shl	14,r19
00000308 c3f2            374 	shl	3,ep
0000030a 0891            375 	or	r8,r18
0000030c 0f99            376 	or	r15,r19
0000030e c3f1            377 	add	sp,ep
00000310 32b1            378 	xor	r18,r22
00000312 1d7a            379 	mov	-3,r15
00000314 be0709e00000    380 	ld.dw	0[ep],r28
0000031a 0790            381 	mov	r7,r18
0000031c 0648            382 	mov	r6,r9
0000031e a179            383 	sub	r1,r15
00000320 d792            384 	shl	23,r18
00000322 894a            385 	shr	9,r9
00000324 cff60700        386 	andi	7,r15,ep
00000328 2d99            387 	xor	r13,r19
0000032a 1249            388 	or	r18,r9
0000032c c3f2            389 	shl	3,ep
0000032e 3349            390 	xor	r19,r9
00000330 c3f1            391 	add	sp,ep
00000332 0740            392 	mov	r7,r8
00000334 0670            393 	mov	r6,r14
00000336 be0709900000    394 	ld.dw	0[ep],r18
0000033c 8942            395 	shr	9,r8
0000033e d772            396 	shl	23,r14
00000340 1f5a            397 	mov	-1,r11
00000342 0e41            398 	or	r14,r8
00000344 a159            399 	sub	r1,r11
00000346 1c70            400 	mov	r28,r14
00000348 1d68            401 	mov	r29,r13
0000034a cbfe0700        402 	andi	7,r11,lp
0000034e 3271            403 	xor	r18,r14
00000350 3369            404 	xor	r19,r13
00000352 c3fa            405 	shl	3,lp
00000354 4671            406 	and	r6,r14
00000356 4769            407 	and	r7,r13
00000358 c3f9            408 	add	sp,lp
0000035a 3641            409 	xor	r22,r8
0000035c 3c71            410 	xor	r28,r14

                                                                      Page 8
                                                              C:\Users\nhuliyap\AppData\Local\Temp\gh_0000ahs1.s
0000035e 3d69            411 	xor	r29,r13
00000360 c871            412 	add	r8,r14
00000362 e96fa27b        413 	adfl	r9,r13,r15
00000366 1af0            414 	mov	r26,ep
00000368 c1f1            415 	add	r1,ep
0000036a c3f2            416 	shl	3,ep
0000036c c5f1            417 	add	r5,ep
0000036e be0709600000*   418 	ld.dw	rosdaoff23(_actSHA2_64_K)[ep],r12
00000374 bf0709500000    419 	ld.dw	0[lp],r10
0000037a d061            420 	add	r16,r12
0000037c ed8fa29b        421 	adfl	r13,r17,r19
00000380 ce61            422 	add	r14,r12
00000382 ef9fa293        423 	adfl	r15,r19,r18
00000386 ca61            424 	add	r10,r12
00000388 eb97a26b        425 	adfl	r11,r18,r13
0000038c 0372            426 	mov	3,r14
0000038e a171            427 	sub	r1,r14
00000390 cef60700        428 	andi	7,r14,ep
00000394 c3f2            429 	shl	3,ep
00000396 bf070f600000    430 	st.dw	r12,0[lp]
0000039c c3f1            431 	add	sp,ep
0000039e be0709400000    432 	ld.dw	0[ep],r8
000003a4 0c50            433 	mov	r12,r10
000003a6 0162            434 	mov	1,r12
000003a8 c851            435 	add	r8,r10
000003aa e96fa25b        436 	adfl	r9,r13,r11
000003ae 0168            437 	mov	r1,r13
000003b0 be070f500000    438 	st.dw	r10,0[ep]
000003b6 8069            439 	subr	zero,r13
000003b8 cdf60700        440 	andi	7,r13,ep
000003bc c3f2            441 	shl	3,ep
000003be c3f1            442 	add	sp,ep
000003c0 be0709400000    443 	ld.dw	0[ep],r8
000003c6 a161            444 	sub	r1,r12
000003c8 ccf60700        445 	andi	7,r12,ep
000003cc c3f2            446 	shl	3,ep
000003ce 0898            447 	mov	r8,r19
000003d0 0960            448 	mov	r9,r12
000003d2 9c9a            449 	shr	28,r19
000003d4 c462            450 	shl	4,r12
000003d6 0990            451 	mov	r9,r18
000003d8 0888            452 	mov	r8,r17
000003da 1361            453 	or	r19,r12
000003dc 0978            454 	mov	r9,r15
000003de 0868            455 	mov	r8,r13
000003e0 de92            456 	shl	30,r18
000003e2 828a            457 	shr	2,r17
000003e4 9c7a            458 	shr	28,r15
000003e6 c46a            459 	shl	4,r13
000003e8 0970            460 	mov	r9,r14
000003ea 0898            461 	mov	r8,r19
000003ec 1289            462 	or	r18,r17
000003ee 0f69            463 	or	r15,r13
000003f0 d972            464 	shl	25,r14
000003f2 879a            465 	shr	7,r19
000003f4 3169            466 	xor	r17,r13
000003f6 0e99            467 	or	r14,r19
000003f8 09e0            468 	mov	r9,r28
000003fa 0890            469 	mov	r8,r18
000003fc 2d99            470 	xor	r13,r19
000003fe 82e2            471 	shr	2,r28

                                                                      Page 9
                                                              C:\Users\nhuliyap\AppData\Local\Temp\gh_0000ahs1.s
00000400 de92            472 	shl	30,r18
00000402 c3f1            473 	add	sp,ep
00000404 026a            474 	mov	2,r13
00000406 1c91            475 	or	r28,r18
00000408 be0709500000    476 	ld.dw	0[ep],r10
0000040e a169            477 	sub	r1,r13
00000410 3261            478 	xor	r18,r12
00000412 cdf60700        479 	andi	7,r13,ep
00000416 0990            480 	mov	r9,r18
00000418 0880            481 	mov	r8,r16
0000041a c3f2            482 	shl	3,ep
0000041c 8792            483 	shr	7,r18
0000041e d982            484 	shl	25,r16
00000420 c3f1            485 	add	sp,ep
00000422 1091            486 	or	r16,r18
00000424 be0709700000    487 	ld.dw	0[ep],r14
0000042a 0a80            488 	mov	r10,r16
0000042c 4881            489 	and	r8,r16
0000042e 0b88            490 	mov	r11,r17
00000430 0a41            491 	or	r10,r8
00000432 0959            492 	or	r9,r11
00000434 4989            493 	and	r9,r17
00000436 4e41            494 	and	r14,r8
00000438 4f59            495 	and	r15,r11
0000043a bf0709300000    496 	ld.dw	0[lp],r6
00000440 2c91            497 	xor	r12,r18
00000442 1041            498 	or	r16,r8
00000444 1159            499 	or	r17,r11
00000446 d241            500 	add	r18,r8
00000448 f35fa28b        501 	adfl	r19,r11,r17
0000044c c641            502 	add	r6,r8
0000044e e78fa24b        503 	adfl	r7,r17,r9
00000452 410a            504 	add	1,r1
00000454 8100            505 	zxb	r1
00000456 bf070f400000    506 	st.dw	r8,0[lp]
0000045c 0106f0ff        507 	addi	-16,r1,zero
00000460 f90795fd*       508 	bnl	.L18
                         509 .L15:
                         510 --line336
                         511 ..lin.C.3A.5C_ECU2.5CECU_Rivian_A1.5CTarget.5Crepo_projects.5CpFOTA.5CcL_LATEST.5Cmake.5Cobj.5CactSHA2_64.6::
                         512 .LDWlin6:
00000464 1930            513 	mov	r25,r6
                         514 	jarl	_actWatchdogTriggerFunction,lp
                         514 <EXPANSION BEGIN>
                         514 jarl22 _actWatchdogTriggerFunction , lp 
00000466 80ff0000*       514 <EXPANSION END>
                         515 --line291
                         516 ..lin.C.3A.5C_ECU2.5CECU_Rivian_A1.5CTarget.5Crepo_projects.5CpFOTA.5CcL_LATEST.5Cmake.5Cobj.5CactSHA2_64.7::
                         517 .LDWlin7:
0000046a 1ad61000        518 	addi	16,r26,r26
0000046e 1a06b0ff        519 	addi	-80,r26,zero
00000472 f907cffb*       520 	bnl	.L9
                         521 --line339
                         522 ..lin.C.3A.5C_ECU2.5CECU_Rivian_A1.5CTarget.5Crepo_projects.5CpFOTA.5CcL_LATEST.5Cmake.5Cobj.5CactSHA2_64.8::
                         523 .LDWlin8:
00000476 1930            524 	mov	r25,r6
                         525 	jarl	_actWatchdogTriggerFunction,lp
                         525 <EXPANSION BEGIN>
                         525 jarl22 _actWatchdogTriggerFunction , lp 
00000478 80ff0000*       525 <EXPANSION END>
                         526 --line341

                                                                      Page 10
                                                              C:\Users\nhuliyap\AppData\Local\Temp\gh_0000ahs1.s
                         527 ..lin.C.3A.5C_ECU2.5CECU_Rivian_A1.5CTarget.5Crepo_projects.5CpFOTA.5CcL_LATEST.5Cmake.5Cobj.5CactSHA2_64.9::
                         528 .LDWlin9:
0000047c 000a            529 	mov	0,r1
                         530 .L21:
0000047e 0178            531 	mov	r1,r15
00000480 c37a            532 	shl	3,r15
00000482 0ff0            533 	mov	r15,ep
00000484 c379            534 	add	sp,r15
00000486 d8f1            535 	add	r24,ep
00000488 af0709700000    536 	ld.dw	0[r15],r14
0000048e be0709800000    537 	ld.dw	0[ep],r16
00000494 0e30            538 	mov	r14,r6
00000496 d031            539 	add	r16,r6
00000498 f17fa23b        540 	adfl	r17,r15,r7
0000049c 410a            541 	add	1,r1
0000049e be070f300000    542 	st.dw	r6,0[ep]
000004a4 680a            543 	cmp	8,r1
000004a6 c1ed*           544 	bl	.L21
                         545 --	    .ef
                         546 .LDW11:
                         547 --line344
                         548 ..lin.C.3A.5C_ECU2.5CECU_Rivian_A1.5CTarget.5Crepo_projects.5CpFOTA.5CcL_LATEST.5Cmake.5Cobj.5CactSHA2_64.10::
                         549 .LDWlin10:
000004a8 031e4c00        550 	addi	76,sp,sp
000004ac 7e06ffe2        551 	dispose	31,{r22,r24,r25,r26,r28,r29,r31},[lp]
                         552 	.type	_actSHA2_64_Transform,@function
                         553 	.size	_actSHA2_64_Transform,.-_actSHA2_64_Transform
                         554 	.type	_actSHA2_64_Transform..C.3A.5C_ECU2.5CECU_Rivian_A1.5CTarget.5Crepo_projects.5CpFOTA.5CcL_LATEST.5Cmake.5Cobj.5CactSHA2_64.,@function
                         555 	.size	_actSHA2_64_Transform..C.3A.5C_ECU2.5CECU_Rivian_A1.5CTarget.5Crepo_projects.5CpFOTA.5CcL_LATEST.5Cmake.5Cobj.5CactSHA2_64.,.-_actSHA2_64_Transform..C.3A.5C_ECU2.5CECU_Rivian_A1.5CTarget.5Crepo_projects.5CpFOTA.5CcL_LATEST.5Cmake.5Cobj.5CactSHA2_64.
                         556 	.align	2
                         557 .LDW21:
                         558 --_W	64[sp]	local
                         559 --_T	0[sp]	local
                         560 --_i	r1	local
                         561 --_j	r26	local
                         562 
                         563 --_in	r6	param
                         564 --_H	r24	param
                         565 --_watchdog	r25	param
                         566 
                         567 	.section ".bss","awb"
                         568 .L1099:
                         569 	.type	.L1099,@object
                         570 	.size	.L1099,0
                         571 	.section ".rosdata","a"
                         572 	.align	8
                         573 	.global	_actSHA2_64_K..C.3A.5C_ECU2.5CECU_Rivian_A1.5CTarget.5Crepo_projects.5CpFOTA.5CcL_LATEST.5Cmake.5Cobj.5CactSHA2_64.
                         574 _actSHA2_64_K..C.3A.5C_ECU2.5CECU_Rivian_A1.5CTarget.5Crepo_projects.5CpFOTA.5CcL_LATEST.5Cmake.5Cobj.5CactSHA2_64.:
00000000 22ae28d7        575 _actSHA2_64_K:	.byte	34,174,40,215
00000004 982f8a42        576 	.byte	152,47,138,66
00000008 cd65ef23        577 	.byte	205,101,239,35
0000000c 91443771        578 	.byte	145,68,55,113
00000010 2f3b4dec        579 	.byte	47,59,77,236
00000014 cffbc0b5        580 	.byte	207,251,192,181
00000018 bcdb8981        581 	.byte	188,219,137,129
0000001c a5dbb5e9        582 	.byte	165,219,181,233
00000020 38b548f3        583 	.byte	56,181,72,243
00000024 5bc25639        584 	.byte	91,194,86,57
00000028 19d005b6        585 	.byte	25,208,5,182
0000002c f111f159        586 	.byte	241,17,241,89
00000030 9b4f19af        587 	.byte	155,79,25,175

                                                                      Page 11
                                                              C:\Users\nhuliyap\AppData\Local\Temp\gh_0000ahs1.s
00000034 a4823f92        588 	.byte	164,130,63,146
00000038 18816dda        589 	.byte	24,129,109,218
0000003c d55e1cab        590 	.byte	213,94,28,171
00000040 420203a3        591 	.byte	66,2,3,163
00000044 98aa07d8        592 	.byte	152,170,7,216
00000048 be6f7045        593 	.byte	190,111,112,69
0000004c 015b8312        594 	.byte	1,91,131,18
00000050 8cb2e44e        595 	.byte	140,178,228,78
00000054 be853124        596 	.byte	190,133,49,36
00000058 e2b4ffd5        597 	.byte	226,180,255,213
0000005c c37d0c55        598 	.byte	195,125,12,85
00000060 6f897bf2        599 	.byte	111,137,123,242
00000064 745dbe72        600 	.byte	116,93,190,114
00000068 b196163b        601 	.byte	177,150,22,59
0000006c feb1de80        602 	.byte	254,177,222,128
00000070 3512c725        603 	.byte	53,18,199,37
00000074 a706dc9b        604 	.byte	167,6,220,155
00000078 942669cf        605 	.byte	148,38,105,207
0000007c 74f19bc1        606 	.byte	116,241,155,193
00000080 d24af19e        607 	.byte	210,74,241,158
00000084 c1699be4        608 	.byte	193,105,155,228
00000088 e3254f38        609 	.byte	227,37,79,56
0000008c 8647beef        610 	.byte	134,71,190,239
00000090 b5d58c8b        611 	.byte	181,213,140,139
00000094 c69dc10f        612 	.byte	198,157,193,15
00000098 659cac77        613 	.byte	101,156,172,119
0000009c cca10c24        614 	.byte	204,161,12,36
000000a0 75022b59        615 	.byte	117,2,43,89
000000a4 6f2ce92d        616 	.byte	111,44,233,45
000000a8 83e4a66e        617 	.byte	131,228,166,110
000000ac aa84744a        618 	.byte	170,132,116,74
000000b0 d4fb41bd        619 	.byte	212,251,65,189
000000b4 dca9b05c        620 	.byte	220,169,176,92
000000b8 b5531183        621 	.byte	181,83,17,131
000000bc da88f976        622 	.byte	218,136,249,118
000000c0 abdf66ee        623 	.byte	171,223,102,238
000000c4 52513e98        624 	.byte	82,81,62,152
000000c8 1032b42d        625 	.byte	16,50,180,45
000000cc 6dc631a8        626 	.byte	109,198,49,168
000000d0 3f21fb98        627 	.byte	63,33,251,152
000000d4 c82703b0        628 	.byte	200,39,3,176
000000d8 e40eefbe        629 	.byte	228,14,239,190
000000dc c77f59bf        630 	.byte	199,127,89,191
000000e0 c28fa83d        631 	.byte	194,143,168,61
000000e4 f30be0c6        632 	.byte	243,11,224,198
000000e8 25a70a93        633 	.byte	37,167,10,147
000000ec 4791a7d5        634 	.byte	71,145,167,213
000000f0 6f8203e0        635 	.byte	111,130,3,224
000000f4 5163ca06        636 	.byte	81,99,202,6
000000f8 706e0e0a        637 	.byte	112,110,14,10
000000fc 67292914        638 	.byte	103,41,41,20
00000100 fc2fd246        639 	.byte	252,47,210,70
00000104 850ab727        640 	.byte	133,10,183,39
00000108 26c9265c        641 	.byte	38,201,38,92
0000010c 38211b2e        642 	.byte	56,33,27,46
00000110 ed2ac45a        643 	.byte	237,42,196,90
00000114 fc6d2c4d        644 	.byte	252,109,44,77
00000118 dfb3959d        645 	.byte	223,179,149,157
0000011c 130d3853        646 	.byte	19,13,56,83
00000120 de63af8b        647 	.byte	222,99,175,139
00000124 54730a65        648 	.byte	84,115,10,101

                                                                      Page 12
                                                              C:\Users\nhuliyap\AppData\Local\Temp\gh_0000ahs1.s
00000128 a8b2773c        649 	.byte	168,178,119,60
0000012c bb0a6a76        650 	.byte	187,10,106,118
00000130 e6aeed47        651 	.byte	230,174,237,71
00000134 2ec9c281        652 	.byte	46,201,194,129
00000138 3b358214        653 	.byte	59,53,130,20
0000013c 852c7292        654 	.byte	133,44,114,146
00000140 6403f14c        655 	.byte	100,3,241,76
00000144 a1e8bfa2        656 	.byte	161,232,191,162
00000148 013042bc        657 	.byte	1,48,66,188
0000014c 4b661aa8        658 	.byte	75,102,26,168
00000150 9197f8d0        659 	.byte	145,151,248,208
00000154 708b4bc2        660 	.byte	112,139,75,194
00000158 30be5406        661 	.byte	48,190,84,6
0000015c a3516cc7        662 	.byte	163,81,108,199
00000160 1852efd6        663 	.byte	24,82,239,214
00000164 19e892d1        664 	.byte	25,232,146,209
00000168 10a96555        665 	.byte	16,169,101,85
0000016c 240699d6        666 	.byte	36,6,153,214
00000170 2a207157        667 	.byte	42,32,113,87
00000174 85350ef4        668 	.byte	133,53,14,244
00000178 b8d1bb32        669 	.byte	184,209,187,50
0000017c 70a06a10        670 	.byte	112,160,106,16
00000180 c8d0d2b8        671 	.byte	200,208,210,184
00000184 16c1a419        672 	.byte	22,193,164,25
00000188 53ab4151        673 	.byte	83,171,65,81
0000018c 086c371e        674 	.byte	8,108,55,30
00000190 99eb8edf        675 	.byte	153,235,142,223
00000194 4c774827        676 	.byte	76,119,72,39
00000198 a8489be1        677 	.byte	168,72,155,225
0000019c b5bcb034        678 	.byte	181,188,176,52
000001a0 635ac9c5        679 	.byte	99,90,201,197
000001a4 b30c1c39        680 	.byte	179,12,28,57
000001a8 cb8a41e3        681 	.byte	203,138,65,227
000001ac 4aaad84e        682 	.byte	74,170,216,78
000001b0 73e36377        683 	.byte	115,227,99,119
000001b4 4fca9c5b        684 	.byte	79,202,156,91
000001b8 a3b8b2d6        685 	.byte	163,184,178,214
000001bc f36f2e68        686 	.byte	243,111,46,104
000001c0 fcb2ef5d        687 	.byte	252,178,239,93
000001c4 ee828f74        688 	.byte	238,130,143,116
000001c8 602f1743        689 	.byte	96,47,23,67
000001cc 6f63a578        690 	.byte	111,99,165,120
000001d0 72abf0a1        691 	.byte	114,171,240,161
000001d4 1478c884        692 	.byte	20,120,200,132
000001d8 ec39641a        693 	.byte	236,57,100,26
000001dc 0802c78c        694 	.byte	8,2,199,140
000001e0 281e6323        695 	.byte	40,30,99,35
000001e4 faffbe90        696 	.byte	250,255,190,144
000001e8 e9bd82de        697 	.byte	233,189,130,222
000001ec eb6c50a4        698 	.byte	235,108,80,164
000001f0 1579c6b2        699 	.byte	21,121,198,178
000001f4 f7a3f9be        700 	.byte	247,163,249,190
000001f8 2b5372e3        701 	.byte	43,83,114,227
000001fc f27871c6        702 	.byte	242,120,113,198
00000200 9c6126ea        703 	.byte	156,97,38,234
00000204 ce3e27ca        704 	.byte	206,62,39,202
00000208 07c2c021        705 	.byte	7,194,192,33
0000020c c7b886d1        706 	.byte	199,184,134,209
00000210 1eebe0cd        707 	.byte	30,235,224,205
00000214 d67ddaea        708 	.byte	214,125,218,234
00000218 78d16eee        709 	.byte	120,209,110,238

                                                                      Page 13
                                                              C:\Users\nhuliyap\AppData\Local\Temp\gh_0000ahs1.s
0000021c 7f4f7df5        710 	.byte	127,79,125,245
00000220 ba6f1772        711 	.byte	186,111,23,114
00000224 aa67f006        712 	.byte	170,103,240,6
00000228 a698c8a2        713 	.byte	166,152,200,162
0000022c c57d630a        714 	.byte	197,125,99,10
00000230 ae0df9be        715 	.byte	174,13,249,190
00000234 04983f11        716 	.byte	4,152,63,17
00000238 1b471c13        717 	.byte	27,71,28,19
0000023c 350b711b        718 	.byte	53,11,113,27
00000240 847d0423        719 	.byte	132,125,4,35
00000244 f577db28        720 	.byte	245,119,219,40
00000248 9324c740        721 	.byte	147,36,199,64
0000024c 7babca32        722 	.byte	123,171,202,50
00000250 bcbec915        723 	.byte	188,190,201,21
00000254 0abe9e3c        724 	.byte	10,190,158,60
00000258 4c0d109c        725 	.byte	76,13,16,156
0000025c c4671d43        726 	.byte	196,103,29,67
00000260 b6423ecb        727 	.byte	182,66,62,203
00000264 bed4c54c        728 	.byte	190,212,197,76
00000268 2a7e65fc        729 	.byte	42,126,101,252
0000026c 9c297f59        730 	.byte	156,41,127,89
00000270 ecfad63a        731 	.byte	236,250,214,58
00000274 ab6fcb5f        732 	.byte	171,111,203,95
00000278 1758474a        733 	.byte	23,88,71,74
0000027c 8c19446c        734 	.byte	140,25,68,108
                         735 	.type	_actSHA2_64_K..C.3A.5C_ECU2.5CECU_Rivian_A1.5CTarget.5Crepo_projects.5CpFOTA.5CcL_LATEST.5Cmake.5Cobj.5CactSHA2_64.,@object
                         736 	.size	_actSHA2_64_K..C.3A.5C_ECU2.5CECU_Rivian_A1.5CTarget.5Crepo_projects.5CpFOTA.5CcL_LATEST.5Cmake.5Cobj.5CactSHA2_64.,640
                         737 	.type	_actSHA2_64_K,@object
                         738 	.size	_actSHA2_64_K,640
                         739 	.data
                         740 	.section ".MSR_CODE","ax"
                         741 	.align	2
                         742 	.align	2
                         743 ..gh.f.f.1.e.1:
                         744 	.type	..gh.f.f.1.e.1,@object
                         745 	.size	..gh.f.f.1.e.1,0
                         746 	.global	_actSHA2_64_Update..C.3A.5C_ECU2.5CECU_Rivian_A1.5CTarget.5Crepo_projects.5CpFOTA.5CcL_LATEST.5Cmake.5Cobj.5CactSHA2_64.
                         747 _actSHA2_64_Update..C.3A.5C_ECU2.5CECU_Rivian_A1.5CTarget.5Crepo_projects.5CpFOTA.5CcL_LATEST.5Cmake.5Cobj.5CactSHA2_64.:
                         748 _actSHA2_64_Update:
000004b0 8007e1f7        749 	prepare	{r21,r22,r23,r24,r25,r26,r27,r28,r29,r31},0
000004b4 06e8            750 	mov	r6,r29
000004b6 07a8            751 	mov	r7,r21
000004b8 08e0            752 	mov	r8,r28
000004ba 09c0            753 	mov	r9,r24
                         754 --	    .bf
                         755 .LDW31:
000004bc 06be5600        756 	addi	86,r6,r23
000004c0 00b2            757 	mov	0,r22
000004c2 16d8            758 	mov	r22,r27
000004c4 0930            759 	mov	r9,r6
                         760 	jarl	_actWatchdogTriggerFunction,lp
                         760 <EXPANSION BEGIN>
                         760 jarl22 _actWatchdogTriggerFunction , lp 
000004c6 80ff0000*       760 <EXPANSION END>
                         761 --line424
                         762 ..lin.C.3A.5C_ECU2.5CECU_Rivian_A1.5CTarget.5Crepo_projects.5CpFOTA.5CcL_LATEST.5Cmake.5Cobj.5CactSHA2_64.11::
                         763 .LDWlin11:
000004ca bd0709740000    764 	ld.dw	64[r29],r14
000004d0 1c40            765 	mov	r28,r8
000004d2 0880            766 	mov	r8,r16
000004d4 ce81            767 	add	r14,r16

                                                                      Page 14
                                                              C:\Users\nhuliyap\AppData\Local\Temp\gh_0000ahs1.s
000004d6 e07fa28b        768 	adfl	zero,r15,r17
000004da ee81            769 	cmp	r14,r16
000004dc ef8f8203        770 	sbfl	r15,r17,zero
000004e0 a915*           771 	bnl	.L1225
                         772 --line425
                         773 ..lin.C.3A.5C_ECU2.5CECU_Rivian_A1.5CTarget.5Crepo_projects.5CpFOTA.5CcL_LATEST.5Cmake.5Cobj.5CactSHA2_64.12::
                         774 .LDWlin12:
000004e2 bd0789540000    775 	ld.dw	72[r29],r10
000004e8 409e0020        776 	movhi	hi(536870912),zero,r19
000004ec 0a660100        777 	addi	1,r10,r12
000004f0 e05fa26b        778 	adfl	zero,r11,r13
000004f4 bd078f640000    779 	st.dw	r12,72[r29]
000004fa 3369            780 	xor	r19,r13
000004fc 0d61            781 	or	r13,r12
000004fe ba05*           782 	bne	.L1225
                         783 --line427
                         784 ..lin.C.3A.5C_ECU2.5CECU_Rivian_A1.5CTarget.5Crepo_projects.5CpFOTA.5CcL_LATEST.5Cmake.5Cobj.5CactSHA2_64.13::
                         785 .LDWlin13:
00000500 20b6f800        786 	movea	248,zero,r22
                         787 .L1225:
00000504 bd070f840000    788 	st.dw	r16,64[r29]
0000050a e0b1            789 	cmp	zero,r22
0000050c ba3d*           790 	bne	.L1229
                         791 --	    .bs
                         792 .LDW41:
                         793 --line451
                         794 ..lin.C.3A.5C_ECU2.5CECU_Rivian_A1.5CTarget.5Crepo_projects.5CpFOTA.5CcL_LATEST.5Cmake.5Cobj.5CactSHA2_64.14::
                         795 .LDWlin14:
0000050e 3d375100        796 	ld.w	80[r29],r6
00000512 e031            797 	cmp	zero,r6
00000514 a21d*           798 	be	.L1237
                         799 --line452
                         800 ..lin.C.3A.5C_ECU2.5CECU_Rivian_A1.5CTarget.5Crepo_projects.5CpFOTA.5CcL_LATEST.5Cmake.5Cobj.5CactSHA2_64.15::
                         801 .LDWlin15:
00000516 20568000        802 	movea	128,zero,r10
0000051a a651            803 	sub	r6,r10
0000051c fc51            804 	cmp	r28,r10
0000051e fc5732db        805 	cmovnl	r28,r10,r27
00000522 d731            806 	add	r23,r6
00000524 1538            807 	mov	r21,r7
00000526 1b40            808 	mov	r27,r8
                         809 	jarl	_VStdLib_MemCpy,lp
                         809 <EXPANSION BEGIN>
                         809 jarl22 _VStdLib_MemCpy , lp 
00000528 80ff0000*       809 <EXPANSION END>
                         810 --line454
                         811 ..lin.C.3A.5C_ECU2.5CECU_Rivian_A1.5CTarget.5Crepo_projects.5CpFOTA.5CcL_LATEST.5Cmake.5Cobj.5CactSHA2_64.16::
                         812 .LDWlin16:
0000052c 1df0            813 	mov	r29,ep
0000052e 285d            814 	sld.w	80[ep],r11
00000530 1b90            815 	mov	r27,r18
00000532 9200            816 	zxb	r18
00000534 d259            817 	add	r18,r11
00000536 295d            818 	sst.w	r11,80[ep]
00000538 0b0680ff        819 	addi	-128,r11,zero
0000053c b925*           820 	bnl	.L1229
                         821 --line461
                         822 ..lin.C.3A.5C_ECU2.5CECU_Rivian_A1.5CTarget.5Crepo_projects.5CpFOTA.5CcL_LATEST.5Cmake.5Cobj.5CactSHA2_64.17::
                         823 .LDWlin17:
0000053e 1730            824 	mov	r23,r6
00000540 1d38            825 	mov	r29,r7

                                                                      Page 15
                                                              C:\Users\nhuliyap\AppData\Local\Temp\gh_0000ahs1.s
00000542 1840            826 	mov	r24,r8
                         827 	jarl	_actSHA2_64_Transform,lp
                         827 <EXPANSION BEGIN>
                         827 jarl22 _actSHA2_64_Transform , lp 
00000544 bfffbcfa*       827 <EXPANSION END>
                         828 .L1237:
                         829 --line466
                         830 ..lin.C.3A.5C_ECU2.5CECU_Rivian_A1.5CTarget.5Crepo_projects.5CpFOTA.5CcL_LATEST.5Cmake.5Cobj.5CactSHA2_64.18::
                         831 .LDWlin18:
00000548 1cd0            832 	mov	r28,r26
0000054a bbd1            833 	sub	r27,r26
0000054c 87d2            834 	shr	7,r26
0000054e 1bc8            835 	mov	r27,r25
00000550 950d*           836 	br	.L1241
                         837 .L1240:
                         838 --line470
                         839 ..lin.C.3A.5C_ECU2.5CECU_Rivian_A1.5CTarget.5Crepo_projects.5CpFOTA.5CcL_LATEST.5Cmake.5Cobj.5CactSHA2_64.19::
                         840 .LDWlin19:
00000552 1930            841 	mov	r25,r6
00000554 d531            842 	add	r21,r6
00000556 1d38            843 	mov	r29,r7
00000558 1840            844 	mov	r24,r8
                         845 	jarl	_actSHA2_64_Transform,lp
                         845 <EXPANSION BEGIN>
                         845 jarl22 _actSHA2_64_Transform , lp 
0000055a bfffa6fa*       845 <EXPANSION END>
                         846 --line468
                         847 ..lin.C.3A.5C_ECU2.5CECU_Rivian_A1.5CTarget.5Crepo_projects.5CpFOTA.5CcL_LATEST.5Cmake.5Cobj.5CactSHA2_64.20::
                         848 .LDWlin20:
0000055e 19ce8000        849 	addi	128,r25,r25
                         850 .L1241:
00000562 1a38            851 	mov	r26,r7
00000564 c73a            852 	shl	7,r7
00000566 db39            853 	add	r27,r7
00000568 e7c9            854 	cmp	r7,r25
0000056a c1f5*           855 	bl	.L1240
                         856 --line474
                         857 ..lin.C.3A.5C_ECU2.5CECU_Rivian_A1.5CTarget.5Crepo_projects.5CpFOTA.5CcL_LATEST.5Cmake.5Cobj.5CactSHA2_64.21::
                         858 .LDWlin21:
0000056c a7e1            859 	sub	r7,r28
0000056e 7de75100        860 	st.w	r28,80[r29]
00000572 1730            861 	mov	r23,r6
00000574 d539            862 	add	r21,r7
00000576 1c40            863 	mov	r28,r8
                         864 	jarl	_VStdLib_MemCpy,lp
                         864 <EXPANSION BEGIN>
                         864 jarl22 _VStdLib_MemCpy , lp 
00000578 80ff0000*       864 <EXPANSION END>
                         865 --line477
                         866 ..lin.C.3A.5C_ECU2.5CECU_Rivian_A1.5CTarget.5Crepo_projects.5CpFOTA.5CcL_LATEST.5Cmake.5Cobj.5CactSHA2_64.22::
                         867 .LDWlin22:
0000057c 1830            868 	mov	r24,r6
                         869 	jarl	_actWatchdogTriggerFunction,lp
                         869 <EXPANSION BEGIN>
                         869 jarl22 _actWatchdogTriggerFunction , lp 
0000057e 80ff0000*       869 <EXPANSION END>
                         870 .L1229:
                         871 --	    .es
                         872 .LDW51:
                         873 --line481
                         874 ..lin.C.3A.5C_ECU2.5CECU_Rivian_A1.5CTarget.5Crepo_projects.5CpFOTA.5CcL_LATEST.5Cmake.5Cobj.5CactSHA2_64.23::

                                                                      Page 16
                                                              C:\Users\nhuliyap\AppData\Local\Temp\gh_0000ahs1.s
                         875 .LDWlin23:
00000582 1650            876 	mov	r22,r10
                         877 --	    .ef
                         878 .LDW61:
00000584 4006fff7        879 	dispose	0,{r21,r22,r23,r24,r25,r26,r27,r28,r29,r31},[lp]
                         880 	.type	_actSHA2_64_Update,@function
                         881 	.size	_actSHA2_64_Update,.-_actSHA2_64_Update
                         882 	.type	_actSHA2_64_Update..C.3A.5C_ECU2.5CECU_Rivian_A1.5CTarget.5Crepo_projects.5CpFOTA.5CcL_LATEST.5Cmake.5Cobj.5CactSHA2_64.,@function
                         883 	.size	_actSHA2_64_Update..C.3A.5C_ECU2.5CECU_Rivian_A1.5CTarget.5Crepo_projects.5CpFOTA.5CcL_LATEST.5Cmake.5Cobj.5CactSHA2_64.,.-_actSHA2_64_Update..C.3A.5C_ECU2.5CECU_Rivian_A1.5CTarget.5Crepo_projects.5CpFOTA.5CcL_LATEST.5Cmake.5Cobj.5CactSHA2_64.
                         884 	.align	2
                         885 .LDW71:
                         886 --_Hptr	r29	local
                         887 --_bufferPtr	r23	local
                         888 --_retVal	r22	local
                         889 --_diff	r27	local
                         890 --_blocks	r26	local
                         891 --_bcount	r25	local
                         892 
                         893 --_info	r29	param
                         894 --_dataIN	r21	param
                         895 --_length	r28	param
                         896 --_watchdog	r24	param
                         897 
                         898 	.section ".bss","awb"
                         899 .L1445:
                         900 	.type	.L1445,@object
                         901 	.size	.L1445,0
                         902 	.data
                         903 	.section ".MSR_CODE","ax"
                         904 	.align	2
                         905 	.align	2
                         906 ..gh.f.f.1.e.2:
                         907 	.type	..gh.f.f.1.e.2,@object
                         908 	.size	..gh.f.f.1.e.2,0
                         909 	.global	_actSHA2_64_Finalize..C.3A.5C_ECU2.5CECU_Rivian_A1.5CTarget.5Crepo_projects.5CpFOTA.5CcL_LATEST.5Cmake.5Cobj.5CactSHA2_64.
                         910 _actSHA2_64_Finalize..C.3A.5C_ECU2.5CECU_Rivian_A1.5CTarget.5Crepo_projects.5CpFOTA.5CcL_LATEST.5Cmake.5Cobj.5CactSHA2_64.:
                         911 _actSHA2_64_Finalize:
00000588 8007e1f7        912 	prepare	{r21,r22,r23,r24,r25,r26,r27,r28,r29,r31},0
0000058c 06d8            913 	mov	r6,r27
0000058e 07a8            914 	mov	r7,r21
00000590 08c0            915 	mov	r8,r24
                         916 --	    .bf
                         917 .LDW81:
00000592 a60709740000    918 	ld.dw	64[r6],r14
00000598 a60789640000    919 	ld.dw	72[r6],r12
0000059e 06d65600        920 	addi	86,r6,r26
000005a2 0830            921 	mov	r8,r6
000005a4 0f58            922 	mov	r15,r11
000005a6 0ee8            923 	mov	r14,r29
000005a8 0cb8            924 	mov	r12,r23
000005aa 9d7a            925 	shr	29,r15
000005ac c35a            926 	shl	3,r11
000005ae 9dea            927 	shr	29,r29
000005b0 0ee0            928 	mov	r14,r28
000005b2 c36a            929 	shl	3,r13
000005b4 9dba            930 	shr	29,r23
000005b6 c362            931 	shl	3,r12
000005b8 0fb0            932 	mov	r15,r22
000005ba cece7f00        933 	andi	127,r14,r25
000005be 0be9            934 	or	r11,r29
000005c0 c3e2            935 	shl	3,r28

                                                                      Page 17
                                                              C:\Users\nhuliyap\AppData\Local\Temp\gh_0000ahs1.s
000005c2 0db9            936 	or	r13,r23
000005c4 0cb1            937 	or	r12,r22
                         938 	jarl	_actWatchdogTriggerFunction,lp
                         938 <EXPANSION BEGIN>
                         938 jarl22 _actWatchdogTriggerFunction , lp 
000005c6 80ff0000*       938 <EXPANSION END>
                         939 --line506
                         940 ..lin.C.3A.5C_ECU2.5CECU_Rivian_A1.5CTarget.5Crepo_projects.5CpFOTA.5CcL_LATEST.5Cmake.5Cobj.5CactSHA2_64.24::
                         941 .LDWlin24:
000005ca 19f0            942 	mov	r25,ep
000005cc dbf1            943 	add	r27,ep
000005ce 20468000        944 	movea	128,zero,r8
000005d2 41ca            945 	add	1,r25
000005d4 d643            946 	sst.b	r8,86[ep]
000005d6 1930            947 	mov	r25,r6
000005d8 da31            948 	add	r26,r6
000005da b941            949 	sub	r25,r8
000005dc 003a            950 	mov	0,r7
                         951 	jarl	_VStdLib_MemSet,lp
                         951 <EXPANSION BEGIN>
                         951 jarl22 _VStdLib_MemSet , lp 
000005de 80ff0000*       951 <EXPANSION END>
                         952 --line510
                         953 ..lin.C.3A.5C_ECU2.5CECU_Rivian_A1.5CTarget.5Crepo_projects.5CpFOTA.5CcL_LATEST.5Cmake.5Cobj.5CactSHA2_64.25::
                         954 .LDWlin25:
000005e2 19068fff        955 	addi	-113,r25,zero
000005e6 c90d*           956 	bnl	.L1564
                         957 --line511
                         958 ..lin.C.3A.5C_ECU2.5CECU_Rivian_A1.5CTarget.5Crepo_projects.5CpFOTA.5CcL_LATEST.5Cmake.5Cobj.5CactSHA2_64.26::
                         959 .LDWlin26:
000005e8 1a30            960 	mov	r26,r6
000005ea 1b38            961 	mov	r27,r7
000005ec 1840            962 	mov	r24,r8
                         963 	jarl	_actSHA2_64_Transform,lp
                         963 <EXPANSION BEGIN>
                         963 jarl22 _actSHA2_64_Transform , lp 
000005ee bfff12fa*       963 <EXPANSION END>
                         964 --line512
                         965 ..lin.C.3A.5C_ECU2.5CECU_Rivian_A1.5CTarget.5Crepo_projects.5CpFOTA.5CcL_LATEST.5Cmake.5Cobj.5CactSHA2_64.27::
                         966 .LDWlin27:
000005f2 1a30            967 	mov	r26,r6
000005f4 003a            968 	mov	0,r7
000005f6 20467000        969 	movea	112,zero,r8
                         970 	jarl	_VStdLib_MemSet,lp
                         970 <EXPANSION BEGIN>
                         970 jarl22 _VStdLib_MemSet , lp 
000005fa 80ff0000*       970 <EXPANSION END>
                         971 .L1564:
                         972 --line516
                         973 ..lin.C.3A.5C_ECU2.5CECU_Rivian_A1.5CTarget.5Crepo_projects.5CpFOTA.5CcL_LATEST.5Cmake.5Cobj.5CactSHA2_64.28::
                         974 .LDWlin28:
000005fe 1a367000        975 	addi	112,r26,r6
00000602 1640            976 	mov	r22,r8
00000604 1748            977 	mov	r23,r9
                         978 	jarl	_actU64toBE,lp
                         978 <EXPANSION BEGIN>
                         978 jarl22 _actU64toBE , lp 
00000606 80ff0000*       978 <EXPANSION END>
                         979 --line517
                         980 ..lin.C.3A.5C_ECU2.5CECU_Rivian_A1.5CTarget.5Crepo_projects.5CpFOTA.5CcL_LATEST.5Cmake.5Cobj.5CactSHA2_64.29::
                         981 .LDWlin29:

                                                                      Page 18
                                                              C:\Users\nhuliyap\AppData\Local\Temp\gh_0000ahs1.s
0000060a 1a367800        982 	addi	120,r26,r6
0000060e 1c40            983 	mov	r28,r8
00000610 1d48            984 	mov	r29,r9
                         985 	jarl	_actU64toBE,lp
                         985 <EXPANSION BEGIN>
                         985 jarl22 _actU64toBE , lp 
00000612 80ff0000*       985 <EXPANSION END>
                         986 --line525
                         987 ..lin.C.3A.5C_ECU2.5CECU_Rivian_A1.5CTarget.5Crepo_projects.5CpFOTA.5CcL_LATEST.5Cmake.5Cobj.5CactSHA2_64.30::
                         988 .LDWlin30:
00000616 1a30            989 	mov	r26,r6
00000618 1b38            990 	mov	r27,r7
0000061a 1840            991 	mov	r24,r8
                         992 	jarl	_actSHA2_64_Transform,lp
                         992 <EXPANSION BEGIN>
                         992 jarl22 _actSHA2_64_Transform , lp 
0000061c bfffe4f9*       992 <EXPANSION END>
                         993 --line528
                         994 ..lin.C.3A.5C_ECU2.5CECU_Rivian_A1.5CTarget.5Crepo_projects.5CpFOTA.5CcL_LATEST.5Cmake.5Cobj.5CactSHA2_64.31::
                         995 .LDWlin31:
00000620 1b30            996 	mov	r27,r6
00000622 1b38            997 	mov	r27,r7
00000624 0842            998 	mov	8,r8
                         999 	jarl	_actCpyU64toBE,lp
                         999 <EXPANSION BEGIN>
                         999 jarl22 _actCpyU64toBE , lp 
00000626 80ff0000*       999 <EXPANSION END>
                        1000 --line533
                        1001 ..lin.C.3A.5C_ECU2.5CECU_Rivian_A1.5CTarget.5Crepo_projects.5CpFOTA.5CcL_LATEST.5Cmake.5Cobj.5CactSHA2_64.32::
                        1002 .LDWlin32:
0000062a fb475500       1003 	ld.hu	84[r27],r8
0000062e 1530           1004 	mov	r21,r6
00000630 1b38           1005 	mov	r27,r7
                        1006 	jarl	_VStdLib_MemCpy,lp
                        1006 <EXPANSION BEGIN>
                        1006 jarl22 _VStdLib_MemCpy , lp 
00000632 80ff0000*      1006 <EXPANSION END>
                        1007 --line535
                        1008 ..lin.C.3A.5C_ECU2.5CECU_Rivian_A1.5CTarget.5Crepo_projects.5CpFOTA.5CcL_LATEST.5Cmake.5Cobj.5CactSHA2_64.33::
                        1009 .LDWlin33:
00000636 1a30           1010 	mov	r26,r6
00000638 003a           1011 	mov	0,r7
0000063a 20468000       1012 	movea	128,zero,r8
                        1013 	jarl	_VStdLib_MemSet,lp
                        1013 <EXPANSION BEGIN>
                        1013 jarl22 _VStdLib_MemSet , lp 
0000063e 80ff0000*      1013 <EXPANSION END>
                        1014 --line537
                        1015 ..lin.C.3A.5C_ECU2.5CECU_Rivian_A1.5CTarget.5Crepo_projects.5CpFOTA.5CcL_LATEST.5Cmake.5Cobj.5CactSHA2_64.34::
                        1016 .LDWlin34:
00000642 1830           1017 	mov	r24,r6
                        1018 	jarl	_actWatchdogTriggerFunction,lp
                        1018 <EXPANSION BEGIN>
                        1018 jarl22 _actWatchdogTriggerFunction , lp 
00000644 80ff0000*      1018 <EXPANSION END>
                        1019 --line539
                        1020 ..lin.C.3A.5C_ECU2.5CECU_Rivian_A1.5CTarget.5Crepo_projects.5CpFOTA.5CcL_LATEST.5Cmake.5Cobj.5CactSHA2_64.35::
                        1021 .LDWlin35:
00000648 0052           1022 	mov	0,r10
                        1023 --	    .ef
                        1024 .LDW91:

                                                                      Page 19
                                                              C:\Users\nhuliyap\AppData\Local\Temp\gh_0000ahs1.s
0000064a 4006fff7       1025 	dispose	0,{r21,r22,r23,r24,r25,r26,r27,r28,r29,r31},[lp]
                        1026 	.type	_actSHA2_64_Finalize,@function
                        1027 	.size	_actSHA2_64_Finalize,.-_actSHA2_64_Finalize
                        1028 	.type	_actSHA2_64_Finalize..C.3A.5C_ECU2.5CECU_Rivian_A1.5CTarget.5Crepo_projects.5CpFOTA.5CcL_LATEST.5Cmake.5Cobj.5CactSHA2_64.,@function
                        1029 	.size	_actSHA2_64_Finalize..C.3A.5C_ECU2.5CECU_Rivian_A1.5CTarget.5Crepo_projects.5CpFOTA.5CcL_LATEST.5Cmake.5Cobj.5CactSHA2_64.,.-_actSHA2_64_Finalize..C.3A.5C_ECU2.5CECU_Rivian_A1.5CTarget.5Crepo_projects.5CpFOTA.5CcL_LATEST.5Cmake.5Cobj.5CactSHA2_64.
                        1030 	.align	2
                        1031 .LDW02:
                        1032 --_len	r25	local
                        1033 --_tempBuffer	r26	local
                        1034 --_count_Lptr	r28	local
                        1035 --_count_Hptr	r22	local
                        1036 --_digest	r27	local
                        1037 
                        1038 --_info	r27	param
                        1039 --_hash	r21	param
                        1040 --_watchdog	r24	param
                        1041 
                        1042 	.section ".bss","awb"
                        1043 .L1600:
                        1044 	.type	.L1600,@object
                        1045 	.size	.L1600,0
                        1046 	.data
                        1047 	.section ".MSR_CODE","ax"
                        1048 	.align	2
                        1049 	.align	2
                        1050 ..gh.f.f.1.e.3:
                        1051 	.type	..gh.f.f.1.e.3,@object
                        1052 	.size	..gh.f.f.1.e.3,0
                        1053 	.global	_actSHA512_224Init
                        1054 _actSHA512_224Init:
0000064e 06f0           1055 	mov	r6,ep
                        1056 --	    .bf
                        1057 .LDW12:
00000650 2e06d6d4dc89   1058 	mov	-1982016298,r14
00000656 2f066699e173   1059 	mov	1944164710,r15
0000065c a6078f700000   1060 	st.dw	r14,8[r6]
00000662 2c06829cff32   1061 	mov	855612546,r12
00000668 2d06aeb7fa1d   1062 	mov	502970286,r13
0000066e 3006a24d5419   1063 	mov	424955298,r16
00000674 3106c8373d8c   1064 	mov	-1942145080,r17
0000067a a6070f610000   1065 	st.dw	r12,16[r6]
00000680 2a06cf9f2f58   1066 	mov	1479516111,r10
00000686 2b0614d59d67   1067 	mov	1738396948,r11
0000068c 2806a84dd47b   1068 	mov	2077511080,r8
00000692 2906692b6d0f   1069 	mov	258812777,r9
00000698 0072           1070 	mov	0,r14
0000069a a6070f800000   1071 	st.dw	r16,0[r6]
000006a0 a6078f510000   1072 	st.dw	r10,24[r6]
000006a6 a6070f420000   1073 	st.dw	r8,32[r6]
000006ac 0e60           1074 	mov	r14,r12
000006ae 26064289c404   1075 	mov	79989058,r6
000006b4 2706736fe377   1076 	mov	2011393907,r7
000006ba 3206c8361d6a   1077 	mov	1780299464,r18
000006c0 3306a8859d3f   1078 	mov	1067287976,r19
000006c6 3006a192d691   1079 	mov	-1848208735,r16
000006cc 3106ade61211   1080 	mov	286451373,r17
000006d2 0e78           1081 	mov	r14,r15
000006d4 0c68           1082 	mov	r12,r13
000006d6 205e1c00       1083 	movea	28,zero,r11
000006da be078f320000   1084 	st.dw	r6,40[ep]
000006e0 be070f930000   1085 	st.dw	r18,48[ep]

                                                                      Page 20
                                                              C:\Users\nhuliyap\AppData\Local\Temp\gh_0000ahs1.s
000006e6 be078f830000   1086 	st.dw	r16,56[ep]
000006ec be070f740000   1087 	st.dw	r14,64[ep]
000006f2 be078f640000   1088 	st.dw	r12,72[ep]
000006f8 2905           1089 	sst.w	zero,80[ep]
000006fa aa5c           1090 	sst.h	r11,84[ep]
000006fc 0c50           1091 	mov	r12,r10
                        1092 --	    .ef
                        1093 .LDW22:
000006fe 7f00           1094 	jmp	[lp]
                        1095 	.type	_actSHA512_224Init,@function
                        1096 	.size	_actSHA512_224Init,.-_actSHA512_224Init
                        1097 	.align	2
                        1098 .LDW32:
                        1099 
                        1100 --_info	ep	param
                        1101 
                        1102 	.section ".bss","awb"
                        1103 .L1665:
                        1104 	.type	.L1665,@object
                        1105 	.size	.L1665,0
                        1106 	.data
                        1107 	.section ".MSR_CODE","ax"
                        1108 	.align	2
                        1109 	.align	2
                        1110 ..gh.f.f.1.e.4:
                        1111 	.type	..gh.f.f.1.e.4,@object
                        1112 	.size	..gh.f.f.1.e.4,0
                        1113 	.global	_actSHA512_224Update
                        1114 _actSHA512_224Update:
                        1115 --	    .bf
                        1116 .LDW42:
00000700 bf07b0fd*      1117 	jr	_actSHA2_64_Update
                        1118 --	    .ef
                        1119 .LDW52:
                        1120 	.type	_actSHA512_224Update,@function
                        1121 	.size	_actSHA512_224Update,.-_actSHA512_224Update
                        1122 	.align	2
                        1123 .LDW62:
                        1124 
                        1125 --_info	r6	param
                        1126 --_dataIN	r7	param
                        1127 --_length	r8	param
                        1128 --_watchdog	r9	param
                        1129 
                        1130 	.section ".bss","awb"
                        1131 .L1713:
                        1132 	.type	.L1713,@object
                        1133 	.size	.L1713,0
                        1134 	.data
                        1135 	.section ".MSR_CODE","ax"
                        1136 	.align	2
                        1137 	.align	2
                        1138 ..gh.f.f.1.e.5:
                        1139 	.type	..gh.f.f.1.e.5,@object
                        1140 	.size	..gh.f.f.1.e.5,0
                        1141 	.global	_actSHA512_224Finalize
                        1142 _actSHA512_224Finalize:
                        1143 --	    .bf
                        1144 .LDW72:
00000704 bf0784fe*      1145 	jr	_actSHA2_64_Finalize
                        1146 --	    .ef

                                                                      Page 21
                                                              C:\Users\nhuliyap\AppData\Local\Temp\gh_0000ahs1.s
                        1147 .LDW82:
                        1148 	.type	_actSHA512_224Finalize,@function
                        1149 	.size	_actSHA512_224Finalize,.-_actSHA512_224Finalize
                        1150 	.align	2
                        1151 .LDW92:
                        1152 
                        1153 --_info	r6	param
                        1154 --_hash	r7	param
                        1155 --_watchdog	r8	param
                        1156 
                        1157 	.section ".bss","awb"
                        1158 .L1761:
                        1159 	.type	.L1761,@object
                        1160 	.size	.L1761,0
                        1161 	.data
                        1162 	.section ".MSR_CODE","ax"
                        1163 	.align	2
                        1164 	.align	2
                        1165 ..gh.f.f.1.e.6:
                        1166 	.type	..gh.f.f.1.e.6,@object
                        1167 	.size	..gh.f.f.1.e.6,0
                        1168 	.global	_actSHA512_256Init
                        1169 _actSHA512_256Init:
00000708 06f0           1170 	mov	r6,ep
                        1171 --	    .bf
                        1172 .LDW03:
0000070a 2e06c2644cc8   1173 	mov	-934517566,r14
00000710 2f06a35f559f   1174 	mov	-1621794909,r15
00000716 a6078f700000   1175 	st.dw	r14,8[r6]
0000071c 2c0651b1536f   1176 	mov	1867755857,r12
00000722 2d066bb89323   1177 	mov	596883563,r13
00000728 30062cf72bfc   1178 	mov	-64227540,r16
0000072e 310694213122   1179 	mov	573645204,r17
00000734 a6070f610000   1180 	st.dw	r12,16[r6]
0000073a 2a06bdea4059   1181 	mov	1497426621,r10
00000740 2b0619773896   1182 	mov	-1774684391,r11
00000746 2806e3ff8ea8   1183 	mov	-1467023389,r8
0000074c 2906e23e2896   1184 	mov	-1775747358,r9
00000752 0072           1185 	mov	0,r14
00000754 a6070f800000   1186 	st.dw	r16,0[r6]
0000075a a6078f510000   1187 	st.dw	r10,24[r6]
00000760 a6070f420000   1188 	st.dw	r8,32[r6]
00000766 0e60           1189 	mov	r14,r12
00000768 260692398653   1190 	mov	1401305490,r6
0000076e 2706251e5ebe   1191 	mov	-1101128155,r7
00000774 3206aab8852c   1192 	mov	746961066,r18
0000077a 3306fc99012b   1193 	mov	721525244,r19
00000780 3006a22cc581   1194 	mov	-2117784414,r16
00000786 3106dc2db70e   1195 	mov	246885852,r17
0000078c 0e78           1196 	mov	r14,r15
0000078e 0c68           1197 	mov	r12,r13
00000790 205e2000       1198 	movea	32,zero,r11
00000794 be078f320000   1199 	st.dw	r6,40[ep]
0000079a be070f930000   1200 	st.dw	r18,48[ep]
000007a0 be078f830000   1201 	st.dw	r16,56[ep]
000007a6 be070f740000   1202 	st.dw	r14,64[ep]
000007ac be078f640000   1203 	st.dw	r12,72[ep]
000007b2 2905           1204 	sst.w	zero,80[ep]
000007b4 aa5c           1205 	sst.h	r11,84[ep]
000007b6 0c50           1206 	mov	r12,r10
                        1207 --	    .ef

                                                                      Page 22
                                                              C:\Users\nhuliyap\AppData\Local\Temp\gh_0000ahs1.s
                        1208 .LDW13:
000007b8 7f00           1209 	jmp	[lp]
                        1210 	.type	_actSHA512_256Init,@function
                        1211 	.size	_actSHA512_256Init,.-_actSHA512_256Init
                        1212 	.align	2
                        1213 .LDW23:
                        1214 
                        1215 --_info	ep	param
                        1216 
                        1217 	.section ".bss","awb"
                        1218 .L1809:
                        1219 	.type	.L1809,@object
                        1220 	.size	.L1809,0
                        1221 	.data
                        1222 	.section ".MSR_CODE","ax"
                        1223 	.align	2
                        1224 	.align	2
                        1225 ..gh.f.f.1.e.7:
                        1226 	.type	..gh.f.f.1.e.7,@object
                        1227 	.size	..gh.f.f.1.e.7,0
                        1228 	.global	_actSHA512_256Update
                        1229 _actSHA512_256Update:
                        1230 --	    .bf
                        1231 .LDW33:
000007ba bf07f6fc*      1232 	jr	_actSHA2_64_Update
                        1233 --	    .ef
                        1234 .LDW43:
                        1235 	.type	_actSHA512_256Update,@function
                        1236 	.size	_actSHA512_256Update,.-_actSHA512_256Update
                        1237 	.align	2
                        1238 .LDW53:
                        1239 
                        1240 --_info	r6	param
                        1241 --_dataIN	r7	param
                        1242 --_length	r8	param
                        1243 --_watchdog	r9	param
                        1244 
                        1245 	.section ".bss","awb"
                        1246 .L1857:
                        1247 	.type	.L1857,@object
                        1248 	.size	.L1857,0
                        1249 	.data
                        1250 	.section ".MSR_CODE","ax"
                        1251 	.align	2
                        1252 	.align	2
                        1253 ..gh.f.f.1.e.8:
                        1254 	.type	..gh.f.f.1.e.8,@object
                        1255 	.size	..gh.f.f.1.e.8,0
                        1256 	.global	_actSHA512_256Finalize
                        1257 _actSHA512_256Finalize:
                        1258 --	    .bf
                        1259 .LDW63:
000007be bf07cafd*      1260 	jr	_actSHA2_64_Finalize
                        1261 --	    .ef
                        1262 .LDW73:
                        1263 	.type	_actSHA512_256Finalize,@function
                        1264 	.size	_actSHA512_256Finalize,.-_actSHA512_256Finalize
                        1265 	.align	2
                        1266 .LDW83:
                        1267 
                        1268 --_info	r6	param

                                                                      Page 23
                                                              C:\Users\nhuliyap\AppData\Local\Temp\gh_0000ahs1.s
                        1269 --_hash	r7	param
                        1270 --_watchdog	r8	param
                        1271 
                        1272 	.section ".bss","awb"
                        1273 .L1905:
                        1274 	.type	.L1905,@object
                        1275 	.size	.L1905,0
                        1276 	.data
                        1277 	.section ".MSR_CODE","ax"
                        1278 	.align	2
                        1279 	.align	2
                        1280 ..gh.f.f.1.e.9:
                        1281 	.type	..gh.f.f.1.e.9,@object
                        1282 	.size	..gh.f.f.1.e.9,0
                        1283 	.global	_actSHA384Init
                        1284 _actSHA384Init:
000007c2 06f0           1285 	mov	r6,ep
                        1286 --	    .bf
                        1287 .LDW93:
000007c4 2e0607d57c36   1288 	mov	914150663,r14
000007ca 2f062a299a62   1289 	mov	1654270250,r15
000007d0 a6078f700000   1290 	st.dw	r14,8[r6]
000007d6 2c0617dd7030   1291 	mov	812702999,r12
000007dc 2d065a015991   1292 	mov	-1856437926,r13
000007e2 3006d89e05c1   1293 	mov	-1056596264,r16
000007e8 31065d9dbbcb   1294 	mov	-876896931,r17
000007ee a6070f610000   1295 	st.dw	r12,16[r6]
000007f4 2a0639590ef7   1296 	mov	-150054599,r10
000007fa 2b06d8ec2f15   1297 	mov	355462360,r11
00000800 2806310bc0ff   1298 	mov	-4191439,r8
00000806 290667263367   1299 	mov	1731405415,r9
0000080c 0072           1300 	mov	0,r14
0000080e a6070f800000   1301 	st.dw	r16,0[r6]
00000814 a6078f510000   1302 	st.dw	r10,24[r6]
0000081a a6070f420000   1303 	st.dw	r8,32[r6]
00000820 0e60           1304 	mov	r14,r12
00000822 260611155868   1305 	mov	1750603025,r6
00000828 2706874ab48e   1306 	mov	-1900787065,r7
0000082e 3206a78ff964   1307 	mov	1694076839,r18
00000834 33060d2e0cdb   1308 	mov	-619958771,r19
0000083a 3006a44ffabe   1309 	mov	-1090891868,r16
00000840 31061d48b547   1310 	mov	1203062813,r17
00000846 0e78           1311 	mov	r14,r15
00000848 0c68           1312 	mov	r12,r13
0000084a 205e3000       1313 	movea	48,zero,r11
0000084e be078f320000   1314 	st.dw	r6,40[ep]
00000854 be070f930000   1315 	st.dw	r18,48[ep]
0000085a be078f830000   1316 	st.dw	r16,56[ep]
00000860 be070f740000   1317 	st.dw	r14,64[ep]
00000866 be078f640000   1318 	st.dw	r12,72[ep]
0000086c 2905           1319 	sst.w	zero,80[ep]
0000086e aa5c           1320 	sst.h	r11,84[ep]
00000870 0c50           1321 	mov	r12,r10
                        1322 --	    .ef
                        1323 .LDW04:
00000872 7f00           1324 	jmp	[lp]
                        1325 	.type	_actSHA384Init,@function
                        1326 	.size	_actSHA384Init,.-_actSHA384Init
                        1327 	.align	2
                        1328 .LDW14:
                        1329 

                                                                      Page 24
                                                              C:\Users\nhuliyap\AppData\Local\Temp\gh_0000ahs1.s
                        1330 --_info	ep	param
                        1331 
                        1332 	.section ".bss","awb"
                        1333 .L1953:
                        1334 	.type	.L1953,@object
                        1335 	.size	.L1953,0
                        1336 	.data
                        1337 	.section ".MSR_CODE","ax"
                        1338 	.align	2
                        1339 	.align	2
                        1340 ..gh.f.f.1.e.10:
                        1341 	.type	..gh.f.f.1.e.10,@object
                        1342 	.size	..gh.f.f.1.e.10,0
                        1343 	.global	_actSHA384Update
                        1344 _actSHA384Update:
                        1345 --	    .bf
                        1346 .LDW24:
00000874 bf073cfc*      1347 	jr	_actSHA2_64_Update
                        1348 --	    .ef
                        1349 .LDW34:
                        1350 	.type	_actSHA384Update,@function
                        1351 	.size	_actSHA384Update,.-_actSHA384Update
                        1352 	.align	2
                        1353 .LDW44:
                        1354 
                        1355 --_info	r6	param
                        1356 --_dataIN	r7	param
                        1357 --_length	r8	param
                        1358 --_watchdog	r9	param
                        1359 
                        1360 	.section ".bss","awb"
                        1361 .L2001:
                        1362 	.type	.L2001,@object
                        1363 	.size	.L2001,0
                        1364 	.data
                        1365 	.section ".MSR_CODE","ax"
                        1366 	.align	2
                        1367 	.align	2
                        1368 ..gh.f.f.1.e.11:
                        1369 	.type	..gh.f.f.1.e.11,@object
                        1370 	.size	..gh.f.f.1.e.11,0
                        1371 	.global	_actSHA384Finalize
                        1372 _actSHA384Finalize:
                        1373 --	    .bf
                        1374 .LDW54:
00000878 bf0710fd*      1375 	jr	_actSHA2_64_Finalize
                        1376 --	    .ef
                        1377 .LDW64:
                        1378 	.type	_actSHA384Finalize,@function
                        1379 	.size	_actSHA384Finalize,.-_actSHA384Finalize
                        1380 	.align	2
                        1381 .LDW74:
                        1382 
                        1383 --_info	r6	param
                        1384 --_hash	r7	param
                        1385 --_watchdog	r8	param
                        1386 
                        1387 	.section ".bss","awb"
                        1388 .L2049:
                        1389 	.type	.L2049,@object
                        1390 	.size	.L2049,0

                                                                      Page 25
                                                              C:\Users\nhuliyap\AppData\Local\Temp\gh_0000ahs1.s
                        1391 	.data
                        1392 	.section ".MSR_CODE","ax"
                        1393 	.align	2
                        1394 	.align	2
                        1395 ..gh.f.f.1.e.12:
                        1396 	.type	..gh.f.f.1.e.12,@object
                        1397 	.size	..gh.f.f.1.e.12,0
                        1398 	.global	_actSHA512Init
                        1399 _actSHA512Init:
0000087c 06f0           1400 	mov	r6,ep
                        1401 --	    .bf
                        1402 .LDW84:
0000087e 2e063ba7ca84   1403 	mov	-2067093701,r14
00000884 2f0685ae67bb   1404 	mov	-1150833019,r15
0000088a a6078f700000   1405 	st.dw	r14,8[r6]
00000890 2c062bf894fe   1406 	mov	-23791573,r12
00000896 2d0672f36e3c   1407 	mov	1013904242,r13
0000089c 300608c9bcf3   1408 	mov	-205731576,r16
000008a2 310667e6096a   1409 	mov	1779033703,r17
000008a8 a6070f610000   1410 	st.dw	r12,16[r6]
000008ae 2a06f1361d5f   1411 	mov	1595750129,r10
000008b4 2b063af54fa5   1412 	mov	-1521486534,r11
000008ba 2806d182e6ad   1413 	mov	-1377402159,r8
000008c0 29067f520e51   1414 	mov	1359893119,r9
000008c6 0072           1415 	mov	0,r14
000008c8 a6070f800000   1416 	st.dw	r16,0[r6]
000008ce a6078f510000   1417 	st.dw	r10,24[r6]
000008d4 a6070f420000   1418 	st.dw	r8,32[r6]
000008da 0e60           1419 	mov	r14,r12
000008dc 26061f6c3e2b   1420 	mov	725511199,r6
000008e2 27068c68059b   1421 	mov	-1694144372,r7
000008e8 32066bbd41fb   1422 	mov	-79577749,r18
000008ee 3306abd9831f   1423 	mov	528734635,r19
000008f4 300679217e13   1424 	mov	327033209,r16
000008fa 310619cde05b   1425 	mov	1541459225,r17
00000900 0e78           1426 	mov	r14,r15
00000902 0c68           1427 	mov	r12,r13
00000904 205e4000       1428 	movea	64,zero,r11
00000908 be078f320000   1429 	st.dw	r6,40[ep]
0000090e be070f930000   1430 	st.dw	r18,48[ep]
00000914 be078f830000   1431 	st.dw	r16,56[ep]
0000091a be070f740000   1432 	st.dw	r14,64[ep]
00000920 be078f640000   1433 	st.dw	r12,72[ep]
00000926 2905           1434 	sst.w	zero,80[ep]
00000928 aa5c           1435 	sst.h	r11,84[ep]
0000092a 0c50           1436 	mov	r12,r10
                        1437 --	    .ef
                        1438 .LDW94:
0000092c 7f00           1439 	jmp	[lp]
                        1440 	.type	_actSHA512Init,@function
                        1441 	.size	_actSHA512Init,.-_actSHA512Init
                        1442 	.align	2
                        1443 .LDW05:
                        1444 
                        1445 --_info	ep	param
                        1446 
                        1447 	.section ".bss","awb"
                        1448 .L2097:
                        1449 	.type	.L2097,@object
                        1450 	.size	.L2097,0
                        1451 	.data

                                                                      Page 26
                                                              C:\Users\nhuliyap\AppData\Local\Temp\gh_0000ahs1.s
                        1452 	.section ".MSR_CODE","ax"
                        1453 	.align	2
                        1454 	.align	2
                        1455 ..gh.f.f.1.e.13:
                        1456 	.type	..gh.f.f.1.e.13,@object
                        1457 	.size	..gh.f.f.1.e.13,0
                        1458 	.global	_actSHA512Update
                        1459 _actSHA512Update:
                        1460 --	    .bf
                        1461 .LDW15:
0000092e bf0782fb*      1462 	jr	_actSHA2_64_Update
                        1463 --	    .ef
                        1464 .LDW25:
                        1465 	.type	_actSHA512Update,@function
                        1466 	.size	_actSHA512Update,.-_actSHA512Update
                        1467 	.align	2
                        1468 .LDW35:
                        1469 
                        1470 --_info	r6	param
                        1471 --_dataIN	r7	param
                        1472 --_length	r8	param
                        1473 --_watchdog	r9	param
                        1474 
                        1475 	.section ".bss","awb"
                        1476 .L2145:
                        1477 	.type	.L2145,@object
                        1478 	.size	.L2145,0
                        1479 	.data
                        1480 	.section ".MSR_CODE","ax"
                        1481 	.align	2
                        1482 	.align	2
                        1483 ..gh.f.f.1.e.14:
                        1484 	.type	..gh.f.f.1.e.14,@object
                        1485 	.size	..gh.f.f.1.e.14,0
                        1486 	.global	_actSHA512Finalize
                        1487 _actSHA512Finalize:
                        1488 --	    .bf
                        1489 .LDW45:
00000932 bf0756fc*      1490 	jr	_actSHA2_64_Finalize
                        1491 --	    .ef
                        1492 .LDW55:
                        1493 	.type	_actSHA512Finalize,@function
                        1494 	.size	_actSHA512Finalize,.-_actSHA512Finalize
                        1495 	.align	2
                        1496 .LDW65:
                        1497 
                        1498 --_info	r6	param
                        1499 --_hash	r7	param
                        1500 --_watchdog	r8	param
                        1501 
                        1502 	.section ".bss","awb"
                        1503 .L2193:
                        1504 	.type	.L2193,@object
                        1505 	.size	.L2193,0
                        1506 	.data
                        1507 	.section ".MSR_CODE","ax"
                        1508 	.align	2
                        1509 --_actSHA2_64_K	rosdaoff23(_actSHA2_64_K)	static
                        1510 
                        1511 	.data
                        1512 	.ghsnote version,17

                                                                      Page 27
                                                              C:\Users\nhuliyap\AppData\Local\Temp\gh_0000ahs1.s
                        1513 	.ghsnote tools,3
                        1514 	.ghsnote options,144
                        1515 	.section ".MSR_CODE","ax"
                        1516 	.align	2
                        1517 ..eof.C.3A.5C_ECU2.5CECU_Rivian_A1.5CTarget.5Crepo_projects.5CpFOTA.5CcL_LATEST.5Cmake.5Cobj.5CactSHA2_64...43.3A.5C_ECU2.5CECU_Rivian_A1.5CTarget.5Crepo_projects.5CpFOTA.5CcL_LATEST.5Cmake..64F86BD5..0::
                        1518 .rh850_flags REGMODE32,DATA_ALIGN8,GP_FIX,EP_NONFIX,TP_FIX,REG2_RESERVE,G3K,SDA_EXTRA_REGS_0
