                                                                      Page 1
                                                              C:\Users\nhuliyap\AppData\Local\Temp\gh_00008901.s
Command Line: C:\GHS\comp_201517\ease850.exe -w -stderr=err/EcuabMemIf.err -elf -b0 -I../source/_common -I../source/common -I../source/ecuabcanif -I../source/ecuabcantrcv -I../source/ecuabcryif -I../source/ecuabfee -I../source/ecuabmemif -I../source/libautosar -I../source/mcalcan -I../source/mcalcry -I../source/mcaldio -I../source/mcaleep -I../source/mcalfls -I../source/mcalmcu -I../source/projectara -I../source/projectcfg -I../source/projectcompiler -I../source/swcservicebswm -I../source/swcservicecantp -I../source/swcservicecomm -I../source/swcservicecsm -I../source/swcservicedcm -I../source/swcservicedem -I../source/swcservicedet -I../source/swcserviceecum -I../source/swcservicenvm -I../source/swcserviceos -I../source/swcservicepdur -I../source/swcserviceschm -I../source/swcservicestartup -I../source/wrappers/swcservicesecm -I../source/wrappers/vsecprim -I../source/wrappers/vstdlib -Ic:/ghs/comp_201517/ansi -Ic:/ghs/comp_201517/include/v800 -Igendata -IC:\GHS\comp_201517\lib\rh850 -cg_underscore -cpu=rh850g3k -nofpu -no_v850_simd -rh850_fpsimd=none -nomacro -patch_dbo=C:\_ECU2\ECU_Rivian_A1\Target\repo_projects\pFOTA\cL_LATEST\make\obj\EcuabMemIf.dbo -source=EcuabMemIf.c -o obj\gh_00008901.o -list=lst/EcuabMemIf.lst C:\Users\nhuliyap\AppData\Local\Temp\gh_00008901.s 
Original File: C:\Users\nhuliyap\AppData\Local\Temp\gh_00008901.s
Source File: EcuabMemIf.c
Directory: C:\_ECU2\ECU_Rivian_A1\Target\repo_projects\pFOTA\cL_LATEST\make
Host OS: Windows
EASE: Copyright (C) 1983-2015 Green Hills Software.  All Rights Reserved.
Release: Compiler v2015.1.7
Build Directory: [Directory] BTOWORKER6:c:/build_2015_1_bto/2015-10-21.2100-2015_1_bto/win32-comp-ecom
Revision: [VCInfo] http://toolsvc/branches/release-branch-70-bto/src@544153 (built by build)
Revision Date: Thu Oct 22 07:50:13 2015

Release Date: Thu Oct 22 09:32:32 2015

                           1 --Driver Command: ccrh850 -DBRS_DERIVATIVE_701018 -DBRS_OSC_CLK=16
                           2 --		-DBRS_TIMEBASE_CLOCK=80 -DBRS_EVA_BOARD_
                           3 --		-DBRS_DERIVATIVE_GROUP_F1L -DBRS_OS_USECASE_BRS
                           4 --		-DBRS_PLATFORM_RH850 -DBRS_COMP_GHS
                           5 --		-DBRS_CPU_LOCAL_RAM_SIZE_CORE0=32
                           6 --		-DBRS_CPU_RAM_START_CORE0=0xFEDF8000 -list=lst/EcuabMemIf.lst
                           7 --		-object_dir=obj -stderr=err/EcuabMemIf.err -c -cpu=rh850 -sda=all
                           8 --		-large_sda -prepare_dispose -pragma_asm_inline -no_callt
                           9 --		-inline_prologue -notda -reserve_r2 -fsoft
                          10 --		--unknown_pragma_warnings -list -g -Ogeneral -shortenum
                          11 --		-registermode=32 -I../source/_common -I../source/common
                          12 --		-I../source/ecuabcanif -I../source/ecuabcantrcv
                          13 --		-I../source/ecuabcryif -I../source/ecuabfee
                          14 --		-I../source/ecuabmemif -I../source/libautosar -I../source/mcalcan
                          15 --		-I../source/mcalcry -I../source/mcaldio -I../source/mcaleep
                          16 --		-I../source/mcalfls -I../source/mcalmcu -I../source/projectara
                          17 --		-I../source/projectcfg -I../source/projectcompiler
                          18 --		-I../source/swcservicebswm -I../source/swcservicecantp
                          19 --		-I../source/swcservicecomm -I../source/swcservicecsm
                          20 --		-I../source/swcservicedcm -I../source/swcservicedem
                          21 --		-I../source/swcservicedet -I../source/swcserviceecum
                          22 --		-I../source/swcservicenvm -I../source/swcserviceos
                          23 --		-I../source/swcservicepdur -I../source/swcserviceschm
                          24 --		-I../source/swcservicestartup -I../source/wrappers/swcservicesecm
                          25 --		-I../source/wrappers/vsecprim -I../source/wrappers/vstdlib
                          26 --		-Ic:/ghs/comp_201517/ansi -Ic:/ghs/comp_201517/include/v800
                          27 --		-Igendata ../source/EcuabMemIf/EcuabMemIf.c
                          28 --Source File:   ../source/EcuabMemIf/EcuabMemIf.c
                          29 --Directory:     
                          30 --		C:\_ECU2\ECU_Rivian_A1\Target\repo_projects\pFOTA\cL_LATEST\make
                          31 --Compile Date:  Wed Sep 06 14:06:17 2023
                          32 --Host OS:       Win32
                          33 --Version:       C-RH850 2015.1.7 RELEASE VERSION
                          34 --Release:       Compiler v2015.1.7
                          35 --Revision Date: Thu Oct 22 08:06:12 2015
                          36 --Release Date:  Thu Oct 22 09:34:32 2015
                          37 -- ecom  -g -w -OM
                          38 	.text
                          39 ..bof.C.3A.5C_ECU2.5CECU_Rivian_A1.5CTarget.5Crepo_projects.5CpFOTA.5CcL_LATEST.5Cmake.5Cobj.5CEcuabMemIf...43.3A.5C_ECU2.5CECU_Rivian_A1.5CTarget.5Crepo_projects.5CpFOTA.5CcL_LATEST.5Cmake..64F86B39..0::
                          40 	.align	2
                          41 ..gh.f.f.1.e.0:
                          42 	.type	..gh.f.f.1.e.0,@object
                          43 	.size	..gh.f.f.1.e.0,0
                          44 	.global	_MemIf_IsBitSet..C.3A.5C_ECU2.5CECU_Rivian_A1.5CTarget.5Crepo_projects.5CpFOTA.5CcL_LATEST.5Cmake.5Cobj.5CEcuabMemIf.
                          45 _MemIf_IsBitSet..C.3A.5C_ECU2.5CECU_Rivian_A1.5CTarget.5Crepo_projects.5CpFOTA.5CcL_LATEST.5Cmake.5Cobj.5CEcuabMemIf.:
                          46 _MemIf_IsBitSet:
00000000 8600             47 	zxb	r6
                          48 --	    .bf
                          49 .LDW01:
00000002 019a             50 	mov	1,r19

                                                                      Page 2
                                                              C:\Users\nhuliyap\AppData\Local\Temp\gh_00008901.s
00000004 e79fc290         51 	shl	r7,r19,r18
00000008 4691             52 	and	r6,r18
0000000a e2570000         53 	setfe	r10
                          54 --	    .ef
                          55 .LDW11:
0000000e 7f00             56 	jmp	[lp]
                          57 	.type	_MemIf_IsBitSet,@function
                          58 	.size	_MemIf_IsBitSet,.-_MemIf_IsBitSet
                          59 	.type	_MemIf_IsBitSet..C.3A.5C_ECU2.5CECU_Rivian_A1.5CTarget.5Crepo_projects.5CpFOTA.5CcL_LATEST.5Cmake.5Cobj.5CEcuabMemIf.,@function
                          60 	.size	_MemIf_IsBitSet..C.3A.5C_ECU2.5CECU_Rivian_A1.5CTarget.5Crepo_projects.5CpFOTA.5CcL_LATEST.5Cmake.5Cobj.5CEcuabMemIf.,.-_MemIf_IsBitSet..C.3A.5C_ECU2.5CECU_Rivian_A1.5CTarget.5Crepo_projects.5CpFOTA.5CcL_LATEST.5Cmake.5Cobj.5CEcuabMemIf.
                          61 	.align	2
                          62 .LDW21:
                          63 
                          64 --_Mask	r6	param
                          65 --_Status	r7	param
                          66 
                          67 	.section ".bss","awb"
                          68 .L33:
                          69 	.type	.L33,@object
                          70 	.size	.L33,0
                          71 	.data
                          72 	.text
                          73 	.align	2
                          74 	.align	2
                          75 	.align	2
                          76 ..gh.f.f.1.e.1:
                          77 	.type	..gh.f.f.1.e.1,@object
                          78 	.size	..gh.f.f.1.e.1,0
                          79 	.global	_EcuabMemIf_Read
                          80 _EcuabMemIf_Read:
00000010 80076100         81 	prepare	{r29,r31},0
00000014 0730             82 	mov	r7,r6
00000016 c600             83 	zxh	r6
00000018 c83effff         84 	andi	65535,r8,r7
0000001c e39f0900         85 	ld.hu	8[sp],r19
                          86 --	    .bf
                          87 .LDW31:
00000020 850709e80000*    88 	ld.w	rosdaoff23(_MemIf_MemHwaApis)[r5],r29
00000026 0940             89 	mov	r9,r8
00000028 1348             90 	mov	r19,r9
0000002a fdc760f9         91 	jarl	[r29],lp
                          92 --	    .ef
                          93 .LDW41:
                          94 --line75
                          95 ..lin.C.3A.5C_ECU2.5CECU_Rivian_A1.5CTarget.5Crepo_projects.5CpFOTA.5CcL_LATEST.5Cmake.5Cobj.5CEcuabMemIf.1::
                          96 .LDWlin1:
0000002e 40067f00         97 	dispose	0,{r29,r31},[lp]
                          98 	.type	_EcuabMemIf_Read,@function
                          99 	.size	_EcuabMemIf_Read,.-_EcuabMemIf_Read
                         100 	.align	2
                         101 .LDW51:
                         102 
                         103 --_DeviceIndex	none	param
                         104 --_BlockNumber	r7	param
                         105 --_BlockOffset	r8	param
                         106 --_DataBufferPtr	r9	param
                         107 --_Length	r19	param
                         108 
                         109 	.section ".bss","awb"
                         110 .L84:
                         111 	.type	.L84,@object

                                                                      Page 3
                                                              C:\Users\nhuliyap\AppData\Local\Temp\gh_00008901.s
                         112 	.size	.L84,0
                         113 	.data
                         114 	.text
                         115 	.align	2
                         116 	.align	2
                         117 ..gh.f.f.1.e.2:
                         118 	.type	..gh.f.f.1.e.2,@object
                         119 	.size	..gh.f.f.1.e.2,0
                         120 	.global	_EcuabMemIf_Write
                         121 _EcuabMemIf_Write:
00000032 80076100        122 	prepare	{r29,r31},0
00000036 0730            123 	mov	r7,r6
00000038 c600            124 	zxh	r6
                         125 --	    .bf
                         126 .LDW61:
0000003a 850709e80000*   127 	ld.w	rosdaoff23(_MemIf_MemHwaApis+4)[r5],r29
00000040 0838            128 	mov	r8,r7
00000042 fdc760f9        129 	jarl	[r29],lp
                         130 --	    .ef
                         131 .LDW71:
                         132 --line100
                         133 ..lin.C.3A.5C_ECU2.5CECU_Rivian_A1.5CTarget.5Crepo_projects.5CpFOTA.5CcL_LATEST.5Cmake.5Cobj.5CEcuabMemIf.2::
                         134 .LDWlin2:
00000046 40067f00        135 	dispose	0,{r29,r31},[lp]
                         136 	.type	_EcuabMemIf_Write,@function
                         137 	.size	_EcuabMemIf_Write,.-_EcuabMemIf_Write
                         138 	.align	2
                         139 .LDW81:
                         140 
                         141 --_DeviceIndex	none	param
                         142 --_BlockNumber	r7	param
                         143 --_DataBufferPtr	r8	param
                         144 
                         145 	.section ".bss","awb"
                         146 .L132:
                         147 	.type	.L132,@object
                         148 	.size	.L132,0
                         149 	.data
                         150 	.text
                         151 	.align	2
                         152 	.align	2
                         153 ..gh.f.f.1.e.3:
                         154 	.type	..gh.f.f.1.e.3,@object
                         155 	.size	..gh.f.f.1.e.3,0
                         156 	.global	_EcuabMemIf_InvalidateBlock
                         157 _EcuabMemIf_InvalidateBlock:
0000004a 80076100        158 	prepare	{r29,r31},0
0000004e 0730            159 	mov	r7,r6
00000050 c600            160 	zxh	r6
                         161 --	    .bf
                         162 .LDW91:
00000052 850709e80000*   163 	ld.w	rosdaoff23(_MemIf_MemHwaApis+12)[r5],r29
00000058 fdc760f9        164 	jarl	[r29],lp
                         165 --	    .ef
                         166 .LDW02:
                         167 --line125
                         168 ..lin.C.3A.5C_ECU2.5CECU_Rivian_A1.5CTarget.5Crepo_projects.5CpFOTA.5CcL_LATEST.5Cmake.5Cobj.5CEcuabMemIf.3::
                         169 .LDWlin3:
0000005c 40067f00        170 	dispose	0,{r29,r31},[lp]
                         171 	.type	_EcuabMemIf_InvalidateBlock,@function
                         172 	.size	_EcuabMemIf_InvalidateBlock,.-_EcuabMemIf_InvalidateBlock

                                                                      Page 4
                                                              C:\Users\nhuliyap\AppData\Local\Temp\gh_00008901.s
                         173 	.align	2
                         174 .LDW12:
                         175 
                         176 --_DeviceIndex	none	param
                         177 --_BlockNumber	r7	param
                         178 
                         179 	.section ".bss","awb"
                         180 .L180:
                         181 	.type	.L180,@object
                         182 	.size	.L180,0
                         183 	.data
                         184 	.text
                         185 	.align	2
                         186 	.align	2
                         187 ..gh.f.f.1.e.4:
                         188 	.type	..gh.f.f.1.e.4,@object
                         189 	.size	..gh.f.f.1.e.4,0
                         190 	.global	_EcuabMemIf_EraseImmediateBlock
                         191 _EcuabMemIf_EraseImmediateBlock:
00000060 80076100        192 	prepare	{r29,r31},0
00000064 0730            193 	mov	r7,r6
00000066 c600            194 	zxh	r6
                         195 --	    .bf
                         196 .LDW22:
00000068 850709e80000*   197 	ld.w	rosdaoff23(_MemIf_MemHwaApis+8)[r5],r29
0000006e fdc760f9        198 	jarl	[r29],lp
                         199 --	    .ef
                         200 .LDW32:
                         201 --line150
                         202 ..lin.C.3A.5C_ECU2.5CECU_Rivian_A1.5CTarget.5Crepo_projects.5CpFOTA.5CcL_LATEST.5Cmake.5Cobj.5CEcuabMemIf.4::
                         203 .LDWlin4:
00000072 40067f00        204 	dispose	0,{r29,r31},[lp]
                         205 	.type	_EcuabMemIf_EraseImmediateBlock,@function
                         206 	.size	_EcuabMemIf_EraseImmediateBlock,.-_EcuabMemIf_EraseImmediateBlock
                         207 	.align	2
                         208 .LDW42:
                         209 
                         210 --_DeviceIndex	none	param
                         211 --_BlockNumber	r7	param
                         212 
                         213 	.section ".bss","awb"
                         214 .L228:
                         215 	.type	.L228,@object
                         216 	.size	.L228,0
                         217 	.data
                         218 	.text
                         219 	.align	2
                         220 	.align	2
                         221 ..gh.f.f.1.e.5:
                         222 	.type	..gh.f.f.1.e.5,@object
                         223 	.size	..gh.f.f.1.e.5,0
                         224 	.global	_EcuabMemIf_Cancel
                         225 _EcuabMemIf_Cancel:
00000076 80076100        226 	prepare	{r29,r31},0
                         227 --	    .bf
                         228 .LDW52:
0000007a 850709e80000*   229 	ld.w	rosdaoff23(_MemIf_MemHwaApis+16)[r5],r29
00000080 fdc760f9        230 	jarl	[r29],lp
                         231 --	    .ef
                         232 .LDW62:
                         233 --line174

                                                                      Page 5
                                                              C:\Users\nhuliyap\AppData\Local\Temp\gh_00008901.s
                         234 ..lin.C.3A.5C_ECU2.5CECU_Rivian_A1.5CTarget.5Crepo_projects.5CpFOTA.5CcL_LATEST.5Cmake.5Cobj.5CEcuabMemIf.5::
                         235 .LDWlin5:
00000084 40067f00        236 	dispose	0,{r29,r31},[lp]
                         237 	.type	_EcuabMemIf_Cancel,@function
                         238 	.size	_EcuabMemIf_Cancel,.-_EcuabMemIf_Cancel
                         239 	.align	2
                         240 .LDW72:
                         241 
                         242 --_DeviceIndex	none	param
                         243 
                         244 	.section ".bss","awb"
                         245 .L273:
                         246 	.type	.L273,@object
                         247 	.size	.L273,0
                         248 	.data
                         249 	.text
                         250 	.align	2
                         251 	.align	2
                         252 ..gh.f.f.1.e.6:
                         253 	.type	..gh.f.f.1.e.6,@object
                         254 	.size	..gh.f.f.1.e.6,0
                         255 	.global	_EcuabMemIf_GetStatus
                         256 _EcuabMemIf_GetStatus:
00000088 8007e110        257 	prepare	{r27,r28,r29,r31},0
0000008c 8600            258 	zxb	r6
                         259 --	    .bf
                         260 .LDW82:
0000008e 060601ff        261 	addi	-255,r6,zero
00000092 9a2d*           262 	bne	.L293
                         263 --line192
                         264 ..lin.C.3A.5C_ECU2.5CECU_Rivian_A1.5CTarget.5Crepo_projects.5CpFOTA.5CcL_LATEST.5Cmake.5Cobj.5CEcuabMemIf.6::
                         265 .LDWlin6:
00000094 a50705e00000*   266 	ld.bu	rosdaoff23(_MemIf_NumberOfDevices)[r5],r28
0000009a 00ea            267 	mov	0,r29
0000009c e0e1            268 	cmp	zero,r28
0000009e d20d*           269 	be	.L295
                         270 .L532:
                         271 --line193
                         272 ..lin.C.3A.5C_ECU2.5CECU_Rivian_A1.5CTarget.5Crepo_projects.5CpFOTA.5CcL_LATEST.5Cmake.5Cobj.5CEcuabMemIf.7::
                         273 .LDWlin7:
000000a0 850709d80000*   274 	ld.w	rosdaoff23(_MemIf_MemHwaApis+20)[r5],r27
000000a6 fbc760f9        275 	jarl	[r27],lp
000000aa 0142            276 	mov	1,r8
000000ac ea47c248        277 	shl	r10,r8,r9
000000b0 8900            278 	zxb	r9
000000b2 09e9            279 	or	r9,r29
                         280 --line192
                         281 ..lin.C.3A.5C_ECU2.5CECU_Rivian_A1.5CTarget.5Crepo_projects.5CpFOTA.5CcL_LATEST.5Cmake.5Cobj.5CEcuabMemIf.8::
                         282 .LDWlin8:
000000b4 fc061500*       283 	loop	r28,.L532
                         284 .L295:
                         285 --line196
                         286 ..lin.C.3A.5C_ECU2.5CECU_Rivian_A1.5CTarget.5Crepo_projects.5CpFOTA.5CcL_LATEST.5Cmake.5Cobj.5CEcuabMemIf.9::
                         287 .LDWlin9:
000000b8 1d30            288 	mov	r29,r6
000000ba 003a            289 	mov	0,r7
                         290 	jarl	_MemIf_IsBitSet,lp
                         290 <EXPANSION BEGIN>
                         290 jarl22 _MemIf_IsBitSet , lp 
000000bc bfff44ff*       290 <EXPANSION END>
000000c0 0790            291 	mov	r7,r18

                                                                      Page 6
                                                              C:\Users\nhuliyap\AppData\Local\Temp\gh_00008901.s
000000c2 e051            292 	cmp	zero,r10
000000c4 e215*           293 	be	.L308
                         294 --line200
                         295 ..lin.C.3A.5C_ECU2.5CECU_Rivian_A1.5CTarget.5Crepo_projects.5CpFOTA.5CcL_LATEST.5Cmake.5Cobj.5CEcuabMemIf.10::
                         296 .LDWlin10:
000000c6 033a            297 	mov	3,r7
000000c8 1d30            298 	mov	r29,r6
                         299 	jarl	_MemIf_IsBitSet,lp
                         299 <EXPANSION BEGIN>
                         299 jarl22 _MemIf_IsBitSet , lp 
000000ca bfff36ff*       299 <EXPANSION END>
000000ce e051            300 	cmp	zero,r10
000000d0 e13f14e3        301 	cmovne	1,r7,r28
000000d4 1d30            302 	mov	r29,r6
000000d6 023a            303 	mov	2,r7
                         304 	jarl	_MemIf_IsBitSet,lp
                         304 <EXPANSION BEGIN>
                         304 jarl22 _MemIf_IsBitSet , lp 
000000d8 bfff28ff*       304 <EXPANSION END>
000000dc e051            305 	cmp	zero,r10
000000de e2e70493        306 	cmove	2,r28,r18
000000e2 f505*           307 	br	.L308
                         308 .L293:
                         309 --line216
                         310 ..lin.C.3A.5C_ECU2.5CECU_Rivian_A1.5CTarget.5Crepo_projects.5CpFOTA.5CcL_LATEST.5Cmake.5Cobj.5CEcuabMemIf.11::
                         311 .LDWlin11:
000000e4 850709e80000*   312 	ld.w	rosdaoff23(_MemIf_MemHwaApis+20)[r5],r29
000000ea fdc760f9        313 	jarl	[r29],lp
000000ee 0a90            314 	mov	r10,r18
                         315 .L308:
                         316 --line227
                         317 ..lin.C.3A.5C_ECU2.5CECU_Rivian_A1.5CTarget.5Crepo_projects.5CpFOTA.5CcL_LATEST.5Cmake.5Cobj.5CEcuabMemIf.12::
                         318 .LDWlin12:
000000f0 1250            319 	mov	r18,r10
                         320 --	    .ef
                         321 .LDW92:
000000f2 4006ff10        322 	dispose	0,{r27,r28,r29,r31},[lp]
                         323 	.type	_EcuabMemIf_GetStatus,@function
                         324 	.size	_EcuabMemIf_GetStatus,.-_EcuabMemIf_GetStatus
                         325 	.align	2
                         326 .LDW03:
                         327 --_retVal	r18	local
                         328 --_MemIf_StatusMask	r29	local
                         329 
                         330 --_DeviceIndex	r6	param
                         331 
                         332 	.section ".bss","awb"
                         333 .L913:
                         334 	.type	.L913,@object
                         335 	.size	.L913,0
                         336 	.data
                         337 	.text
                         338 	.align	2
                         339 	.align	2
                         340 ..gh.f.f.1.e.7:
                         341 	.type	..gh.f.f.1.e.7,@object
                         342 	.size	..gh.f.f.1.e.7,0
                         343 	.global	_EcuabMemIf_GetJobResult
                         344 _EcuabMemIf_GetJobResult:
000000f6 80076100        345 	prepare	{r29,r31},0
                         346 --	    .bf

                                                                      Page 7
                                                              C:\Users\nhuliyap\AppData\Local\Temp\gh_00008901.s
                         347 .LDW13:
000000fa 850709e80000*   348 	ld.w	rosdaoff23(_MemIf_MemHwaApis+24)[r5],r29
00000100 fdc760f9        349 	jarl	[r29],lp
                         350 --	    .ef
                         351 .LDW23:
                         352 --line252
                         353 ..lin.C.3A.5C_ECU2.5CECU_Rivian_A1.5CTarget.5Crepo_projects.5CpFOTA.5CcL_LATEST.5Cmake.5Cobj.5CEcuabMemIf.13::
                         354 .LDWlin13:
00000104 40067f00        355 	dispose	0,{r29,r31},[lp]
                         356 	.type	_EcuabMemIf_GetJobResult,@function
                         357 	.size	_EcuabMemIf_GetJobResult,.-_EcuabMemIf_GetJobResult
                         358 	.align	2
                         359 .LDW33:
                         360 
                         361 --_DeviceIndex	none	param
                         362 
                         363 	.section ".bss","awb"
                         364 .L1025:
                         365 	.type	.L1025,@object
                         366 	.size	.L1025,0
                         367 	.data
                         368 	.text
                         369 	.align	2
                         370 	.align	2
                         371 ..gh.f.f.1.e.8:
                         372 	.type	..gh.f.f.1.e.8,@object
                         373 	.size	..gh.f.f.1.e.8,0
                         374 	.global	_EcuabMemIf_SetMode
                         375 _EcuabMemIf_SetMode:
00000108 8007e110        376 	prepare	{r27,r28,r29,r31},0
0000010c 06d8            377 	mov	r6,r27
0000010e bb00            378 	sxb	r27
                         379 --	    .bf
                         380 .LDW43:
00000110 a50705e80000*   381 	ld.bu	rosdaoff23(_MemIf_NumberOfDevices)[r5],r29
00000116 e0e9            382 	cmp	zero,r29
00000118 b20d*           383 	be	.L1043
                         384 .L1068:
                         385 --line289
                         386 ..lin.C.3A.5C_ECU2.5CECU_Rivian_A1.5CTarget.5Crepo_projects.5CpFOTA.5CcL_LATEST.5Cmake.5Cobj.5CEcuabMemIf.14::
                         387 .LDWlin14:
0000011a 850709e00000*   388 	ld.w	rosdaoff23(_MemIf_MemHwaApis+28)[r5],r28
00000120 1b30            389 	mov	r27,r6
00000122 fcc760f9        390 	jarl	[r28],lp
                         391 --line288
                         392 ..lin.C.3A.5C_ECU2.5CECU_Rivian_A1.5CTarget.5Crepo_projects.5CpFOTA.5CcL_LATEST.5Cmake.5Cobj.5CEcuabMemIf.15::
                         393 .LDWlin15:
00000126 fd060d00*       394 	loop	r29,.L1068
0000012a 4006ff10        395 	dispose	0,{r27,r28,r29,r31},[lp]
                         396 .L1043:
                         397 --	    .ef
                         398 .LDW53:
                         399 --line291
                         400 ..lin.C.3A.5C_ECU2.5CECU_Rivian_A1.5CTarget.5Crepo_projects.5CpFOTA.5CcL_LATEST.5Cmake.5Cobj.5CEcuabMemIf.16::
                         401 .LDWlin16:
0000012e 4006ff10        402 	dispose	0,{r27,r28,r29,r31},[lp]
                         403 	.type	_EcuabMemIf_SetMode,@function
                         404 	.size	_EcuabMemIf_SetMode,.-_EcuabMemIf_SetMode
                         405 	.align	2
                         406 .LDW63:
                         407 

                                                                      Page 8
                                                              C:\Users\nhuliyap\AppData\Local\Temp\gh_00008901.s
                         408 --_Mode	r27	param
                         409 
                         410 	.section ".bss","awb"
                         411 .L1239:
                         412 	.type	.L1239,@object
                         413 	.size	.L1239,0
                         414 	.data
                         415 	.text
                         416 	.align	2
                         417 --_MemIf_NumberOfDevices	rosdaoff23(_MemIf_NumberOfDevices)	import
                         418 --_MemIf_MemHwaApis	rosdaoff23(_MemIf_MemHwaApis)	import
                         419 
                         420 	.data
                         421 	.ghsnote version,17
                         422 	.ghsnote tools,3
                         423 	.ghsnote options,144
                         424 	.text
                         425 	.align	2
                         426 ..eof.C.3A.5C_ECU2.5CECU_Rivian_A1.5CTarget.5Crepo_projects.5CpFOTA.5CcL_LATEST.5Cmake.5Cobj.5CEcuabMemIf...43.3A.5C_ECU2.5CECU_Rivian_A1.5CTarget.5Crepo_projects.5CpFOTA.5CcL_LATEST.5Cmake..64F86B39..0::
                         427 .rh850_flags REGMODE32,DATA_ALIGN8,GP_FIX,EP_NONFIX,TP_FIX,REG2_RESERVE,G3K,SDA_EXTRA_REGS_0
