                                                                      Page 1
                                                              C:\Users\nhuliyap\AppData\Local\Temp\gh_00007ds1.s
Command Line: C:\GHS\comp_201517\ease850.exe -w -stderr=err/ESLib_RSA_V15_Ver_SHA1.err -elf -b0 -I../source/_common -I../source/common -I../source/ecuabcanif -I../source/ecuabcantrcv -I../source/ecuabcryif -I../source/ecuabfee -I../source/ecuabmemif -I../source/libautosar -I../source/mcalcan -I../source/mcalcry -I../source/mcaldio -I../source/mcaleep -I../source/mcalfls -I../source/mcalmcu -I../source/projectara -I../source/projectcfg -I../source/projectcompiler -I../source/swcservicebswm -I../source/swcservicecantp -I../source/swcservicecomm -I../source/swcservicecsm -I../source/swcservicedcm -I../source/swcservicedem -I../source/swcservicedet -I../source/swcserviceecum -I../source/swcservicenvm -I../source/swcserviceos -I../source/swcservicepdur -I../source/swcserviceschm -I../source/swcservicestartup -I../source/wrappers/swcservicesecm -I../source/wrappers/vsecprim -I../source/wrappers/vstdlib -Ic:/ghs/comp_201517/ansi -Ic:/ghs/comp_201517/include/v800 -Igendata -IC:\GHS\comp_201517\lib\rh850 -cg_underscore -cpu=rh850g3k -nofpu -no_v850_simd -rh850_fpsimd=none -nomacro -patch_dbo=C:\_ECU2\ECU_Rivian_A1\Target\repo_projects\pFOTA\cL_LATEST\make\obj\ESLib_RSA_V15_Ver_SHA1.dbo -source=ESLib_RSA_V15_Ver_SHA1.c -o obj\gh_00007ds1.o -list=lst/ESLib_RSA_V15_Ver_SHA1.lst C:\Users\nhuliyap\AppData\Local\Temp\gh_00007ds1.s 
Original File: C:\Users\nhuliyap\AppData\Local\Temp\gh_00007ds1.s
Source File: ESLib_RSA_V15_Ver_SHA1.c
Directory: C:\_ECU2\ECU_Rivian_A1\Target\repo_projects\pFOTA\cL_LATEST\make
Host OS: Windows
EASE: Copyright (C) 1983-2015 Green Hills Software.  All Rights Reserved.
Release: Compiler v2015.1.7
Build Directory: [Directory] BTOWORKER6:c:/build_2015_1_bto/2015-10-21.2100-2015_1_bto/win32-comp-ecom
Revision: [VCInfo] http://toolsvc/branches/release-branch-70-bto/src@544153 (built by build)
Revision Date: Thu Oct 22 07:50:13 2015

Release Date: Thu Oct 22 09:32:32 2015

                           1 --Driver Command: ccrh850 -DBRS_DERIVATIVE_701018 -DBRS_OSC_CLK=16
                           2 --		-DBRS_TIMEBASE_CLOCK=80 -DBRS_EVA_BOARD_
                           3 --		-DBRS_DERIVATIVE_GROUP_F1L -DBRS_OS_USECASE_BRS
                           4 --		-DBRS_PLATFORM_RH850 -DBRS_COMP_GHS
                           5 --		-DBRS_CPU_LOCAL_RAM_SIZE_CORE0=32
                           6 --		-DBRS_CPU_RAM_START_CORE0=0xFEDF8000
                           7 --		-list=lst/ESLib_RSA_V15_Ver_SHA1.lst -object_dir=obj
                           8 --		-stderr=err/ESLib_RSA_V15_Ver_SHA1.err -c -cpu=rh850 -sda=all
                           9 --		-large_sda -prepare_dispose -pragma_asm_inline -no_callt
                          10 --		-inline_prologue -notda -reserve_r2 -fsoft
                          11 --		--unknown_pragma_warnings -list -g -Ogeneral -shortenum
                          12 --		-registermode=32 -I../source/_common -I../source/common
                          13 --		-I../source/ecuabcanif -I../source/ecuabcantrcv
                          14 --		-I../source/ecuabcryif -I../source/ecuabfee
                          15 --		-I../source/ecuabmemif -I../source/libautosar -I../source/mcalcan
                          16 --		-I../source/mcalcry -I../source/mcaldio -I../source/mcaleep
                          17 --		-I../source/mcalfls -I../source/mcalmcu -I../source/projectara
                          18 --		-I../source/projectcfg -I../source/projectcompiler
                          19 --		-I../source/swcservicebswm -I../source/swcservicecantp
                          20 --		-I../source/swcservicecomm -I../source/swcservicecsm
                          21 --		-I../source/swcservicedcm -I../source/swcservicedem
                          22 --		-I../source/swcservicedet -I../source/swcserviceecum
                          23 --		-I../source/swcservicenvm -I../source/swcserviceos
                          24 --		-I../source/swcservicepdur -I../source/swcserviceschm
                          25 --		-I../source/swcservicestartup -I../source/wrappers/swcservicesecm
                          26 --		-I../source/wrappers/vsecprim -I../source/wrappers/vstdlib
                          27 --		-Ic:/ghs/comp_201517/ansi -Ic:/ghs/comp_201517/include/v800
                          28 --		-Igendata ../source/wrappers/vSecPrim/ESLib_RSA_V15_Ver_SHA1.c
                          29 --Source File:   ../source/wrappers/vSecPrim/ESLib_RSA_V15_Ver_SHA1.c
                          30 --Directory:     
                          31 --		C:\_ECU2\ECU_Rivian_A1\Target\repo_projects\pFOTA\cL_LATEST\make
                          32 --Compile Date:  Wed Sep 06 14:05:29 2023
                          33 --Host OS:       Win32
                          34 --Version:       C-RH850 2015.1.7 RELEASE VERSION
                          35 --Release:       Compiler v2015.1.7
                          36 --Revision Date: Thu Oct 22 08:06:12 2015
                          37 --Release Date:  Thu Oct 22 09:34:32 2015
                          38 -- ecom  -g -w -OM
                          39 	.section ".MSR_CODE","ax"
                          40 	.align	2
                          41 ..bof.C.3A.5C_ECU2.5CECU_Rivian_A1.5CTarget.5Crepo_projects.5CpFOTA.5CcL_LATEST.5Cmake.5Cobj.5CESLib_RSA_V15_Ver_SHA1...43.3A.5C_ECU2.5CECU_Rivian_A1.5CTarget.5Crepo_projects.5CpFOTA.5CcL_LATEST.5Cmake..64F86B0A..0::
                          42 	.align	2
                          43 ..gh.f.f.1.e.0:
                          44 	.type	..gh.f.f.1.e.0,@object
                          45 	.size	..gh.f.f.1.e.0,0
                          46 	.global	_esl_initVerifyRSASHA1_V15
                          47 _esl_initVerifyRSASHA1_V15:
00000000 8207e170         48 	prepare	{r25,r26,r27,r28,r29,r31},1
00000004 23cf1d00         49 	ld.w	28[sp],r25
                          50 --	    .bf

                                                                      Page 2
                                                              C:\Users\nhuliyap\AppData\Local\Temp\gh_00007ds1.s
                          51 .LDW01:
00000008 e031             52 	cmp	zero,r6
0000000a ca05*            53 	bne	.L4
                          54 --line36
                          55 ..lin.C.3A.5C_ECU2.5CECU_Rivian_A1.5CTarget.5Crepo_projects.5CpFOTA.5CcL_LATEST.5Cmake.5Cobj.5CESLib_RSA_V15_Ver_SHA1.1::
                          56 .LDWlin1:
0000000c 20e60320         57 	movea	8195,zero,r28
00000010 c535*            58 	br	.L6
                          59 .L4:
                          60 --line39
                          61 ..lin.C.3A.5C_ECU2.5CECU_Rivian_A1.5CTarget.5Crepo_projects.5CpFOTA.5CcL_LATEST.5Cmake.5Cobj.5CESLib_RSA_V15_Ver_SHA1.2::
                          62 .LDWlin2:
00000012 26970100         63 	ld.w	0[r6],r18
00000016 06e8             64 	mov	r6,r29
00000018 07d8             65 	mov	r7,r27
0000001a 08e0             66 	mov	r8,r28
0000001c 09d0             67 	mov	r9,r26
0000001e 120648f8         68 	addi	-1976,r18,zero
00000022 c105*            69 	bl	.L7
                          70 --line40
                          71 ..lin.C.3A.5C_ECU2.5CECU_Rivian_A1.5CTarget.5Crepo_projects.5CpFOTA.5CcL_LATEST.5Cmake.5Cobj.5CESLib_RSA_V15_Ver_SHA1.3::
                          72 .LDWlin3:
00000024 20e60220         73 	movea	8194,zero,r28
00000028 852d*            74 	br	.L6
                          75 .L7:
                          76 --line44
                          77 ..lin.C.3A.5C_ECU2.5CECU_Rivian_A1.5CTarget.5Crepo_projects.5CpFOTA.5CcL_LATEST.5Cmake.5Cobj.5CESLib_RSA_V15_Ver_SHA1.4::
                          78 .LDWlin4:
0000002a 26870900         79 	ld.w	8[r6],r16
0000002e 208e6000         80 	movea	96,zero,r17
00000032 668f1101         81 	st.w	r17,272[r6]
00000036 66871901         82 	st.w	r16,280[r6]
0000003a 06362001         83 	addi	288,r6,r6
                          84 	jarl	_actSHAInit,lp
                          84 <EXPANSION BEGIN>
                          84 jarl22 _actSHAInit , lp 
0000003e 80ff0000*        84 <EXPANSION END>
                          85 --line47
                          86 ..lin.C.3A.5C_ECU2.5CECU_Rivian_A1.5CTarget.5Crepo_projects.5CpFOTA.5CcL_LATEST.5Cmake.5Cobj.5CESLib_RSA_V15_Ver_SHA1.5::
                          87 .LDWlin5:
00000042 3d770900         88 	ld.w	8[r29],r14
00000046 207e2406         89 	movea	1572,zero,r15
0000004a 7d7f9101         90 	st.w	r15,400[r29]
0000004e 1d369001         91 	addi	400,r29,r6
00000052 7d779901         92 	st.w	r14,408[r29]
00000056 1b38             93 	mov	r27,r7
00000058 1c40             94 	mov	r28,r8
0000005a 1a48             95 	mov	r26,r9
0000005c 63cf0100         96 	st.w	r25,0[sp]
                          97 	jarl	_esl_initVerifyRSA_prim,lp
                          97 <EXPANSION BEGIN>
                          97 jarl22 _esl_initVerifyRSA_prim , lp 
00000060 80ff0000*        97 <EXPANSION END>
00000064 0ae0             98 	mov	r10,r28
                          99 --line50
                         100 ..lin.C.3A.5C_ECU2.5CECU_Rivian_A1.5CTarget.5Crepo_projects.5CpFOTA.5CcL_LATEST.5Cmake.5Cobj.5CESLib_RSA_V15_Ver_SHA1.6::
                         101 .LDWlin6:
00000066 e051            102 	cmp	zero,r10
00000068 8a0d*           103 	bne	.L6
                         104 --line51
                         105 ..lin.C.3A.5C_ECU2.5CECU_Rivian_A1.5CTarget.5Crepo_projects.5CpFOTA.5CcL_LATEST.5Cmake.5Cobj.5CESLib_RSA_V15_Ver_SHA1.7::

                                                                      Page 3
                                                              C:\Users\nhuliyap\AppData\Local\Temp\gh_00007ds1.s
                         106 .LDWlin7:
0000006a 1d30            107 	mov	r29,r6
0000006c 203e0007        108 	movea	1792,zero,r7
                         109 	jarl	_esl_SetWorkspaceStatus,lp
                         109 <EXPANSION BEGIN>
                         109 jarl22 _esl_SetWorkspaceStatus , lp 
00000070 80ff0000*       109 <EXPANSION END>
                         110 --line53
                         111 ..lin.C.3A.5C_ECU2.5CECU_Rivian_A1.5CTarget.5Crepo_projects.5CpFOTA.5CcL_LATEST.5Cmake.5Cobj.5CESLib_RSA_V15_Ver_SHA1.8::
                         112 .LDWlin8:
00000074 7ddfc507        113 	st.w	r27,1988[r29]
                         114 .L6:
00000078 1c50            115 	mov	r28,r10
                         116 --	    .ef
                         117 .LDW11:
0000007a 4206ff70        118 	dispose	1,{r25,r26,r27,r28,r29,r31},[lp]
                         119 	.type	_esl_initVerifyRSASHA1_V15,@function
                         120 	.size	_esl_initVerifyRSASHA1_V15,.-_esl_initVerifyRSASHA1_V15
                         121 	.align	2
                         122 .LDW21:
                         123 --_returnValue	r28	local
                         124 
                         125 --_workSpace	r29	param
                         126 --_keyPairModuleSize	r27	param
                         127 --_keyPairModule	r28	param
                         128 --_publicKeyExponentSize	r26	param
                         129 --_publicKeyExponent	r25	param
                         130 
                         131 	.section ".bss","awb"
                         132 .L88:
                         133 	.type	.L88,@object
                         134 	.size	.L88,0
                         135 	.data
                         136 	.section ".MSR_CODE","ax"
                         137 	.align	2
                         138 	.align	2
                         139 ..gh.f.f.1.e.1:
                         140 	.type	..gh.f.f.1.e.1,@object
                         141 	.size	..gh.f.f.1.e.1,0
                         142 	.global	_esl_updateVerifyRSASHA1_V15
                         143 _esl_updateVerifyRSASHA1_V15:
0000007e 8007e130        144 	prepare	{r26,r27,r28,r29,r31},0
                         145 --	    .bf
                         146 .LDW31:
00000082 e031            147 	cmp	zero,r6
00000084 ca05*           148 	bne	.L165
                         149 --line63
                         150 ..lin.C.3A.5C_ECU2.5CECU_Rivian_A1.5CTarget.5Crepo_projects.5CpFOTA.5CcL_LATEST.5Cmake.5Cobj.5CESLib_RSA_V15_Ver_SHA1.9::
                         151 .LDWlin9:
00000086 20e60320        152 	movea	8195,zero,r28
0000008a 951d*           153 	br	.L168
                         154 .L165:
0000008c 07d8            155 	mov	r7,r27
0000008e 08d0            156 	mov	r8,r26
00000090 06e8            157 	mov	r6,r29
                         158 --line66
                         159 ..lin.C.3A.5C_ECU2.5CECU_Rivian_A1.5CTarget.5Crepo_projects.5CpFOTA.5CcL_LATEST.5Cmake.5Cobj.5CESLib_RSA_V15_Ver_SHA1.10::
                         160 .LDWlin10:
00000092 203eb807        161 	movea	1976,zero,r7
00000096 20460007        162 	movea	1792,zero,r8
                         163 	jarl	_esl_CheckWorkSpaceHeaderAndState,lp

                                                                      Page 4
                                                              C:\Users\nhuliyap\AppData\Local\Temp\gh_00007ds1.s
                         163 <EXPANSION BEGIN>
                         163 jarl22 _esl_CheckWorkSpaceHeaderAndState , lp 
0000009a 80ff0000*       163 <EXPANSION END>
0000009e 0ae0            164 	mov	r10,r28
                         165 --line69
                         166 ..lin.C.3A.5C_ECU2.5CECU_Rivian_A1.5CTarget.5Crepo_projects.5CpFOTA.5CcL_LATEST.5Cmake.5Cobj.5CESLib_RSA_V15_Ver_SHA1.11::
                         167 .LDWlin11:
000000a0 e051            168 	cmp	zero,r10
000000a2 da0d*           169 	bne	.L168
                         170 --line70
                         171 ..lin.C.3A.5C_ECU2.5CECU_Rivian_A1.5CTarget.5Crepo_projects.5CpFOTA.5CcL_LATEST.5Cmake.5Cobj.5CESLib_RSA_V15_Ver_SHA1.12::
                         172 .LDWlin12:
000000a4 3d4f1901        173 	ld.w	280[r29],r9
000000a8 1d362001        174 	addi	288,r29,r6
000000ac 1a38            175 	mov	r26,r7
000000ae 1b40            176 	mov	r27,r8
                         177 	jarl	_actSHAUpdate,lp
                         177 <EXPANSION BEGIN>
                         177 jarl22 _actSHAUpdate , lp 
000000b0 80ff0000*       177 <EXPANSION END>
000000b4 e051            178 	cmp	zero,r10
000000b6 b205*           179 	be	.L168
                         180 --line71
                         181 ..lin.C.3A.5C_ECU2.5CECU_Rivian_A1.5CTarget.5Crepo_projects.5CpFOTA.5CcL_LATEST.5Cmake.5Cobj.5CESLib_RSA_V15_Ver_SHA1.13::
                         182 .LDWlin13:
000000b8 20e60d20        183 	movea	8205,zero,r28
                         184 .L168:
000000bc 1c50            185 	mov	r28,r10
                         186 --	    .ef
                         187 .LDW41:
000000be 4006ff30        188 	dispose	0,{r26,r27,r28,r29,r31},[lp]
                         189 	.type	_esl_updateVerifyRSASHA1_V15,@function
                         190 	.size	_esl_updateVerifyRSASHA1_V15,.-_esl_updateVerifyRSASHA1_V15
                         191 	.align	2
                         192 .LDW51:
                         193 --_returnValue	r28	local
                         194 
                         195 --_workSpace	r29	param
                         196 --_inputSize	r27	param
                         197 --_input	r26	param
                         198 
                         199 	.section ".bss","awb"
                         200 .L241:
                         201 	.type	.L241,@object
                         202 	.size	.L241,0
                         203 	.data
                         204 	.section ".MSR_CODE","ax"
                         205 	.align	2
                         206 	.align	2
                         207 ..gh.f.f.1.e.2:
                         208 	.type	..gh.f.f.1.e.2,@object
                         209 	.size	..gh.f.f.1.e.2,0
                         210 	.global	_esl_finalizeHashVerifyRSASHA1_V15
                         211 _esl_finalizeHashVerifyRSASHA1_V15:
000000c2 8007e110        212 	prepare	{r27,r28,r29,r31},0
                         213 --	    .bf
                         214 .LDW61:
000000c6 e031            215 	cmp	zero,r6
000000c8 ca05*           216 	bne	.L309
                         217 --line82
                         218 ..lin.C.3A.5C_ECU2.5CECU_Rivian_A1.5CTarget.5Crepo_projects.5CpFOTA.5CcL_LATEST.5Cmake.5Cobj.5CESLib_RSA_V15_Ver_SHA1.14::

                                                                      Page 5
                                                              C:\Users\nhuliyap\AppData\Local\Temp\gh_00007ds1.s
                         219 .LDWlin14:
000000ca 20e60320        220 	movea	8195,zero,r28
000000ce b515*           221 	br	.L312
                         222 .L309:
000000d0 07d8            223 	mov	r7,r27
000000d2 06e8            224 	mov	r6,r29
                         225 --line85
                         226 ..lin.C.3A.5C_ECU2.5CECU_Rivian_A1.5CTarget.5Crepo_projects.5CpFOTA.5CcL_LATEST.5Cmake.5Cobj.5CESLib_RSA_V15_Ver_SHA1.15::
                         227 .LDWlin15:
000000d4 203eb807        228 	movea	1976,zero,r7
000000d8 20460007        229 	movea	1792,zero,r8
                         230 	jarl	_esl_CheckWorkSpaceHeaderAndState,lp
                         230 <EXPANSION BEGIN>
                         230 jarl22 _esl_CheckWorkSpaceHeaderAndState , lp 
000000dc 80ff0000*       230 <EXPANSION END>
000000e0 0ae0            231 	mov	r10,r28
                         232 --line88
                         233 ..lin.C.3A.5C_ECU2.5CECU_Rivian_A1.5CTarget.5Crepo_projects.5CpFOTA.5CcL_LATEST.5Cmake.5Cobj.5CESLib_RSA_V15_Ver_SHA1.16::
                         234 .LDWlin16:
000000e2 e051            235 	cmp	zero,r10
000000e4 8a0d*           236 	bne	.L312
                         237 --line89
                         238 ..lin.C.3A.5C_ECU2.5CECU_Rivian_A1.5CTarget.5Crepo_projects.5CpFOTA.5CcL_LATEST.5Cmake.5Cobj.5CESLib_RSA_V15_Ver_SHA1.17::
                         239 .LDWlin17:
000000e6 3d471901        240 	ld.w	280[r29],r8
000000ea 1d362001        241 	addi	288,r29,r6
000000ee 1b38            242 	mov	r27,r7
                         243 	jarl	_actSHAFinalize,lp
                         243 <EXPANSION BEGIN>
                         243 jarl22 _actSHAFinalize , lp 
000000f0 80ff0000*       243 <EXPANSION END>
                         244 .L312:
                         245 --line92
                         246 ..lin.C.3A.5C_ECU2.5CECU_Rivian_A1.5CTarget.5Crepo_projects.5CpFOTA.5CcL_LATEST.5Cmake.5Cobj.5CESLib_RSA_V15_Ver_SHA1.18::
                         247 .LDWlin18:
000000f4 1c50            248 	mov	r28,r10
                         249 --	    .ef
                         250 .LDW71:
000000f6 4006ff10        251 	dispose	0,{r27,r28,r29,r31},[lp]
                         252 	.type	_esl_finalizeHashVerifyRSASHA1_V15,@function
                         253 	.size	_esl_finalizeHashVerifyRSASHA1_V15,.-_esl_finalizeHashVerifyRSASHA1_V15
                         254 	.align	2
                         255 .LDW81:
                         256 --_returnValue	r28	local
                         257 
                         258 --_workSpace	r29	param
                         259 --_messageDigest	r27	param
                         260 
                         261 	.section ".bss","awb"
                         262 .L378:
                         263 	.type	.L378,@object
                         264 	.size	.L378,0
                         265 	.data
                         266 	.section ".MSR_CODE","ax"
                         267 	.align	2
                         268 	.align	2
                         269 	.align	2
                         270 ..gh.f.f.1.e.3:
                         271 	.type	..gh.f.f.1.e.3,@object
                         272 	.size	..gh.f.f.1.e.3,0
                         273 	.global	_esl_verifySigVerifyRSASHA1_V15

                                                                      Page 6
                                                              C:\Users\nhuliyap\AppData\Local\Temp\gh_00007ds1.s
                         274 _esl_verifySigVerifyRSASHA1_V15:
000000fa 8607e130        275 	prepare	{r26,r27,r28,r29,r31},3
000000fe 07d8            276 	mov	r7,r27
00000100 08d0            277 	mov	r8,r26
                         278 --	    .bf
                         279 .LDW91:
00000102 e031            280 	cmp	zero,r6
00000104 b205*           281 	be	.L438
00000106 e039            282 	cmp	zero,r7
00000108 ca05*           283 	bne	.L437
                         284 .L438:
                         285 --line102
                         286 ..lin.C.3A.5C_ECU2.5CECU_Rivian_A1.5CTarget.5Crepo_projects.5CpFOTA.5CcL_LATEST.5Cmake.5Cobj.5CESLib_RSA_V15_Ver_SHA1.19::
                         287 .LDWlin19:
0000010a 20ee0320        288 	movea	8195,zero,r29
0000010e e545*           289 	br	.L440
                         290 .L437:
                         291 --line106
                         292 ..lin.C.3A.5C_ECU2.5CECU_Rivian_A1.5CTarget.5Crepo_projects.5CpFOTA.5CcL_LATEST.5Cmake.5Cobj.5CESLib_RSA_V15_Ver_SHA1.20::
                         293 .LDWlin20:
00000110 2647c507        294 	ld.w	1988[r6],r8
00000114 03f0            295 	mov	sp,ep
00000116 06e61000        296 	addi	16,r6,r28
0000011a 06369001        297 	addi	400,r6,r6
0000011e 0345            298 	sst.w	r8,4[ep]
00000120 0940            299 	mov	r9,r8
00000122 1a38            300 	mov	r26,r7
00000124 01e5            301 	sst.w	r28,0[ep]
00000126 234e0400        302 	movea	4,sp,r9
                         303 	jarl	_esl_verifyRSA_prim,lp
                         303 <EXPANSION BEGIN>
                         303 jarl22 _esl_verifyRSA_prim , lp 
0000012a 80ff0000*       303 <EXPANSION END>
0000012e 0ae8            304 	mov	r10,r29
                         305 --line110
                         306 ..lin.C.3A.5C_ECU2.5CECU_Rivian_A1.5CTarget.5Crepo_projects.5CpFOTA.5CcL_LATEST.5Cmake.5Cobj.5CESLib_RSA_V15_Ver_SHA1.21::
                         307 .LDWlin21:
00000130 e051            308 	cmp	zero,r10
00000132 ca35*           309 	bne	.L440
                         310 --line111
                         311 ..lin.C.3A.5C_ECU2.5CECU_Rivian_A1.5CTarget.5Crepo_projects.5CpFOTA.5CcL_LATEST.5Cmake.5Cobj.5CESLib_RSA_V15_Ver_SHA1.22::
                         312 .LDWlin22:
00000134 23970500        313 	ld.w	4[sp],r18
00000138 1206ddff        314 	addi	-35,r18,zero
0000013c c105*           315 	bl	.L443
                         316 --line113
                         317 ..lin.C.3A.5C_ECU2.5CECU_Rivian_A1.5CTarget.5Crepo_projects.5CpFOTA.5CcL_LATEST.5Cmake.5Cobj.5CESLib_RSA_V15_Ver_SHA1.23::
                         318 .LDWlin23:
0000013e 20ee1920        319 	movea	8217,zero,r29
00000142 c52d*           320 	br	.L440
                         321 .L443:
                         322 --line117
                         323 ..lin.C.3A.5C_ECU2.5CECU_Rivian_A1.5CTarget.5Crepo_projects.5CpFOTA.5CcL_LATEST.5Cmake.5Cobj.5CESLib_RSA_V15_Ver_SHA1.24::
                         324 .LDWlin24:
00000144 123eddff        325 	addi	-35,r18,r7
00000148 633f0900        326 	st.w	r7,8[sp]
0000014c 1c30            327 	mov	r28,r6
0000014e 233e0800        328 	movea	8,sp,r7
00000152 0142            329 	mov	1,r8
                         330 	jarl	_esl_verifyPaddingRSAEM_V15,lp
                         330 <EXPANSION BEGIN>

                                                                      Page 7
                                                              C:\Users\nhuliyap\AppData\Local\Temp\gh_00007ds1.s
                         330 jarl22 _esl_verifyPaddingRSAEM_V15 , lp 
00000154 80ff0000*       330 <EXPANSION END>
                         331 --line120
                         332 ..lin.C.3A.5C_ECU2.5CECU_Rivian_A1.5CTarget.5Crepo_projects.5CpFOTA.5CcL_LATEST.5Cmake.5Cobj.5CESLib_RSA_V15_Ver_SHA1.25::
                         333 .LDWlin25:
00000158 23370500        334 	ld.w	4[sp],r6
0000015c 0ae8            335 	mov	r10,r29
0000015e e6d1            336 	cmp	r6,r26
00000160 ba1d*           337 	bne	.L454
00000162 e051            338 	cmp	zero,r10
00000164 9a1d*           339 	bne	.L454
                         340 --line126
                         341 ..lin.C.3A.5C_ECU2.5CECU_Rivian_A1.5CTarget.5Crepo_projects.5CpFOTA.5CcL_LATEST.5Cmake.5Cobj.5CESLib_RSA_V15_Ver_SHA1.26::
                         342 .LDWlin26:
00000166 23370900        343 	ld.w	8[sp],r6
0000016a 270600000000*   344 	mov	rosdaoff23(_eslt_VERIFY_RSA_SHA1_V15_ASN1_DIGESTINFO),r7
00000170 0f42            345 	mov	15,r8
00000172 dc31            346 	add	r28,r6
                         347 	jarl	_actMemcmp_ROMRAM,lp
                         347 <EXPANSION BEGIN>
                         347 jarl22 _actMemcmp_ROMRAM , lp 
00000174 80ff0000*       347 <EXPANSION END>
00000178 6152            348 	cmp	1,r10
0000017a ea0d*           349 	bne	.L454
                         350 --line132
                         351 ..lin.C.3A.5C_ECU2.5CECU_Rivian_A1.5CTarget.5Crepo_projects.5CpFOTA.5CcL_LATEST.5Cmake.5Cobj.5CESLib_RSA_V15_Ver_SHA1.27::
                         352 .LDWlin27:
0000017c 03f0            353 	mov	sp,ep
0000017e 049d            354 	sld.w	8[ep],r19
00000180 1b30            355 	mov	r27,r6
00000182 20461400        356 	movea	20,zero,r8
00000186 133e0f00        357 	addi	15,r19,r7
0000018a 053d            358 	sst.w	r7,8[ep]
0000018c dc39            359 	add	r28,r7
                         360 	jarl	_actMemcmp,lp
                         360 <EXPANSION BEGIN>
                         360 jarl22 _actMemcmp , lp 
0000018e 80ff0000*       360 <EXPANSION END>
00000192 6152            361 	cmp	1,r10
00000194 b205*           362 	be	.L440
                         363 .L454:
                         364 --line136
                         365 ..lin.C.3A.5C_ECU2.5CECU_Rivian_A1.5CTarget.5Crepo_projects.5CpFOTA.5CcL_LATEST.5Cmake.5Cobj.5CESLib_RSA_V15_Ver_SHA1.28::
                         366 .LDWlin28:
00000196 20ee1d20        367 	movea	8221,zero,r29
                         368 .L440:
0000019a 1d50            369 	mov	r29,r10
                         370 --	    .ef
                         371 .LDW02:
0000019c 4606ff30        372 	dispose	3,{r26,r27,r28,r29,r31},[lp]
                         373 	.type	_esl_verifySigVerifyRSASHA1_V15,@function
                         374 	.size	_esl_verifySigVerifyRSASHA1_V15,.-_esl_verifySigVerifyRSASHA1_V15
                         375 	.align	2
                         376 .LDW12:
                         377 --_returnValue	r29	local
                         378 --_keyPairModuleSize	4[sp]	local
                         379 --_i	8[sp]	local
                         380 --_messageBuf	r28	local
                         381 
                         382 --_workSpace	ep	param
                         383 --_messageDigest	r27	param

                                                                      Page 8
                                                              C:\Users\nhuliyap\AppData\Local\Temp\gh_00007ds1.s
                         384 --_signatureSize	r26	param
                         385 --_signature	r9	param
                         386 
                         387 	.section ".bss","awb"
                         388 .L582:
                         389 	.type	.L582,@object
                         390 	.size	.L582,0
                         391 	.section ".rosdata","a"
                         392 	.align	4
                         393 	.global	_eslt_VERIFY_RSA_SHA1_V15_ASN1_DIGESTINFO..C.3A.5C_ECU2.5CECU_Rivian_A1.5CTarget.5Crepo_projects.5CpFOTA.5CcL_LATEST.5Cmake.5Cobj.5CESLib_RSA_V15_Ver_SHA1.
                         394 _eslt_VERIFY_RSA_SHA1_V15_ASN1_DIGESTINFO..C.3A.5C_ECU2.5CECU_Rivian_A1.5CTarget.5Crepo_projects.5CpFOTA.5CcL_LATEST.5Cmake.5Cobj.5CESLib_RSA_V15_Ver_SHA1.:
00000000 30213009        395 _eslt_VERIFY_RSA_SHA1_V15_ASN1_DIGESTINFO:	.byte	48,33,48,9
00000004 06052b0e        396 	.byte	6,5,43,14
00000008 03021a05        397 	.byte	3,2,26,5
0000000c 00              398 	.space	1
0000000d 0414            399 	.byte	4,20
0000000f 00              400 	.space	1
                         401 	.type	_eslt_VERIFY_RSA_SHA1_V15_ASN1_DIGESTINFO..C.3A.5C_ECU2.5CECU_Rivian_A1.5CTarget.5Crepo_projects.5CpFOTA.5CcL_LATEST.5Cmake.5Cobj.5CESLib_RSA_V15_Ver_SHA1.,@object
                         402 	.size	_eslt_VERIFY_RSA_SHA1_V15_ASN1_DIGESTINFO..C.3A.5C_ECU2.5CECU_Rivian_A1.5CTarget.5Crepo_projects.5CpFOTA.5CcL_LATEST.5Cmake.5Cobj.5CESLib_RSA_V15_Ver_SHA1.,16
                         403 	.type	_eslt_VERIFY_RSA_SHA1_V15_ASN1_DIGESTINFO,@object
                         404 	.size	_eslt_VERIFY_RSA_SHA1_V15_ASN1_DIGESTINFO,16
                         405 	.data
                         406 	.section ".MSR_CODE","ax"
                         407 	.align	2
                         408 	.align	2
                         409 ..gh.f.f.1.e.4:
                         410 	.type	..gh.f.f.1.e.4,@object
                         411 	.size	..gh.f.f.1.e.4,0
                         412 	.global	_esl_finalizeVerifyRSASHA1_V15
                         413 _esl_finalizeVerifyRSASHA1_V15:
000001a0 8a07e110        414 	prepare	{r27,r28,r29,r31},5
                         415 --	    .bf
                         416 .LDW22:
000001a4 e031            417 	cmp	zero,r6
000001a6 da05*           418 	bne	.L701
                         419 --line152
                         420 ..lin.C.3A.5C_ECU2.5CECU_Rivian_A1.5CTarget.5Crepo_projects.5CpFOTA.5CcL_LATEST.5Cmake.5Cobj.5CESLib_RSA_V15_Ver_SHA1.29::
                         421 .LDWlin29:
000001a8 20560320        422 	movea	8195,zero,r10
000001ac 4a06ff10        423 	dispose	5,{r27,r28,r29,r31},[lp]
                         424 .L701:
000001b0 07e0            425 	mov	r7,r28
000001b2 06e8            426 	mov	r6,r29
000001b4 08d8            427 	mov	r8,r27
                         428 --line155
                         429 ..lin.C.3A.5C_ECU2.5CECU_Rivian_A1.5CTarget.5Crepo_projects.5CpFOTA.5CcL_LATEST.5Cmake.5Cobj.5CESLib_RSA_V15_Ver_SHA1.30::
                         430 .LDWlin30:
000001b6 0338            431 	mov	sp,r7
                         432 	jarl	_esl_finalizeHashVerifyRSASHA1_V15,lp
                         432 <EXPANSION BEGIN>
                         432 jarl22 _esl_finalizeHashVerifyRSASHA1_V15 , lp 
000001b8 bfff0aff*       432 <EXPANSION END>
                         433 --line156
                         434 ..lin.C.3A.5C_ECU2.5CECU_Rivian_A1.5CTarget.5Crepo_projects.5CpFOTA.5CcL_LATEST.5Cmake.5Cobj.5CESLib_RSA_V15_Ver_SHA1.31::
                         435 .LDWlin31:
000001bc e051            436 	cmp	zero,r10
000001be 9a0d*           437 	bne	.L699
                         438 --line157
                         439 ..lin.C.3A.5C_ECU2.5CECU_Rivian_A1.5CTarget.5Crepo_projects.5CpFOTA.5CcL_LATEST.5Cmake.5Cobj.5CESLib_RSA_V15_Ver_SHA1.32::
                         440 .LDWlin32:
000001c0 1d30            441 	mov	r29,r6

                                                                      Page 9
                                                              C:\Users\nhuliyap\AppData\Local\Temp\gh_00007ds1.s
000001c2 1c40            442 	mov	r28,r8
000001c4 1b48            443 	mov	r27,r9
000001c6 0338            444 	mov	sp,r7
                         445 	jarl	_esl_verifySigVerifyRSASHA1_V15,lp
                         445 <EXPANSION BEGIN>
                         445 jarl22 _esl_verifySigVerifyRSASHA1_V15 , lp 
000001c8 bfff32ff*       445 <EXPANSION END>
000001cc 4a06ff10        446 	dispose	5,{r27,r28,r29,r31},[lp]
                         447 .L699:
                         448 --	    .ef
                         449 .LDW32:
                         450 --line161
                         451 ..lin.C.3A.5C_ECU2.5CECU_Rivian_A1.5CTarget.5Crepo_projects.5CpFOTA.5CcL_LATEST.5Cmake.5Cobj.5CESLib_RSA_V15_Ver_SHA1.33::
                         452 .LDWlin33:
000001d0 4a06ff10        453 	dispose	5,{r27,r28,r29,r31},[lp]
                         454 	.type	_esl_finalizeVerifyRSASHA1_V15,@function
                         455 	.size	_esl_finalizeVerifyRSASHA1_V15,.-_esl_finalizeVerifyRSASHA1_V15
                         456 	.align	2
                         457 .LDW42:
                         458 --_returnValue	r10	local
                         459 --_hash	0[sp]	local
                         460 
                         461 --_workSpace	r29	param
                         462 --_signatureSize	r28	param
                         463 --_signature	r27	param
                         464 
                         465 	.section ".bss","awb"
                         466 .L764:
                         467 	.type	.L764,@object
                         468 	.size	.L764,0
                         469 	.data
                         470 	.section ".MSR_CODE","ax"
                         471 	.align	2
                         472 --_eslt_VERIFY_RSA_SHA1_V15_ASN1_DIGESTINFO	rosdaoff23(_eslt_VERIFY_RSA_SHA1_V15_ASN1_DIGESTINFO)	static
                         473 
                         474 	.data
                         475 	.ghsnote version,17
                         476 	.ghsnote tools,3
                         477 	.ghsnote options,144
                         478 	.section ".MSR_CODE","ax"
                         479 	.align	2
                         480 ..eof.C.3A.5C_ECU2.5CECU_Rivian_A1.5CTarget.5Crepo_projects.5CpFOTA.5CcL_LATEST.5Cmake.5Cobj.5CESLib_RSA_V15_Ver_SHA1...43.3A.5C_ECU2.5CECU_Rivian_A1.5CTarget.5Crepo_projects.5CpFOTA.5CcL_LATEST.5Cmake..64F86B0A..0::
                         481 .rh850_flags REGMODE32,DATA_ALIGN8,GP_FIX,EP_NONFIX,TP_FIX,REG2_RESERVE,G3K,SDA_EXTRA_REGS_0
