                                                                      Page 1
                                                              C:\Users\nhuliyap\AppData\Local\Temp\gh_00007bs1.s
Command Line: C:\GHS\comp_201517\ease850.exe -w -stderr=err/ESLib_RSA_PSS.err -elf -b0 -I../source/_common -I../source/common -I../source/ecuabcanif -I../source/ecuabcantrcv -I../source/ecuabcryif -I../source/ecuabfee -I../source/ecuabmemif -I../source/libautosar -I../source/mcalcan -I../source/mcalcry -I../source/mcaldio -I../source/mcaleep -I../source/mcalfls -I../source/mcalmcu -I../source/projectara -I../source/projectcfg -I../source/projectcompiler -I../source/swcservicebswm -I../source/swcservicecantp -I../source/swcservicecomm -I../source/swcservicecsm -I../source/swcservicedcm -I../source/swcservicedem -I../source/swcservicedet -I../source/swcserviceecum -I../source/swcservicenvm -I../source/swcserviceos -I../source/swcservicepdur -I../source/swcserviceschm -I../source/swcservicestartup -I../source/wrappers/swcservicesecm -I../source/wrappers/vsecprim -I../source/wrappers/vstdlib -Ic:/ghs/comp_201517/ansi -Ic:/ghs/comp_201517/include/v800 -Igendata -IC:\GHS\comp_201517\lib\rh850 -cg_underscore -cpu=rh850g3k -nofpu -no_v850_simd -rh850_fpsimd=none -nomacro -patch_dbo=C:\_ECU2\ECU_Rivian_A1\Target\repo_projects\pFOTA\cL_LATEST\make\obj\ESLib_RSA_PSS.dbo -source=ESLib_RSA_PSS.c -o obj\gh_00007bs1.o -list=lst/ESLib_RSA_PSS.lst C:\Users\nhuliyap\AppData\Local\Temp\gh_00007bs1.s 
Original File: C:\Users\nhuliyap\AppData\Local\Temp\gh_00007bs1.s
Source File: ESLib_RSA_PSS.c
Directory: C:\_ECU2\ECU_Rivian_A1\Target\repo_projects\pFOTA\cL_LATEST\make
Host OS: Windows
EASE: Copyright (C) 1983-2015 Green Hills Software.  All Rights Reserved.
Release: Compiler v2015.1.7
Build Directory: [Directory] BTOWORKER6:c:/build_2015_1_bto/2015-10-21.2100-2015_1_bto/win32-comp-ecom
Revision: [VCInfo] http://toolsvc/branches/release-branch-70-bto/src@544153 (built by build)
Revision Date: Thu Oct 22 07:50:13 2015

Release Date: Thu Oct 22 09:32:32 2015

                           1 --Driver Command: ccrh850 -DBRS_DERIVATIVE_701018 -DBRS_OSC_CLK=16
                           2 --		-DBRS_TIMEBASE_CLOCK=80 -DBRS_EVA_BOARD_
                           3 --		-DBRS_DERIVATIVE_GROUP_F1L -DBRS_OS_USECASE_BRS
                           4 --		-DBRS_PLATFORM_RH850 -DBRS_COMP_GHS
                           5 --		-DBRS_CPU_LOCAL_RAM_SIZE_CORE0=32
                           6 --		-DBRS_CPU_RAM_START_CORE0=0xFEDF8000 -list=lst/ESLib_RSA_PSS.lst
                           7 --		-object_dir=obj -stderr=err/ESLib_RSA_PSS.err -c -cpu=rh850
                           8 --		-sda=all -large_sda -prepare_dispose -pragma_asm_inline -no_callt
                           9 --		-inline_prologue -notda -reserve_r2 -fsoft
                          10 --		--unknown_pragma_warnings -list -g -Ogeneral -shortenum
                          11 --		-registermode=32 -I../source/_common -I../source/common
                          12 --		-I../source/ecuabcanif -I../source/ecuabcantrcv
                          13 --		-I../source/ecuabcryif -I../source/ecuabfee
                          14 --		-I../source/ecuabmemif -I../source/libautosar -I../source/mcalcan
                          15 --		-I../source/mcalcry -I../source/mcaldio -I../source/mcaleep
                          16 --		-I../source/mcalfls -I../source/mcalmcu -I../source/projectara
                          17 --		-I../source/projectcfg -I../source/projectcompiler
                          18 --		-I../source/swcservicebswm -I../source/swcservicecantp
                          19 --		-I../source/swcservicecomm -I../source/swcservicecsm
                          20 --		-I../source/swcservicedcm -I../source/swcservicedem
                          21 --		-I../source/swcservicedet -I../source/swcserviceecum
                          22 --		-I../source/swcservicenvm -I../source/swcserviceos
                          23 --		-I../source/swcservicepdur -I../source/swcserviceschm
                          24 --		-I../source/swcservicestartup -I../source/wrappers/swcservicesecm
                          25 --		-I../source/wrappers/vsecprim -I../source/wrappers/vstdlib
                          26 --		-Ic:/ghs/comp_201517/ansi -Ic:/ghs/comp_201517/include/v800
                          27 --		-Igendata ../source/wrappers/vSecPrim/ESLib_RSA_PSS.c
                          28 --Source File:   ../source/wrappers/vSecPrim/ESLib_RSA_PSS.c
                          29 --Directory:     
                          30 --		C:\_ECU2\ECU_Rivian_A1\Target\repo_projects\pFOTA\cL_LATEST\make
                          31 --Compile Date:  Wed Sep 06 14:05:12 2023
                          32 --Host OS:       Win32
                          33 --Version:       C-RH850 2015.1.7 RELEASE VERSION
                          34 --Release:       Compiler v2015.1.7
                          35 --Revision Date: Thu Oct 22 08:06:12 2015
                          36 --Release Date:  Thu Oct 22 09:34:32 2015
                          37 -- ecom  -g -w -OM
                          38 	.section ".MSR_CODE","ax"
                          39 	.align	2
                          40 ..bof.C.3A.5C_ECU2.5CECU_Rivian_A1.5CTarget.5Crepo_projects.5CpFOTA.5CcL_LATEST.5Cmake.5Cobj.5CESLib_RSA_PSS...43.3A.5C_ECU2.5CECU_Rivian_A1.5CTarget.5Crepo_projects.5CpFOTA.5CcL_LATEST.5Cmake..64F86AF8..0::
                          41 	.align	2
                          42 ..gh.f.f.1.e.0:
                          43 	.type	..gh.f.f.1.e.0,@object
                          44 	.size	..gh.f.f.1.e.0,0
                          45 	.global	_esl_calcSaltedHashRSASHA1_PSS
                          46 _esl_calcSaltedHashRSASHA1_PSS:
00000000 be07e170         47 	prepare	{r25,r26,r27,r28,r29,r31},31
00000004 501a             48 	add	-16,sp
00000006 06e8             49 	mov	r6,r29
00000008 07d8             50 	mov	r7,r27

                                                                      Page 2
                                                              C:\Users\nhuliyap\AppData\Local\Temp\gh_00007bs1.s
0000000a 08d0             51 	mov	r8,r26
0000000c 09c8             52 	mov	r9,r25
0000000e 23e7a500         53 	ld.w	164[sp],r28
                          54 --	    .bf
                          55 .LDW01:
00000012 e031             56 	cmp	zero,r6
00000014 b205*            57 	be	.L5
00000016 e0e1             58 	cmp	zero,r28
00000018 ca05*            59 	bne	.L4
                          60 .L5:
                          61 --line22
                          62 ..lin.C.3A.5C_ECU2.5CECU_Rivian_A1.5CTarget.5Crepo_projects.5CpFOTA.5CcL_LATEST.5Cmake.5Cobj.5CESLib_RSA_PSS.1::
                          63 .LDWlin1:
0000001a 20560320         64 	movea	8195,zero,r10
0000001e 852d*            65 	br	.L2
                          66 .L4:
                          67 --line24
                          68 ..lin.C.3A.5C_ECU2.5CECU_Rivian_A1.5CTarget.5Crepo_projects.5CpFOTA.5CcL_LATEST.5Cmake.5Cobj.5CESLib_RSA_PSS.2::
                          69 .LDWlin2:
00000020 203e6000         70 	movea	96,zero,r7
                          71 	jarl	_esl_CheckWorkSpaceHeader,lp
                          71 <EXPANSION BEGIN>
                          71 jarl22 _esl_CheckWorkSpaceHeader , lp 
00000024 80ff0000*        71 <EXPANSION END>
00000028 e051             72 	cmp	zero,r10
0000002a aa25*            73 	bne	.L2
                          74 --	    .bs
                          75 .LDW11:
                          76 --line28
                          77 ..lin.C.3A.5C_ECU2.5CECU_Rivian_A1.5CTarget.5Crepo_projects.5CpFOTA.5CcL_LATEST.5Cmake.5Cobj.5CESLib_RSA_PSS.3::
                          78 .LDWlin3:
0000002c 1df0             79 	mov	r29,ep
0000002e 234e0c00         80 	movea	12,sp,r9
00000032 1d467000         81 	addi	112,r29,r8
                          82 .L86:
00000036 be0709300000     83 	ld.dw	0[ep],r6
0000003c 48f2             84 	add	8,ep
0000003e a9070f300000     85 	st.dw	r6,0[r9]
00000044 484a             86 	add	8,r9
00000046 fe41             87 	cmp	ep,r8
00000048 faf5*            88 	bne	.L86
                          89 --line30
                          90 ..lin.C.3A.5C_ECU2.5CECU_Rivian_A1.5CTarget.5Crepo_projects.5CpFOTA.5CcL_LATEST.5Cmake.5Cobj.5CESLib_RSA_PSS.4::
                          91 .LDWlin4:
0000004a 209e1400         92 	movea	20,zero,r19
0000004e 03f0             93 	mov	sp,ep
00000050 1b38             94 	mov	r27,r7
00000052 1a40             95 	mov	r26,r8
00000054 1948             96 	mov	r25,r9
00000056 019d             97 	sst.w	r19,0[ep]
00000058 03e5             98 	sst.w	r28,4[ep]
0000005a 0505             99 	sst.w	zero,8[ep]
0000005c 23360c00        100 	movea	12,sp,r6
                         101 	jarl	_esl_calcSaltedHashRSA_PSS,lp
                         101 <EXPANSION BEGIN>
                         101 jarl22 _esl_calcSaltedHashRSA_PSS , lp 
00000060 80ff0000*       101 <EXPANSION END>
                         102 --line33
                         103 ..lin.C.3A.5C_ECU2.5CECU_Rivian_A1.5CTarget.5Crepo_projects.5CpFOTA.5CcL_LATEST.5Cmake.5Cobj.5CESLib_RSA_PSS.5::
                         104 .LDWlin5:
00000064 0a06d4df        105 	addi	-8236,r10,zero

                                                                      Page 3
                                                              C:\Users\nhuliyap\AppData\Local\Temp\gh_00007bs1.s
00000068 ba05*           106 	bne	.L2
                         107 --line34
                         108 ..lin.C.3A.5C_ECU2.5CECU_Rivian_A1.5CTarget.5Crepo_projects.5CpFOTA.5CcL_LATEST.5Cmake.5Cobj.5CESLib_RSA_PSS.6::
                         109 .LDWlin6:
0000006a 20560d20        110 	movea	8205,zero,r10
                         111 --	    .es
                         112 .LDW21:
                         113 .L2:
                         114 --	    .ef
                         115 .LDW31:
0000006e 031e1000        116 	addi	16,sp,sp
00000072 7e06ff70        117 	dispose	31,{r25,r26,r27,r28,r29,r31},[lp]
                         118 	.type	_esl_calcSaltedHashRSASHA1_PSS,@function
                         119 	.size	_esl_calcSaltedHashRSASHA1_PSS,.-_esl_calcSaltedHashRSASHA1_PSS
                         120 	.align	2
                         121 .LDW41:
                         122 --_returnValue	r10	local
                         123 --_wsHashUnion	12[sp]	local
                         124 
                         125 --_wsHash	r29	param
                         126 --_saltSize	r27	param
                         127 --_salt	r26	param
                         128 --_messageDigest	r25	param
                         129 --_saltedHash	r28	param
                         130 
                         131 	.section ".bss","awb"
                         132 .L85:
                         133 	.type	.L85,@object
                         134 	.size	.L85,0
                         135 	.data
                         136 	.section ".MSR_CODE","ax"
                         137 	.align	2
                         138 	.align	2
                         139 ..gh.f.f.1.e.1:
                         140 	.type	..gh.f.f.1.e.1,@object
                         141 	.size	..gh.f.f.1.e.1,0
                         142 	.global	_esl_calcSaltedHashRSASHA256_PSS
                         143 _esl_calcSaltedHashRSASHA256_PSS:
00000076 be07e170        144 	prepare	{r25,r26,r27,r28,r29,r31},31
0000007a 501a            145 	add	-16,sp
0000007c 06e8            146 	mov	r6,r29
0000007e 07c8            147 	mov	r7,r25
00000080 08e0            148 	mov	r8,r28
00000082 09d8            149 	mov	r9,r27
00000084 23d7a500        150 	ld.w	164[sp],r26
                         151 --	    .bf
                         152 .LDW51:
00000088 e031            153 	cmp	zero,r6
0000008a f205*           154 	be	.L185
0000008c e041            155 	cmp	zero,r8
0000008e d205*           156 	be	.L185
00000090 e049            157 	cmp	zero,r9
00000092 b205*           158 	be	.L185
00000094 e0d1            159 	cmp	zero,r26
00000096 ca05*           160 	bne	.L184
                         161 .L185:
                         162 --line53
                         163 ..lin.C.3A.5C_ECU2.5CECU_Rivian_A1.5CTarget.5Crepo_projects.5CpFOTA.5CcL_LATEST.5Cmake.5Cobj.5CESLib_RSA_PSS.7::
                         164 .LDWlin7:
00000098 20560320        165 	movea	8195,zero,r10
0000009c c525*           166 	br	.L182

                                                                      Page 4
                                                              C:\Users\nhuliyap\AppData\Local\Temp\gh_00007bs1.s
                         167 .L184:
                         168 --line55
                         169 ..lin.C.3A.5C_ECU2.5CECU_Rivian_A1.5CTarget.5Crepo_projects.5CpFOTA.5CcL_LATEST.5Cmake.5Cobj.5CESLib_RSA_PSS.8::
                         170 .LDWlin8:
0000009e 203e7000        171 	movea	112,zero,r7
                         172 	jarl	_esl_CheckWorkSpaceHeader,lp
                         172 <EXPANSION BEGIN>
                         172 jarl22 _esl_CheckWorkSpaceHeader , lp 
000000a2 80ff0000*       172 <EXPANSION END>
000000a6 e051            173 	cmp	zero,r10
000000a8 ea1d*           174 	bne	.L182
                         175 --	    .bs
                         176 .LDW61:
                         177 --line59
                         178 ..lin.C.3A.5C_ECU2.5CECU_Rivian_A1.5CTarget.5Crepo_projects.5CpFOTA.5CcL_LATEST.5Cmake.5Cobj.5CESLib_RSA_PSS.9::
                         179 .LDWlin9:
000000aa 1df0            180 	mov	r29,ep
000000ac 234e0c00        181 	movea	12,sp,r9
000000b0 1d468000        182 	addi	128,r29,r8
                         183 .L301:
000000b4 be0709300000    184 	ld.dw	0[ep],r6
000000ba 48f2            185 	add	8,ep
000000bc a9070f300000    186 	st.dw	r6,0[r9]
000000c2 484a            187 	add	8,r9
000000c4 fe41            188 	cmp	ep,r8
000000c6 faf5*           189 	bne	.L301
                         190 --line61
                         191 ..lin.C.3A.5C_ECU2.5CECU_Rivian_A1.5CTarget.5Crepo_projects.5CpFOTA.5CcL_LATEST.5Cmake.5Cobj.5CESLib_RSA_PSS.10::
                         192 .LDWlin10:
000000c8 209e2000        193 	movea	32,zero,r19
000000cc 03f0            194 	mov	sp,ep
000000ce 0292            195 	mov	2,r18
000000d0 1938            196 	mov	r25,r7
000000d2 1c40            197 	mov	r28,r8
000000d4 1b48            198 	mov	r27,r9
000000d6 019d            199 	sst.w	r19,0[ep]
000000d8 03d5            200 	sst.w	r26,4[ep]
000000da 0595            201 	sst.w	r18,8[ep]
000000dc 23360c00        202 	movea	12,sp,r6
                         203 	jarl	_esl_calcSaltedHashRSA_PSS,lp
                         203 <EXPANSION BEGIN>
                         203 jarl22 _esl_calcSaltedHashRSA_PSS , lp 
000000e0 80ff0000*       203 <EXPANSION END>
                         204 --	    .es
                         205 .LDW71:
                         206 .L182:
                         207 --	    .ef
                         208 .LDW81:
                         209 --line69
                         210 ..lin.C.3A.5C_ECU2.5CECU_Rivian_A1.5CTarget.5Crepo_projects.5CpFOTA.5CcL_LATEST.5Cmake.5Cobj.5CESLib_RSA_PSS.11::
                         211 .LDWlin11:
000000e4 031e1000        212 	addi	16,sp,sp
000000e8 7e06ff70        213 	dispose	31,{r25,r26,r27,r28,r29,r31},[lp]
                         214 	.type	_esl_calcSaltedHashRSASHA256_PSS,@function
                         215 	.size	_esl_calcSaltedHashRSASHA256_PSS,.-_esl_calcSaltedHashRSASHA256_PSS
                         216 	.align	2
                         217 .LDW91:
                         218 --_returnValue	r10	local
                         219 --_wsHashUnion	12[sp]	local
                         220 
                         221 --_wsHash	r29	param

                                                                      Page 5
                                                              C:\Users\nhuliyap\AppData\Local\Temp\gh_00007bs1.s
                         222 --_saltSize	r25	param
                         223 --_salt	r28	param
                         224 --_messageDigest	r27	param
                         225 --_saltedHash	r26	param
                         226 
                         227 	.section ".bss","awb"
                         228 .L300:
                         229 	.type	.L300,@object
                         230 	.size	.L300,0
                         231 	.data
                         232 	.section ".MSR_CODE","ax"
                         233 	.align	2
                         234 
                         235 	.data
                         236 	.ghsnote version,17
                         237 	.ghsnote tools,3
                         238 	.ghsnote options,144
                         239 	.section ".MSR_CODE","ax"
                         240 	.align	2
                         241 ..eof.C.3A.5C_ECU2.5CECU_Rivian_A1.5CTarget.5Crepo_projects.5CpFOTA.5CcL_LATEST.5Cmake.5Cobj.5CESLib_RSA_PSS...43.3A.5C_ECU2.5CECU_Rivian_A1.5CTarget.5Crepo_projects.5CpFOTA.5CcL_LATEST.5Cmake..64F86AF8..0::
                         242 .rh850_flags REGMODE32,DATA_ALIGN8,GP_FIX,EP_NONFIX,TP_FIX,REG2_RESERVE,G3K,SDA_EXTRA_REGS_0
