                                                                      Page 1
                                                              C:\Users\nhuliyap\AppData\Local\Temp\gh_0000dqo1.s
Command Line: C:\GHS\comp_201517\ease850.exe -w -stderr=err/ESLib_RSA_Common.err -elf -b0 -I../source/_common -I../source/common -I../source/ecuabcanif -I../source/ecuabcantrcv -I../source/ecuabcryif -I../source/ecuabfee -I../source/ecuabmemif -I../source/libautosar -I../source/mcalcan -I../source/mcalcry -I../source/mcaldio -I../source/mcaleep -I../source/mcalfls -I../source/mcalmcu -I../source/projectara -I../source/projectcfg -I../source/projectcompiler -I../source/swcservicebswm -I../source/swcservicecantp -I../source/swcservicecomm -I../source/swcservicecsm -I../source/swcservicedcm -I../source/swcservicedem -I../source/swcservicedet -I../source/swcserviceecum -I../source/swcservicenvm -I../source/swcserviceos -I../source/swcservicepdur -I../source/swcserviceschm -I../source/swcservicestartup -I../source/wrappers/swcservicesecm -I../source/wrappers/vsecprim -I../source/wrappers/vstdlib -Ic:/ghs/comp_201517/ansi -Ic:/ghs/comp_201517/include/v800 -Igendata -IC:\GHS\comp_201517\lib\rh850 -cg_underscore -cpu=rh850g3k -nofpu -no_v850_simd -rh850_fpsimd=none -nomacro -patch_dbo=C:\_ECU2\ECU_Rivian_A1\Target\repo_projects\pFOTA\cL_LATEST\make\obj\ESLib_RSA_Common.dbo -source=ESLib_RSA_Common.c -o obj\gh_0000dqo1.o -list=lst/ESLib_RSA_Common.lst C:\Users\nhuliyap\AppData\Local\Temp\gh_0000dqo1.s 
Original File: C:\Users\nhuliyap\AppData\Local\Temp\gh_0000dqo1.s
Source File: ESLib_RSA_Common.c
Directory: C:\_ECU2\ECU_Rivian_A1\Target\repo_projects\pFOTA\cL_LATEST\make
Host OS: Windows
EASE: Copyright (C) 1983-2015 Green Hills Software.  All Rights Reserved.
Release: Compiler v2015.1.7
Build Directory: [Directory] BTOWORKER6:c:/build_2015_1_bto/2015-10-21.2100-2015_1_bto/win32-comp-ecom
Revision: [VCInfo] http://toolsvc/branches/release-branch-70-bto/src@544153 (built by build)
Revision Date: Thu Oct 22 07:50:13 2015

Release Date: Thu Oct 22 09:32:32 2015

                           1 --Driver Command: ccrh850 -DBRS_DERIVATIVE_701018 -DBRS_OSC_CLK=16
                           2 --		-DBRS_TIMEBASE_CLOCK=80 -DBRS_EVA_BOARD_
                           3 --		-DBRS_DERIVATIVE_GROUP_F1L -DBRS_OS_USECASE_BRS
                           4 --		-DBRS_PLATFORM_RH850 -DBRS_COMP_GHS
                           5 --		-DBRS_CPU_LOCAL_RAM_SIZE_CORE0=32
                           6 --		-DBRS_CPU_RAM_START_CORE0=0xFEDF8000
                           7 --		-list=lst/ESLib_RSA_Common.lst -object_dir=obj
                           8 --		-stderr=err/ESLib_RSA_Common.err -c -cpu=rh850 -sda=all
                           9 --		-large_sda -prepare_dispose -pragma_asm_inline -no_callt
                          10 --		-inline_prologue -notda -reserve_r2 -fsoft
                          11 --		--unknown_pragma_warnings -list -g -Ogeneral -shortenum
                          12 --		-registermode=32 -I../source/_common -I../source/common
                          13 --		-I../source/ecuabcanif -I../source/ecuabcantrcv
                          14 --		-I../source/ecuabcryif -I../source/ecuabfee
                          15 --		-I../source/ecuabmemif -I../source/libautosar -I../source/mcalcan
                          16 --		-I../source/mcalcry -I../source/mcaldio -I../source/mcaleep
                          17 --		-I../source/mcalfls -I../source/mcalmcu -I../source/projectara
                          18 --		-I../source/projectcfg -I../source/projectcompiler
                          19 --		-I../source/swcservicebswm -I../source/swcservicecantp
                          20 --		-I../source/swcservicecomm -I../source/swcservicecsm
                          21 --		-I../source/swcservicedcm -I../source/swcservicedem
                          22 --		-I../source/swcservicedet -I../source/swcserviceecum
                          23 --		-I../source/swcservicenvm -I../source/swcserviceos
                          24 --		-I../source/swcservicepdur -I../source/swcserviceschm
                          25 --		-I../source/swcservicestartup -I../source/wrappers/swcservicesecm
                          26 --		-I../source/wrappers/vsecprim -I../source/wrappers/vstdlib
                          27 --		-Ic:/ghs/comp_201517/ansi -Ic:/ghs/comp_201517/include/v800
                          28 --		-Igendata ../source/wrappers/vSecPrim/ESLib_RSA_Common.c
                          29 --Source File:   ../source/wrappers/vSecPrim/ESLib_RSA_Common.c
                          30 --Directory:     
                          31 --		C:\_ECU2\ECU_Rivian_A1\Target\repo_projects\pFOTA\cL_LATEST\make
                          32 --Compile Date:  Wed Sep 06 14:05:03 2023
                          33 --Host OS:       Win32
                          34 --Version:       C-RH850 2015.1.7 RELEASE VERSION
                          35 --Release:       Compiler v2015.1.7
                          36 --Revision Date: Thu Oct 22 08:06:12 2015
                          37 --Release Date:  Thu Oct 22 09:34:32 2015
                          38 -- ecom  -g -w -OM
                          39 	.section ".MSR_CODE","ax"
                          40 	.align	2
                          41 ..bof.C.3A.5C_ECU2.5CECU_Rivian_A1.5CTarget.5Crepo_projects.5CpFOTA.5CcL_LATEST.5Cmake.5Cobj.5CESLib_RSA_Common...43.3A.5C_ECU2.5CECU_Rivian_A1.5CTarget.5Crepo_projects.5CpFOTA.5CcL_LATEST.5Cmake..64F86AEF..0::
                          42 	.align	2
                          43 ..gh.f.f.1.e.0:
                          44 	.type	..gh.f.f.1.e.0,@object
                          45 	.size	..gh.f.f.1.e.0,0
                          46 	.global	_actHashInit..C.3A.5C_ECU2.5CECU_Rivian_A1.5CTarget.5Crepo_projects.5CpFOTA.5CcL_LATEST.5Cmake.5Cobj.5CESLib_RSA_Common.
                          47 _actHashInit..C.3A.5C_ECU2.5CECU_Rivian_A1.5CTarget.5Crepo_projects.5CpFOTA.5CcL_LATEST.5Cmake.5Cobj.5CESLib_RSA_Common.:
                          48 _actHashInit:
00000000 80072100         49 	prepare	{r31},0
                          50 --	    .bf

                                                                      Page 2
                                                              C:\Users\nhuliyap\AppData\Local\Temp\gh_0000dqo1.s
                          51 .LDW01:
00000004 c73eff00         52 	andi	255,r7,r7
00000008 f205*            53 	be	.L6
0000000a 623a             54 	cmp	2,r7
0000000c b20d*            55 	be	.L7
                          56 --line94
                          57 ..lin.C.3A.5C_ECU2.5CECU_Rivian_A1.5CTarget.5Crepo_projects.5CpFOTA.5CcL_LATEST.5Cmake.5Cobj.5CESLib_RSA_Common.1::
                          58 .LDWlin1:
0000000e 2056f700         59 	movea	247,zero,r10
00000012 40063f00         60 	dispose	0,{r31},[lp]
                          61 .L6:
                          62 --line55
                          63 ..lin.C.3A.5C_ECU2.5CECU_Rivian_A1.5CTarget.5Crepo_projects.5CpFOTA.5CcL_LATEST.5Cmake.5Cobj.5CESLib_RSA_Common.2::
                          64 .LDWlin2:
00000016 06361000         65 	addi	16,r6,r6
                          66 	jarl	_actSHAInit,lp
                          66 <EXPANSION BEGIN>
                          66 jarl22 _actSHAInit , lp 
0000001a 80ff0000*        66 <EXPANSION END>
                          67 --line56
                          68 ..lin.C.3A.5C_ECU2.5CECU_Rivian_A1.5CTarget.5Crepo_projects.5CpFOTA.5CcL_LATEST.5Cmake.5Cobj.5CESLib_RSA_Common.3::
                          69 .LDWlin3:
0000001e 40063f00         70 	dispose	0,{r31},[lp]
                          71 .L7:
                          72 --line65
                          73 ..lin.C.3A.5C_ECU2.5CECU_Rivian_A1.5CTarget.5Crepo_projects.5CpFOTA.5CcL_LATEST.5Cmake.5Cobj.5CESLib_RSA_Common.4::
                          74 .LDWlin4:
00000022 06361000         75 	addi	16,r6,r6
                          76 	jarl	_actSHA256Init,lp
                          76 <EXPANSION BEGIN>
                          76 jarl22 _actSHA256Init , lp 
00000026 80ff0000*        76 <EXPANSION END>
                          77 --	    .ef
                          78 .LDW11:
                          79 --line97
                          80 ..lin.C.3A.5C_ECU2.5CECU_Rivian_A1.5CTarget.5Crepo_projects.5CpFOTA.5CcL_LATEST.5Cmake.5Cobj.5CESLib_RSA_Common.5::
                          81 .LDWlin5:
0000002a 40063f00         82 	dispose	0,{r31},[lp]
                          83 	.type	_actHashInit,@function
                          84 	.size	_actHashInit,.-_actHashInit
                          85 	.type	_actHashInit..C.3A.5C_ECU2.5CECU_Rivian_A1.5CTarget.5Crepo_projects.5CpFOTA.5CcL_LATEST.5Cmake.5Cobj.5CESLib_RSA_Common.,@function
                          86 	.size	_actHashInit..C.3A.5C_ECU2.5CECU_Rivian_A1.5CTarget.5Crepo_projects.5CpFOTA.5CcL_LATEST.5Cmake.5Cobj.5CESLib_RSA_Common.,.-_actHashInit..C.3A.5C_ECU2.5CECU_Rivian_A1.5CTarget.5Crepo_projects.5CpFOTA.5CcL_LATEST.5Cmake.5Cobj.5CESLib_RSA_Common.
                          87 	.align	2
                          88 .LDW21:
                          89 --_returnValue	r10	local
                          90 
                          91 --_hashWSU	r6	param
                          92 --_hashID	r7	param
                          93 
                          94 	.section ".bss","awb"
                          95 .L53:
                          96 	.type	.L53,@object
                          97 	.size	.L53,0
                          98 	.data
                          99 	.section ".MSR_CODE","ax"
                         100 	.align	2
                         101 	.align	2
                         102 ..gh.f.f.1.e.1:
                         103 	.type	..gh.f.f.1.e.1,@object
                         104 	.size	..gh.f.f.1.e.1,0
                         105 	.global	_actHashUpdate..C.3A.5C_ECU2.5CECU_Rivian_A1.5CTarget.5Crepo_projects.5CpFOTA.5CcL_LATEST.5Cmake.5Cobj.5CESLib_RSA_Common.

                                                                      Page 3
                                                              C:\Users\nhuliyap\AppData\Local\Temp\gh_0000dqo1.s
                         106 _actHashUpdate..C.3A.5C_ECU2.5CECU_Rivian_A1.5CTarget.5Crepo_projects.5CpFOTA.5CcL_LATEST.5Cmake.5Cobj.5CESLib_RSA_Common.:
                         107 _actHashUpdate:
0000002e 80072100        108 	prepare	{r31},0
00000032 06f0            109 	mov	r6,ep
                         110 --	    .bf
                         111 .LDW31:
00000034 c94eff00        112 	andi	255,r9,r9
00000038 f205*           113 	be	.L125
0000003a 624a            114 	cmp	2,r9
0000003c c20d*           115 	be	.L126
                         116 --line148
                         117 ..lin.C.3A.5C_ECU2.5CECU_Rivian_A1.5CTarget.5Crepo_projects.5CpFOTA.5CcL_LATEST.5Cmake.5Cobj.5CESLib_RSA_Common.6::
                         118 .LDWlin6:
0000003e 2056f700        119 	movea	247,zero,r10
00000042 40063f00        120 	dispose	0,{r31},[lp]
                         121 .L125:
                         122 --line109
                         123 ..lin.C.3A.5C_ECU2.5CECU_Rivian_A1.5CTarget.5Crepo_projects.5CpFOTA.5CcL_LATEST.5Cmake.5Cobj.5CESLib_RSA_Common.7::
                         124 .LDWlin7:
00000046 044d            125 	sld.w	8[ep],r9
00000048 06361000        126 	addi	16,r6,r6
                         127 	jarl	_actSHAUpdate,lp
                         127 <EXPANSION BEGIN>
                         127 jarl22 _actSHAUpdate , lp 
0000004c 80ff0000*       127 <EXPANSION END>
                         128 --line110
                         129 ..lin.C.3A.5C_ECU2.5CECU_Rivian_A1.5CTarget.5Crepo_projects.5CpFOTA.5CcL_LATEST.5Cmake.5Cobj.5CESLib_RSA_Common.8::
                         130 .LDWlin8:
00000050 40063f00        131 	dispose	0,{r31},[lp]
                         132 .L126:
                         133 --line119
                         134 ..lin.C.3A.5C_ECU2.5CECU_Rivian_A1.5CTarget.5Crepo_projects.5CpFOTA.5CcL_LATEST.5Cmake.5Cobj.5CESLib_RSA_Common.9::
                         135 .LDWlin9:
00000054 044d            136 	sld.w	8[ep],r9
00000056 06361000        137 	addi	16,r6,r6
                         138 	jarl	_actSHA256Update,lp
                         138 <EXPANSION BEGIN>
                         138 jarl22 _actSHA256Update , lp 
0000005a 80ff0000*       138 <EXPANSION END>
                         139 --	    .ef
                         140 .LDW41:
                         141 --line151
                         142 ..lin.C.3A.5C_ECU2.5CECU_Rivian_A1.5CTarget.5Crepo_projects.5CpFOTA.5CcL_LATEST.5Cmake.5Cobj.5CESLib_RSA_Common.10::
                         143 .LDWlin10:
0000005e 40063f00        144 	dispose	0,{r31},[lp]
                         145 	.type	_actHashUpdate,@function
                         146 	.size	_actHashUpdate,.-_actHashUpdate
                         147 	.type	_actHashUpdate..C.3A.5C_ECU2.5CECU_Rivian_A1.5CTarget.5Crepo_projects.5CpFOTA.5CcL_LATEST.5Cmake.5Cobj.5CESLib_RSA_Common.,@function
                         148 	.size	_actHashUpdate..C.3A.5C_ECU2.5CECU_Rivian_A1.5CTarget.5Crepo_projects.5CpFOTA.5CcL_LATEST.5Cmake.5Cobj.5CESLib_RSA_Common.,.-_actHashUpdate..C.3A.5C_ECU2.5CECU_Rivian_A1.5CTarget.5Crepo_projects.5CpFOTA.5CcL_LATEST.5Cmake.5Cobj.5CESLib_RSA_Common.
                         149 	.align	2
                         150 .LDW51:
                         151 --_returnValue	r10	local
                         152 
                         153 --_hashWSU	ep	param
                         154 --_dataIN	r7	param
                         155 --_length	r8	param
                         156 --_hashID	r9	param
                         157 
                         158 	.section ".bss","awb"
                         159 .L165:
                         160 	.type	.L165,@object

                                                                      Page 4
                                                              C:\Users\nhuliyap\AppData\Local\Temp\gh_0000dqo1.s
                         161 	.size	.L165,0
                         162 	.data
                         163 	.section ".MSR_CODE","ax"
                         164 	.align	2
                         165 	.align	2
                         166 ..gh.f.f.1.e.2:
                         167 	.type	..gh.f.f.1.e.2,@object
                         168 	.size	..gh.f.f.1.e.2,0
                         169 	.global	_actHashFinalize..C.3A.5C_ECU2.5CECU_Rivian_A1.5CTarget.5Crepo_projects.5CpFOTA.5CcL_LATEST.5Cmake.5Cobj.5CESLib_RSA_Common.
                         170 _actHashFinalize..C.3A.5C_ECU2.5CECU_Rivian_A1.5CTarget.5Crepo_projects.5CpFOTA.5CcL_LATEST.5Cmake.5Cobj.5CESLib_RSA_Common.:
                         171 _actHashFinalize:
00000062 80072100        172 	prepare	{r31},0
00000066 06f0            173 	mov	r6,ep
                         174 --	    .bf
                         175 .LDW61:
00000068 c846ff00        176 	andi	255,r8,r8
0000006c f205*           177 	be	.L237
0000006e 6242            178 	cmp	2,r8
00000070 c20d*           179 	be	.L238
                         180 --line201
                         181 ..lin.C.3A.5C_ECU2.5CECU_Rivian_A1.5CTarget.5Crepo_projects.5CpFOTA.5CcL_LATEST.5Cmake.5Cobj.5CESLib_RSA_Common.11::
                         182 .LDWlin11:
00000072 2056f700        183 	movea	247,zero,r10
00000076 40063f00        184 	dispose	0,{r31},[lp]
                         185 .L237:
                         186 --line162
                         187 ..lin.C.3A.5C_ECU2.5CECU_Rivian_A1.5CTarget.5Crepo_projects.5CpFOTA.5CcL_LATEST.5Cmake.5Cobj.5CESLib_RSA_Common.12::
                         188 .LDWlin12:
0000007a 0445            189 	sld.w	8[ep],r8
0000007c 06361000        190 	addi	16,r6,r6
                         191 	jarl	_actSHAFinalize,lp
                         191 <EXPANSION BEGIN>
                         191 jarl22 _actSHAFinalize , lp 
00000080 80ff0000*       191 <EXPANSION END>
                         192 --line163
                         193 ..lin.C.3A.5C_ECU2.5CECU_Rivian_A1.5CTarget.5Crepo_projects.5CpFOTA.5CcL_LATEST.5Cmake.5Cobj.5CESLib_RSA_Common.13::
                         194 .LDWlin13:
00000084 40063f00        195 	dispose	0,{r31},[lp]
                         196 .L238:
                         197 --line172
                         198 ..lin.C.3A.5C_ECU2.5CECU_Rivian_A1.5CTarget.5Crepo_projects.5CpFOTA.5CcL_LATEST.5Cmake.5Cobj.5CESLib_RSA_Common.14::
                         199 .LDWlin14:
00000088 0445            200 	sld.w	8[ep],r8
0000008a 06361000        201 	addi	16,r6,r6
                         202 	jarl	_actSHA256Finalize,lp
                         202 <EXPANSION BEGIN>
                         202 jarl22 _actSHA256Finalize , lp 
0000008e 80ff0000*       202 <EXPANSION END>
                         203 --	    .ef
                         204 .LDW71:
                         205 --line204
                         206 ..lin.C.3A.5C_ECU2.5CECU_Rivian_A1.5CTarget.5Crepo_projects.5CpFOTA.5CcL_LATEST.5Cmake.5Cobj.5CESLib_RSA_Common.15::
                         207 .LDWlin15:
00000092 40063f00        208 	dispose	0,{r31},[lp]
                         209 	.type	_actHashFinalize,@function
                         210 	.size	_actHashFinalize,.-_actHashFinalize
                         211 	.type	_actHashFinalize..C.3A.5C_ECU2.5CECU_Rivian_A1.5CTarget.5Crepo_projects.5CpFOTA.5CcL_LATEST.5Cmake.5Cobj.5CESLib_RSA_Common.,@function
                         212 	.size	_actHashFinalize..C.3A.5C_ECU2.5CECU_Rivian_A1.5CTarget.5Crepo_projects.5CpFOTA.5CcL_LATEST.5Cmake.5Cobj.5CESLib_RSA_Common.,.-_actHashFinalize..C.3A.5C_ECU2.5CECU_Rivian_A1.5CTarget.5Crepo_projects.5CpFOTA.5CcL_LATEST.5Cmake.5Cobj.5CESLib_RSA_Common.
                         213 	.align	2
                         214 .LDW81:
                         215 --_returnValue	r10	local

                                                                      Page 5
                                                              C:\Users\nhuliyap\AppData\Local\Temp\gh_0000dqo1.s
                         216 
                         217 --_hashWSU	ep	param
                         218 --_hash	r7	param
                         219 --_hashID	r8	param
                         220 
                         221 	.section ".bss","awb"
                         222 .L277:
                         223 	.type	.L277,@object
                         224 	.size	.L277,0
                         225 	.data
                         226 	.section ".MSR_CODE","ax"
                         227 	.align	2
                         228 	.align	2
                         229 ..gh.f.f.1.e.3:
                         230 	.type	..gh.f.f.1.e.3,@object
                         231 	.size	..gh.f.f.1.e.3,0
                         232 	.global	_esl_calcSaltedHashRSA_PSS
                         233 _esl_calcSaltedHashRSA_PSS:
00000096 8407e3f3        234 	prepare	{r22,r23,r24,r25,r26,r27,r28,r29,r31},2,sp
0000009a 06e8            235 	mov	r6,r29
0000009c 07d0            236 	mov	r7,r26
0000009e 08c8            237 	mov	r8,r25
000000a0 09c0            238 	mov	r9,r24
000000a2 16bd            239 	sld.w	44[ep],r23
000000a4 18b5            240 	sld.w	48[ep],r22
000000a6 83e73500        241 	ld.bu	52[sp],r28
                         242 --	    .bf
                         243 .LDW91:
000000aa 1c38            244 	mov	r28,r7
                         245 	jarl	_actHashInit,lp
                         245 <EXPANSION BEGIN>
                         245 jarl22 _actHashInit , lp 
000000ac bfff54ff*       245 <EXPANSION END>
                         246 --line40
                         247 ..lin.C.3A.5C_ECU2.5CECU_Rivian_A1.5CTarget.5Crepo_projects.5CpFOTA.5CcL_LATEST.5Cmake.5Cobj.5CESLib_RSA_Common.16::
                         248 .LDWlin16:
000000b0 e051            249 	cmp	zero,r10
000000b2 aa2d*           250 	bne	.L347
000000b4 0ad8            251 	mov	r10,r27
                         252 --line41
                         253 ..lin.C.3A.5C_ECU2.5CECU_Rivian_A1.5CTarget.5Crepo_projects.5CpFOTA.5CcL_LATEST.5Cmake.5Cobj.5CESLib_RSA_Common.17::
                         254 .LDWlin17:
000000b6 0330            255 	mov	sp,r6
000000b8 0a38            256 	mov	r10,r7
000000ba 0842            257 	mov	8,r8
                         258 	jarl	_VStdLib_MemSet,lp
                         258 <EXPANSION BEGIN>
                         258 jarl22 _VStdLib_MemSet , lp 
000000bc 80ff0000*       258 <EXPANSION END>
                         259 --line42
                         260 ..lin.C.3A.5C_ECU2.5CECU_Rivian_A1.5CTarget.5Crepo_projects.5CpFOTA.5CcL_LATEST.5Cmake.5Cobj.5CESLib_RSA_Common.18::
                         261 .LDWlin18:
000000c0 1d30            262 	mov	r29,r6
000000c2 1c48            263 	mov	r28,r9
000000c4 0338            264 	mov	sp,r7
000000c6 0842            265 	mov	8,r8
                         266 	jarl	_actHashUpdate,lp
                         266 <EXPANSION BEGIN>
                         266 jarl22 _actHashUpdate , lp 
000000c8 bfff66ff*       266 <EXPANSION END>
                         267 --line44

                                                                      Page 6
                                                              C:\Users\nhuliyap\AppData\Local\Temp\gh_0000dqo1.s
                         268 ..lin.C.3A.5C_ECU2.5CECU_Rivian_A1.5CTarget.5Crepo_projects.5CpFOTA.5CcL_LATEST.5Cmake.5Cobj.5CESLib_RSA_Common.19::
                         269 .LDWlin19:
000000cc e051            270 	cmp	zero,r10
000000ce 9a1d*           271 	bne	.L355
                         272 --line45
                         273 ..lin.C.3A.5C_ECU2.5CECU_Rivian_A1.5CTarget.5Crepo_projects.5CpFOTA.5CcL_LATEST.5Cmake.5Cobj.5CESLib_RSA_Common.20::
                         274 .LDWlin20:
000000d0 1d30            275 	mov	r29,r6
000000d2 1838            276 	mov	r24,r7
000000d4 1740            277 	mov	r23,r8
000000d6 1c48            278 	mov	r28,r9
                         279 	jarl	_actHashUpdate,lp
                         279 <EXPANSION BEGIN>
                         279 jarl22 _actHashUpdate , lp 
000000d8 bfff56ff*       279 <EXPANSION END>
                         280 --line48
                         281 ..lin.C.3A.5C_ECU2.5CECU_Rivian_A1.5CTarget.5Crepo_projects.5CpFOTA.5CcL_LATEST.5Cmake.5Cobj.5CESLib_RSA_Common.21::
                         282 .LDWlin21:
000000dc e051            283 	cmp	zero,r10
000000de 9a15*           284 	bne	.L355
                         285 --line49
                         286 ..lin.C.3A.5C_ECU2.5CECU_Rivian_A1.5CTarget.5Crepo_projects.5CpFOTA.5CcL_LATEST.5Cmake.5Cobj.5CESLib_RSA_Common.22::
                         287 .LDWlin22:
000000e0 e0d1            288 	cmp	zero,r26
000000e2 920d*           289 	be	.L356
                         290 --line51
                         291 ..lin.C.3A.5C_ECU2.5CECU_Rivian_A1.5CTarget.5Crepo_projects.5CpFOTA.5CcL_LATEST.5Cmake.5Cobj.5CESLib_RSA_Common.23::
                         292 .LDWlin23:
000000e4 1d30            293 	mov	r29,r6
000000e6 1938            294 	mov	r25,r7
000000e8 1a40            295 	mov	r26,r8
000000ea 1c48            296 	mov	r28,r9
                         297 	jarl	_actHashUpdate,lp
                         297 <EXPANSION BEGIN>
                         297 jarl22 _actHashUpdate , lp 
000000ec bfff42ff*       297 <EXPANSION END>
                         298 --line55
                         299 ..lin.C.3A.5C_ECU2.5CECU_Rivian_A1.5CTarget.5Crepo_projects.5CpFOTA.5CcL_LATEST.5Cmake.5Cobj.5CESLib_RSA_Common.24::
                         300 .LDWlin24:
000000f0 e051            301 	cmp	zero,r10
000000f2 fa05*           302 	bne	.L355
                         303 .L356:
                         304 --line56
                         305 ..lin.C.3A.5C_ECU2.5CECU_Rivian_A1.5CTarget.5Crepo_projects.5CpFOTA.5CcL_LATEST.5Cmake.5Cobj.5CESLib_RSA_Common.25::
                         306 .LDWlin25:
000000f4 1d30            307 	mov	r29,r6
000000f6 1638            308 	mov	r22,r7
000000f8 1c40            309 	mov	r28,r8
                         310 	jarl	_actHashFinalize,lp
                         310 <EXPANSION BEGIN>
                         310 jarl22 _actHashFinalize , lp 
000000fa bfff68ff*       310 <EXPANSION END>
000000fe e505*           311 	br	.L358
                         312 .L355:
                         313 --line59
                         314 ..lin.C.3A.5C_ECU2.5CECU_Rivian_A1.5CTarget.5Crepo_projects.5CpFOTA.5CcL_LATEST.5Cmake.5Cobj.5CESLib_RSA_Common.26::
                         315 .LDWlin26:
00000100 20de2c20        316 	movea	8236,zero,r27
00000104 b505*           317 	br	.L358
                         318 .L347:
                         319 --line63

                                                                      Page 7
                                                              C:\Users\nhuliyap\AppData\Local\Temp\gh_0000dqo1.s
                         320 ..lin.C.3A.5C_ECU2.5CECU_Rivian_A1.5CTarget.5Crepo_projects.5CpFOTA.5CcL_LATEST.5Cmake.5Cobj.5CESLib_RSA_Common.27::
                         321 .LDWlin27:
00000106 20de0820        322 	movea	8200,zero,r27
                         323 .L358:
0000010a 1b50            324 	mov	r27,r10
                         325 --	    .ef
                         326 .LDW02:
0000010c 4406fff3        327 	dispose	2,{r22,r23,r24,r25,r26,r27,r28,r29,r31},[lp]
                         328 	.type	_esl_calcSaltedHashRSA_PSS,@function
                         329 	.size	_esl_calcSaltedHashRSA_PSS,.-_esl_calcSaltedHashRSA_PSS
                         330 	.align	2
                         331 .LDW12:
                         332 --_returnValue	r27	local
                         333 --_actReturnValue	r10	local
                         334 --_padding	0[sp]	local
                         335 
                         336 --_wsuHash	r29	param
                         337 --_saltSize	r26	param
                         338 --_salt	r25	param
                         339 --_messageDigest	r24	param
                         340 --_hashDigestSize	r23	param
                         341 --_saltedHash	r22	param
                         342 --_hashID	r28	param
                         343 
                         344 	.section ".bss","awb"
                         345 .L487:
                         346 	.type	.L487,@object
                         347 	.size	.L487,0
                         348 	.data
                         349 	.section ".MSR_CODE","ax"
                         350 	.align	2
                         351 	.align	2
                         352 ..gh.f.f.1.e.4:
                         353 	.type	..gh.f.f.1.e.4,@object
                         354 	.size	..gh.f.f.1.e.4,0
                         355 	.global	_esl_generateMaskMGF1
                         356 _esl_generateMaskMGF1:
00000110 8407e3ff        357 	prepare	{r20,r21,r22,r23,r24,r25,r26,r27,r28,r29,r31},2,sp
00000114 06d8            358 	mov	r6,r27
00000116 9b00            359 	zxb	r27
00000118 07d0            360 	mov	r7,r26
0000011a 0345            361 	sst.w	r8,4[ep]
0000011c 09e8            362 	mov	r9,r29
0000011e 1ee5            363 	sld.w	60[ep],r28
                         364 --	    .bf
                         365 .LDW22:
00000120 e049            366 	cmp	zero,r9
00000122 ca05*           367 	bne	.L585
                         368 .L586:
                         369 --line89
                         370 ..lin.C.3A.5C_ECU2.5CECU_Rivian_A1.5CTarget.5Crepo_projects.5CpFOTA.5CcL_LATEST.5Cmake.5Cobj.5CESLib_RSA_Common.28::
                         371 .LDWlin28:
00000124 20a60020        372 	movea	8192,zero,r20
00000128 e53d*           373 	br	.L587
                         374 .L585:
                         375 --line92
                         376 ..lin.C.3A.5C_ECU2.5CECU_Rivian_A1.5CTarget.5Crepo_projects.5CpFOTA.5CcL_LATEST.5Cmake.5Cobj.5CESLib_RSA_Common.29::
                         377 .LDWlin29:
0000012a 00ca            378 	mov	0,r25
0000012c 19b8            379 	mov	r25,r23
0000012e dc49            380 	add	r28,r9

                                                                      Page 8
                                                              C:\Users\nhuliyap\AppData\Local\Temp\gh_0000dqo1.s
00000130 09c6ffff        381 	addi	-1,r9,r24
00000134 17a0            382 	mov	r23,r20
00000136 fdc7fe02        383 	divqu	r29,r24,zero
0000013a 14a8            384 	mov	r20,r21
0000013c a535*           385 	br	.L591
                         386 .L590:
                         387 --line100
                         388 ..lin.C.3A.5C_ECU2.5CECU_Rivian_A1.5CTarget.5Crepo_projects.5CpFOTA.5CcL_LATEST.5Cmake.5Cobj.5CESLib_RSA_Common.30::
                         389 .LDWlin30:
0000013e 1a30            390 	mov	r26,r6
00000140 1b38            391 	mov	r27,r7
                         392 	jarl	_actHashInit,lp
                         392 <EXPANSION BEGIN>
                         392 jarl22 _actHashInit , lp 
00000142 bfffbefe*       392 <EXPANSION END>
                         393 --line102
                         394 ..lin.C.3A.5C_ECU2.5CECU_Rivian_A1.5CTarget.5Crepo_projects.5CpFOTA.5CcL_LATEST.5Cmake.5Cobj.5CESLib_RSA_Common.31::
                         395 .LDWlin31:
00000146 e051            396 	cmp	zero,r10
00000148 eaed*           397 	bne	.L586
                         398 --line104
                         399 ..lin.C.3A.5C_ECU2.5CECU_Rivian_A1.5CTarget.5Crepo_projects.5CpFOTA.5CcL_LATEST.5Cmake.5Cobj.5CESLib_RSA_Common.32::
                         400 .LDWlin32:
0000014a 03f0            401 	mov	sp,ep
0000014c 1c3d            402 	sld.w	56[ep],r7
0000014e 1a45            403 	sld.w	52[ep],r8
00000150 1a30            404 	mov	r26,r6
00000152 1b48            405 	mov	r27,r9
                         406 	jarl	_actHashUpdate,lp
                         406 <EXPANSION BEGIN>
                         406 jarl22 _actHashUpdate , lp 
00000154 bfffdafe*       406 <EXPANSION END>
                         407 --line107
                         408 ..lin.C.3A.5C_ECU2.5CECU_Rivian_A1.5CTarget.5Crepo_projects.5CpFOTA.5CcL_LATEST.5Cmake.5Cobj.5CESLib_RSA_Common.33::
                         409 .LDWlin33:
00000158 e051            410 	cmp	zero,r10
0000015a dae5*           411 	bne	.L586
                         412 --line109
                         413 ..lin.C.3A.5C_ECU2.5CECU_Rivian_A1.5CTarget.5Crepo_projects.5CpFOTA.5CcL_LATEST.5Cmake.5Cobj.5CESLib_RSA_Common.34::
                         414 .LDWlin34:
0000015c 1938            415 	mov	r25,r7
0000015e 0330            416 	mov	sp,r6
                         417 	jarl	_actU32toBE,lp
                         417 <EXPANSION BEGIN>
                         417 jarl22 _actU32toBE , lp 
00000160 80ff0000*       417 <EXPANSION END>
                         418 --line111
                         419 ..lin.C.3A.5C_ECU2.5CECU_Rivian_A1.5CTarget.5Crepo_projects.5CpFOTA.5CcL_LATEST.5Cmake.5Cobj.5CESLib_RSA_Common.35::
                         420 .LDWlin35:
00000164 1a30            421 	mov	r26,r6
00000166 1b48            422 	mov	r27,r9
00000168 0338            423 	mov	sp,r7
0000016a 0442            424 	mov	4,r8
                         425 	jarl	_actHashUpdate,lp
                         425 <EXPANSION BEGIN>
                         425 jarl22 _actHashUpdate , lp 
0000016c bfffc2fe*       425 <EXPANSION END>
                         426 --line114
                         427 ..lin.C.3A.5C_ECU2.5CECU_Rivian_A1.5CTarget.5Crepo_projects.5CpFOTA.5CcL_LATEST.5Cmake.5Cobj.5CESLib_RSA_Common.36::
                         428 .LDWlin36:
00000170 e051            429 	cmp	zero,r10

                                                                      Page 9
                                                              C:\Users\nhuliyap\AppData\Local\Temp\gh_0000dqo1.s
00000172 9add*           430 	bne	.L586
                         431 --line116
                         432 ..lin.C.3A.5C_ECU2.5CECU_Rivian_A1.5CTarget.5Crepo_projects.5CpFOTA.5CcL_LATEST.5Cmake.5Cobj.5CESLib_RSA_Common.37::
                         433 .LDWlin37:
00000174 233f0500        434 	ld.w	4[sp],r7
00000178 1a30            435 	mov	r26,r6
0000017a 1b40            436 	mov	r27,r8
                         437 	jarl	_actHashFinalize,lp
                         437 <EXPANSION BEGIN>
                         437 jarl22 _actHashFinalize , lp 
0000017c bfffe6fe*       437 <EXPANSION END>
                         438 --line119
                         439 ..lin.C.3A.5C_ECU2.5CECU_Rivian_A1.5CTarget.5Crepo_projects.5CpFOTA.5CcL_LATEST.5Cmake.5Cobj.5CESLib_RSA_Common.38::
                         440 .LDWlin38:
00000180 e051            441 	cmp	zero,r10
00000182 9ad5*           442 	bne	.L586
                         443 --line127
                         444 ..lin.C.3A.5C_ECU2.5CECU_Rivian_A1.5CTarget.5Crepo_projects.5CpFOTA.5CcL_LATEST.5Cmake.5Cobj.5CESLib_RSA_Common.39::
                         445 .LDWlin39:
00000184 03f0            446 	mov	sp,ep
00000186 2035            447 	sld.w	64[ep],r6
00000188 023d            448 	sld.w	4[ep],r7
0000018a fde1            449 	cmp	r29,r28
0000018c fde732b3        450 	cmovnl	r29,r28,r22
00000190 d731            451 	add	r23,r6
00000192 1640            452 	mov	r22,r8
                         453 	jarl	_VStdLib_MemCpy,lp
                         453 <EXPANSION BEGIN>
                         453 jarl22 _VStdLib_MemCpy , lp 
00000194 80ff0000*       453 <EXPANSION END>
                         454 --line129
                         455 ..lin.C.3A.5C_ECU2.5CECU_Rivian_A1.5CTarget.5Crepo_projects.5CpFOTA.5CcL_LATEST.5Cmake.5Cobj.5CESLib_RSA_Common.40::
                         456 .LDWlin40:
00000198 41ca            457 	add	1,r25
0000019a d6b9            458 	add	r22,r23
0000019c b6e1            459 	sub	r22,r28
0000019e 19a8            460 	mov	r25,r21
                         461 .L591:
000001a0 f8a9            462 	cmp	r24,r21
000001a2 e1cd*           463 	bl	.L590
                         464 .L587:
                         465 --line142
                         466 ..lin.C.3A.5C_ECU2.5CECU_Rivian_A1.5CTarget.5Crepo_projects.5CpFOTA.5CcL_LATEST.5Cmake.5Cobj.5CESLib_RSA_Common.41::
                         467 .LDWlin41:
000001a4 1450            468 	mov	r20,r10
                         469 --	    .ef
                         470 .LDW32:
000001a6 4406ffff        471 	dispose	2,{r20,r21,r22,r23,r24,r25,r26,r27,r28,r29,r31},[lp]
                         472 	.type	_esl_generateMaskMGF1,@function
                         473 	.size	_esl_generateMaskMGF1,.-_esl_generateMaskMGF1
                         474 	.align	2
                         475 .LDW42:
                         476 --_returnValue	r20	local
                         477 --_actReturnValue	r10	local
                         478 --_counter	r25	local
                         479 --_octetCounter	0[sp]	local
                         480 --_digestNumber	r24	local
                         481 --_remainingLength	r28	local
                         482 --_offset	r23	local
                         483 --_passLength	r22	local
                         484 --_i	r21	local

                                                                      Page 10
                                                              C:\Users\nhuliyap\AppData\Local\Temp\gh_0000dqo1.s
                         485 
                         486 --_hashAlgorithm	r27	param
                         487 --_wsHash	r26	param
                         488 --_tempHash	4[sp]	param
                         489 --_hashDigestSize	r29	param
                         490 --_seedLength	52[sp]	param
                         491 --_seed	56[sp]	param
                         492 --_maskLength	r28	param
                         493 --_mask	64[sp]	param
                         494 
                         495 	.section ".bss","awb"
                         496 .L832:
                         497 	.type	.L832,@object
                         498 	.size	.L832,0
                         499 	.data
                         500 	.section ".MSR_CODE","ax"
                         501 	.align	2
                         502 
                         503 	.data
                         504 	.ghsnote version,17
                         505 	.ghsnote tools,3
                         506 	.ghsnote options,144
                         507 	.section ".MSR_CODE","ax"
                         508 	.align	2
                         509 ..eof.C.3A.5C_ECU2.5CECU_Rivian_A1.5CTarget.5Crepo_projects.5CpFOTA.5CcL_LATEST.5Cmake.5Cobj.5CESLib_RSA_Common...43.3A.5C_ECU2.5CECU_Rivian_A1.5CTarget.5Crepo_projects.5CpFOTA.5CcL_LATEST.5Cmake..64F86AEF..0::
                         510 .rh850_flags REGMODE32,DATA_ALIGN8,GP_FIX,EP_NONFIX,TP_FIX,REG2_RESERVE,G3K,SDA_EXTRA_REGS_0
