                                                                      Page 1
                                                              C:\Users\nhuliyap\AppData\Local\Temp\gh_00005f41.s
Command Line: C:\GHS\comp_201517\ease850.exe -w -stderr=err/ESLib_RSA_PSS_Sig.err -elf -b0 -I../source/_common -I../source/common -I../source/ecuabcanif -I../source/ecuabcantrcv -I../source/ecuabcryif -I../source/ecuabfee -I../source/ecuabmemif -I../source/libautosar -I../source/mcalcan -I../source/mcalcry -I../source/mcaldio -I../source/mcaleep -I../source/mcalfls -I../source/mcalmcu -I../source/projectara -I../source/projectcfg -I../source/projectcompiler -I../source/swcservicebswm -I../source/swcservicecantp -I../source/swcservicecomm -I../source/swcservicecsm -I../source/swcservicedcm -I../source/swcservicedem -I../source/swcservicedet -I../source/swcserviceecum -I../source/swcservicenvm -I../source/swcserviceos -I../source/swcservicepdur -I../source/swcserviceschm -I../source/swcservicestartup -I../source/wrappers/swcservicesecm -I../source/wrappers/vsecprim -I../source/wrappers/vstdlib -Ic:/ghs/comp_201517/ansi -Ic:/ghs/comp_201517/include/v800 -Igendata -IC:\GHS\comp_201517\lib\rh850 -cg_underscore -cpu=rh850g3k -nofpu -no_v850_simd -rh850_fpsimd=none -nomacro -patch_dbo=C:\_ECU2\ECU_Rivian_A1\Target\repo_projects\pFOTA\cL_LATEST\make\obj\ESLib_RSA_PSS_Sig.dbo -source=ESLib_RSA_PSS_Sig.c -o obj\gh_00005f41.o -list=lst/ESLib_RSA_PSS_Sig.lst C:\Users\nhuliyap\AppData\Local\Temp\gh_00005f41.s 
Original File: C:\Users\nhuliyap\AppData\Local\Temp\gh_00005f41.s
Source File: ESLib_RSA_PSS_Sig.c
Directory: C:\_ECU2\ECU_Rivian_A1\Target\repo_projects\pFOTA\cL_LATEST\make
Host OS: Windows
EASE: Copyright (C) 1983-2015 Green Hills Software.  All Rights Reserved.
Release: Compiler v2015.1.7
Build Directory: [Directory] BTOWORKER6:c:/build_2015_1_bto/2015-10-21.2100-2015_1_bto/win32-comp-ecom
Revision: [VCInfo] http://toolsvc/branches/release-branch-70-bto/src@544153 (built by build)
Revision Date: Thu Oct 22 07:50:13 2015

Release Date: Thu Oct 22 09:32:32 2015

                           1 --Driver Command: ccrh850 -DBRS_DERIVATIVE_701018 -DBRS_OSC_CLK=16
                           2 --		-DBRS_TIMEBASE_CLOCK=80 -DBRS_EVA_BOARD_
                           3 --		-DBRS_DERIVATIVE_GROUP_F1L -DBRS_OS_USECASE_BRS
                           4 --		-DBRS_PLATFORM_RH850 -DBRS_COMP_GHS
                           5 --		-DBRS_CPU_LOCAL_RAM_SIZE_CORE0=32
                           6 --		-DBRS_CPU_RAM_START_CORE0=0xFEDF8000
                           7 --		-list=lst/ESLib_RSA_PSS_Sig.lst -object_dir=obj
                           8 --		-stderr=err/ESLib_RSA_PSS_Sig.err -c -cpu=rh850 -sda=all
                           9 --		-large_sda -prepare_dispose -pragma_asm_inline -no_callt
                          10 --		-inline_prologue -notda -reserve_r2 -fsoft
                          11 --		--unknown_pragma_warnings -list -g -Ogeneral -shortenum
                          12 --		-registermode=32 -I../source/_common -I../source/common
                          13 --		-I../source/ecuabcanif -I../source/ecuabcantrcv
                          14 --		-I../source/ecuabcryif -I../source/ecuabfee
                          15 --		-I../source/ecuabmemif -I../source/libautosar -I../source/mcalcan
                          16 --		-I../source/mcalcry -I../source/mcaldio -I../source/mcaleep
                          17 --		-I../source/mcalfls -I../source/mcalmcu -I../source/projectara
                          18 --		-I../source/projectcfg -I../source/projectcompiler
                          19 --		-I../source/swcservicebswm -I../source/swcservicecantp
                          20 --		-I../source/swcservicecomm -I../source/swcservicecsm
                          21 --		-I../source/swcservicedcm -I../source/swcservicedem
                          22 --		-I../source/swcservicedet -I../source/swcserviceecum
                          23 --		-I../source/swcservicenvm -I../source/swcserviceos
                          24 --		-I../source/swcservicepdur -I../source/swcserviceschm
                          25 --		-I../source/swcservicestartup -I../source/wrappers/swcservicesecm
                          26 --		-I../source/wrappers/vsecprim -I../source/wrappers/vstdlib
                          27 --		-Ic:/ghs/comp_201517/ansi -Ic:/ghs/comp_201517/include/v800
                          28 --		-Igendata ../source/wrappers/vSecPrim/ESLib_RSA_PSS_Sig.c
                          29 --Source File:   ../source/wrappers/vSecPrim/ESLib_RSA_PSS_Sig.c
                          30 --Directory:     
                          31 --		C:\_ECU2\ECU_Rivian_A1\Target\repo_projects\pFOTA\cL_LATEST\make
                          32 --Compile Date:  Wed Sep 06 14:05:13 2023
                          33 --Host OS:       Win32
                          34 --Version:       C-RH850 2015.1.7 RELEASE VERSION
                          35 --Release:       Compiler v2015.1.7
                          36 --Revision Date: Thu Oct 22 08:06:12 2015
                          37 --Release Date:  Thu Oct 22 09:34:32 2015
                          38 -- ecom  -g -w -OM
                          39 	.section ".MSR_CODE","ax"
                          40 	.align	2
                          41 ..bof.C.3A.5C_ECU2.5CECU_Rivian_A1.5CTarget.5Crepo_projects.5CpFOTA.5CcL_LATEST.5Cmake.5Cobj.5CESLib_RSA_PSS_Sig...43.3A.5C_ECU2.5CECU_Rivian_A1.5CTarget.5Crepo_projects.5CpFOTA.5CcL_LATEST.5Cmake..64F86AFA..0::
                          42 	.align	2
                          43 ..gh.f.f.1.e.0:
                          44 	.type	..gh.f.f.1.e.0,@object
                          45 	.size	..gh.f.f.1.e.0,0
                          46 	.global	_actHashInit..C.3A.5C_ECU2.5CECU_Rivian_A1.5CTarget.5Crepo_projects.5CpFOTA.5CcL_LATEST.5Cmake.5Cobj.5CESLib_RSA_PSS_Sig.
                          47 _actHashInit..C.3A.5C_ECU2.5CECU_Rivian_A1.5CTarget.5Crepo_projects.5CpFOTA.5CcL_LATEST.5Cmake.5Cobj.5CESLib_RSA_PSS_Sig.:
                          48 _actHashInit:
00000000 80072100         49 	prepare	{r31},0
                          50 --	    .bf

                                                                      Page 2
                                                              C:\Users\nhuliyap\AppData\Local\Temp\gh_00005f41.s
                          51 .LDW01:
00000004 c73eff00         52 	andi	255,r7,r7
00000008 f205*            53 	be	.L6
0000000a 623a             54 	cmp	2,r7
0000000c b20d*            55 	be	.L7
                          56 --line94
                          57 ..lin.C.3A.5C_ECU2.5CECU_Rivian_A1.5CTarget.5Crepo_projects.5CpFOTA.5CcL_LATEST.5Cmake.5Cobj.5CESLib_RSA_PSS_Sig.1::
                          58 .LDWlin1:
0000000e 2056f700         59 	movea	247,zero,r10
00000012 40063f00         60 	dispose	0,{r31},[lp]
                          61 .L6:
                          62 --line55
                          63 ..lin.C.3A.5C_ECU2.5CECU_Rivian_A1.5CTarget.5Crepo_projects.5CpFOTA.5CcL_LATEST.5Cmake.5Cobj.5CESLib_RSA_PSS_Sig.2::
                          64 .LDWlin2:
00000016 06361000         65 	addi	16,r6,r6
                          66 	jarl	_actSHAInit,lp
                          66 <EXPANSION BEGIN>
                          66 jarl22 _actSHAInit , lp 
0000001a 80ff0000*        66 <EXPANSION END>
                          67 --line56
                          68 ..lin.C.3A.5C_ECU2.5CECU_Rivian_A1.5CTarget.5Crepo_projects.5CpFOTA.5CcL_LATEST.5Cmake.5Cobj.5CESLib_RSA_PSS_Sig.3::
                          69 .LDWlin3:
0000001e 40063f00         70 	dispose	0,{r31},[lp]
                          71 .L7:
                          72 --line65
                          73 ..lin.C.3A.5C_ECU2.5CECU_Rivian_A1.5CTarget.5Crepo_projects.5CpFOTA.5CcL_LATEST.5Cmake.5Cobj.5CESLib_RSA_PSS_Sig.4::
                          74 .LDWlin4:
00000022 06361000         75 	addi	16,r6,r6
                          76 	jarl	_actSHA256Init,lp
                          76 <EXPANSION BEGIN>
                          76 jarl22 _actSHA256Init , lp 
00000026 80ff0000*        76 <EXPANSION END>
                          77 --	    .ef
                          78 .LDW11:
                          79 --line97
                          80 ..lin.C.3A.5C_ECU2.5CECU_Rivian_A1.5CTarget.5Crepo_projects.5CpFOTA.5CcL_LATEST.5Cmake.5Cobj.5CESLib_RSA_PSS_Sig.5::
                          81 .LDWlin5:
0000002a 40063f00         82 	dispose	0,{r31},[lp]
                          83 	.type	_actHashInit,@function
                          84 	.size	_actHashInit,.-_actHashInit
                          85 	.type	_actHashInit..C.3A.5C_ECU2.5CECU_Rivian_A1.5CTarget.5Crepo_projects.5CpFOTA.5CcL_LATEST.5Cmake.5Cobj.5CESLib_RSA_PSS_Sig.,@function
                          86 	.size	_actHashInit..C.3A.5C_ECU2.5CECU_Rivian_A1.5CTarget.5Crepo_projects.5CpFOTA.5CcL_LATEST.5Cmake.5Cobj.5CESLib_RSA_PSS_Sig.,.-_actHashInit..C.3A.5C_ECU2.5CECU_Rivian_A1.5CTarget.5Crepo_projects.5CpFOTA.5CcL_LATEST.5Cmake.5Cobj.5CESLib_RSA_PSS_Sig.
                          87 	.align	2
                          88 .LDW21:
                          89 --_returnValue	r10	local
                          90 
                          91 --_hashWSU	r6	param
                          92 --_hashID	r7	param
                          93 
                          94 	.section ".bss","awb"
                          95 .L53:
                          96 	.type	.L53,@object
                          97 	.size	.L53,0
                          98 	.data
                          99 	.section ".MSR_CODE","ax"
                         100 	.align	2
                         101 	.align	2
                         102 ..gh.f.f.1.e.1:
                         103 	.type	..gh.f.f.1.e.1,@object
                         104 	.size	..gh.f.f.1.e.1,0
                         105 	.global	_actHashUpdate..C.3A.5C_ECU2.5CECU_Rivian_A1.5CTarget.5Crepo_projects.5CpFOTA.5CcL_LATEST.5Cmake.5Cobj.5CESLib_RSA_PSS_Sig.

                                                                      Page 3
                                                              C:\Users\nhuliyap\AppData\Local\Temp\gh_00005f41.s
                         106 _actHashUpdate..C.3A.5C_ECU2.5CECU_Rivian_A1.5CTarget.5Crepo_projects.5CpFOTA.5CcL_LATEST.5Cmake.5Cobj.5CESLib_RSA_PSS_Sig.:
                         107 _actHashUpdate:
0000002e 80072100        108 	prepare	{r31},0
00000032 06f0            109 	mov	r6,ep
                         110 --	    .bf
                         111 .LDW31:
00000034 c94eff00        112 	andi	255,r9,r9
00000038 f205*           113 	be	.L125
0000003a 624a            114 	cmp	2,r9
0000003c c20d*           115 	be	.L126
                         116 --line148
                         117 ..lin.C.3A.5C_ECU2.5CECU_Rivian_A1.5CTarget.5Crepo_projects.5CpFOTA.5CcL_LATEST.5Cmake.5Cobj.5CESLib_RSA_PSS_Sig.6::
                         118 .LDWlin6:
0000003e 2056f700        119 	movea	247,zero,r10
00000042 40063f00        120 	dispose	0,{r31},[lp]
                         121 .L125:
                         122 --line109
                         123 ..lin.C.3A.5C_ECU2.5CECU_Rivian_A1.5CTarget.5Crepo_projects.5CpFOTA.5CcL_LATEST.5Cmake.5Cobj.5CESLib_RSA_PSS_Sig.7::
                         124 .LDWlin7:
00000046 044d            125 	sld.w	8[ep],r9
00000048 06361000        126 	addi	16,r6,r6
                         127 	jarl	_actSHAUpdate,lp
                         127 <EXPANSION BEGIN>
                         127 jarl22 _actSHAUpdate , lp 
0000004c 80ff0000*       127 <EXPANSION END>
                         128 --line110
                         129 ..lin.C.3A.5C_ECU2.5CECU_Rivian_A1.5CTarget.5Crepo_projects.5CpFOTA.5CcL_LATEST.5Cmake.5Cobj.5CESLib_RSA_PSS_Sig.8::
                         130 .LDWlin8:
00000050 40063f00        131 	dispose	0,{r31},[lp]
                         132 .L126:
                         133 --line119
                         134 ..lin.C.3A.5C_ECU2.5CECU_Rivian_A1.5CTarget.5Crepo_projects.5CpFOTA.5CcL_LATEST.5Cmake.5Cobj.5CESLib_RSA_PSS_Sig.9::
                         135 .LDWlin9:
00000054 044d            136 	sld.w	8[ep],r9
00000056 06361000        137 	addi	16,r6,r6
                         138 	jarl	_actSHA256Update,lp
                         138 <EXPANSION BEGIN>
                         138 jarl22 _actSHA256Update , lp 
0000005a 80ff0000*       138 <EXPANSION END>
                         139 --	    .ef
                         140 .LDW41:
                         141 --line151
                         142 ..lin.C.3A.5C_ECU2.5CECU_Rivian_A1.5CTarget.5Crepo_projects.5CpFOTA.5CcL_LATEST.5Cmake.5Cobj.5CESLib_RSA_PSS_Sig.10::
                         143 .LDWlin10:
0000005e 40063f00        144 	dispose	0,{r31},[lp]
                         145 	.type	_actHashUpdate,@function
                         146 	.size	_actHashUpdate,.-_actHashUpdate
                         147 	.type	_actHashUpdate..C.3A.5C_ECU2.5CECU_Rivian_A1.5CTarget.5Crepo_projects.5CpFOTA.5CcL_LATEST.5Cmake.5Cobj.5CESLib_RSA_PSS_Sig.,@function
                         148 	.size	_actHashUpdate..C.3A.5C_ECU2.5CECU_Rivian_A1.5CTarget.5Crepo_projects.5CpFOTA.5CcL_LATEST.5Cmake.5Cobj.5CESLib_RSA_PSS_Sig.,.-_actHashUpdate..C.3A.5C_ECU2.5CECU_Rivian_A1.5CTarget.5Crepo_projects.5CpFOTA.5CcL_LATEST.5Cmake.5Cobj.5CESLib_RSA_PSS_Sig.
                         149 	.align	2
                         150 .LDW51:
                         151 --_returnValue	r10	local
                         152 
                         153 --_hashWSU	ep	param
                         154 --_dataIN	r7	param
                         155 --_length	r8	param
                         156 --_hashID	r9	param
                         157 
                         158 	.section ".bss","awb"
                         159 .L165:
                         160 	.type	.L165,@object

                                                                      Page 4
                                                              C:\Users\nhuliyap\AppData\Local\Temp\gh_00005f41.s
                         161 	.size	.L165,0
                         162 	.data
                         163 	.section ".MSR_CODE","ax"
                         164 	.align	2
                         165 	.align	2
                         166 ..gh.f.f.1.e.2:
                         167 	.type	..gh.f.f.1.e.2,@object
                         168 	.size	..gh.f.f.1.e.2,0
                         169 	.global	_actHashFinalize..C.3A.5C_ECU2.5CECU_Rivian_A1.5CTarget.5Crepo_projects.5CpFOTA.5CcL_LATEST.5Cmake.5Cobj.5CESLib_RSA_PSS_Sig.
                         170 _actHashFinalize..C.3A.5C_ECU2.5CECU_Rivian_A1.5CTarget.5Crepo_projects.5CpFOTA.5CcL_LATEST.5Cmake.5Cobj.5CESLib_RSA_PSS_Sig.:
                         171 _actHashFinalize:
00000062 80072100        172 	prepare	{r31},0
00000066 06f0            173 	mov	r6,ep
                         174 --	    .bf
                         175 .LDW61:
00000068 c846ff00        176 	andi	255,r8,r8
0000006c f205*           177 	be	.L237
0000006e 6242            178 	cmp	2,r8
00000070 c20d*           179 	be	.L238
                         180 --line201
                         181 ..lin.C.3A.5C_ECU2.5CECU_Rivian_A1.5CTarget.5Crepo_projects.5CpFOTA.5CcL_LATEST.5Cmake.5Cobj.5CESLib_RSA_PSS_Sig.11::
                         182 .LDWlin11:
00000072 2056f700        183 	movea	247,zero,r10
00000076 40063f00        184 	dispose	0,{r31},[lp]
                         185 .L237:
                         186 --line162
                         187 ..lin.C.3A.5C_ECU2.5CECU_Rivian_A1.5CTarget.5Crepo_projects.5CpFOTA.5CcL_LATEST.5Cmake.5Cobj.5CESLib_RSA_PSS_Sig.12::
                         188 .LDWlin12:
0000007a 0445            189 	sld.w	8[ep],r8
0000007c 06361000        190 	addi	16,r6,r6
                         191 	jarl	_actSHAFinalize,lp
                         191 <EXPANSION BEGIN>
                         191 jarl22 _actSHAFinalize , lp 
00000080 80ff0000*       191 <EXPANSION END>
                         192 --line163
                         193 ..lin.C.3A.5C_ECU2.5CECU_Rivian_A1.5CTarget.5Crepo_projects.5CpFOTA.5CcL_LATEST.5Cmake.5Cobj.5CESLib_RSA_PSS_Sig.13::
                         194 .LDWlin13:
00000084 40063f00        195 	dispose	0,{r31},[lp]
                         196 .L238:
                         197 --line172
                         198 ..lin.C.3A.5C_ECU2.5CECU_Rivian_A1.5CTarget.5Crepo_projects.5CpFOTA.5CcL_LATEST.5Cmake.5Cobj.5CESLib_RSA_PSS_Sig.14::
                         199 .LDWlin14:
00000088 0445            200 	sld.w	8[ep],r8
0000008a 06361000        201 	addi	16,r6,r6
                         202 	jarl	_actSHA256Finalize,lp
                         202 <EXPANSION BEGIN>
                         202 jarl22 _actSHA256Finalize , lp 
0000008e 80ff0000*       202 <EXPANSION END>
                         203 --	    .ef
                         204 .LDW71:
                         205 --line204
                         206 ..lin.C.3A.5C_ECU2.5CECU_Rivian_A1.5CTarget.5Crepo_projects.5CpFOTA.5CcL_LATEST.5Cmake.5Cobj.5CESLib_RSA_PSS_Sig.15::
                         207 .LDWlin15:
00000092 40063f00        208 	dispose	0,{r31},[lp]
                         209 	.type	_actHashFinalize,@function
                         210 	.size	_actHashFinalize,.-_actHashFinalize
                         211 	.type	_actHashFinalize..C.3A.5C_ECU2.5CECU_Rivian_A1.5CTarget.5Crepo_projects.5CpFOTA.5CcL_LATEST.5Cmake.5Cobj.5CESLib_RSA_PSS_Sig.,@function
                         212 	.size	_actHashFinalize..C.3A.5C_ECU2.5CECU_Rivian_A1.5CTarget.5Crepo_projects.5CpFOTA.5CcL_LATEST.5Cmake.5Cobj.5CESLib_RSA_PSS_Sig.,.-_actHashFinalize..C.3A.5C_ECU2.5CECU_Rivian_A1.5CTarget.5Crepo_projects.5CpFOTA.5CcL_LATEST.5Cmake.5Cobj.5CESLib_RSA_PSS_Sig.
                         213 	.align	2
                         214 .LDW81:
                         215 --_returnValue	r10	local

                                                                      Page 5
                                                              C:\Users\nhuliyap\AppData\Local\Temp\gh_00005f41.s
                         216 
                         217 --_hashWSU	ep	param
                         218 --_hash	r7	param
                         219 --_hashID	r8	param
                         220 
                         221 	.section ".bss","awb"
                         222 .L277:
                         223 	.type	.L277,@object
                         224 	.size	.L277,0
                         225 	.data
                         226 	.section ".MSR_CODE","ax"
                         227 	.align	2
                         228 	.align	2
                         229 ..gh.f.f.1.e.3:
                         230 	.type	..gh.f.f.1.e.3,@object
                         231 	.size	..gh.f.f.1.e.3,0
                         232 	.global	_esl_checkSaltSizeSig..C.3A.5C_ECU2.5CECU_Rivian_A1.5CTarget.5Crepo_projects.5CpFOTA.5CcL_LATEST.5Cmake.5Cobj.5CESLib_RSA_PSS_Sig.
                         233 _esl_checkSaltSizeSig..C.3A.5C_ECU2.5CECU_Rivian_A1.5CTarget.5Crepo_projects.5CpFOTA.5CcL_LATEST.5Cmake.5Cobj.5CESLib_RSA_PSS_Sig.:
                         234 _esl_checkSaltSizeSig:
                         235 --	    .bf
                         236 .LDW91:
00000096 06960100        237 	addi	1,r6,r18
0000009a 209e0320        238 	movea	8195,zero,r19
0000009e e791            239 	cmp	r7,r18
000000a0 e09f0653        240 	cmovnh	0,r19,r10
                         241 --	    .ef
                         242 .LDW02:
000000a4 7f00            243 	jmp	[lp]
                         244 	.type	_esl_checkSaltSizeSig,@function
                         245 	.size	_esl_checkSaltSizeSig,.-_esl_checkSaltSizeSig
                         246 	.type	_esl_checkSaltSizeSig..C.3A.5C_ECU2.5CECU_Rivian_A1.5CTarget.5Crepo_projects.5CpFOTA.5CcL_LATEST.5Cmake.5Cobj.5CESLib_RSA_PSS_Sig.,@function
                         247 	.size	_esl_checkSaltSizeSig..C.3A.5C_ECU2.5CECU_Rivian_A1.5CTarget.5Crepo_projects.5CpFOTA.5CcL_LATEST.5Cmake.5Cobj.5CESLib_RSA_PSS_Sig.,.-_esl_checkSaltSizeSig..C.3A.5C_ECU2.5CECU_Rivian_A1.5CTarget.5Crepo_projects.5CpFOTA.5CcL_LATEST.5Cmake.5Cobj.5CESLib_RSA_PSS_Sig.
                         248 	.align	2
                         249 .LDW12:
                         250 --_returnValue	r10	local
                         251 
                         252 --_saltSize	r6	param
                         253 --_dbLength	r7	param
                         254 
                         255 	.section ".bss","awb"
                         256 .L381:
                         257 	.type	.L381,@object
                         258 	.size	.L381,0
                         259 	.data
                         260 	.section ".MSR_CODE","ax"
                         261 	.align	2
                         262 	.align	2
                         263 ..gh.f.f.1.e.4:
                         264 	.type	..gh.f.f.1.e.4,@object
                         265 	.size	..gh.f.f.1.e.4,0
                         266 	.global	_esl_checkSignatureSize..C.3A.5C_ECU2.5CECU_Rivian_A1.5CTarget.5Crepo_projects.5CpFOTA.5CcL_LATEST.5Cmake.5Cobj.5CESLib_RSA_PSS_Sig.
                         267 _esl_checkSignatureSize..C.3A.5C_ECU2.5CECU_Rivian_A1.5CTarget.5Crepo_projects.5CpFOTA.5CcL_LATEST.5Cmake.5Cobj.5CESLib_RSA_PSS_Sig.:
                         268 _esl_checkSignatureSize:
000000a6 06f0            269 	mov	r6,ep
                         270 --	    .bf
                         271 .LDW22:
000000a8 0035            272 	sld.w	0[ep],r6
000000aa e731            273 	cmp	r7,r6
000000ac c905*           274 	bnl	.L404
                         275 --line105
                         276 ..lin.C.3A.5C_ECU2.5CECU_Rivian_A1.5CTarget.5Crepo_projects.5CpFOTA.5CcL_LATEST.5Cmake.5Cobj.5CESLib_RSA_PSS_Sig.16::

                                                                      Page 6
                                                              C:\Users\nhuliyap\AppData\Local\Temp\gh_00005f41.s
                         277 .LDWlin16:
000000ae 20560720        278 	movea	8199,zero,r10
000000b2 7f00            279 	jmp	[lp]
                         280 .L404:
000000b4 0052            281 	mov	0,r10
                         282 --line108
                         283 ..lin.C.3A.5C_ECU2.5CECU_Rivian_A1.5CTarget.5Crepo_projects.5CpFOTA.5CcL_LATEST.5Cmake.5Cobj.5CESLib_RSA_PSS_Sig.17::
                         284 .LDWlin17:
000000b6 013d            285 	sst.w	r7,0[ep]
                         286 --	    .ef
                         287 .LDW32:
000000b8 7f00            288 	jmp	[lp]
                         289 	.type	_esl_checkSignatureSize,@function
                         290 	.size	_esl_checkSignatureSize,.-_esl_checkSignatureSize
                         291 	.type	_esl_checkSignatureSize..C.3A.5C_ECU2.5CECU_Rivian_A1.5CTarget.5Crepo_projects.5CpFOTA.5CcL_LATEST.5Cmake.5Cobj.5CESLib_RSA_PSS_Sig.,@function
                         292 	.size	_esl_checkSignatureSize..C.3A.5C_ECU2.5CECU_Rivian_A1.5CTarget.5Crepo_projects.5CpFOTA.5CcL_LATEST.5Cmake.5Cobj.5CESLib_RSA_PSS_Sig.,.-_esl_checkSignatureSize..C.3A.5C_ECU2.5CECU_Rivian_A1.5CTarget.5Crepo_projects.5CpFOTA.5CcL_LATEST.5Cmake.5Cobj.5CESLib_RSA_PSS_Sig.
                         293 	.align	2
                         294 .LDW42:
                         295 --_returnValue	r10	local
                         296 
                         297 --_signatureSize	ep	param
                         298 --_emLength	r7	param
                         299 
                         300 	.section ".bss","awb"
                         301 .L454:
                         302 	.type	.L454,@object
                         303 	.size	.L454,0
                         304 	.data
                         305 	.section ".MSR_CODE","ax"
                         306 	.align	2
                         307 	.align	2
                         308 ..gh.f.f.1.e.5:
                         309 	.type	..gh.f.f.1.e.5,@object
                         310 	.size	..gh.f.f.1.e.5,0
                         311 	.global	_esl_FillDataBlock..C.3A.5C_ECU2.5CECU_Rivian_A1.5CTarget.5Crepo_projects.5CpFOTA.5CcL_LATEST.5Cmake.5Cobj.5CESLib_RSA_PSS_Sig.
                         312 _esl_FillDataBlock..C.3A.5C_ECU2.5CECU_Rivian_A1.5CTarget.5Crepo_projects.5CpFOTA.5CcL_LATEST.5Cmake.5Cobj.5CESLib_RSA_PSS_Sig.:
                         313 _esl_FillDataBlock:
000000ba 8007e1f0        314 	prepare	{r24,r25,r26,r27,r28,r29,r31},0
000000be 06e0            315 	mov	r6,r28
000000c0 07d8            316 	mov	r7,r27
000000c2 08d0            317 	mov	r8,r26
000000c4 09c8            318 	mov	r9,r25
000000c6 23c71d00        319 	ld.w	28[sp],r24
                         320 --	    .bf
                         321 .LDW52:
000000ca 00ea            322 	mov	0,r29
000000cc 1840            323 	mov	r24,r8
000000ce 1d38            324 	mov	r29,r7
                         325 	jarl	_VStdLib_MemSet,lp
                         325 <EXPANSION BEGIN>
                         325 jarl22 _VStdLib_MemSet , lp 
000000d0 80ff0000*       325 <EXPANSION END>
                         326 --line123
                         327 ..lin.C.3A.5C_ECU2.5CECU_Rivian_A1.5CTarget.5Crepo_projects.5CpFOTA.5CcL_LATEST.5Cmake.5Cobj.5CESLib_RSA_PSS_Sig.18::
                         328 .LDWlin18:
000000d4 18f0            329 	mov	r24,ep
000000d6 dcf1            330 	add	r28,ep
000000d8 0192            331 	mov	1,r18
000000da 8093            332 	sst.b	r18,0[ep]
000000dc e0d1            333 	cmp	zero,r26
000000de e20d*           334 	be	.L501

                                                                      Page 7
                                                              C:\Users\nhuliyap\AppData\Local\Temp\gh_00005f41.s
                         335 --line126
                         336 ..lin.C.3A.5C_ECU2.5CECU_Rivian_A1.5CTarget.5Crepo_projects.5CpFOTA.5CcL_LATEST.5Cmake.5Cobj.5CESLib_RSA_PSS_Sig.19::
                         337 .LDWlin19:
000000e0 e0c9            338 	cmp	zero,r25
000000e2 fa05*           339 	bne	.L503
                         340 --line127
                         341 ..lin.C.3A.5C_ECU2.5CECU_Rivian_A1.5CTarget.5Crepo_projects.5CpFOTA.5CcL_LATEST.5Cmake.5Cobj.5CESLib_RSA_PSS_Sig.20::
                         342 .LDWlin20:
000000e4 1a30            343 	mov	r26,r6
000000e6 1b38            344 	mov	r27,r7
                         345 	jarl	_esl_getBytesRNG,lp
                         345 <EXPANSION BEGIN>
                         345 jarl22 _esl_getBytesRNG , lp 
000000e8 80ff0000*       345 <EXPANSION END>
000000ec 0ae8            346 	mov	r10,r29
000000ee e505*           347 	br	.L501
                         348 .L503:
000000f0 1a40            349 	mov	r26,r8
                         350 --line130
                         351 ..lin.C.3A.5C_ECU2.5CECU_Rivian_A1.5CTarget.5Crepo_projects.5CpFOTA.5CcL_LATEST.5Cmake.5Cobj.5CESLib_RSA_PSS_Sig.21::
                         352 .LDWlin21:
000000f2 1b30            353 	mov	r27,r6
000000f4 1938            354 	mov	r25,r7
                         355 	jarl	_VStdLib_MemCpy,lp
                         355 <EXPANSION BEGIN>
                         355 jarl22 _VStdLib_MemCpy , lp 
000000f6 80ff0000*       355 <EXPANSION END>
                         356 .L501:
                         357 --line134
                         358 ..lin.C.3A.5C_ECU2.5CECU_Rivian_A1.5CTarget.5Crepo_projects.5CpFOTA.5CcL_LATEST.5Cmake.5Cobj.5CESLib_RSA_PSS_Sig.22::
                         359 .LDWlin22:
000000fa 1d50            360 	mov	r29,r10
                         361 --	    .ef
                         362 .LDW62:
000000fc 4006fff0        363 	dispose	0,{r24,r25,r26,r27,r28,r29,r31},[lp]
                         364 	.type	_esl_FillDataBlock,@function
                         365 	.size	_esl_FillDataBlock,.-_esl_FillDataBlock
                         366 	.type	_esl_FillDataBlock..C.3A.5C_ECU2.5CECU_Rivian_A1.5CTarget.5Crepo_projects.5CpFOTA.5CcL_LATEST.5Cmake.5Cobj.5CESLib_RSA_PSS_Sig.,@function
                         367 	.size	_esl_FillDataBlock..C.3A.5C_ECU2.5CECU_Rivian_A1.5CTarget.5Crepo_projects.5CpFOTA.5CcL_LATEST.5Cmake.5Cobj.5CESLib_RSA_PSS_Sig.,.-_esl_FillDataBlock..C.3A.5C_ECU2.5CECU_Rivian_A1.5CTarget.5Crepo_projects.5CpFOTA.5CcL_LATEST.5Cmake.5Cobj.5CESLib_RSA_PSS_Sig.
                         368 	.align	2
                         369 .LDW72:
                         370 --_returnValue	r29	local
                         371 
                         372 --_db	r28	param
                         373 --_dbSalt	r27	param
                         374 --_saltSize	r26	param
                         375 --_salt	r25	param
                         376 --_psLength	r24	param
                         377 
                         378 	.section ".bss","awb"
                         379 .L556:
                         380 	.type	.L556,@object
                         381 	.size	.L556,0
                         382 	.data
                         383 	.section ".MSR_CODE","ax"
                         384 	.align	2
                         385 	.align	2
                         386 ..gh.f.f.1.e.6:
                         387 	.type	..gh.f.f.1.e.6,@object
                         388 	.size	..gh.f.f.1.e.6,0
                         389 	.global	_esl_initSignRSA_PSS..C.3A.5C_ECU2.5CECU_Rivian_A1.5CTarget.5Crepo_projects.5CpFOTA.5CcL_LATEST.5Cmake.5Cobj.5CESLib_RSA_PSS_Sig.

                                                                      Page 8
                                                              C:\Users\nhuliyap\AppData\Local\Temp\gh_00005f41.s
                         390 _esl_initSignRSA_PSS..C.3A.5C_ECU2.5CECU_Rivian_A1.5CTarget.5Crepo_projects.5CpFOTA.5CcL_LATEST.5Cmake.5Cobj.5CESLib_RSA_PSS_Sig.:
                         391 _esl_initSignRSA_PSS:
00000100 8207e170        392 	prepare	{r25,r26,r27,r28,r29,r31},1
00000104 23f61c00        393 	movea	28,sp,ep
00000108 06e8            394 	mov	r6,r29
0000010a 07d8            395 	mov	r7,r27
0000010c 08e0            396 	mov	r8,r28
0000010e 09c8            397 	mov	r9,r25
00000110 00d5            398 	sld.w	0[ep],r26
00000112 6490            399 	sld.bu	4[ep],r18
                         400 --	    .bf
                         401 .LDW82:
00000114 e041            402 	cmp	zero,r8
00000116 b205*           403 	be	.L613
00000118 e0d1            404 	cmp	zero,r26
0000011a ca05*           405 	bne	.L612
                         406 .L613:
                         407 --line147
                         408 ..lin.C.3A.5C_ECU2.5CECU_Rivian_A1.5CTarget.5Crepo_projects.5CpFOTA.5CcL_LATEST.5Cmake.5Cobj.5CESLib_RSA_PSS_Sig.23::
                         409 .LDWlin23:
0000011c 20e60320        410 	movea	8195,zero,r28
00000120 9525*           411 	br	.L615
                         412 .L612:
                         413 --line150
                         414 ..lin.C.3A.5C_ECU2.5CECU_Rivian_A1.5CTarget.5Crepo_projects.5CpFOTA.5CcL_LATEST.5Cmake.5Cobj.5CESLib_RSA_PSS_Sig.24::
                         415 .LDWlin24:
00000122 06365008        416 	addi	2128,r6,r6
00000126 1238            417 	mov	r18,r7
                         418 	jarl	_actHashInit,lp
                         418 <EXPANSION BEGIN>
                         418 jarl22 _actHashInit , lp 
00000128 bfffd8fe*       418 <EXPANSION END>
                         419 --line153
                         420 ..lin.C.3A.5C_ECU2.5CECU_Rivian_A1.5CTarget.5Crepo_projects.5CpFOTA.5CcL_LATEST.5Cmake.5Cobj.5CESLib_RSA_PSS_Sig.25::
                         421 .LDWlin25:
0000012c 3d870900        422 	ld.w	8[r29],r16
00000130 208e2406        423 	movea	1572,zero,r17
00000134 7d8f1d02        424 	st.w	r17,540[r29]
00000138 1d361c02        425 	addi	540,r29,r6
0000013c 7d872502        426 	st.w	r16,548[r29]
00000140 1b38            427 	mov	r27,r7
00000142 1c40            428 	mov	r28,r8
00000144 1948            429 	mov	r25,r9
00000146 63d70100        430 	st.w	r26,0[sp]
                         431 	jarl	_esl_initSignRSA_prim,lp
                         431 <EXPANSION BEGIN>
                         431 jarl22 _esl_initSignRSA_prim , lp 
0000014a 80ff0000*       431 <EXPANSION END>
0000014e 0ae0            432 	mov	r10,r28
                         433 --line158
                         434 ..lin.C.3A.5C_ECU2.5CECU_Rivian_A1.5CTarget.5Crepo_projects.5CpFOTA.5CcL_LATEST.5Cmake.5Cobj.5CESLib_RSA_PSS_Sig.26::
                         435 .LDWlin26:
00000150 e051            436 	cmp	zero,r10
00000152 8a0d*           437 	bne	.L615
                         438 --line159
                         439 ..lin.C.3A.5C_ECU2.5CECU_Rivian_A1.5CTarget.5Crepo_projects.5CpFOTA.5CcL_LATEST.5Cmake.5Cobj.5CESLib_RSA_PSS_Sig.27::
                         440 .LDWlin27:
00000154 1d30            441 	mov	r29,r6
00000156 203e0007        442 	movea	1792,zero,r7
                         443 	jarl	_esl_SetWorkspaceStatus,lp
                         443 <EXPANSION BEGIN>

                                                                      Page 9
                                                              C:\Users\nhuliyap\AppData\Local\Temp\gh_00005f41.s
                         443 jarl22 _esl_SetWorkspaceStatus , lp 
0000015a 80ff0000*       443 <EXPANSION END>
                         444 --line161
                         445 ..lin.C.3A.5C_ECU2.5CECU_Rivian_A1.5CTarget.5Crepo_projects.5CpFOTA.5CcL_LATEST.5Cmake.5Cobj.5CESLib_RSA_PSS_Sig.28::
                         446 .LDWlin28:
0000015e 7ddfd108        447 	st.w	r27,2256[r29]
                         448 .L615:
00000162 1c50            449 	mov	r28,r10
                         450 --	    .ef
                         451 .LDW92:
00000164 4206ff70        452 	dispose	1,{r25,r26,r27,r28,r29,r31},[lp]
                         453 	.type	_esl_initSignRSA_PSS,@function
                         454 	.size	_esl_initSignRSA_PSS,.-_esl_initSignRSA_PSS
                         455 	.type	_esl_initSignRSA_PSS..C.3A.5C_ECU2.5CECU_Rivian_A1.5CTarget.5Crepo_projects.5CpFOTA.5CcL_LATEST.5Cmake.5Cobj.5CESLib_RSA_PSS_Sig.,@function
                         456 	.size	_esl_initSignRSA_PSS..C.3A.5C_ECU2.5CECU_Rivian_A1.5CTarget.5Crepo_projects.5CpFOTA.5CcL_LATEST.5Cmake.5Cobj.5CESLib_RSA_PSS_Sig.,.-_esl_initSignRSA_PSS..C.3A.5C_ECU2.5CECU_Rivian_A1.5CTarget.5Crepo_projects.5CpFOTA.5CcL_LATEST.5Cmake.5Cobj.5CESLib_RSA_PSS_Sig.
                         457 	.align	2
                         458 .LDW03:
                         459 --_returnValue	r28	local
                         460 
                         461 --_workSpace	r29	param
                         462 --_keyPairModuleSize	r27	param
                         463 --_keyPairModule	r28	param
                         464 --_privateKeyExponentSize	r25	param
                         465 --_privateKeyExponent	r26	param
                         466 --_hashID	r18	param
                         467 
                         468 	.section ".bss","awb"
                         469 .L674:
                         470 	.type	.L674,@object
                         471 	.size	.L674,0
                         472 	.data
                         473 	.section ".MSR_CODE","ax"
                         474 	.align	2
                         475 	.align	2
                         476 ..gh.f.f.1.e.7:
                         477 	.type	..gh.f.f.1.e.7,@object
                         478 	.size	..gh.f.f.1.e.7,0
                         479 	.global	_esl_updateSignRSA_PSS..C.3A.5C_ECU2.5CECU_Rivian_A1.5CTarget.5Crepo_projects.5CpFOTA.5CcL_LATEST.5Cmake.5Cobj.5CESLib_RSA_PSS_Sig.
                         480 _esl_updateSignRSA_PSS..C.3A.5C_ECU2.5CECU_Rivian_A1.5CTarget.5Crepo_projects.5CpFOTA.5CcL_LATEST.5Cmake.5Cobj.5CESLib_RSA_PSS_Sig.:
                         481 _esl_updateSignRSA_PSS:
00000168 80076100        482 	prepare	{r29,r31},0
                         483 --	    .bf
                         484 .LDW13:
0000016c e041            485 	cmp	zero,r8
0000016e ca05*           486 	bne	.L739
                         487 --line176
                         488 ..lin.C.3A.5C_ECU2.5CECU_Rivian_A1.5CTarget.5Crepo_projects.5CpFOTA.5CcL_LATEST.5Cmake.5Cobj.5CESLib_RSA_PSS_Sig.29::
                         489 .LDWlin29:
00000170 20ee0320        490 	movea	8195,zero,r29
00000174 e50d*           491 	br	.L741
                         492 .L739:
00000176 0798            493 	mov	r7,r19
                         494 --line179
                         495 ..lin.C.3A.5C_ECU2.5CECU_Rivian_A1.5CTarget.5Crepo_projects.5CpFOTA.5CcL_LATEST.5Cmake.5Cobj.5CESLib_RSA_PSS_Sig.30::
                         496 .LDWlin30:
00000178 0838            497 	mov	r8,r7
0000017a 8900            498 	zxb	r9
0000017c 00ea            499 	mov	0,r29
0000017e 06365008        500 	addi	2128,r6,r6
00000182 1340            501 	mov	r19,r8
                         502 	jarl	_actHashUpdate,lp

                                                                      Page 10
                                                              C:\Users\nhuliyap\AppData\Local\Temp\gh_00005f41.s
                         502 <EXPANSION BEGIN>
                         502 jarl22 _actHashUpdate , lp 
00000184 bfffaafe*       502 <EXPANSION END>
                         503 --line181
                         504 ..lin.C.3A.5C_ECU2.5CECU_Rivian_A1.5CTarget.5Crepo_projects.5CpFOTA.5CcL_LATEST.5Cmake.5Cobj.5CESLib_RSA_PSS_Sig.31::
                         505 .LDWlin31:
00000188 e051            506 	cmp	zero,r10
0000018a b205*           507 	be	.L741
                         508 --line182
                         509 ..lin.C.3A.5C_ECU2.5CECU_Rivian_A1.5CTarget.5Crepo_projects.5CpFOTA.5CcL_LATEST.5Cmake.5Cobj.5CESLib_RSA_PSS_Sig.32::
                         510 .LDWlin32:
0000018c 20ee2c20        511 	movea	8236,zero,r29
                         512 .L741:
00000190 1d50            513 	mov	r29,r10
                         514 --	    .ef
                         515 .LDW23:
00000192 40067f00        516 	dispose	0,{r29,r31},[lp]
                         517 	.type	_esl_updateSignRSA_PSS,@function
                         518 	.size	_esl_updateSignRSA_PSS,.-_esl_updateSignRSA_PSS
                         519 	.type	_esl_updateSignRSA_PSS..C.3A.5C_ECU2.5CECU_Rivian_A1.5CTarget.5Crepo_projects.5CpFOTA.5CcL_LATEST.5Cmake.5Cobj.5CESLib_RSA_PSS_Sig.,@function
                         520 	.size	_esl_updateSignRSA_PSS..C.3A.5C_ECU2.5CECU_Rivian_A1.5CTarget.5Crepo_projects.5CpFOTA.5CcL_LATEST.5Cmake.5Cobj.5CESLib_RSA_PSS_Sig.,.-_esl_updateSignRSA_PSS..C.3A.5C_ECU2.5CECU_Rivian_A1.5CTarget.5Crepo_projects.5CpFOTA.5CcL_LATEST.5Cmake.5Cobj.5CESLib_RSA_PSS_Sig.
                         521 	.align	2
                         522 .LDW33:
                         523 --_returnValue	r29	local
                         524 
                         525 --_workSpace	r6	param
                         526 --_inputSize	r19	param
                         527 --_input	r8	param
                         528 --_hashID	r9	param
                         529 
                         530 	.section ".bss","awb"
                         531 .L796:
                         532 	.type	.L796,@object
                         533 	.size	.L796,0
                         534 	.data
                         535 	.section ".MSR_CODE","ax"
                         536 	.align	2
                         537 	.align	2
                         538 ..gh.f.f.1.e.8:
                         539 	.type	..gh.f.f.1.e.8,@object
                         540 	.size	..gh.f.f.1.e.8,0
                         541 	.global	_esl_finalizeHashSignRSA_PSS..C.3A.5C_ECU2.5CECU_Rivian_A1.5CTarget.5Crepo_projects.5CpFOTA.5CcL_LATEST.5Cmake.5Cobj.5CESLib_RSA_PSS_Sig.
                         542 _esl_finalizeHashSignRSA_PSS..C.3A.5C_ECU2.5CECU_Rivian_A1.5CTarget.5Crepo_projects.5CpFOTA.5CcL_LATEST.5Cmake.5Cobj.5CESLib_RSA_PSS_Sig.:
                         543 _esl_finalizeHashSignRSA_PSS:
00000196 8800            544 	zxb	r8
                         545 --	    .bf
                         546 .LDW43:
00000198 06365008        547 	addi	2128,r6,r6
0000019c bf07c6fe*       548 	jr	_actHashFinalize
                         549 --	    .ef
                         550 .LDW53:
                         551 	.type	_esl_finalizeHashSignRSA_PSS,@function
                         552 	.size	_esl_finalizeHashSignRSA_PSS,.-_esl_finalizeHashSignRSA_PSS
                         553 	.type	_esl_finalizeHashSignRSA_PSS..C.3A.5C_ECU2.5CECU_Rivian_A1.5CTarget.5Crepo_projects.5CpFOTA.5CcL_LATEST.5Cmake.5Cobj.5CESLib_RSA_PSS_Sig.,@function
                         554 	.size	_esl_finalizeHashSignRSA_PSS..C.3A.5C_ECU2.5CECU_Rivian_A1.5CTarget.5Crepo_projects.5CpFOTA.5CcL_LATEST.5Cmake.5Cobj.5CESLib_RSA_PSS_Sig.,.-_esl_finalizeHashSignRSA_PSS..C.3A.5C_ECU2.5CECU_Rivian_A1.5CTarget.5Crepo_projects.5CpFOTA.5CcL_LATEST.5Cmake.5Cobj.5CESLib_RSA_PSS_Sig.
                         555 	.align	2
                         556 .LDW63:
                         557 
                         558 --_workSpace	r6	param
                         559 --_messageDigest	r7	param
                         560 --_hashID	r8	param

                                                                      Page 11
                                                              C:\Users\nhuliyap\AppData\Local\Temp\gh_00005f41.s
                         561 
                         562 	.section ".bss","awb"
                         563 .L881:
                         564 	.type	.L881,@object
                         565 	.size	.L881,0
                         566 	.data
                         567 	.section ".MSR_CODE","ax"
                         568 	.align	2
                         569 	.align	2
                         570 	.align	2
                         571 ..gh.f.f.1.e.9:
                         572 	.type	..gh.f.f.1.e.9,@object
                         573 	.size	..gh.f.f.1.e.9,0
                         574 	.global	_esl_finalizeSigSignRSA_PSS..C.3A.5C_ECU2.5CECU_Rivian_A1.5CTarget.5Crepo_projects.5CpFOTA.5CcL_LATEST.5Cmake.5Cobj.5CESLib_RSA_PSS_Sig.
                         575 _esl_finalizeSigSignRSA_PSS..C.3A.5C_ECU2.5CECU_Rivian_A1.5CTarget.5Crepo_projects.5CpFOTA.5CcL_LATEST.5Cmake.5Cobj.5CESLib_RSA_PSS_Sig.:
                         576 _esl_finalizeSigSignRSA_PSS:
000001a0 8c07e3ff        577 	prepare	{r20,r21,r22,r23,r24,r25,r26,r27,r28,r29,r31},6,sp
000001a4 06e8            578 	mov	r6,r29
000001a6 0b3d            579 	sst.w	r7,20[ep]
000001a8 08e0            580 	mov	r8,r28
000001aa 24ad            581 	sld.w	72[ep],r21
000001ac 83a75100        582 	ld.bu	80[sp],r20
                         583 --	    .bf
                         584 .LDW73:
000001b0 7f4a            585 	cmp	-1,r9
000001b2 e94734cb        586 	cmovne	r9,r8,r25
000001b6 06be1001        587 	addi	272,r6,r23
000001ba 06362c02        588 	addi	556,r6,r6
                         589 	jarl	_actRSAPrivateKeyGetBitLength,lp
                         589 <EXPANSION BEGIN>
                         589 jarl22 _actRSAPrivateKeyGetBitLength , lp 
000001be 80ff0000*       589 <EXPANSION END>
                         590 --line218
                         591 ..lin.C.3A.5C_ECU2.5CECU_Rivian_A1.5CTarget.5Crepo_projects.5CpFOTA.5CcL_LATEST.5Cmake.5Cobj.5CESLib_RSA_PSS_Sig.33::
                         592 .LDWlin33:
000001c2 0a4e0600        593 	addi	6,r10,r9
000001c6 0a5effff        594 	addi	-1,r10,r11
000001ca 834a            595 	shr	3,r9
000001cc 20460001        596 	movea	256,zero,r8
000001d0 090600ff        597 	addi	-256,r9,zero
000001d4 e84f22db        598 	cmovl	r8,r9,r27
000001d8 635f1100        599 	st.w	r11,16[sp]
000001dc 1530            600 	mov	r21,r6
000001de 1b38            601 	mov	r27,r7
                         602 	jarl	_esl_checkSignatureSize,lp
                         602 <EXPANSION BEGIN>
                         602 jarl22 _esl_checkSignatureSize , lp 
000001e0 bfffc6fe*       602 <EXPANSION END>
                         603 --line221
                         604 ..lin.C.3A.5C_ECU2.5CECU_Rivian_A1.5CTarget.5Crepo_projects.5CpFOTA.5CcL_LATEST.5Cmake.5Cobj.5CESLib_RSA_PSS_Sig.34::
                         605 .LDWlin34:
000001e4 e051            606 	cmp	zero,r10
000001e6 da6d*           607 	bne	.L900
                         608 --line222
                         609 ..lin.C.3A.5C_ECU2.5CECU_Rivian_A1.5CTarget.5Crepo_projects.5CpFOTA.5CcL_LATEST.5Cmake.5Cobj.5CESLib_RSA_PSS_Sig.35::
                         610 .LDWlin35:
000001e8 1c3e0100        611 	addi	1,r28,r7
000001ec e7d9            612 	cmp	r7,r27
000001ee d905*           613 	bnl	.L907
                         614 --line223
                         615 ..lin.C.3A.5C_ECU2.5CECU_Rivian_A1.5CTarget.5Crepo_projects.5CpFOTA.5CcL_LATEST.5Cmake.5Cobj.5CESLib_RSA_PSS_Sig.36::

                                                                      Page 12
                                                              C:\Users\nhuliyap\AppData\Local\Temp\gh_00005f41.s
                         616 .LDWlin36:
000001f0 20561e20        617 	movea	8222,zero,r10
000001f4 4c06ffff        618 	dispose	6,{r20,r21,r22,r23,r24,r25,r26,r27,r28,r29,r31},[lp]
                         619 .L907:
                         620 --line226
                         621 ..lin.C.3A.5C_ECU2.5CECU_Rivian_A1.5CTarget.5Crepo_projects.5CpFOTA.5CcL_LATEST.5Cmake.5Cobj.5CESLib_RSA_PSS_Sig.37::
                         622 .LDWlin37:
000001f8 1b40            623 	mov	r27,r8
000001fa bc41            624 	sub	r28,r8
000001fc 08d6ffff        625 	addi	-1,r8,r26
00000200 1dc61000        626 	addi	16,r29,r24
00000204 dac1            627 	add	r26,r24
00000206 1930            628 	mov	r25,r6
00000208 1a38            629 	mov	r26,r7
                         630 	jarl	_esl_checkSaltSizeSig,lp
                         630 <EXPANSION BEGIN>
                         630 jarl22 _esl_checkSaltSizeSig , lp 
0000020a bfff8cfe*       630 <EXPANSION END>
                         631 --line231
                         632 ..lin.C.3A.5C_ECU2.5CECU_Rivian_A1.5CTarget.5Crepo_projects.5CpFOTA.5CcL_LATEST.5Cmake.5Cobj.5CESLib_RSA_PSS_Sig.38::
                         633 .LDWlin38:
0000020e e051            634 	cmp	zero,r10
00000210 8a5d*           635 	bne	.L900
                         636 --line233
                         637 ..lin.C.3A.5C_ECU2.5CECU_Rivian_A1.5CTarget.5Crepo_projects.5CpFOTA.5CcL_LATEST.5Cmake.5Cobj.5CESLib_RSA_PSS_Sig.39::
                         638 .LDWlin39:
00000212 b939            639 	sub	r25,r7
00000214 0796ffff        640 	addi	-1,r7,r18
00000218 03f0            641 	mov	sp,ep
0000021a 1230            642 	mov	r18,r6
0000021c 224d            643 	sld.w	68[ep],r9
0000021e d731            644 	add	r23,r6
00000220 06b60100        645 	addi	1,r6,r22
00000224 1730            646 	mov	r23,r6
00000226 1638            647 	mov	r22,r7
00000228 1940            648 	mov	r25,r8
0000022a 0195            649 	sst.w	r18,0[ep]
                         650 	jarl	_esl_FillDataBlock,lp
                         650 <EXPANSION BEGIN>
                         650 jarl22 _esl_FillDataBlock , lp 
0000022c bfff8efe*       650 <EXPANSION END>
                         651 --line238
                         652 ..lin.C.3A.5C_ECU2.5CECU_Rivian_A1.5CTarget.5Crepo_projects.5CpFOTA.5CcL_LATEST.5Cmake.5Cobj.5CESLib_RSA_PSS_Sig.40::
                         653 .LDWlin40:
00000230 e051            654 	cmp	zero,r10
00000232 fa45*           655 	bne	.L900
                         656 --line240
                         657 ..lin.C.3A.5C_ECU2.5CECU_Rivian_A1.5CTarget.5Crepo_projects.5CpFOTA.5CcL_LATEST.5Cmake.5Cobj.5CESLib_RSA_PSS_Sig.41::
                         658 .LDWlin41:
00000234 03f0            659 	mov	sp,ep
00000236 0a4d            660 	sld.w	20[ep],r9
00000238 1d365008        661 	addi	2128,r29,r6
0000023c 1938            662 	mov	r25,r7
0000023e 1640            663 	mov	r22,r8
00000240 01e5            664 	sst.w	r28,0[ep]
00000242 03c5            665 	sst.w	r24,4[ep]
00000244 05a5            666 	sst.w	r20,8[ep]
                         667 	jarl	_esl_calcSaltedHashRSA_PSS,lp
                         667 <EXPANSION BEGIN>
                         667 jarl22 _esl_calcSaltedHashRSA_PSS , lp 
00000246 80ff0000*       667 <EXPANSION END>

                                                                      Page 13
                                                              C:\Users\nhuliyap\AppData\Local\Temp\gh_00005f41.s
                         668 --line245
                         669 ..lin.C.3A.5C_ECU2.5CECU_Rivian_A1.5CTarget.5Crepo_projects.5CpFOTA.5CcL_LATEST.5Cmake.5Cobj.5CESLib_RSA_PSS_Sig.42::
                         670 .LDWlin42:
0000024a e051            671 	cmp	zero,r10
0000024c aa3d*           672 	bne	.L900
                         673 --line247
                         674 ..lin.C.3A.5C_ECU2.5CECU_Rivian_A1.5CTarget.5Crepo_projects.5CpFOTA.5CcL_LATEST.5Cmake.5Cobj.5CESLib_RSA_PSS_Sig.43::
                         675 .LDWlin43:
0000024e 1430            676 	mov	r20,r6
00000250 1d3e5008        677 	addi	2128,r29,r7
00000254 1d46fb01        678 	addi	507,r29,r8
00000258 1c48            679 	mov	r28,r9
0000025a 1d661000        680 	addi	16,r29,r12
0000025e 1a68            681 	mov	r26,r13
00000260 1870            682 	mov	r24,r14
00000262 1c78            683 	mov	r28,r15
00000264 031e1000        684 	addi	16,sp,sp
00000268 ec476079        685 	pushsp	r12-r15
                         686 	jarl	_esl_generateMaskMGF1,lp
                         686 <EXPANSION BEGIN>
                         686 jarl22 _esl_generateMaskMGF1 , lp 
0000026c 80ff0000*       686 <EXPANSION END>
                         687 --line255
                         688 ..lin.C.3A.5C_ECU2.5CECU_Rivian_A1.5CTarget.5Crepo_projects.5CpFOTA.5CcL_LATEST.5Cmake.5Cobj.5CESLib_RSA_PSS_Sig.44::
                         689 .LDWlin44:
00000270 e051            690 	cmp	zero,r10
00000272 fa25*           691 	bne	.L900
                         692 --line256
                         693 ..lin.C.3A.5C_ECU2.5CECU_Rivian_A1.5CTarget.5Crepo_projects.5CpFOTA.5CcL_LATEST.5Cmake.5Cobj.5CESLib_RSA_PSS_Sig.45::
                         694 .LDWlin45:
00000274 1d361000        695 	addi	16,r29,r6
00000278 1738            696 	mov	r23,r7
0000027a 1a40            697 	mov	r26,r8
                         698 	jarl	_actXOR,lp
                         698 <EXPANSION BEGIN>
                         698 jarl22 _actXOR , lp 
0000027c 80ff0000*       698 <EXPANSION END>
                         699 --line258
                         700 ..lin.C.3A.5C_ECU2.5CECU_Rivian_A1.5CTarget.5Crepo_projects.5CpFOTA.5CcL_LATEST.5Cmake.5Cobj.5CESLib_RSA_PSS_Sig.46::
                         701 .LDWlin46:
00000280 235f1100        702 	ld.w	16[sp],r11
00000284 9d9f1100        703 	ld.bu	16[r29],r19
00000288 ddd9            704 	add	r29,r27
0000028a 208ebcff        705 	movea	-68,zero,r17
0000028e cbf60700        706 	andi	7,r11,ep
00000292 c5f1            707 	add	r5,ep
00000294 be0705900000*   708 	ld.bu	rosdaoff23(_esl_RSAPSSEncodingMask)[ep],r18
0000029a 1d461000        709 	addi	16,r29,r8
0000029e 1d361c02        710 	addi	540,r29,r6
000002a2 1548            711 	mov	r21,r9
000002a4 5299            712 	and	r18,r19
000002a6 5d9f1000        713 	st.b	r19,16[r29]
000002aa 5b8f0f00        714 	st.b	r17,15[r27]
000002ae 3d3fd108        715 	ld.w	2256[r29],r7
000002b2 03f0            716 	mov	sp,ep
000002b4 2665            717 	sld.w	76[ep],r12
000002b6 0165            718 	sst.w	r12,0[ep]
                         719 	jarl	_esl_signRSA_prim,lp
                         719 <EXPANSION BEGIN>
                         719 jarl22 _esl_signRSA_prim , lp 
000002b8 80ff0000*       719 <EXPANSION END>

                                                                      Page 14
                                                              C:\Users\nhuliyap\AppData\Local\Temp\gh_00005f41.s
000002bc 4c06ffff        720 	dispose	6,{r20,r21,r22,r23,r24,r25,r26,r27,r28,r29,r31},[lp]
                         721 .L900:
                         722 --	    .ef
                         723 .LDW83:
                         724 --line266
                         725 ..lin.C.3A.5C_ECU2.5CECU_Rivian_A1.5CTarget.5Crepo_projects.5CpFOTA.5CcL_LATEST.5Cmake.5Cobj.5CESLib_RSA_PSS_Sig.47::
                         726 .LDWlin47:
000002c0 4c06ffff        727 	dispose	6,{r20,r21,r22,r23,r24,r25,r26,r27,r28,r29,r31},[lp]
                         728 	.type	_esl_finalizeSigSignRSA_PSS,@function
                         729 	.size	_esl_finalizeSigSignRSA_PSS,.-_esl_finalizeSigSignRSA_PSS
                         730 	.type	_esl_finalizeSigSignRSA_PSS..C.3A.5C_ECU2.5CECU_Rivian_A1.5CTarget.5Crepo_projects.5CpFOTA.5CcL_LATEST.5Cmake.5Cobj.5CESLib_RSA_PSS_Sig.,@function
                         731 	.size	_esl_finalizeSigSignRSA_PSS..C.3A.5C_ECU2.5CECU_Rivian_A1.5CTarget.5Crepo_projects.5CpFOTA.5CcL_LATEST.5Cmake.5Cobj.5CESLib_RSA_PSS_Sig.,.-_esl_finalizeSigSignRSA_PSS..C.3A.5C_ECU2.5CECU_Rivian_A1.5CTarget.5Crepo_projects.5CpFOTA.5CcL_LATEST.5Cmake.5Cobj.5CESLib_RSA_PSS_Sig.
                         732 	.align	2
                         733 .LDW93:
                         734 --_returnValue	r10	local
                         735 --_saltLength	r25	local
                         736 --_emBits	16[sp]	local
                         737 --_emLength	r27	local
                         738 --_psLength	r18	local
                         739 --_dbLength	r26	local
                         740 --_saltedHash	r24	local
                         741 --_db	r23	local
                         742 --_dbSalt	r22	local
                         743 
                         744 --_workSpace	r29	param
                         745 --_messageDigest	20[sp]	param
                         746 --_hashDigestSize	r28	param
                         747 --_saltSize	r9	param
                         748 --_salt	68[sp]	param
                         749 --_signatureSize	r21	param
                         750 --_signature	76[sp]	param
                         751 --_hashID	r20	param
                         752 
                         753 	.section ".bss","awb"
                         754 .L1084:
                         755 	.type	.L1084,@object
                         756 	.size	.L1084,0
                         757 	.data
                         758 	.section ".MSR_CODE","ax"
                         759 	.align	2
                         760 	.align	2
                         761 ..gh.f.f.1.e.10:
                         762 	.type	..gh.f.f.1.e.10,@object
                         763 	.size	..gh.f.f.1.e.10,0
                         764 	.global	_esl_initSignRSASHA1_PSS
                         765 _esl_initSignRSASHA1_PSS:
000002c4 8407e170        766 	prepare	{r25,r26,r27,r28,r29,r31},2
000002c8 23cf2100        767 	ld.w	32[sp],r25
                         768 --	    .bf
                         769 .LDW04:
000002cc e031            770 	cmp	zero,r6
000002ce da05*           771 	bne	.L1190
                         772 --line280
                         773 ..lin.C.3A.5C_ECU2.5CECU_Rivian_A1.5CTarget.5Crepo_projects.5CpFOTA.5CcL_LATEST.5Cmake.5Cobj.5CESLib_RSA_PSS_Sig.48::
                         774 .LDWlin48:
000002d0 20560320        775 	movea	8195,zero,r10
000002d4 4406ff70        776 	dispose	2,{r25,r26,r27,r28,r29,r31},[lp]
                         777 .L1190:
000002d8 07e0            778 	mov	r7,r28
000002da 06e8            779 	mov	r6,r29
000002dc 08d8            780 	mov	r8,r27

                                                                      Page 15
                                                              C:\Users\nhuliyap\AppData\Local\Temp\gh_00005f41.s
000002de 09d0            781 	mov	r9,r26
                         782 --line282
                         783 ..lin.C.3A.5C_ECU2.5CECU_Rivian_A1.5CTarget.5Crepo_projects.5CpFOTA.5CcL_LATEST.5Cmake.5Cobj.5CESLib_RSA_PSS_Sig.49::
                         784 .LDWlin49:
000002e0 203ec408        785 	movea	2244,zero,r7
                         786 	jarl	_esl_CheckWorkSpaceHeader,lp
                         786 <EXPANSION BEGIN>
                         786 jarl22 _esl_CheckWorkSpaceHeader , lp 
000002e4 80ff0000*       786 <EXPANSION END>
000002e8 e051            787 	cmp	zero,r10
000002ea ca15*           788 	bne	.L1188
                         789 --line286
                         790 ..lin.C.3A.5C_ECU2.5CECU_Rivian_A1.5CTarget.5Crepo_projects.5CpFOTA.5CcL_LATEST.5Cmake.5Cobj.5CESLib_RSA_PSS_Sig.50::
                         791 .LDWlin50:
000002ec 3d470900        792 	ld.w	8[r29],r8
000002f0 204e6000        793 	movea	96,zero,r9
000002f4 7d4f5108        794 	st.w	r9,2128[r29]
000002f8 03f0            795 	mov	sp,ep
000002fa 7d475908        796 	st.w	r8,2136[r29]
000002fe 1d30            797 	mov	r29,r6
00000300 1c38            798 	mov	r28,r7
00000302 1b40            799 	mov	r27,r8
00000304 1a48            800 	mov	r26,r9
00000306 01cd            801 	sst.w	r25,0[ep]
00000308 0305            802 	sst.w	zero,4[ep]
                         803 	jarl	_esl_initSignRSA_PSS,lp
                         803 <EXPANSION BEGIN>
                         803 jarl22 _esl_initSignRSA_PSS , lp 
0000030a bffff6fd*       803 <EXPANSION END>
0000030e 4406ff70        804 	dispose	2,{r25,r26,r27,r28,r29,r31},[lp]
                         805 .L1188:
                         806 --	    .ef
                         807 .LDW14:
                         808 --line290
                         809 ..lin.C.3A.5C_ECU2.5CECU_Rivian_A1.5CTarget.5Crepo_projects.5CpFOTA.5CcL_LATEST.5Cmake.5Cobj.5CESLib_RSA_PSS_Sig.51::
                         810 .LDWlin51:
00000312 4406ff70        811 	dispose	2,{r25,r26,r27,r28,r29,r31},[lp]
                         812 	.type	_esl_initSignRSASHA1_PSS,@function
                         813 	.size	_esl_initSignRSASHA1_PSS,.-_esl_initSignRSASHA1_PSS
                         814 	.align	2
                         815 .LDW24:
                         816 --_returnValue	r10	local
                         817 
                         818 --_workSpace	r29	param
                         819 --_keyPairModuleSize	r28	param
                         820 --_keyPairModule	r27	param
                         821 --_privateKeyExponentSize	r26	param
                         822 --_privateKeyExponent	r25	param
                         823 
                         824 	.section ".bss","awb"
                         825 .L1244:
                         826 	.type	.L1244,@object
                         827 	.size	.L1244,0
                         828 	.data
                         829 	.section ".MSR_CODE","ax"
                         830 	.align	2
                         831 	.align	2
                         832 ..gh.f.f.1.e.11:
                         833 	.type	..gh.f.f.1.e.11,@object
                         834 	.size	..gh.f.f.1.e.11,0
                         835 	.global	_esl_updateSignRSASHA1_PSS

                                                                      Page 16
                                                              C:\Users\nhuliyap\AppData\Local\Temp\gh_00005f41.s
                         836 _esl_updateSignRSASHA1_PSS:
00000316 8007e110        837 	prepare	{r27,r28,r29,r31},0
                         838 --	    .bf
                         839 .LDW34:
0000031a e031            840 	cmp	zero,r6
0000031c da05*           841 	bne	.L1305
                         842 --line300
                         843 ..lin.C.3A.5C_ECU2.5CECU_Rivian_A1.5CTarget.5Crepo_projects.5CpFOTA.5CcL_LATEST.5Cmake.5Cobj.5CESLib_RSA_PSS_Sig.52::
                         844 .LDWlin52:
0000031e 20560320        845 	movea	8195,zero,r10
00000322 4006ff10        846 	dispose	0,{r27,r28,r29,r31},[lp]
                         847 .L1305:
00000326 07e0            848 	mov	r7,r28
00000328 08d8            849 	mov	r8,r27
0000032a 06e8            850 	mov	r6,r29
                         851 --line303
                         852 ..lin.C.3A.5C_ECU2.5CECU_Rivian_A1.5CTarget.5Crepo_projects.5CpFOTA.5CcL_LATEST.5Cmake.5Cobj.5CESLib_RSA_PSS_Sig.53::
                         853 .LDWlin53:
0000032c 203ec408        854 	movea	2244,zero,r7
00000330 20460007        855 	movea	1792,zero,r8
                         856 	jarl	_esl_CheckWorkSpaceHeaderAndState,lp
                         856 <EXPANSION BEGIN>
                         856 jarl22 _esl_CheckWorkSpaceHeaderAndState , lp 
00000334 80ff0000*       856 <EXPANSION END>
                         857 --line306
                         858 ..lin.C.3A.5C_ECU2.5CECU_Rivian_A1.5CTarget.5Crepo_projects.5CpFOTA.5CcL_LATEST.5Cmake.5Cobj.5CESLib_RSA_PSS_Sig.54::
                         859 .LDWlin54:
00000338 e051            860 	cmp	zero,r10
0000033a ea0d*           861 	bne	.L1303
                         862 --line307
                         863 ..lin.C.3A.5C_ECU2.5CECU_Rivian_A1.5CTarget.5Crepo_projects.5CpFOTA.5CcL_LATEST.5Cmake.5Cobj.5CESLib_RSA_PSS_Sig.55::
                         864 .LDWlin55:
0000033c 1d30            865 	mov	r29,r6
0000033e 1c38            866 	mov	r28,r7
00000340 1b40            867 	mov	r27,r8
00000342 0a48            868 	mov	r10,r9
                         869 	jarl	_esl_updateSignRSA_PSS,lp
                         869 <EXPANSION BEGIN>
                         869 jarl22 _esl_updateSignRSA_PSS , lp 
00000344 bfff24fe*       869 <EXPANSION END>
                         870 --line308
                         871 ..lin.C.3A.5C_ECU2.5CECU_Rivian_A1.5CTarget.5Crepo_projects.5CpFOTA.5CcL_LATEST.5Cmake.5Cobj.5CESLib_RSA_PSS_Sig.56::
                         872 .LDWlin56:
00000348 0a06d4df        873 	addi	-8236,r10,zero
0000034c da05*           874 	bne	.L1303
                         875 --line309
                         876 ..lin.C.3A.5C_ECU2.5CECU_Rivian_A1.5CTarget.5Crepo_projects.5CpFOTA.5CcL_LATEST.5Cmake.5Cobj.5CESLib_RSA_PSS_Sig.57::
                         877 .LDWlin57:
0000034e 20560d20        878 	movea	8205,zero,r10
00000352 4006ff10        879 	dispose	0,{r27,r28,r29,r31},[lp]
                         880 .L1303:
                         881 --	    .ef
                         882 .LDW44:
                         883 --line312
                         884 ..lin.C.3A.5C_ECU2.5CECU_Rivian_A1.5CTarget.5Crepo_projects.5CpFOTA.5CcL_LATEST.5Cmake.5Cobj.5CESLib_RSA_PSS_Sig.58::
                         885 .LDWlin58:
00000356 4006ff10        886 	dispose	0,{r27,r28,r29,r31},[lp]
                         887 	.type	_esl_updateSignRSASHA1_PSS,@function
                         888 	.size	_esl_updateSignRSASHA1_PSS,.-_esl_updateSignRSASHA1_PSS
                         889 	.align	2
                         890 .LDW54:

                                                                      Page 17
                                                              C:\Users\nhuliyap\AppData\Local\Temp\gh_00005f41.s
                         891 --_returnValue	r10	local
                         892 
                         893 --_workSpace	r29	param
                         894 --_inputSize	r28	param
                         895 --_input	r27	param
                         896 
                         897 	.section ".bss","awb"
                         898 .L1377:
                         899 	.type	.L1377,@object
                         900 	.size	.L1377,0
                         901 	.data
                         902 	.section ".MSR_CODE","ax"
                         903 	.align	2
                         904 	.align	2
                         905 ..gh.f.f.1.e.12:
                         906 	.type	..gh.f.f.1.e.12,@object
                         907 	.size	..gh.f.f.1.e.12,0
                         908 	.global	_esl_finalizeHashSignRSASHA1_PSS
                         909 _esl_finalizeHashSignRSASHA1_PSS:
0000035a 8007e110        910 	prepare	{r27,r28,r29,r31},0
0000035e 06e0            911 	mov	r6,r28
00000360 07d8            912 	mov	r7,r27
                         913 --	    .bf
                         914 .LDW64:
00000362 e031            915 	cmp	zero,r6
00000364 b205*           916 	be	.L1451
00000366 e039            917 	cmp	zero,r7
00000368 ca05*           918 	bne	.L1450
                         919 .L1451:
                         920 --line321
                         921 ..lin.C.3A.5C_ECU2.5CECU_Rivian_A1.5CTarget.5Crepo_projects.5CpFOTA.5CcL_LATEST.5Cmake.5Cobj.5CESLib_RSA_PSS_Sig.59::
                         922 .LDWlin59:
0000036a 20ee0320        923 	movea	8195,zero,r29
0000036e f50d*           924 	br	.L1454
                         925 .L1450:
                         926 --line324
                         927 ..lin.C.3A.5C_ECU2.5CECU_Rivian_A1.5CTarget.5Crepo_projects.5CpFOTA.5CcL_LATEST.5Cmake.5Cobj.5CESLib_RSA_PSS_Sig.60::
                         928 .LDWlin60:
00000370 203ec408        929 	movea	2244,zero,r7
00000374 20460007        930 	movea	1792,zero,r8
                         931 	jarl	_esl_CheckWorkSpaceHeaderAndState,lp
                         931 <EXPANSION BEGIN>
                         931 jarl22 _esl_CheckWorkSpaceHeaderAndState , lp 
00000378 80ff0000*       931 <EXPANSION END>
0000037c 0ae8            932 	mov	r10,r29
                         933 --line327
                         934 ..lin.C.3A.5C_ECU2.5CECU_Rivian_A1.5CTarget.5Crepo_projects.5CpFOTA.5CcL_LATEST.5Cmake.5Cobj.5CESLib_RSA_PSS_Sig.61::
                         935 .LDWlin61:
0000037e e051            936 	cmp	zero,r10
00000380 ea05*           937 	bne	.L1454
                         938 --line328
                         939 ..lin.C.3A.5C_ECU2.5CECU_Rivian_A1.5CTarget.5Crepo_projects.5CpFOTA.5CcL_LATEST.5Cmake.5Cobj.5CESLib_RSA_PSS_Sig.62::
                         940 .LDWlin62:
00000382 1c30            941 	mov	r28,r6
00000384 1b38            942 	mov	r27,r7
00000386 0a40            943 	mov	r10,r8
                         944 	jarl	_esl_finalizeHashSignRSA_PSS,lp
                         944 <EXPANSION BEGIN>
                         944 jarl22 _esl_finalizeHashSignRSA_PSS , lp 
00000388 bfff0efe*       944 <EXPANSION END>
                         945 .L1454:

                                                                      Page 18
                                                              C:\Users\nhuliyap\AppData\Local\Temp\gh_00005f41.s
                         946 --line331
                         947 ..lin.C.3A.5C_ECU2.5CECU_Rivian_A1.5CTarget.5Crepo_projects.5CpFOTA.5CcL_LATEST.5Cmake.5Cobj.5CESLib_RSA_PSS_Sig.63::
                         948 .LDWlin63:
0000038c 1d50            949 	mov	r29,r10
                         950 --	    .ef
                         951 .LDW74:
0000038e 4006ff10        952 	dispose	0,{r27,r28,r29,r31},[lp]
                         953 	.type	_esl_finalizeHashSignRSASHA1_PSS,@function
                         954 	.size	_esl_finalizeHashSignRSASHA1_PSS,.-_esl_finalizeHashSignRSASHA1_PSS
                         955 	.align	2
                         956 .LDW84:
                         957 --_returnValue	r29	local
                         958 
                         959 --_workSpace	r28	param
                         960 --_messageDigest	r27	param
                         961 
                         962 	.section ".bss","awb"
                         963 .L1521:
                         964 	.type	.L1521,@object
                         965 	.size	.L1521,0
                         966 	.data
                         967 	.section ".MSR_CODE","ax"
                         968 	.align	2
                         969 	.align	2
                         970 ..gh.f.f.1.e.13:
                         971 	.type	..gh.f.f.1.e.13,@object
                         972 	.size	..gh.f.f.1.e.13,0
                         973 	.global	_esl_finalizeSigSignRSASHA1_PSS
                         974 _esl_finalizeSigSignRSASHA1_PSS:
00000392 8807e3f0        975 	prepare	{r24,r25,r26,r27,r28,r29,r31},4,sp
00000396 06e8            976 	mov	r6,r29
00000398 07e0            977 	mov	r7,r28
0000039a 08c8            978 	mov	r8,r25
0000039c 09c0            979 	mov	r9,r24
0000039e 16dd            980 	sld.w	44[ep],r27
000003a0 18d5            981 	sld.w	48[ep],r26
                         982 --	    .bf
                         983 .LDW94:
000003a2 e031            984 	cmp	zero,r6
000003a4 f205*           985 	be	.L1590
000003a6 e0d9            986 	cmp	zero,r27
000003a8 d205*           987 	be	.L1590
000003aa e0d1            988 	cmp	zero,r26
000003ac b205*           989 	be	.L1590
000003ae e039            990 	cmp	zero,r7
000003b0 da05*           991 	bne	.L1589
                         992 .L1590:
                         993 --line343
                         994 ..lin.C.3A.5C_ECU2.5CECU_Rivian_A1.5CTarget.5Crepo_projects.5CpFOTA.5CcL_LATEST.5Cmake.5Cobj.5CESLib_RSA_PSS_Sig.64::
                         995 .LDWlin64:
000003b2 20560320        996 	movea	8195,zero,r10
000003b6 4806fff0        997 	dispose	4,{r24,r25,r26,r27,r28,r29,r31},[lp]
                         998 .L1589:
                         999 --line346
                        1000 ..lin.C.3A.5C_ECU2.5CECU_Rivian_A1.5CTarget.5Crepo_projects.5CpFOTA.5CcL_LATEST.5Cmake.5Cobj.5CESLib_RSA_PSS_Sig.65::
                        1001 .LDWlin65:
000003ba 203ec408       1002 	movea	2244,zero,r7
000003be 20460007       1003 	movea	1792,zero,r8
                        1004 	jarl	_esl_CheckWorkSpaceHeaderAndState,lp
                        1004 <EXPANSION BEGIN>
                        1004 jarl22 _esl_CheckWorkSpaceHeaderAndState , lp 

                                                                      Page 19
                                                              C:\Users\nhuliyap\AppData\Local\Temp\gh_00005f41.s
000003c2 80ff0000*      1004 <EXPANSION END>
                        1005 --line349
                        1006 ..lin.C.3A.5C_ECU2.5CECU_Rivian_A1.5CTarget.5Crepo_projects.5CpFOTA.5CcL_LATEST.5Cmake.5Cobj.5CESLib_RSA_PSS_Sig.66::
                        1007 .LDWlin66:
000003c6 e051           1008 	cmp	zero,r10
000003c8 aa15*          1009 	bne	.L1587
                        1010 --line350
                        1011 ..lin.C.3A.5C_ECU2.5CECU_Rivian_A1.5CTarget.5Crepo_projects.5CpFOTA.5CcL_LATEST.5Cmake.5Cobj.5CESLib_RSA_PSS_Sig.67::
                        1012 .LDWlin67:
000003ca 1d30           1013 	mov	r29,r6
000003cc 1c38           1014 	mov	r28,r7
000003ce 1948           1015 	mov	r25,r9
000003d0 20461400       1016 	movea	20,zero,r8
000003d4 0a60           1017 	mov	r10,r12
000003d6 1a68           1018 	mov	r26,r13
000003d8 1b70           1019 	mov	r27,r14
000003da 1878           1020 	mov	r24,r15
000003dc 031e1000       1021 	addi	16,sp,sp
000003e0 ec476079       1022 	pushsp	r12-r15
                        1023 	jarl	_esl_finalizeSigSignRSA_PSS,lp
                        1023 <EXPANSION BEGIN>
                        1023 jarl22 _esl_finalizeSigSignRSA_PSS , lp 
000003e4 bfffbcfd*      1023 <EXPANSION END>
000003e8 4806fff0       1024 	dispose	4,{r24,r25,r26,r27,r28,r29,r31},[lp]
                        1025 .L1587:
                        1026 --	    .ef
                        1027 .LDW05:
                        1028 --line353
                        1029 ..lin.C.3A.5C_ECU2.5CECU_Rivian_A1.5CTarget.5Crepo_projects.5CpFOTA.5CcL_LATEST.5Cmake.5Cobj.5CESLib_RSA_PSS_Sig.68::
                        1030 .LDWlin68:
000003ec 4806fff0       1031 	dispose	4,{r24,r25,r26,r27,r28,r29,r31},[lp]
                        1032 	.type	_esl_finalizeSigSignRSASHA1_PSS,@function
                        1033 	.size	_esl_finalizeSigSignRSASHA1_PSS,.-_esl_finalizeSigSignRSASHA1_PSS
                        1034 	.align	2
                        1035 .LDW15:
                        1036 --_returnValue	r10	local
                        1037 
                        1038 --_workSpace	r29	param
                        1039 --_messageDigest	r28	param
                        1040 --_saltSize	r25	param
                        1041 --_salt	r24	param
                        1042 --_signatureSize	r27	param
                        1043 --_signature	r26	param
                        1044 
                        1045 	.section ".bss","awb"
                        1046 .L1679:
                        1047 	.type	.L1679,@object
                        1048 	.size	.L1679,0
                        1049 	.data
                        1050 	.section ".MSR_CODE","ax"
                        1051 	.align	2
                        1052 	.align	2
                        1053 ..gh.f.f.1.e.14:
                        1054 	.type	..gh.f.f.1.e.14,@object
                        1055 	.size	..gh.f.f.1.e.14,0
                        1056 	.global	_esl_finalizeSigSignRSASHA1_PSS_NoSalt
                        1057 _esl_finalizeSigSignRSASHA1_PSS_NoSalt:
000003f0 84072300       1058 	prepare	{r31},2,sp
                        1059 --	    .bf
                        1060 .LDW25:
000003f4 0145           1061 	sst.w	r8,0[ep]

                                                                      Page 20
                                                              C:\Users\nhuliyap\AppData\Local\Temp\gh_00005f41.s
000003f6 034d           1062 	sst.w	r9,4[ep]
000003f8 0042           1063 	mov	0,r8
000003fa 0848           1064 	mov	r8,r9
                        1065 	jarl	_esl_finalizeSigSignRSASHA1_PSS,lp
                        1065 <EXPANSION BEGIN>
                        1065 jarl22 _esl_finalizeSigSignRSASHA1_PSS , lp 
000003fc bfff96ff*      1065 <EXPANSION END>
                        1066 --	    .ef
                        1067 .LDW35:
                        1068 --line363
                        1069 ..lin.C.3A.5C_ECU2.5CECU_Rivian_A1.5CTarget.5Crepo_projects.5CpFOTA.5CcL_LATEST.5Cmake.5Cobj.5CESLib_RSA_PSS_Sig.69::
                        1070 .LDWlin69:
00000400 44063f00       1071 	dispose	2,{r31},[lp]
                        1072 	.type	_esl_finalizeSigSignRSASHA1_PSS_NoSalt,@function
                        1073 	.size	_esl_finalizeSigSignRSASHA1_PSS_NoSalt,.-_esl_finalizeSigSignRSASHA1_PSS_NoSalt
                        1074 	.align	2
                        1075 .LDW45:
                        1076 
                        1077 --_workSpace	r6	param
                        1078 --_messageDigest	r7	param
                        1079 --_signatureSize	r8	param
                        1080 --_signature	r9	param
                        1081 
                        1082 	.section ".bss","awb"
                        1083 .L1796:
                        1084 	.type	.L1796,@object
                        1085 	.size	.L1796,0
                        1086 	.data
                        1087 	.section ".MSR_CODE","ax"
                        1088 	.align	2
                        1089 	.align	2
                        1090 ..gh.f.f.1.e.15:
                        1091 	.type	..gh.f.f.1.e.15,@object
                        1092 	.size	..gh.f.f.1.e.15,0
                        1093 	.global	_esl_finalizeSigSignRSASHA1_PSS_DigestLengthSalt
                        1094 _esl_finalizeSigSignRSASHA1_PSS_DigestLengthSalt:
00000404 84072300       1095 	prepare	{r31},2,sp
                        1096 --	    .bf
                        1097 .LDW55:
00000408 0145           1098 	sst.w	r8,0[ep]
0000040a 034d           1099 	sst.w	r9,4[ep]
0000040c 20461400       1100 	movea	20,zero,r8
00000410 004a           1101 	mov	0,r9
                        1102 	jarl	_esl_finalizeSigSignRSASHA1_PSS,lp
                        1102 <EXPANSION BEGIN>
                        1102 jarl22 _esl_finalizeSigSignRSASHA1_PSS , lp 
00000412 bfff80ff*      1102 <EXPANSION END>
                        1103 --	    .ef
                        1104 .LDW65:
                        1105 --line374
                        1106 ..lin.C.3A.5C_ECU2.5CECU_Rivian_A1.5CTarget.5Crepo_projects.5CpFOTA.5CcL_LATEST.5Cmake.5Cobj.5CESLib_RSA_PSS_Sig.70::
                        1107 .LDWlin70:
00000416 44063f00       1108 	dispose	2,{r31},[lp]
                        1109 	.type	_esl_finalizeSigSignRSASHA1_PSS_DigestLengthSalt,@function
                        1110 	.size	_esl_finalizeSigSignRSASHA1_PSS_DigestLengthSalt,.-_esl_finalizeSigSignRSASHA1_PSS_DigestLengthSalt
                        1111 	.align	2
                        1112 .LDW75:
                        1113 
                        1114 --_workSpace	r6	param
                        1115 --_messageDigest	r7	param
                        1116 --_signatureSize	r8	param

                                                                      Page 21
                                                              C:\Users\nhuliyap\AppData\Local\Temp\gh_00005f41.s
                        1117 --_signature	r9	param
                        1118 
                        1119 	.section ".bss","awb"
                        1120 .L1844:
                        1121 	.type	.L1844,@object
                        1122 	.size	.L1844,0
                        1123 	.data
                        1124 	.section ".MSR_CODE","ax"
                        1125 	.align	2
                        1126 	.align	2
                        1127 ..gh.f.f.1.e.16:
                        1128 	.type	..gh.f.f.1.e.16,@object
                        1129 	.size	..gh.f.f.1.e.16,0
                        1130 	.global	_esl_finalizeSignRSASHA1_PSS
                        1131 _esl_finalizeSignRSASHA1_PSS:
0000041a 8e07e170       1132 	prepare	{r25,r26,r27,r28,r29,r31},7
0000041e 06e8           1133 	mov	r6,r29
00000420 07d0           1134 	mov	r7,r26
00000422 08c8           1135 	mov	r8,r25
00000424 09e0           1136 	mov	r9,r28
00000426 23df3500       1137 	ld.w	52[sp],r27
                        1138 --	    .bf
                        1139 .LDW85:
0000042a 23360800       1140 	movea	8,sp,r6
0000042e 003a           1141 	mov	0,r7
00000430 20461400       1142 	movea	20,zero,r8
                        1143 	jarl	_VStdLib_MemSet,lp
                        1143 <EXPANSION BEGIN>
                        1143 jarl22 _VStdLib_MemSet , lp 
00000434 80ff0000*      1143 <EXPANSION END>
                        1144 --line388
                        1145 ..lin.C.3A.5C_ECU2.5CECU_Rivian_A1.5CTarget.5Crepo_projects.5CpFOTA.5CcL_LATEST.5Cmake.5Cobj.5CESLib_RSA_PSS_Sig.71::
                        1146 .LDWlin71:
00000438 e0e9           1147 	cmp	zero,r29
0000043a d205*          1148 	be	.L1865
0000043c e0e1           1149 	cmp	zero,r28
0000043e b205*          1150 	be	.L1865
00000440 e0d9           1151 	cmp	zero,r27
00000442 da05*          1152 	bne	.L1864
                        1153 .L1865:
                        1154 --line389
                        1155 ..lin.C.3A.5C_ECU2.5CECU_Rivian_A1.5CTarget.5Crepo_projects.5CpFOTA.5CcL_LATEST.5Cmake.5Cobj.5CESLib_RSA_PSS_Sig.72::
                        1156 .LDWlin72:
00000444 20560320       1157 	movea	8195,zero,r10
00000448 4e06ff70       1158 	dispose	7,{r25,r26,r27,r28,r29,r31},[lp]
                        1159 .L1864:
                        1160 --line392
                        1161 ..lin.C.3A.5C_ECU2.5CECU_Rivian_A1.5CTarget.5Crepo_projects.5CpFOTA.5CcL_LATEST.5Cmake.5Cobj.5CESLib_RSA_PSS_Sig.73::
                        1162 .LDWlin73:
0000044c 1d30           1163 	mov	r29,r6
0000044e 203ec408       1164 	movea	2244,zero,r7
00000452 20460007       1165 	movea	1792,zero,r8
                        1166 	jarl	_esl_CheckWorkSpaceHeaderAndState,lp
                        1166 <EXPANSION BEGIN>
                        1166 jarl22 _esl_CheckWorkSpaceHeaderAndState , lp 
00000456 80ff0000*      1166 <EXPANSION END>
                        1167 --line395
                        1168 ..lin.C.3A.5C_ECU2.5CECU_Rivian_A1.5CTarget.5Crepo_projects.5CpFOTA.5CcL_LATEST.5Cmake.5Cobj.5CESLib_RSA_PSS_Sig.74::
                        1169 .LDWlin74:
0000045a e051           1170 	cmp	zero,r10
0000045c aa15*          1171 	bne	.L1862

                                                                      Page 22
                                                              C:\Users\nhuliyap\AppData\Local\Temp\gh_00005f41.s
                        1172 --line396
                        1173 ..lin.C.3A.5C_ECU2.5CECU_Rivian_A1.5CTarget.5Crepo_projects.5CpFOTA.5CcL_LATEST.5Cmake.5Cobj.5CESLib_RSA_PSS_Sig.75::
                        1174 .LDWlin75:
0000045e 1d30           1175 	mov	r29,r6
00000460 233e0800       1176 	movea	8,sp,r7
                        1177 	jarl	_esl_finalizeHashSignRSASHA1_PSS,lp
                        1177 <EXPANSION BEGIN>
                        1177 jarl22 _esl_finalizeHashSignRSASHA1_PSS , lp 
00000464 bffff6fe*      1177 <EXPANSION END>
                        1178 --line397
                        1179 ..lin.C.3A.5C_ECU2.5CECU_Rivian_A1.5CTarget.5Crepo_projects.5CpFOTA.5CcL_LATEST.5Cmake.5Cobj.5CESLib_RSA_PSS_Sig.76::
                        1180 .LDWlin76:
00000468 03f0           1181 	mov	sp,ep
0000046a 1d30           1182 	mov	r29,r6
0000046c 1a40           1183 	mov	r26,r8
0000046e 1948           1184 	mov	r25,r9
00000470 01e5           1185 	sst.w	r28,0[ep]
00000472 03dd           1186 	sst.w	r27,4[ep]
00000474 233e0800       1187 	movea	8,sp,r7
                        1188 	jarl	_esl_finalizeSigSignRSASHA1_PSS,lp
                        1188 <EXPANSION BEGIN>
                        1188 jarl22 _esl_finalizeSigSignRSASHA1_PSS , lp 
00000478 bfff1aff*      1188 <EXPANSION END>
0000047c 4e06ff70       1189 	dispose	7,{r25,r26,r27,r28,r29,r31},[lp]
                        1190 .L1862:
                        1191 --	    .ef
                        1192 .LDW95:
                        1193 --line399
                        1194 ..lin.C.3A.5C_ECU2.5CECU_Rivian_A1.5CTarget.5Crepo_projects.5CpFOTA.5CcL_LATEST.5Cmake.5Cobj.5CESLib_RSA_PSS_Sig.77::
                        1195 .LDWlin77:
00000480 4e06ff70       1196 	dispose	7,{r25,r26,r27,r28,r29,r31},[lp]
                        1197 	.type	_esl_finalizeSignRSASHA1_PSS,@function
                        1198 	.size	_esl_finalizeSignRSASHA1_PSS,.-_esl_finalizeSignRSASHA1_PSS
                        1199 	.align	2
                        1200 .LDW06:
                        1201 --_returnValue	r10	local
                        1202 --_hash	8[sp]	local
                        1203 
                        1204 --_workSpace	r29	param
                        1205 --_saltSize	r26	param
                        1206 --_salt	r25	param
                        1207 --_signatureSize	r28	param
                        1208 --_signature	r27	param
                        1209 
                        1210 	.section ".bss","awb"
                        1211 .L1944:
                        1212 	.type	.L1944,@object
                        1213 	.size	.L1944,0
                        1214 	.data
                        1215 	.section ".MSR_CODE","ax"
                        1216 	.align	2
                        1217 	.align	2
                        1218 ..gh.f.f.1.e.17:
                        1219 	.type	..gh.f.f.1.e.17,@object
                        1220 	.size	..gh.f.f.1.e.17,0
                        1221 	.global	_esl_finalizeSignRSASHA1_PSS_NoSalt
                        1222 _esl_finalizeSignRSASHA1_PSS_NoSalt:
00000484 82072100       1223 	prepare	{r31},1
                        1224 --	    .bf
                        1225 .LDW16:
00000488 0748           1226 	mov	r7,r9

                                                                      Page 23
                                                              C:\Users\nhuliyap\AppData\Local\Temp\gh_00005f41.s
0000048a 63470100       1227 	st.w	r8,0[sp]
0000048e 003a           1228 	mov	0,r7
00000490 0740           1229 	mov	r7,r8
                        1230 	jarl	_esl_finalizeSignRSASHA1_PSS,lp
                        1230 <EXPANSION BEGIN>
                        1230 jarl22 _esl_finalizeSignRSASHA1_PSS , lp 
00000492 bfff88ff*      1230 <EXPANSION END>
                        1231 --	    .ef
                        1232 .LDW26:
                        1233 --line407
                        1234 ..lin.C.3A.5C_ECU2.5CECU_Rivian_A1.5CTarget.5Crepo_projects.5CpFOTA.5CcL_LATEST.5Cmake.5Cobj.5CESLib_RSA_PSS_Sig.78::
                        1235 .LDWlin78:
00000496 42063f00       1236 	dispose	1,{r31},[lp]
                        1237 	.type	_esl_finalizeSignRSASHA1_PSS_NoSalt,@function
                        1238 	.size	_esl_finalizeSignRSASHA1_PSS_NoSalt,.-_esl_finalizeSignRSASHA1_PSS_NoSalt
                        1239 	.align	2
                        1240 .LDW36:
                        1241 
                        1242 --_workSpace	r6	param
                        1243 --_signatureSize	r7	param
                        1244 --_signature	r8	param
                        1245 
                        1246 	.section ".bss","awb"
                        1247 .L2052:
                        1248 	.type	.L2052,@object
                        1249 	.size	.L2052,0
                        1250 	.data
                        1251 	.section ".MSR_CODE","ax"
                        1252 	.align	2
                        1253 	.align	2
                        1254 ..gh.f.f.1.e.18:
                        1255 	.type	..gh.f.f.1.e.18,@object
                        1256 	.size	..gh.f.f.1.e.18,0
                        1257 	.global	_esl_finalizeSignRSASHA1_PSS_DigestLengthSalt
                        1258 _esl_finalizeSignRSASHA1_PSS_DigestLengthSalt:
0000049a 82072100       1259 	prepare	{r31},1
                        1260 --	    .bf
                        1261 .LDW46:
0000049e 0748           1262 	mov	r7,r9
000004a0 63470100       1263 	st.w	r8,0[sp]
000004a4 203e1400       1264 	movea	20,zero,r7
000004a8 0042           1265 	mov	0,r8
                        1266 	jarl	_esl_finalizeSignRSASHA1_PSS,lp
                        1266 <EXPANSION BEGIN>
                        1266 jarl22 _esl_finalizeSignRSASHA1_PSS , lp 
000004aa bfff70ff*      1266 <EXPANSION END>
                        1267 --	    .ef
                        1268 .LDW56:
                        1269 --line416
                        1270 ..lin.C.3A.5C_ECU2.5CECU_Rivian_A1.5CTarget.5Crepo_projects.5CpFOTA.5CcL_LATEST.5Cmake.5Cobj.5CESLib_RSA_PSS_Sig.79::
                        1271 .LDWlin79:
000004ae 42063f00       1272 	dispose	1,{r31},[lp]
                        1273 	.type	_esl_finalizeSignRSASHA1_PSS_DigestLengthSalt,@function
                        1274 	.size	_esl_finalizeSignRSASHA1_PSS_DigestLengthSalt,.-_esl_finalizeSignRSASHA1_PSS_DigestLengthSalt
                        1275 	.align	2
                        1276 .LDW66:
                        1277 
                        1278 --_workSpace	r6	param
                        1279 --_signatureSize	r7	param
                        1280 --_signature	r8	param
                        1281 

                                                                      Page 24
                                                              C:\Users\nhuliyap\AppData\Local\Temp\gh_00005f41.s
                        1282 	.section ".bss","awb"
                        1283 .L2100:
                        1284 	.type	.L2100,@object
                        1285 	.size	.L2100,0
                        1286 	.data
                        1287 	.section ".MSR_CODE","ax"
                        1288 	.align	2
                        1289 	.align	2
                        1290 ..gh.f.f.1.e.19:
                        1291 	.type	..gh.f.f.1.e.19,@object
                        1292 	.size	..gh.f.f.1.e.19,0
                        1293 	.global	_esl_initSignRSASHA256_PSS
                        1294 _esl_initSignRSASHA256_PSS:
000004b2 8407e170       1295 	prepare	{r25,r26,r27,r28,r29,r31},2
000004b6 23cf2100       1296 	ld.w	32[sp],r25
                        1297 --	    .bf
                        1298 .LDW76:
000004ba e031           1299 	cmp	zero,r6
000004bc da05*          1300 	bne	.L2120
                        1301 --line431
                        1302 ..lin.C.3A.5C_ECU2.5CECU_Rivian_A1.5CTarget.5Crepo_projects.5CpFOTA.5CcL_LATEST.5Cmake.5Cobj.5CESLib_RSA_PSS_Sig.80::
                        1303 .LDWlin80:
000004be 20560320       1304 	movea	8195,zero,r10
000004c2 4406ff70       1305 	dispose	2,{r25,r26,r27,r28,r29,r31},[lp]
                        1306 .L2120:
000004c6 07e0           1307 	mov	r7,r28
000004c8 06e8           1308 	mov	r6,r29
000004ca 08d8           1309 	mov	r8,r27
000004cc 09d0           1310 	mov	r9,r26
                        1311 --line433
                        1312 ..lin.C.3A.5C_ECU2.5CECU_Rivian_A1.5CTarget.5Crepo_projects.5CpFOTA.5CcL_LATEST.5Cmake.5Cobj.5CESLib_RSA_PSS_Sig.81::
                        1313 .LDWlin81:
000004ce 203ec408       1314 	movea	2244,zero,r7
                        1315 	jarl	_esl_CheckWorkSpaceHeader,lp
                        1315 <EXPANSION BEGIN>
                        1315 jarl22 _esl_CheckWorkSpaceHeader , lp 
000004d2 80ff0000*      1315 <EXPANSION END>
000004d6 e051           1316 	cmp	zero,r10
000004d8 da15*          1317 	bne	.L2118
                        1318 --line437
                        1319 ..lin.C.3A.5C_ECU2.5CECU_Rivian_A1.5CTarget.5Crepo_projects.5CpFOTA.5CcL_LATEST.5Cmake.5Cobj.5CESLib_RSA_PSS_Sig.82::
                        1320 .LDWlin82:
000004da 3d470900       1321 	ld.w	8[r29],r8
000004de 204e7000       1322 	movea	112,zero,r9
000004e2 7d4f5108       1323 	st.w	r9,2128[r29]
000004e6 03f0           1324 	mov	sp,ep
000004e8 7d475908       1325 	st.w	r8,2136[r29]
000004ec 029a           1326 	mov	2,r19
000004ee 1d30           1327 	mov	r29,r6
000004f0 1c38           1328 	mov	r28,r7
000004f2 1b40           1329 	mov	r27,r8
000004f4 1a48           1330 	mov	r26,r9
000004f6 01cd           1331 	sst.w	r25,0[ep]
000004f8 039d           1332 	sst.w	r19,4[ep]
                        1333 	jarl	_esl_initSignRSA_PSS,lp
                        1333 <EXPANSION BEGIN>
                        1333 jarl22 _esl_initSignRSA_PSS , lp 
000004fa bfff06fc*      1333 <EXPANSION END>
000004fe 4406ff70       1334 	dispose	2,{r25,r26,r27,r28,r29,r31},[lp]
                        1335 .L2118:
                        1336 --	    .ef

                                                                      Page 25
                                                              C:\Users\nhuliyap\AppData\Local\Temp\gh_00005f41.s
                        1337 .LDW86:
                        1338 --line441
                        1339 ..lin.C.3A.5C_ECU2.5CECU_Rivian_A1.5CTarget.5Crepo_projects.5CpFOTA.5CcL_LATEST.5Cmake.5Cobj.5CESLib_RSA_PSS_Sig.83::
                        1340 .LDWlin83:
00000502 4406ff70       1341 	dispose	2,{r25,r26,r27,r28,r29,r31},[lp]
                        1342 	.type	_esl_initSignRSASHA256_PSS,@function
                        1343 	.size	_esl_initSignRSASHA256_PSS,.-_esl_initSignRSASHA256_PSS
                        1344 	.align	2
                        1345 .LDW96:
                        1346 --_returnValue	r10	local
                        1347 
                        1348 --_workSpace	r29	param
                        1349 --_keyPairModuleSize	r28	param
                        1350 --_keyPairModule	r27	param
                        1351 --_privateKeyExponentSize	r26	param
                        1352 --_privateKeyExponent	r25	param
                        1353 
                        1354 	.section ".bss","awb"
                        1355 .L2172:
                        1356 	.type	.L2172,@object
                        1357 	.size	.L2172,0
                        1358 	.data
                        1359 	.section ".MSR_CODE","ax"
                        1360 	.align	2
                        1361 	.align	2
                        1362 ..gh.f.f.1.e.20:
                        1363 	.type	..gh.f.f.1.e.20,@object
                        1364 	.size	..gh.f.f.1.e.20,0
                        1365 	.global	_esl_updateSignRSASHA256_PSS
                        1366 _esl_updateSignRSASHA256_PSS:
00000506 8007e110       1367 	prepare	{r27,r28,r29,r31},0
                        1368 --	    .bf
                        1369 .LDW07:
0000050a e031           1370 	cmp	zero,r6
0000050c da05*          1371 	bne	.L2233
                        1372 --line451
                        1373 ..lin.C.3A.5C_ECU2.5CECU_Rivian_A1.5CTarget.5Crepo_projects.5CpFOTA.5CcL_LATEST.5Cmake.5Cobj.5CESLib_RSA_PSS_Sig.84::
                        1374 .LDWlin84:
0000050e 20560320       1375 	movea	8195,zero,r10
00000512 4006ff10       1376 	dispose	0,{r27,r28,r29,r31},[lp]
                        1377 .L2233:
00000516 07e0           1378 	mov	r7,r28
00000518 08d8           1379 	mov	r8,r27
0000051a 06e8           1380 	mov	r6,r29
                        1381 --line454
                        1382 ..lin.C.3A.5C_ECU2.5CECU_Rivian_A1.5CTarget.5Crepo_projects.5CpFOTA.5CcL_LATEST.5Cmake.5Cobj.5CESLib_RSA_PSS_Sig.85::
                        1383 .LDWlin85:
0000051c 203ec408       1384 	movea	2244,zero,r7
00000520 20460007       1385 	movea	1792,zero,r8
                        1386 	jarl	_esl_CheckWorkSpaceHeaderAndState,lp
                        1386 <EXPANSION BEGIN>
                        1386 jarl22 _esl_CheckWorkSpaceHeaderAndState , lp 
00000524 80ff0000*      1386 <EXPANSION END>
                        1387 --line457
                        1388 ..lin.C.3A.5C_ECU2.5CECU_Rivian_A1.5CTarget.5Crepo_projects.5CpFOTA.5CcL_LATEST.5Cmake.5Cobj.5CESLib_RSA_PSS_Sig.86::
                        1389 .LDWlin86:
00000528 e051           1390 	cmp	zero,r10
0000052a 9a0d*          1391 	bne	.L2231
                        1392 --line458
                        1393 ..lin.C.3A.5C_ECU2.5CECU_Rivian_A1.5CTarget.5Crepo_projects.5CpFOTA.5CcL_LATEST.5Cmake.5Cobj.5CESLib_RSA_PSS_Sig.87::
                        1394 .LDWlin87:

                                                                      Page 26
                                                              C:\Users\nhuliyap\AppData\Local\Temp\gh_00005f41.s
0000052c 1d30           1395 	mov	r29,r6
0000052e 1c38           1396 	mov	r28,r7
00000530 1b40           1397 	mov	r27,r8
00000532 024a           1398 	mov	2,r9
                        1399 	jarl	_esl_updateSignRSA_PSS,lp
                        1399 <EXPANSION BEGIN>
                        1399 jarl22 _esl_updateSignRSA_PSS , lp 
00000534 bfff34fc*      1399 <EXPANSION END>
                        1400 --line459
                        1401 ..lin.C.3A.5C_ECU2.5CECU_Rivian_A1.5CTarget.5Crepo_projects.5CpFOTA.5CcL_LATEST.5Cmake.5Cobj.5CESLib_RSA_PSS_Sig.88::
                        1402 .LDWlin88:
00000538 4006ff10       1403 	dispose	0,{r27,r28,r29,r31},[lp]
                        1404 .L2231:
                        1405 --	    .ef
                        1406 .LDW17:
                        1407 --line463
                        1408 ..lin.C.3A.5C_ECU2.5CECU_Rivian_A1.5CTarget.5Crepo_projects.5CpFOTA.5CcL_LATEST.5Cmake.5Cobj.5CESLib_RSA_PSS_Sig.89::
                        1409 .LDWlin89:
0000053c 4006ff10       1410 	dispose	0,{r27,r28,r29,r31},[lp]
                        1411 	.type	_esl_updateSignRSASHA256_PSS,@function
                        1412 	.size	_esl_updateSignRSASHA256_PSS,.-_esl_updateSignRSASHA256_PSS
                        1413 	.align	2
                        1414 .LDW27:
                        1415 --_returnValue	r10	local
                        1416 
                        1417 --_workSpace	r29	param
                        1418 --_inputSize	r28	param
                        1419 --_input	r27	param
                        1420 
                        1421 	.section ".bss","awb"
                        1422 .L2312:
                        1423 	.type	.L2312,@object
                        1424 	.size	.L2312,0
                        1425 	.data
                        1426 	.section ".MSR_CODE","ax"
                        1427 	.align	2
                        1428 	.align	2
                        1429 ..gh.f.f.1.e.21:
                        1430 	.type	..gh.f.f.1.e.21,@object
                        1431 	.size	..gh.f.f.1.e.21,0
                        1432 	.global	_esl_finalizeHashSignRSASHA256_PSS
                        1433 _esl_finalizeHashSignRSASHA256_PSS:
00000540 8007e110       1434 	prepare	{r27,r28,r29,r31},0
00000544 06e0           1435 	mov	r6,r28
00000546 07d8           1436 	mov	r7,r27
                        1437 --	    .bf
                        1438 .LDW37:
00000548 e031           1439 	cmp	zero,r6
0000054a b205*          1440 	be	.L2377
0000054c e039           1441 	cmp	zero,r7
0000054e ca05*          1442 	bne	.L2376
                        1443 .L2377:
                        1444 --line471
                        1445 ..lin.C.3A.5C_ECU2.5CECU_Rivian_A1.5CTarget.5Crepo_projects.5CpFOTA.5CcL_LATEST.5Cmake.5Cobj.5CESLib_RSA_PSS_Sig.90::
                        1446 .LDWlin90:
00000550 20ee0320       1447 	movea	8195,zero,r29
00000554 f50d*          1448 	br	.L2380
                        1449 .L2376:
                        1450 --line474
                        1451 ..lin.C.3A.5C_ECU2.5CECU_Rivian_A1.5CTarget.5Crepo_projects.5CpFOTA.5CcL_LATEST.5Cmake.5Cobj.5CESLib_RSA_PSS_Sig.91::
                        1452 .LDWlin91:

                                                                      Page 27
                                                              C:\Users\nhuliyap\AppData\Local\Temp\gh_00005f41.s
00000556 203ec408       1453 	movea	2244,zero,r7
0000055a 20460007       1454 	movea	1792,zero,r8
                        1455 	jarl	_esl_CheckWorkSpaceHeaderAndState,lp
                        1455 <EXPANSION BEGIN>
                        1455 jarl22 _esl_CheckWorkSpaceHeaderAndState , lp 
0000055e 80ff0000*      1455 <EXPANSION END>
00000562 0ae8           1456 	mov	r10,r29
                        1457 --line477
                        1458 ..lin.C.3A.5C_ECU2.5CECU_Rivian_A1.5CTarget.5Crepo_projects.5CpFOTA.5CcL_LATEST.5Cmake.5Cobj.5CESLib_RSA_PSS_Sig.92::
                        1459 .LDWlin92:
00000564 e051           1460 	cmp	zero,r10
00000566 ea05*          1461 	bne	.L2380
                        1462 --line478
                        1463 ..lin.C.3A.5C_ECU2.5CECU_Rivian_A1.5CTarget.5Crepo_projects.5CpFOTA.5CcL_LATEST.5Cmake.5Cobj.5CESLib_RSA_PSS_Sig.93::
                        1464 .LDWlin93:
00000568 1c30           1465 	mov	r28,r6
0000056a 1b38           1466 	mov	r27,r7
0000056c 0242           1467 	mov	2,r8
                        1468 	jarl	_esl_finalizeHashSignRSA_PSS,lp
                        1468 <EXPANSION BEGIN>
                        1468 jarl22 _esl_finalizeHashSignRSA_PSS , lp 
0000056e bfff28fc*      1468 <EXPANSION END>
                        1469 .L2380:
                        1470 --line480
                        1471 ..lin.C.3A.5C_ECU2.5CECU_Rivian_A1.5CTarget.5Crepo_projects.5CpFOTA.5CcL_LATEST.5Cmake.5Cobj.5CESLib_RSA_PSS_Sig.94::
                        1472 .LDWlin94:
00000572 1d50           1473 	mov	r29,r10
                        1474 --	    .ef
                        1475 .LDW47:
00000574 4006ff10       1476 	dispose	0,{r27,r28,r29,r31},[lp]
                        1477 	.type	_esl_finalizeHashSignRSASHA256_PSS,@function
                        1478 	.size	_esl_finalizeHashSignRSASHA256_PSS,.-_esl_finalizeHashSignRSASHA256_PSS
                        1479 	.align	2
                        1480 .LDW57:
                        1481 --_returnValue	r29	local
                        1482 
                        1483 --_workSpace	r28	param
                        1484 --_messageDigest	r27	param
                        1485 
                        1486 	.section ".bss","awb"
                        1487 .L2449:
                        1488 	.type	.L2449,@object
                        1489 	.size	.L2449,0
                        1490 	.data
                        1491 	.section ".MSR_CODE","ax"
                        1492 	.align	2
                        1493 	.align	2
                        1494 ..gh.f.f.1.e.22:
                        1495 	.type	..gh.f.f.1.e.22,@object
                        1496 	.size	..gh.f.f.1.e.22,0
                        1497 	.global	_esl_finalizeSigSignRSASHA256_PSS
                        1498 _esl_finalizeSigSignRSASHA256_PSS:
00000578 8807e3f0       1499 	prepare	{r24,r25,r26,r27,r28,r29,r31},4,sp
0000057c 06e8           1500 	mov	r6,r29
0000057e 07e0           1501 	mov	r7,r28
00000580 08c8           1502 	mov	r8,r25
00000582 09c0           1503 	mov	r9,r24
00000584 16dd           1504 	sld.w	44[ep],r27
00000586 18d5           1505 	sld.w	48[ep],r26
                        1506 --	    .bf
                        1507 .LDW67:

                                                                      Page 28
                                                              C:\Users\nhuliyap\AppData\Local\Temp\gh_00005f41.s
00000588 e031           1508 	cmp	zero,r6
0000058a f205*          1509 	be	.L2518
0000058c e0d9           1510 	cmp	zero,r27
0000058e d205*          1511 	be	.L2518
00000590 e0d1           1512 	cmp	zero,r26
00000592 b205*          1513 	be	.L2518
00000594 e039           1514 	cmp	zero,r7
00000596 da05*          1515 	bne	.L2517
                        1516 .L2518:
                        1517 --line492
                        1518 ..lin.C.3A.5C_ECU2.5CECU_Rivian_A1.5CTarget.5Crepo_projects.5CpFOTA.5CcL_LATEST.5Cmake.5Cobj.5CESLib_RSA_PSS_Sig.95::
                        1519 .LDWlin95:
00000598 20560320       1520 	movea	8195,zero,r10
0000059c 4806fff0       1521 	dispose	4,{r24,r25,r26,r27,r28,r29,r31},[lp]
                        1522 .L2517:
                        1523 --line495
                        1524 ..lin.C.3A.5C_ECU2.5CECU_Rivian_A1.5CTarget.5Crepo_projects.5CpFOTA.5CcL_LATEST.5Cmake.5Cobj.5CESLib_RSA_PSS_Sig.96::
                        1525 .LDWlin96:
000005a0 203ec408       1526 	movea	2244,zero,r7
000005a4 20460007       1527 	movea	1792,zero,r8
                        1528 	jarl	_esl_CheckWorkSpaceHeaderAndState,lp
                        1528 <EXPANSION BEGIN>
                        1528 jarl22 _esl_CheckWorkSpaceHeaderAndState , lp 
000005a8 80ff0000*      1528 <EXPANSION END>
                        1529 --line498
                        1530 ..lin.C.3A.5C_ECU2.5CECU_Rivian_A1.5CTarget.5Crepo_projects.5CpFOTA.5CcL_LATEST.5Cmake.5Cobj.5CESLib_RSA_PSS_Sig.97::
                        1531 .LDWlin97:
000005ac e051           1532 	cmp	zero,r10
000005ae aa15*          1533 	bne	.L2515
                        1534 --line499
                        1535 ..lin.C.3A.5C_ECU2.5CECU_Rivian_A1.5CTarget.5Crepo_projects.5CpFOTA.5CcL_LATEST.5Cmake.5Cobj.5CESLib_RSA_PSS_Sig.98::
                        1536 .LDWlin98:
000005b0 1d30           1537 	mov	r29,r6
000005b2 1c38           1538 	mov	r28,r7
000005b4 1948           1539 	mov	r25,r9
000005b6 20462000       1540 	movea	32,zero,r8
000005ba 0262           1541 	mov	2,r12
000005bc 1a68           1542 	mov	r26,r13
000005be 1b70           1543 	mov	r27,r14
000005c0 1878           1544 	mov	r24,r15
000005c2 031e1000       1545 	addi	16,sp,sp
000005c6 ec476079       1546 	pushsp	r12-r15
                        1547 	jarl	_esl_finalizeSigSignRSA_PSS,lp
                        1547 <EXPANSION BEGIN>
                        1547 jarl22 _esl_finalizeSigSignRSA_PSS , lp 
000005ca bfffd6fb*      1547 <EXPANSION END>
000005ce 4806fff0       1548 	dispose	4,{r24,r25,r26,r27,r28,r29,r31},[lp]
                        1549 .L2515:
                        1550 --	    .ef
                        1551 .LDW77:
                        1552 --line502
                        1553 ..lin.C.3A.5C_ECU2.5CECU_Rivian_A1.5CTarget.5Crepo_projects.5CpFOTA.5CcL_LATEST.5Cmake.5Cobj.5CESLib_RSA_PSS_Sig.99::
                        1554 .LDWlin99:
000005d2 4806fff0       1555 	dispose	4,{r24,r25,r26,r27,r28,r29,r31},[lp]
                        1556 	.type	_esl_finalizeSigSignRSASHA256_PSS,@function
                        1557 	.size	_esl_finalizeSigSignRSASHA256_PSS,.-_esl_finalizeSigSignRSASHA256_PSS
                        1558 	.align	2
                        1559 .LDW87:
                        1560 --_returnValue	r10	local
                        1561 
                        1562 --_workSpace	r29	param

                                                                      Page 29
                                                              C:\Users\nhuliyap\AppData\Local\Temp\gh_00005f41.s
                        1563 --_messageDigest	r28	param
                        1564 --_saltSize	r25	param
                        1565 --_salt	r24	param
                        1566 --_signatureSize	r27	param
                        1567 --_signature	r26	param
                        1568 
                        1569 	.section ".bss","awb"
                        1570 .L2607:
                        1571 	.type	.L2607,@object
                        1572 	.size	.L2607,0
                        1573 	.data
                        1574 	.section ".MSR_CODE","ax"
                        1575 	.align	2
                        1576 	.align	2
                        1577 ..gh.f.f.1.e.23:
                        1578 	.type	..gh.f.f.1.e.23,@object
                        1579 	.size	..gh.f.f.1.e.23,0
                        1580 	.global	_esl_finalizeSigSignRSASHA256_PSS_NoSalt
                        1581 _esl_finalizeSigSignRSASHA256_PSS_NoSalt:
000005d6 84072300       1582 	prepare	{r31},2,sp
                        1583 --	    .bf
                        1584 .LDW97:
000005da 0145           1585 	sst.w	r8,0[ep]
000005dc 034d           1586 	sst.w	r9,4[ep]
000005de 0042           1587 	mov	0,r8
000005e0 0848           1588 	mov	r8,r9
                        1589 	jarl	_esl_finalizeSigSignRSASHA256_PSS,lp
                        1589 <EXPANSION BEGIN>
                        1589 jarl22 _esl_finalizeSigSignRSASHA256_PSS , lp 
000005e2 bfff96ff*      1589 <EXPANSION END>
                        1590 --	    .ef
                        1591 .LDW08:
                        1592 --line512
                        1593 ..lin.C.3A.5C_ECU2.5CECU_Rivian_A1.5CTarget.5Crepo_projects.5CpFOTA.5CcL_LATEST.5Cmake.5Cobj.5CESLib_RSA_PSS_Sig.100::
                        1594 .LDWlin100:
000005e6 44063f00       1595 	dispose	2,{r31},[lp]
                        1596 	.type	_esl_finalizeSigSignRSASHA256_PSS_NoSalt,@function
                        1597 	.size	_esl_finalizeSigSignRSASHA256_PSS_NoSalt,.-_esl_finalizeSigSignRSASHA256_PSS_NoSalt
                        1598 	.align	2
                        1599 .LDW18:
                        1600 
                        1601 --_workSpace	r6	param
                        1602 --_messageDigest	r7	param
                        1603 --_signatureSize	r8	param
                        1604 --_signature	r9	param
                        1605 
                        1606 	.section ".bss","awb"
                        1607 .L2724:
                        1608 	.type	.L2724,@object
                        1609 	.size	.L2724,0
                        1610 	.data
                        1611 	.section ".MSR_CODE","ax"
                        1612 	.align	2
                        1613 	.align	2
                        1614 ..gh.f.f.1.e.24:
                        1615 	.type	..gh.f.f.1.e.24,@object
                        1616 	.size	..gh.f.f.1.e.24,0
                        1617 	.global	_esl_finalizeSigSignRSASHA256_PSS_DigestLengthSalt
                        1618 _esl_finalizeSigSignRSASHA256_PSS_DigestLengthSalt:
000005ea 84072300       1619 	prepare	{r31},2,sp
                        1620 --	    .bf

                                                                      Page 30
                                                              C:\Users\nhuliyap\AppData\Local\Temp\gh_00005f41.s
                        1621 .LDW28:
000005ee 0145           1622 	sst.w	r8,0[ep]
000005f0 034d           1623 	sst.w	r9,4[ep]
000005f2 20462000       1624 	movea	32,zero,r8
000005f6 004a           1625 	mov	0,r9
                        1626 	jarl	_esl_finalizeSigSignRSASHA256_PSS,lp
                        1626 <EXPANSION BEGIN>
                        1626 jarl22 _esl_finalizeSigSignRSASHA256_PSS , lp 
000005f8 bfff80ff*      1626 <EXPANSION END>
                        1627 --	    .ef
                        1628 .LDW38:
                        1629 --line523
                        1630 ..lin.C.3A.5C_ECU2.5CECU_Rivian_A1.5CTarget.5Crepo_projects.5CpFOTA.5CcL_LATEST.5Cmake.5Cobj.5CESLib_RSA_PSS_Sig.101::
                        1631 .LDWlin101:
000005fc 44063f00       1632 	dispose	2,{r31},[lp]
                        1633 	.type	_esl_finalizeSigSignRSASHA256_PSS_DigestLengthSalt,@function
                        1634 	.size	_esl_finalizeSigSignRSASHA256_PSS_DigestLengthSalt,.-_esl_finalizeSigSignRSASHA256_PSS_DigestLengthSalt
                        1635 	.align	2
                        1636 .LDW48:
                        1637 
                        1638 --_workSpace	r6	param
                        1639 --_messageDigest	r7	param
                        1640 --_signatureSize	r8	param
                        1641 --_signature	r9	param
                        1642 
                        1643 	.section ".bss","awb"
                        1644 .L2772:
                        1645 	.type	.L2772,@object
                        1646 	.size	.L2772,0
                        1647 	.data
                        1648 	.section ".MSR_CODE","ax"
                        1649 	.align	2
                        1650 	.align	2
                        1651 ..gh.f.f.1.e.25:
                        1652 	.type	..gh.f.f.1.e.25,@object
                        1653 	.size	..gh.f.f.1.e.25,0
                        1654 	.global	_esl_finalizeSignRSASHA256_PSS
                        1655 _esl_finalizeSignRSASHA256_PSS:
00000600 9407e170       1656 	prepare	{r25,r26,r27,r28,r29,r31},10
00000604 06e8           1657 	mov	r6,r29
00000606 07d0           1658 	mov	r7,r26
00000608 08c8           1659 	mov	r8,r25
0000060a 09e0           1660 	mov	r9,r28
0000060c 23df4100       1661 	ld.w	64[sp],r27
                        1662 --	    .bf
                        1663 .LDW58:
00000610 23360800       1664 	movea	8,sp,r6
00000614 003a           1665 	mov	0,r7
00000616 20462000       1666 	movea	32,zero,r8
                        1667 	jarl	_VStdLib_MemSet,lp
                        1667 <EXPANSION BEGIN>
                        1667 jarl22 _VStdLib_MemSet , lp 
0000061a 80ff0000*      1667 <EXPANSION END>
                        1668 --line537
                        1669 ..lin.C.3A.5C_ECU2.5CECU_Rivian_A1.5CTarget.5Crepo_projects.5CpFOTA.5CcL_LATEST.5Cmake.5Cobj.5CESLib_RSA_PSS_Sig.102::
                        1670 .LDWlin102:
0000061e e0e9           1671 	cmp	zero,r29
00000620 d205*          1672 	be	.L2793
00000622 e0e1           1673 	cmp	zero,r28
00000624 b205*          1674 	be	.L2793
00000626 e0d9           1675 	cmp	zero,r27

                                                                      Page 31
                                                              C:\Users\nhuliyap\AppData\Local\Temp\gh_00005f41.s
00000628 da05*          1676 	bne	.L2792
                        1677 .L2793:
                        1678 --line538
                        1679 ..lin.C.3A.5C_ECU2.5CECU_Rivian_A1.5CTarget.5Crepo_projects.5CpFOTA.5CcL_LATEST.5Cmake.5Cobj.5CESLib_RSA_PSS_Sig.103::
                        1680 .LDWlin103:
0000062a 20560320       1681 	movea	8195,zero,r10
0000062e 5406ff70       1682 	dispose	10,{r25,r26,r27,r28,r29,r31},[lp]
                        1683 .L2792:
                        1684 --line541
                        1685 ..lin.C.3A.5C_ECU2.5CECU_Rivian_A1.5CTarget.5Crepo_projects.5CpFOTA.5CcL_LATEST.5Cmake.5Cobj.5CESLib_RSA_PSS_Sig.104::
                        1686 .LDWlin104:
00000632 1d30           1687 	mov	r29,r6
00000634 203ec408       1688 	movea	2244,zero,r7
00000638 20460007       1689 	movea	1792,zero,r8
                        1690 	jarl	_esl_CheckWorkSpaceHeaderAndState,lp
                        1690 <EXPANSION BEGIN>
                        1690 jarl22 _esl_CheckWorkSpaceHeaderAndState , lp 
0000063c 80ff0000*      1690 <EXPANSION END>
                        1691 --line544
                        1692 ..lin.C.3A.5C_ECU2.5CECU_Rivian_A1.5CTarget.5Crepo_projects.5CpFOTA.5CcL_LATEST.5Cmake.5Cobj.5CESLib_RSA_PSS_Sig.105::
                        1693 .LDWlin105:
00000640 e051           1694 	cmp	zero,r10
00000642 aa15*          1695 	bne	.L2790
                        1696 --line545
                        1697 ..lin.C.3A.5C_ECU2.5CECU_Rivian_A1.5CTarget.5Crepo_projects.5CpFOTA.5CcL_LATEST.5Cmake.5Cobj.5CESLib_RSA_PSS_Sig.106::
                        1698 .LDWlin106:
00000644 1d30           1699 	mov	r29,r6
00000646 233e0800       1700 	movea	8,sp,r7
                        1701 	jarl	_esl_finalizeHashSignRSASHA256_PSS,lp
                        1701 <EXPANSION BEGIN>
                        1701 jarl22 _esl_finalizeHashSignRSASHA256_PSS , lp 
0000064a bffff6fe*      1701 <EXPANSION END>
                        1702 --line546
                        1703 ..lin.C.3A.5C_ECU2.5CECU_Rivian_A1.5CTarget.5Crepo_projects.5CpFOTA.5CcL_LATEST.5Cmake.5Cobj.5CESLib_RSA_PSS_Sig.107::
                        1704 .LDWlin107:
0000064e 03f0           1705 	mov	sp,ep
00000650 1d30           1706 	mov	r29,r6
00000652 1a40           1707 	mov	r26,r8
00000654 1948           1708 	mov	r25,r9
00000656 01e5           1709 	sst.w	r28,0[ep]
00000658 03dd           1710 	sst.w	r27,4[ep]
0000065a 233e0800       1711 	movea	8,sp,r7
                        1712 	jarl	_esl_finalizeSigSignRSASHA256_PSS,lp
                        1712 <EXPANSION BEGIN>
                        1712 jarl22 _esl_finalizeSigSignRSASHA256_PSS , lp 
0000065e bfff1aff*      1712 <EXPANSION END>
00000662 5406ff70       1713 	dispose	10,{r25,r26,r27,r28,r29,r31},[lp]
                        1714 .L2790:
                        1715 --	    .ef
                        1716 .LDW68:
                        1717 --line549
                        1718 ..lin.C.3A.5C_ECU2.5CECU_Rivian_A1.5CTarget.5Crepo_projects.5CpFOTA.5CcL_LATEST.5Cmake.5Cobj.5CESLib_RSA_PSS_Sig.108::
                        1719 .LDWlin108:
00000666 5406ff70       1720 	dispose	10,{r25,r26,r27,r28,r29,r31},[lp]
                        1721 	.type	_esl_finalizeSignRSASHA256_PSS,@function
                        1722 	.size	_esl_finalizeSignRSASHA256_PSS,.-_esl_finalizeSignRSASHA256_PSS
                        1723 	.align	2
                        1724 .LDW78:
                        1725 --_returnValue	r10	local
                        1726 --_hash	8[sp]	local
                        1727 

                                                                      Page 32
                                                              C:\Users\nhuliyap\AppData\Local\Temp\gh_00005f41.s
                        1728 --_workSpace	r29	param
                        1729 --_saltSize	r26	param
                        1730 --_salt	r25	param
                        1731 --_signatureSize	r28	param
                        1732 --_signature	r27	param
                        1733 
                        1734 	.section ".bss","awb"
                        1735 .L2872:
                        1736 	.type	.L2872,@object
                        1737 	.size	.L2872,0
                        1738 	.data
                        1739 	.section ".MSR_CODE","ax"
                        1740 	.align	2
                        1741 	.align	2
                        1742 ..gh.f.f.1.e.26:
                        1743 	.type	..gh.f.f.1.e.26,@object
                        1744 	.size	..gh.f.f.1.e.26,0
                        1745 	.global	_esl_finalizeSignRSASHA256_PSS_NoSalt
                        1746 _esl_finalizeSignRSASHA256_PSS_NoSalt:
0000066a 82072100       1747 	prepare	{r31},1
                        1748 --	    .bf
                        1749 .LDW88:
0000066e 0748           1750 	mov	r7,r9
00000670 63470100       1751 	st.w	r8,0[sp]
00000674 003a           1752 	mov	0,r7
00000676 0740           1753 	mov	r7,r8
                        1754 	jarl	_esl_finalizeSignRSASHA256_PSS,lp
                        1754 <EXPANSION BEGIN>
                        1754 jarl22 _esl_finalizeSignRSASHA256_PSS , lp 
00000678 bfff88ff*      1754 <EXPANSION END>
                        1755 --	    .ef
                        1756 .LDW98:
                        1757 --line558
                        1758 ..lin.C.3A.5C_ECU2.5CECU_Rivian_A1.5CTarget.5Crepo_projects.5CpFOTA.5CcL_LATEST.5Cmake.5Cobj.5CESLib_RSA_PSS_Sig.109::
                        1759 .LDWlin109:
0000067c 42063f00       1760 	dispose	1,{r31},[lp]
                        1761 	.type	_esl_finalizeSignRSASHA256_PSS_NoSalt,@function
                        1762 	.size	_esl_finalizeSignRSASHA256_PSS_NoSalt,.-_esl_finalizeSignRSASHA256_PSS_NoSalt
                        1763 	.align	2
                        1764 .LDW09:
                        1765 
                        1766 --_workSpace	r6	param
                        1767 --_signatureSize	r7	param
                        1768 --_signature	r8	param
                        1769 
                        1770 	.section ".bss","awb"
                        1771 .L2980:
                        1772 	.type	.L2980,@object
                        1773 	.size	.L2980,0
                        1774 	.data
                        1775 	.section ".MSR_CODE","ax"
                        1776 	.align	2
                        1777 	.align	2
                        1778 ..gh.f.f.1.e.27:
                        1779 	.type	..gh.f.f.1.e.27,@object
                        1780 	.size	..gh.f.f.1.e.27,0
                        1781 	.global	_esl_finalizeSignRSASHA256_PSS_DigestLengthSalt
                        1782 _esl_finalizeSignRSASHA256_PSS_DigestLengthSalt:
00000680 82072100       1783 	prepare	{r31},1
                        1784 --	    .bf
                        1785 .LDW19:

                                                                      Page 33
                                                              C:\Users\nhuliyap\AppData\Local\Temp\gh_00005f41.s
00000684 0748           1786 	mov	r7,r9
00000686 63470100       1787 	st.w	r8,0[sp]
0000068a 203e2000       1788 	movea	32,zero,r7
0000068e 0042           1789 	mov	0,r8
                        1790 	jarl	_esl_finalizeSignRSASHA256_PSS,lp
                        1790 <EXPANSION BEGIN>
                        1790 jarl22 _esl_finalizeSignRSASHA256_PSS , lp 
00000690 bfff70ff*      1790 <EXPANSION END>
                        1791 --	    .ef
                        1792 .LDW29:
                        1793 --line567
                        1794 ..lin.C.3A.5C_ECU2.5CECU_Rivian_A1.5CTarget.5Crepo_projects.5CpFOTA.5CcL_LATEST.5Cmake.5Cobj.5CESLib_RSA_PSS_Sig.110::
                        1795 .LDWlin110:
00000694 42063f00       1796 	dispose	1,{r31},[lp]
                        1797 	.type	_esl_finalizeSignRSASHA256_PSS_DigestLengthSalt,@function
                        1798 	.size	_esl_finalizeSignRSASHA256_PSS_DigestLengthSalt,.-_esl_finalizeSignRSASHA256_PSS_DigestLengthSalt
                        1799 	.align	2
                        1800 .LDW39:
                        1801 
                        1802 --_workSpace	r6	param
                        1803 --_signatureSize	r7	param
                        1804 --_signature	r8	param
                        1805 
                        1806 	.section ".bss","awb"
                        1807 .L3028:
                        1808 	.type	.L3028,@object
                        1809 	.size	.L3028,0
                        1810 	.data
                        1811 	.section ".MSR_CODE","ax"
                        1812 	.align	2
                        1813 
                        1814 	.section ".rosdata","a"
                        1815 	.align	4
                        1816 	.global	_esl_RSAPSSEncodingMask
00000000 ff010307       1817 _esl_RSAPSSEncodingMask:	.byte	255,1,3,7
00000004 0f1f3f7f       1818 	.byte	15,31,63,127
                        1819 	.type	_esl_RSAPSSEncodingMask,@object
                        1820 	.size	_esl_RSAPSSEncodingMask,8
                        1821 	.data
                        1822 	.ghsnote version,17
                        1823 	.ghsnote tools,3
                        1824 	.ghsnote options,144
                        1825 	.section ".MSR_CODE","ax"
                        1826 	.align	2
                        1827 ..eof.C.3A.5C_ECU2.5CECU_Rivian_A1.5CTarget.5Crepo_projects.5CpFOTA.5CcL_LATEST.5Cmake.5Cobj.5CESLib_RSA_PSS_Sig...43.3A.5C_ECU2.5CECU_Rivian_A1.5CTarget.5Crepo_projects.5CpFOTA.5CcL_LATEST.5Cmake..64F86AFA..0::
                        1828 .rh850_flags REGMODE32,DATA_ALIGN8,GP_FIX,EP_NONFIX,TP_FIX,REG2_RESERVE,G3K,SDA_EXTRA_REGS_0
