                                                                      Page 1
                                                              C:\Users\nhuliyap\AppData\Local\Temp\gh_00003r81.s
Command Line: C:\GHS\comp_201517\ease850.exe -w -stderr=err/ESLib_RSA_PSS_Ver.err -elf -b0 -I../source/_common -I../source/common -I../source/ecuabcanif -I../source/ecuabcantrcv -I../source/ecuabcryif -I../source/ecuabfee -I../source/ecuabmemif -I../source/libautosar -I../source/mcalcan -I../source/mcalcry -I../source/mcaldio -I../source/mcaleep -I../source/mcalfls -I../source/mcalmcu -I../source/projectara -I../source/projectcfg -I../source/projectcompiler -I../source/swcservicebswm -I../source/swcservicecantp -I../source/swcservicecomm -I../source/swcservicecsm -I../source/swcservicedcm -I../source/swcservicedem -I../source/swcservicedet -I../source/swcserviceecum -I../source/swcservicenvm -I../source/swcserviceos -I../source/swcservicepdur -I../source/swcserviceschm -I../source/swcservicestartup -I../source/wrappers/swcservicesecm -I../source/wrappers/vsecprim -I../source/wrappers/vstdlib -Ic:/ghs/comp_201517/ansi -Ic:/ghs/comp_201517/include/v800 -Igendata -IC:\GHS\comp_201517\lib\rh850 -cg_underscore -cpu=rh850g3k -nofpu -no_v850_simd -rh850_fpsimd=none -nomacro -patch_dbo=C:\_ECU2\ECU_Rivian_A1\Target\repo_projects\pFOTA\cL_LATEST\make\obj\ESLib_RSA_PSS_Ver.dbo -source=ESLib_RSA_PSS_Ver.c -o obj\gh_00003r81.o -list=lst/ESLib_RSA_PSS_Ver.lst C:\Users\nhuliyap\AppData\Local\Temp\gh_00003r81.s 
Original File: C:\Users\nhuliyap\AppData\Local\Temp\gh_00003r81.s
Source File: ESLib_RSA_PSS_Ver.c
Directory: C:\_ECU2\ECU_Rivian_A1\Target\repo_projects\pFOTA\cL_LATEST\make
Host OS: Windows
EASE: Copyright (C) 1983-2015 Green Hills Software.  All Rights Reserved.
Release: Compiler v2015.1.7
Build Directory: [Directory] BTOWORKER6:c:/build_2015_1_bto/2015-10-21.2100-2015_1_bto/win32-comp-ecom
Revision: [VCInfo] http://toolsvc/branches/release-branch-70-bto/src@544153 (built by build)
Revision Date: Thu Oct 22 07:50:13 2015

Release Date: Thu Oct 22 09:32:32 2015

                           1 --Driver Command: ccrh850 -DBRS_DERIVATIVE_701018 -DBRS_OSC_CLK=16
                           2 --		-DBRS_TIMEBASE_CLOCK=80 -DBRS_EVA_BOARD_
                           3 --		-DBRS_DERIVATIVE_GROUP_F1L -DBRS_OS_USECASE_BRS
                           4 --		-DBRS_PLATFORM_RH850 -DBRS_COMP_GHS
                           5 --		-DBRS_CPU_LOCAL_RAM_SIZE_CORE0=32
                           6 --		-DBRS_CPU_RAM_START_CORE0=0xFEDF8000
                           7 --		-list=lst/ESLib_RSA_PSS_Ver.lst -object_dir=obj
                           8 --		-stderr=err/ESLib_RSA_PSS_Ver.err -c -cpu=rh850 -sda=all
                           9 --		-large_sda -prepare_dispose -pragma_asm_inline -no_callt
                          10 --		-inline_prologue -notda -reserve_r2 -fsoft
                          11 --		--unknown_pragma_warnings -list -g -Ogeneral -shortenum
                          12 --		-registermode=32 -I../source/_common -I../source/common
                          13 --		-I../source/ecuabcanif -I../source/ecuabcantrcv
                          14 --		-I../source/ecuabcryif -I../source/ecuabfee
                          15 --		-I../source/ecuabmemif -I../source/libautosar -I../source/mcalcan
                          16 --		-I../source/mcalcry -I../source/mcaldio -I../source/mcaleep
                          17 --		-I../source/mcalfls -I../source/mcalmcu -I../source/projectara
                          18 --		-I../source/projectcfg -I../source/projectcompiler
                          19 --		-I../source/swcservicebswm -I../source/swcservicecantp
                          20 --		-I../source/swcservicecomm -I../source/swcservicecsm
                          21 --		-I../source/swcservicedcm -I../source/swcservicedem
                          22 --		-I../source/swcservicedet -I../source/swcserviceecum
                          23 --		-I../source/swcservicenvm -I../source/swcserviceos
                          24 --		-I../source/swcservicepdur -I../source/swcserviceschm
                          25 --		-I../source/swcservicestartup -I../source/wrappers/swcservicesecm
                          26 --		-I../source/wrappers/vsecprim -I../source/wrappers/vstdlib
                          27 --		-Ic:/ghs/comp_201517/ansi -Ic:/ghs/comp_201517/include/v800
                          28 --		-Igendata ../source/wrappers/vSecPrim/ESLib_RSA_PSS_Ver.c
                          29 --Source File:   ../source/wrappers/vSecPrim/ESLib_RSA_PSS_Ver.c
                          30 --Directory:     
                          31 --		C:\_ECU2\ECU_Rivian_A1\Target\repo_projects\pFOTA\cL_LATEST\make
                          32 --Compile Date:  Wed Sep 06 14:05:15 2023
                          33 --Host OS:       Win32
                          34 --Version:       C-RH850 2015.1.7 RELEASE VERSION
                          35 --Release:       Compiler v2015.1.7
                          36 --Revision Date: Thu Oct 22 08:06:12 2015
                          37 --Release Date:  Thu Oct 22 09:34:32 2015
                          38 -- ecom  -g -w -OM
                          39 	.section ".MSR_CODE","ax"
                          40 	.align	2
                          41 ..bof.C.3A.5C_ECU2.5CECU_Rivian_A1.5CTarget.5Crepo_projects.5CpFOTA.5CcL_LATEST.5Cmake.5Cobj.5CESLib_RSA_PSS_Ver...43.3A.5C_ECU2.5CECU_Rivian_A1.5CTarget.5Crepo_projects.5CpFOTA.5CcL_LATEST.5Cmake..64F86AFB..0::
                          42 	.align	2
                          43 ..gh.f.f.1.e.0:
                          44 	.type	..gh.f.f.1.e.0,@object
                          45 	.size	..gh.f.f.1.e.0,0
                          46 	.global	_actHashInit..C.3A.5C_ECU2.5CECU_Rivian_A1.5CTarget.5Crepo_projects.5CpFOTA.5CcL_LATEST.5Cmake.5Cobj.5CESLib_RSA_PSS_Ver.
                          47 _actHashInit..C.3A.5C_ECU2.5CECU_Rivian_A1.5CTarget.5Crepo_projects.5CpFOTA.5CcL_LATEST.5Cmake.5Cobj.5CESLib_RSA_PSS_Ver.:
                          48 _actHashInit:
00000000 80072100         49 	prepare	{r31},0
                          50 --	    .bf

                                                                      Page 2
                                                              C:\Users\nhuliyap\AppData\Local\Temp\gh_00003r81.s
                          51 .LDW01:
00000004 c73eff00         52 	andi	255,r7,r7
00000008 f205*            53 	be	.L6
0000000a 623a             54 	cmp	2,r7
0000000c b20d*            55 	be	.L7
                          56 --line94
                          57 ..lin.C.3A.5C_ECU2.5CECU_Rivian_A1.5CTarget.5Crepo_projects.5CpFOTA.5CcL_LATEST.5Cmake.5Cobj.5CESLib_RSA_PSS_Ver.1::
                          58 .LDWlin1:
0000000e 2056f700         59 	movea	247,zero,r10
00000012 40063f00         60 	dispose	0,{r31},[lp]
                          61 .L6:
                          62 --line55
                          63 ..lin.C.3A.5C_ECU2.5CECU_Rivian_A1.5CTarget.5Crepo_projects.5CpFOTA.5CcL_LATEST.5Cmake.5Cobj.5CESLib_RSA_PSS_Ver.2::
                          64 .LDWlin2:
00000016 06361000         65 	addi	16,r6,r6
                          66 	jarl	_actSHAInit,lp
                          66 <EXPANSION BEGIN>
                          66 jarl22 _actSHAInit , lp 
0000001a 80ff0000*        66 <EXPANSION END>
                          67 --line56
                          68 ..lin.C.3A.5C_ECU2.5CECU_Rivian_A1.5CTarget.5Crepo_projects.5CpFOTA.5CcL_LATEST.5Cmake.5Cobj.5CESLib_RSA_PSS_Ver.3::
                          69 .LDWlin3:
0000001e 40063f00         70 	dispose	0,{r31},[lp]
                          71 .L7:
                          72 --line65
                          73 ..lin.C.3A.5C_ECU2.5CECU_Rivian_A1.5CTarget.5Crepo_projects.5CpFOTA.5CcL_LATEST.5Cmake.5Cobj.5CESLib_RSA_PSS_Ver.4::
                          74 .LDWlin4:
00000022 06361000         75 	addi	16,r6,r6
                          76 	jarl	_actSHA256Init,lp
                          76 <EXPANSION BEGIN>
                          76 jarl22 _actSHA256Init , lp 
00000026 80ff0000*        76 <EXPANSION END>
                          77 --	    .ef
                          78 .LDW11:
                          79 --line97
                          80 ..lin.C.3A.5C_ECU2.5CECU_Rivian_A1.5CTarget.5Crepo_projects.5CpFOTA.5CcL_LATEST.5Cmake.5Cobj.5CESLib_RSA_PSS_Ver.5::
                          81 .LDWlin5:
0000002a 40063f00         82 	dispose	0,{r31},[lp]
                          83 	.type	_actHashInit,@function
                          84 	.size	_actHashInit,.-_actHashInit
                          85 	.type	_actHashInit..C.3A.5C_ECU2.5CECU_Rivian_A1.5CTarget.5Crepo_projects.5CpFOTA.5CcL_LATEST.5Cmake.5Cobj.5CESLib_RSA_PSS_Ver.,@function
                          86 	.size	_actHashInit..C.3A.5C_ECU2.5CECU_Rivian_A1.5CTarget.5Crepo_projects.5CpFOTA.5CcL_LATEST.5Cmake.5Cobj.5CESLib_RSA_PSS_Ver.,.-_actHashInit..C.3A.5C_ECU2.5CECU_Rivian_A1.5CTarget.5Crepo_projects.5CpFOTA.5CcL_LATEST.5Cmake.5Cobj.5CESLib_RSA_PSS_Ver.
                          87 	.align	2
                          88 .LDW21:
                          89 --_returnValue	r10	local
                          90 
                          91 --_hashWSU	r6	param
                          92 --_hashID	r7	param
                          93 
                          94 	.section ".bss","awb"
                          95 .L53:
                          96 	.type	.L53,@object
                          97 	.size	.L53,0
                          98 	.data
                          99 	.section ".MSR_CODE","ax"
                         100 	.align	2
                         101 	.align	2
                         102 ..gh.f.f.1.e.1:
                         103 	.type	..gh.f.f.1.e.1,@object
                         104 	.size	..gh.f.f.1.e.1,0
                         105 	.global	_actHashUpdate..C.3A.5C_ECU2.5CECU_Rivian_A1.5CTarget.5Crepo_projects.5CpFOTA.5CcL_LATEST.5Cmake.5Cobj.5CESLib_RSA_PSS_Ver.

                                                                      Page 3
                                                              C:\Users\nhuliyap\AppData\Local\Temp\gh_00003r81.s
                         106 _actHashUpdate..C.3A.5C_ECU2.5CECU_Rivian_A1.5CTarget.5Crepo_projects.5CpFOTA.5CcL_LATEST.5Cmake.5Cobj.5CESLib_RSA_PSS_Ver.:
                         107 _actHashUpdate:
0000002e 80072100        108 	prepare	{r31},0
00000032 06f0            109 	mov	r6,ep
                         110 --	    .bf
                         111 .LDW31:
00000034 c94eff00        112 	andi	255,r9,r9
00000038 f205*           113 	be	.L125
0000003a 624a            114 	cmp	2,r9
0000003c c20d*           115 	be	.L126
                         116 --line148
                         117 ..lin.C.3A.5C_ECU2.5CECU_Rivian_A1.5CTarget.5Crepo_projects.5CpFOTA.5CcL_LATEST.5Cmake.5Cobj.5CESLib_RSA_PSS_Ver.6::
                         118 .LDWlin6:
0000003e 2056f700        119 	movea	247,zero,r10
00000042 40063f00        120 	dispose	0,{r31},[lp]
                         121 .L125:
                         122 --line109
                         123 ..lin.C.3A.5C_ECU2.5CECU_Rivian_A1.5CTarget.5Crepo_projects.5CpFOTA.5CcL_LATEST.5Cmake.5Cobj.5CESLib_RSA_PSS_Ver.7::
                         124 .LDWlin7:
00000046 044d            125 	sld.w	8[ep],r9
00000048 06361000        126 	addi	16,r6,r6
                         127 	jarl	_actSHAUpdate,lp
                         127 <EXPANSION BEGIN>
                         127 jarl22 _actSHAUpdate , lp 
0000004c 80ff0000*       127 <EXPANSION END>
                         128 --line110
                         129 ..lin.C.3A.5C_ECU2.5CECU_Rivian_A1.5CTarget.5Crepo_projects.5CpFOTA.5CcL_LATEST.5Cmake.5Cobj.5CESLib_RSA_PSS_Ver.8::
                         130 .LDWlin8:
00000050 40063f00        131 	dispose	0,{r31},[lp]
                         132 .L126:
                         133 --line119
                         134 ..lin.C.3A.5C_ECU2.5CECU_Rivian_A1.5CTarget.5Crepo_projects.5CpFOTA.5CcL_LATEST.5Cmake.5Cobj.5CESLib_RSA_PSS_Ver.9::
                         135 .LDWlin9:
00000054 044d            136 	sld.w	8[ep],r9
00000056 06361000        137 	addi	16,r6,r6
                         138 	jarl	_actSHA256Update,lp
                         138 <EXPANSION BEGIN>
                         138 jarl22 _actSHA256Update , lp 
0000005a 80ff0000*       138 <EXPANSION END>
                         139 --	    .ef
                         140 .LDW41:
                         141 --line151
                         142 ..lin.C.3A.5C_ECU2.5CECU_Rivian_A1.5CTarget.5Crepo_projects.5CpFOTA.5CcL_LATEST.5Cmake.5Cobj.5CESLib_RSA_PSS_Ver.10::
                         143 .LDWlin10:
0000005e 40063f00        144 	dispose	0,{r31},[lp]
                         145 	.type	_actHashUpdate,@function
                         146 	.size	_actHashUpdate,.-_actHashUpdate
                         147 	.type	_actHashUpdate..C.3A.5C_ECU2.5CECU_Rivian_A1.5CTarget.5Crepo_projects.5CpFOTA.5CcL_LATEST.5Cmake.5Cobj.5CESLib_RSA_PSS_Ver.,@function
                         148 	.size	_actHashUpdate..C.3A.5C_ECU2.5CECU_Rivian_A1.5CTarget.5Crepo_projects.5CpFOTA.5CcL_LATEST.5Cmake.5Cobj.5CESLib_RSA_PSS_Ver.,.-_actHashUpdate..C.3A.5C_ECU2.5CECU_Rivian_A1.5CTarget.5Crepo_projects.5CpFOTA.5CcL_LATEST.5Cmake.5Cobj.5CESLib_RSA_PSS_Ver.
                         149 	.align	2
                         150 .LDW51:
                         151 --_returnValue	r10	local
                         152 
                         153 --_hashWSU	ep	param
                         154 --_dataIN	r7	param
                         155 --_length	r8	param
                         156 --_hashID	r9	param
                         157 
                         158 	.section ".bss","awb"
                         159 .L165:
                         160 	.type	.L165,@object

                                                                      Page 4
                                                              C:\Users\nhuliyap\AppData\Local\Temp\gh_00003r81.s
                         161 	.size	.L165,0
                         162 	.data
                         163 	.section ".MSR_CODE","ax"
                         164 	.align	2
                         165 	.align	2
                         166 ..gh.f.f.1.e.2:
                         167 	.type	..gh.f.f.1.e.2,@object
                         168 	.size	..gh.f.f.1.e.2,0
                         169 	.global	_actHashFinalize..C.3A.5C_ECU2.5CECU_Rivian_A1.5CTarget.5Crepo_projects.5CpFOTA.5CcL_LATEST.5Cmake.5Cobj.5CESLib_RSA_PSS_Ver.
                         170 _actHashFinalize..C.3A.5C_ECU2.5CECU_Rivian_A1.5CTarget.5Crepo_projects.5CpFOTA.5CcL_LATEST.5Cmake.5Cobj.5CESLib_RSA_PSS_Ver.:
                         171 _actHashFinalize:
00000062 80072100        172 	prepare	{r31},0
00000066 06f0            173 	mov	r6,ep
                         174 --	    .bf
                         175 .LDW61:
00000068 c846ff00        176 	andi	255,r8,r8
0000006c f205*           177 	be	.L237
0000006e 6242            178 	cmp	2,r8
00000070 c20d*           179 	be	.L238
                         180 --line201
                         181 ..lin.C.3A.5C_ECU2.5CECU_Rivian_A1.5CTarget.5Crepo_projects.5CpFOTA.5CcL_LATEST.5Cmake.5Cobj.5CESLib_RSA_PSS_Ver.11::
                         182 .LDWlin11:
00000072 2056f700        183 	movea	247,zero,r10
00000076 40063f00        184 	dispose	0,{r31},[lp]
                         185 .L237:
                         186 --line162
                         187 ..lin.C.3A.5C_ECU2.5CECU_Rivian_A1.5CTarget.5Crepo_projects.5CpFOTA.5CcL_LATEST.5Cmake.5Cobj.5CESLib_RSA_PSS_Ver.12::
                         188 .LDWlin12:
0000007a 0445            189 	sld.w	8[ep],r8
0000007c 06361000        190 	addi	16,r6,r6
                         191 	jarl	_actSHAFinalize,lp
                         191 <EXPANSION BEGIN>
                         191 jarl22 _actSHAFinalize , lp 
00000080 80ff0000*       191 <EXPANSION END>
                         192 --line163
                         193 ..lin.C.3A.5C_ECU2.5CECU_Rivian_A1.5CTarget.5Crepo_projects.5CpFOTA.5CcL_LATEST.5Cmake.5Cobj.5CESLib_RSA_PSS_Ver.13::
                         194 .LDWlin13:
00000084 40063f00        195 	dispose	0,{r31},[lp]
                         196 .L238:
                         197 --line172
                         198 ..lin.C.3A.5C_ECU2.5CECU_Rivian_A1.5CTarget.5Crepo_projects.5CpFOTA.5CcL_LATEST.5Cmake.5Cobj.5CESLib_RSA_PSS_Ver.14::
                         199 .LDWlin14:
00000088 0445            200 	sld.w	8[ep],r8
0000008a 06361000        201 	addi	16,r6,r6
                         202 	jarl	_actSHA256Finalize,lp
                         202 <EXPANSION BEGIN>
                         202 jarl22 _actSHA256Finalize , lp 
0000008e 80ff0000*       202 <EXPANSION END>
                         203 --	    .ef
                         204 .LDW71:
                         205 --line204
                         206 ..lin.C.3A.5C_ECU2.5CECU_Rivian_A1.5CTarget.5Crepo_projects.5CpFOTA.5CcL_LATEST.5Cmake.5Cobj.5CESLib_RSA_PSS_Ver.15::
                         207 .LDWlin15:
00000092 40063f00        208 	dispose	0,{r31},[lp]
                         209 	.type	_actHashFinalize,@function
                         210 	.size	_actHashFinalize,.-_actHashFinalize
                         211 	.type	_actHashFinalize..C.3A.5C_ECU2.5CECU_Rivian_A1.5CTarget.5Crepo_projects.5CpFOTA.5CcL_LATEST.5Cmake.5Cobj.5CESLib_RSA_PSS_Ver.,@function
                         212 	.size	_actHashFinalize..C.3A.5C_ECU2.5CECU_Rivian_A1.5CTarget.5Crepo_projects.5CpFOTA.5CcL_LATEST.5Cmake.5Cobj.5CESLib_RSA_PSS_Ver.,.-_actHashFinalize..C.3A.5C_ECU2.5CECU_Rivian_A1.5CTarget.5Crepo_projects.5CpFOTA.5CcL_LATEST.5Cmake.5Cobj.5CESLib_RSA_PSS_Ver.
                         213 	.align	2
                         214 .LDW81:
                         215 --_returnValue	r10	local

                                                                      Page 5
                                                              C:\Users\nhuliyap\AppData\Local\Temp\gh_00003r81.s
                         216 
                         217 --_hashWSU	ep	param
                         218 --_hash	r7	param
                         219 --_hashID	r8	param
                         220 
                         221 	.section ".bss","awb"
                         222 .L277:
                         223 	.type	.L277,@object
                         224 	.size	.L277,0
                         225 	.data
                         226 	.section ".MSR_CODE","ax"
                         227 	.align	2
                         228 	.align	2
                         229 ..gh.f.f.1.e.3:
                         230 	.type	..gh.f.f.1.e.3,@object
                         231 	.size	..gh.f.f.1.e.3,0
                         232 	.global	_esl_checkSaltSizeVer..C.3A.5C_ECU2.5CECU_Rivian_A1.5CTarget.5Crepo_projects.5CpFOTA.5CcL_LATEST.5Cmake.5Cobj.5CESLib_RSA_PSS_Ver.
                         233 _esl_checkSaltSizeVer..C.3A.5C_ECU2.5CECU_Rivian_A1.5CTarget.5Crepo_projects.5CpFOTA.5CcL_LATEST.5Cmake.5Cobj.5CESLib_RSA_PSS_Ver.:
                         234 _esl_checkSaltSizeVer:
00000096 06f0            235 	mov	r6,ep
                         236 --	    .bf
                         237 .LDW91:
00000098 0095            238 	sld.w	0[ep],r18
0000009a 7f92            239 	cmp	-1,r18
0000009c ea05*           240 	bne	.L347
                         241 --line78
                         242 ..lin.C.3A.5C_ECU2.5CECU_Rivian_A1.5CTarget.5Crepo_projects.5CpFOTA.5CcL_LATEST.5Cmake.5Cobj.5CESLib_RSA_PSS_Ver.16::
                         243 .LDWlin16:
0000009e 0788            244 	mov	r7,r17
000000a0 a889            245 	sub	r8,r17
000000a2 1196ffff        246 	addi	-1,r17,r18
000000a6 0195            247 	sst.w	r18,0[ep]
                         248 .L347:
000000a8 129e0100        249 	addi	1,r18,r19
000000ac 20360320        250 	movea	8195,zero,r6
000000b0 e799            251 	cmp	r7,r19
000000b2 e0370653        252 	cmovnh	0,r6,r10
                         253 --	    .ef
                         254 .LDW02:
000000b6 7f00            255 	jmp	[lp]
                         256 	.type	_esl_checkSaltSizeVer,@function
                         257 	.size	_esl_checkSaltSizeVer,.-_esl_checkSaltSizeVer
                         258 	.type	_esl_checkSaltSizeVer..C.3A.5C_ECU2.5CECU_Rivian_A1.5CTarget.5Crepo_projects.5CpFOTA.5CcL_LATEST.5Cmake.5Cobj.5CESLib_RSA_PSS_Ver.,@function
                         259 	.size	_esl_checkSaltSizeVer..C.3A.5C_ECU2.5CECU_Rivian_A1.5CTarget.5Crepo_projects.5CpFOTA.5CcL_LATEST.5Cmake.5Cobj.5CESLib_RSA_PSS_Ver.,.-_esl_checkSaltSizeVer..C.3A.5C_ECU2.5CECU_Rivian_A1.5CTarget.5Crepo_projects.5CpFOTA.5CcL_LATEST.5Cmake.5Cobj.5CESLib_RSA_PSS_Ver.
                         260 	.align	2
                         261 .LDW12:
                         262 --_returnValue	r10	local
                         263 
                         264 --_saltSize	ep	param
                         265 --_dbLength	r7	param
                         266 --_estimatedPSLength	r8	param
                         267 
                         268 	.section ".bss","awb"
                         269 .L393:
                         270 	.type	.L393,@object
                         271 	.size	.L393,0
                         272 	.data
                         273 	.section ".MSR_CODE","ax"
                         274 	.align	2
                         275 	.align	2
                         276 	.align	2

                                                                      Page 6
                                                              C:\Users\nhuliyap\AppData\Local\Temp\gh_00003r81.s
                         277 ..gh.f.f.1.e.4:
                         278 	.type	..gh.f.f.1.e.4,@object
                         279 	.size	..gh.f.f.1.e.4,0
                         280 	.global	_esl_checkStandardConditionsEncodedMessage..C.3A.5C_ECU2.5CECU_Rivian_A1.5CTarget.5Crepo_projects.5CpFOTA.5CcL_LATEST.5Cmake.5Cobj.5CESLib_RSA_PSS_Ver.
                         281 _esl_checkStandardConditionsEncodedMessage..C.3A.5C_ECU2.5CECU_Rivian_A1.5CTarget.5Crepo_projects.5CpFOTA.5CcL_LATEST.5Cmake.5Cobj.5CESLib_RSA_PSS_Ver.:
                         282 _esl_checkStandardConditionsEncodedMessage:
000000b8 8007e330        283 	prepare	{r26,r27,r28,r29,r31},0,sp
000000bc 09e0            284 	mov	r9,r28
000000be 0add            285 	sld.w	20[ep],r27
000000c0 0cd5            286 	sld.w	24[ep],r26
                         287 --	    .bf
                         288 .LDW22:
000000c2 00ea            289 	mov	0,r29
000000c4 e839            290 	cmp	r8,r7
000000c6 9a25*           291 	bne	.L439
000000c8 c941            292 	add	r9,r8
000000ca a89fffff        293 	ld.bu	-1[r8],r19
000000ce 130644ff        294 	addi	-188,r19,zero
000000d2 ba1d*           295 	bne	.L439
                         296 --line101
                         297 ..lin.C.3A.5C_ECU2.5CECU_Rivian_A1.5CTarget.5Crepo_projects.5CpFOTA.5CcL_LATEST.5Cmake.5Cobj.5CESLib_RSA_PSS_Ver.17::
                         298 .LDWlin17:
000000d4 06361000        299 	addi	16,r6,r6
                         300 	jarl	_actRSAPublicKeyGetBitLength,lp
                         300 <EXPANSION BEGIN>
                         300 jarl22 _actRSAPublicKeyGetBitLength , lp 
000000d8 80ff0000*       300 <EXPANSION END>
000000dc 0a3effff        301 	addi	-1,r10,r7
000000e0 1bf0            302 	mov	r27,ep
                         303 --line102
                         304 ..lin.C.3A.5C_ECU2.5CECU_Rivian_A1.5CTarget.5Crepo_projects.5CpFOTA.5CcL_LATEST.5Cmake.5Cobj.5CESLib_RSA_PSS_Ver.18::
                         305 .LDWlin18:
000000e2 07360700        306 	addi	7,r7,r6
000000e6 013d            307 	sst.w	r7,0[ep]
000000e8 8332            308 	shr	3,r6
000000ea 7a370100        309 	st.w	r6,0[r26]
000000ee 0035            310 	sld.w	0[ep],r6
000000f0 9c8f0100        311 	ld.bu	0[r28],r17
000000f4 c6f60700        312 	andi	7,r6,ep
000000f8 c5f1            313 	add	r5,ep
000000fa be0705900000*   314 	ld.bu	rosdaoff23(_esl_RSAPSSEncodingMask)[ep],r18
00000100 b29eff00        315 	xori	255,r18,r19
00000104 5199            316 	and	r17,r19
00000106 b205*           317 	be	.L437
                         318 .L439:
                         319 --line105
                         320 ..lin.C.3A.5C_ECU2.5CECU_Rivian_A1.5CTarget.5Crepo_projects.5CpFOTA.5CcL_LATEST.5Cmake.5Cobj.5CESLib_RSA_PSS_Ver.19::
                         321 .LDWlin19:
00000108 20ee1d20        322 	movea	8221,zero,r29
                         323 .L437:
0000010c 1d50            324 	mov	r29,r10
                         325 --	    .ef
                         326 .LDW32:
0000010e 4006ff30        327 	dispose	0,{r26,r27,r28,r29,r31},[lp]
                         328 	.type	_esl_checkStandardConditionsEncodedMessage,@function
                         329 	.size	_esl_checkStandardConditionsEncodedMessage,.-_esl_checkStandardConditionsEncodedMessage
                         330 	.type	_esl_checkStandardConditionsEncodedMessage..C.3A.5C_ECU2.5CECU_Rivian_A1.5CTarget.5Crepo_projects.5CpFOTA.5CcL_LATEST.5Cmake.5Cobj.5CESLib_RSA_PSS_Ver.,@function
                         331 	.size	_esl_checkStandardConditionsEncodedMessage..C.3A.5C_ECU2.5CECU_Rivian_A1.5CTarget.5Crepo_projects.5CpFOTA.5CcL_LATEST.5Cmake.5Cobj.5CESLib_RSA_PSS_Ver.,.-_esl_checkStandardConditionsEncodedMessage..C.3A.5C_ECU2.5CECU_Rivian_A1.5CTarget.5Crepo_projects.5CpFOTA.5CcL_LATEST.5Cmake.5Cobj.5CESLib_RSA_PSS_Ver.
                         332 	.align	2
                         333 .LDW42:
                         334 --_returnValue	r29	local

                                                                      Page 7
                                                              C:\Users\nhuliyap\AppData\Local\Temp\gh_00003r81.s
                         335 
                         336 --_workSpace	r6	param
                         337 --_signatureSize	r7	param
                         338 --_keyPairModuleSize	r8	param
                         339 --_encodedMessage	r28	param
                         340 --_emBits	r27	param
                         341 --_emLength	r26	param
                         342 
                         343 	.section ".bss","awb"
                         344 .L501:
                         345 	.type	.L501,@object
                         346 	.size	.L501,0
                         347 	.data
                         348 	.section ".MSR_CODE","ax"
                         349 	.align	2
                         350 	.align	2
                         351 ..gh.f.f.1.e.5:
                         352 	.type	..gh.f.f.1.e.5,@object
                         353 	.size	..gh.f.f.1.e.5,0
                         354 	.global	_esl_initVerifyRSA_PSS..C.3A.5C_ECU2.5CECU_Rivian_A1.5CTarget.5Crepo_projects.5CpFOTA.5CcL_LATEST.5Cmake.5Cobj.5CESLib_RSA_PSS_Ver.
                         355 _esl_initVerifyRSA_PSS..C.3A.5C_ECU2.5CECU_Rivian_A1.5CTarget.5Crepo_projects.5CpFOTA.5CcL_LATEST.5Cmake.5Cobj.5CESLib_RSA_PSS_Ver.:
                         356 _esl_initVerifyRSA_PSS:
00000112 8207e1f0        357 	prepare	{r24,r25,r26,r27,r28,r29,r31},1
00000116 23f62000        358 	movea	32,sp,ep
0000011a 06e8            359 	mov	r6,r29
0000011c 07d8            360 	mov	r7,r27
0000011e 08d0            361 	mov	r8,r26
00000120 09c0            362 	mov	r9,r24
00000122 00cd            363 	sld.w	0[ep],r25
00000124 6490            364 	sld.bu	4[ep],r18
                         365 --	    .bf
                         366 .LDW52:
00000126 20e60020        367 	movea	8192,zero,r28
0000012a e041            368 	cmp	zero,r8
0000012c b205*           369 	be	.L558
0000012e e0c9            370 	cmp	zero,r25
00000130 ba05*           371 	bne	.L557
                         372 .L558:
                         373 --line123
                         374 ..lin.C.3A.5C_ECU2.5CECU_Rivian_A1.5CTarget.5Crepo_projects.5CpFOTA.5CcL_LATEST.5Cmake.5Cobj.5CESLib_RSA_PSS_Ver.20::
                         375 .LDWlin20:
00000132 43e2            376 	add	3,r28
00000134 b525*           377 	br	.L560
                         378 .L557:
                         379 --line126
                         380 ..lin.C.3A.5C_ECU2.5CECU_Rivian_A1.5CTarget.5Crepo_projects.5CpFOTA.5CcL_LATEST.5Cmake.5Cobj.5CESLib_RSA_PSS_Ver.21::
                         381 .LDWlin21:
00000136 06365008        382 	addi	2128,r6,r6
0000013a 1238            383 	mov	r18,r7
                         384 	jarl	_actHashInit,lp
                         384 <EXPANSION BEGIN>
                         384 jarl22 _actHashInit , lp 
0000013c bfffc4fe*       384 <EXPANSION END>
                         385 --line128
                         386 ..lin.C.3A.5C_ECU2.5CECU_Rivian_A1.5CTarget.5Crepo_projects.5CpFOTA.5CcL_LATEST.5Cmake.5Cobj.5CESLib_RSA_PSS_Ver.22::
                         387 .LDWlin22:
00000140 e051            388 	cmp	zero,r10
00000142 ca1d*           389 	bne	.L560
                         390 --line130
                         391 ..lin.C.3A.5C_ECU2.5CECU_Rivian_A1.5CTarget.5Crepo_projects.5CpFOTA.5CcL_LATEST.5Cmake.5Cobj.5CESLib_RSA_PSS_Ver.23::
                         392 .LDWlin23:

                                                                      Page 8
                                                              C:\Users\nhuliyap\AppData\Local\Temp\gh_00003r81.s
00000144 3d870900        393 	ld.w	8[r29],r16
00000148 208e2406        394 	movea	1572,zero,r17
0000014c 7d8f1d02        395 	st.w	r17,540[r29]
00000150 1d361c02        396 	addi	540,r29,r6
00000154 7d872502        397 	st.w	r16,548[r29]
00000158 1b38            398 	mov	r27,r7
0000015a 1a40            399 	mov	r26,r8
0000015c 1848            400 	mov	r24,r9
0000015e 63cf0100        401 	st.w	r25,0[sp]
                         402 	jarl	_esl_initVerifyRSA_prim,lp
                         402 <EXPANSION BEGIN>
                         402 jarl22 _esl_initVerifyRSA_prim , lp 
00000162 80ff0000*       402 <EXPANSION END>
00000166 0ae0            403 	mov	r10,r28
                         404 --line135
                         405 ..lin.C.3A.5C_ECU2.5CECU_Rivian_A1.5CTarget.5Crepo_projects.5CpFOTA.5CcL_LATEST.5Cmake.5Cobj.5CESLib_RSA_PSS_Ver.24::
                         406 .LDWlin24:
00000168 e051            407 	cmp	zero,r10
0000016a 8a0d*           408 	bne	.L560
                         409 --line136
                         410 ..lin.C.3A.5C_ECU2.5CECU_Rivian_A1.5CTarget.5Crepo_projects.5CpFOTA.5CcL_LATEST.5Cmake.5Cobj.5CESLib_RSA_PSS_Ver.25::
                         411 .LDWlin25:
0000016c 1d30            412 	mov	r29,r6
0000016e 203e0007        413 	movea	1792,zero,r7
                         414 	jarl	_esl_SetWorkspaceStatus,lp
                         414 <EXPANSION BEGIN>
                         414 jarl22 _esl_SetWorkspaceStatus , lp 
00000172 80ff0000*       414 <EXPANSION END>
                         415 --line138
                         416 ..lin.C.3A.5C_ECU2.5CECU_Rivian_A1.5CTarget.5Crepo_projects.5CpFOTA.5CcL_LATEST.5Cmake.5Cobj.5CESLib_RSA_PSS_Ver.26::
                         417 .LDWlin26:
00000176 7ddfd108        418 	st.w	r27,2256[r29]
                         419 .L560:
0000017a 1c50            420 	mov	r28,r10
                         421 --	    .ef
                         422 .LDW62:
0000017c 4206fff0        423 	dispose	1,{r24,r25,r26,r27,r28,r29,r31},[lp]
                         424 	.type	_esl_initVerifyRSA_PSS,@function
                         425 	.size	_esl_initVerifyRSA_PSS,.-_esl_initVerifyRSA_PSS
                         426 	.type	_esl_initVerifyRSA_PSS..C.3A.5C_ECU2.5CECU_Rivian_A1.5CTarget.5Crepo_projects.5CpFOTA.5CcL_LATEST.5Cmake.5Cobj.5CESLib_RSA_PSS_Ver.,@function
                         427 	.size	_esl_initVerifyRSA_PSS..C.3A.5C_ECU2.5CECU_Rivian_A1.5CTarget.5Crepo_projects.5CpFOTA.5CcL_LATEST.5Cmake.5Cobj.5CESLib_RSA_PSS_Ver.,.-_esl_initVerifyRSA_PSS..C.3A.5C_ECU2.5CECU_Rivian_A1.5CTarget.5Crepo_projects.5CpFOTA.5CcL_LATEST.5Cmake.5Cobj.5CESLib_RSA_PSS_Ver.
                         428 	.align	2
                         429 .LDW72:
                         430 --_returnValue	r28	local
                         431 
                         432 --_workSpace	r29	param
                         433 --_keyPairModuleSize	r27	param
                         434 --_keyPairModule	r26	param
                         435 --_publicKeyExponentSize	r24	param
                         436 --_publicKeyExponent	r25	param
                         437 --_hashID	r18	param
                         438 
                         439 	.section ".bss","awb"
                         440 .L648:
                         441 	.type	.L648,@object
                         442 	.size	.L648,0
                         443 	.data
                         444 	.section ".MSR_CODE","ax"
                         445 	.align	2
                         446 	.align	2
                         447 ..gh.f.f.1.e.6:

                                                                      Page 9
                                                              C:\Users\nhuliyap\AppData\Local\Temp\gh_00003r81.s
                         448 	.type	..gh.f.f.1.e.6,@object
                         449 	.size	..gh.f.f.1.e.6,0
                         450 	.global	_esl_updateVerifyRSA_PSS..C.3A.5C_ECU2.5CECU_Rivian_A1.5CTarget.5Crepo_projects.5CpFOTA.5CcL_LATEST.5Cmake.5Cobj.5CESLib_RSA_PSS_Ver.
                         451 _esl_updateVerifyRSA_PSS..C.3A.5C_ECU2.5CECU_Rivian_A1.5CTarget.5Crepo_projects.5CpFOTA.5CcL_LATEST.5Cmake.5Cobj.5CESLib_RSA_PSS_Ver.:
                         452 _esl_updateVerifyRSA_PSS:
00000180 80076100        453 	prepare	{r29,r31},0
                         454 --	    .bf
                         455 .LDW82:
00000184 e041            456 	cmp	zero,r8
00000186 ca05*           457 	bne	.L725
                         458 --line154
                         459 ..lin.C.3A.5C_ECU2.5CECU_Rivian_A1.5CTarget.5Crepo_projects.5CpFOTA.5CcL_LATEST.5Cmake.5Cobj.5CESLib_RSA_PSS_Ver.27::
                         460 .LDWlin27:
00000188 20ee0320        461 	movea	8195,zero,r29
0000018c e50d*           462 	br	.L727
                         463 .L725:
0000018e 0798            464 	mov	r7,r19
                         465 --line157
                         466 ..lin.C.3A.5C_ECU2.5CECU_Rivian_A1.5CTarget.5Crepo_projects.5CpFOTA.5CcL_LATEST.5Cmake.5Cobj.5CESLib_RSA_PSS_Ver.28::
                         467 .LDWlin28:
00000190 0838            468 	mov	r8,r7
00000192 8900            469 	zxb	r9
00000194 00ea            470 	mov	0,r29
00000196 06365008        471 	addi	2128,r6,r6
0000019a 1340            472 	mov	r19,r8
                         473 	jarl	_actHashUpdate,lp
                         473 <EXPANSION BEGIN>
                         473 jarl22 _actHashUpdate , lp 
0000019c bfff92fe*       473 <EXPANSION END>
                         474 --line159
                         475 ..lin.C.3A.5C_ECU2.5CECU_Rivian_A1.5CTarget.5Crepo_projects.5CpFOTA.5CcL_LATEST.5Cmake.5Cobj.5CESLib_RSA_PSS_Ver.29::
                         476 .LDWlin29:
000001a0 e051            477 	cmp	zero,r10
000001a2 b205*           478 	be	.L727
                         479 --line160
                         480 ..lin.C.3A.5C_ECU2.5CECU_Rivian_A1.5CTarget.5Crepo_projects.5CpFOTA.5CcL_LATEST.5Cmake.5Cobj.5CESLib_RSA_PSS_Ver.30::
                         481 .LDWlin30:
000001a4 20ee2c20        482 	movea	8236,zero,r29
                         483 .L727:
000001a8 1d50            484 	mov	r29,r10
                         485 --	    .ef
                         486 .LDW92:
000001aa 40067f00        487 	dispose	0,{r29,r31},[lp]
                         488 	.type	_esl_updateVerifyRSA_PSS,@function
                         489 	.size	_esl_updateVerifyRSA_PSS,.-_esl_updateVerifyRSA_PSS
                         490 	.type	_esl_updateVerifyRSA_PSS..C.3A.5C_ECU2.5CECU_Rivian_A1.5CTarget.5Crepo_projects.5CpFOTA.5CcL_LATEST.5Cmake.5Cobj.5CESLib_RSA_PSS_Ver.,@function
                         491 	.size	_esl_updateVerifyRSA_PSS..C.3A.5C_ECU2.5CECU_Rivian_A1.5CTarget.5Crepo_projects.5CpFOTA.5CcL_LATEST.5Cmake.5Cobj.5CESLib_RSA_PSS_Ver.,.-_esl_updateVerifyRSA_PSS..C.3A.5C_ECU2.5CECU_Rivian_A1.5CTarget.5Crepo_projects.5CpFOTA.5CcL_LATEST.5Cmake.5Cobj.5CESLib_RSA_PSS_Ver.
                         492 	.align	2
                         493 .LDW03:
                         494 --_returnValue	r29	local
                         495 
                         496 --_workSpace	r6	param
                         497 --_inputSize	r19	param
                         498 --_input	r8	param
                         499 --_hashID	r9	param
                         500 
                         501 	.section ".bss","awb"
                         502 .L780:
                         503 	.type	.L780,@object
                         504 	.size	.L780,0
                         505 	.data

                                                                      Page 10
                                                              C:\Users\nhuliyap\AppData\Local\Temp\gh_00003r81.s
                         506 	.section ".MSR_CODE","ax"
                         507 	.align	2
                         508 	.align	2
                         509 ..gh.f.f.1.e.7:
                         510 	.type	..gh.f.f.1.e.7,@object
                         511 	.size	..gh.f.f.1.e.7,0
                         512 	.global	_esl_finalizeHashVerifyRSA_PSS..C.3A.5C_ECU2.5CECU_Rivian_A1.5CTarget.5Crepo_projects.5CpFOTA.5CcL_LATEST.5Cmake.5Cobj.5CESLib_RSA_PSS_Ver.
                         513 _esl_finalizeHashVerifyRSA_PSS..C.3A.5C_ECU2.5CECU_Rivian_A1.5CTarget.5Crepo_projects.5CpFOTA.5CcL_LATEST.5Cmake.5Cobj.5CESLib_RSA_PSS_Ver.:
                         514 _esl_finalizeHashVerifyRSA_PSS:
000001ae 8800            515 	zxb	r8
                         516 --	    .bf
                         517 .LDW13:
000001b0 06365008        518 	addi	2128,r6,r6
000001b4 bf07aefe*       519 	jr	_actHashFinalize
                         520 --	    .ef
                         521 .LDW23:
                         522 	.type	_esl_finalizeHashVerifyRSA_PSS,@function
                         523 	.size	_esl_finalizeHashVerifyRSA_PSS,.-_esl_finalizeHashVerifyRSA_PSS
                         524 	.type	_esl_finalizeHashVerifyRSA_PSS..C.3A.5C_ECU2.5CECU_Rivian_A1.5CTarget.5Crepo_projects.5CpFOTA.5CcL_LATEST.5Cmake.5Cobj.5CESLib_RSA_PSS_Ver.,@function
                         525 	.size	_esl_finalizeHashVerifyRSA_PSS..C.3A.5C_ECU2.5CECU_Rivian_A1.5CTarget.5Crepo_projects.5CpFOTA.5CcL_LATEST.5Cmake.5Cobj.5CESLib_RSA_PSS_Ver.,.-_esl_finalizeHashVerifyRSA_PSS..C.3A.5C_ECU2.5CECU_Rivian_A1.5CTarget.5Crepo_projects.5CpFOTA.5CcL_LATEST.5Cmake.5Cobj.5CESLib_RSA_PSS_Ver.
                         526 	.align	2
                         527 .LDW33:
                         528 
                         529 --_workSpace	r6	param
                         530 --_messageDigest	r7	param
                         531 --_hashID	r8	param
                         532 
                         533 	.section ".bss","awb"
                         534 .L865:
                         535 	.type	.L865,@object
                         536 	.size	.L865,0
                         537 	.data
                         538 	.section ".MSR_CODE","ax"
                         539 	.align	2
                         540 	.align	2
                         541 ..gh.f.f.1.e.8:
                         542 	.type	..gh.f.f.1.e.8,@object
                         543 	.size	..gh.f.f.1.e.8,0
                         544 	.global	_esl_verifySigVerifyRSA_PSS..C.3A.5C_ECU2.5CECU_Rivian_A1.5CTarget.5Crepo_projects.5CpFOTA.5CcL_LATEST.5Cmake.5Cobj.5CESLib_RSA_PSS_Ver.
                         545 _esl_verifySigVerifyRSA_PSS..C.3A.5C_ECU2.5CECU_Rivian_A1.5CTarget.5Crepo_projects.5CpFOTA.5CcL_LATEST.5Cmake.5Cobj.5CESLib_RSA_PSS_Ver.:
                         546 _esl_verifySigVerifyRSA_PSS:
000001b8 9007e3ff        547 	prepare	{r20,r21,r22,r23,r24,r25,r26,r27,r28,r29,r31},8,sp
000001bc 08d0            548 	mov	r8,r26
000001be 06e8            549 	mov	r6,r29
000001c0 07a0            550 	mov	r7,r20
000001c2 26dd            551 	sld.w	76[ep],r27
000001c4 2845            552 	sld.w	80[ep],r8
000001c6 83af5500        553 	ld.bu	84[sp],r21
                         554 --	    .bf
                         555 .LDW43:
000001ca 2697d108        556 	ld.w	2256[r6],r18
000001ce 06c61001        557 	addi	272,r6,r24
000001d2 06b6fb01        558 	addi	507,r6,r22
000001d6 0b4d            559 	sst.w	r9,20[ep]
000001d8 068e1000        560 	addi	16,r6,r17
000001dc 0d05            561 	sst.w	zero,24[ep]
000001de 0f05            562 	sst.w	zero,28[ep]
000001e0 0995            563 	sst.w	r18,16[ep]
000001e2 1b38            564 	mov	r27,r7
000001e4 06361c02        565 	addi	540,r6,r6
000001e8 018d            566 	sst.w	r17,0[ep]

                                                                      Page 11
                                                              C:\Users\nhuliyap\AppData\Local\Temp\gh_00003r81.s
000001ea 234e1000        567 	movea	16,sp,r9
                         568 	jarl	_esl_verifyRSA_prim,lp
                         568 <EXPANSION BEGIN>
                         568 jarl22 _esl_verifyRSA_prim , lp 
000001ee 80ff0000*       568 <EXPANSION END>
000001f2 0ae0            569 	mov	r10,r28
                         570 --line203
                         571 ..lin.C.3A.5C_ECU2.5CECU_Rivian_A1.5CTarget.5Crepo_projects.5CpFOTA.5CcL_LATEST.5Cmake.5Cobj.5CESLib_RSA_PSS_Ver.31::
                         572 .LDWlin31:
000001f4 e051            573 	cmp	zero,r10
000001f6 fa7d*           574 	bne	.L888
                         575 --line204
                         576 ..lin.C.3A.5C_ECU2.5CECU_Rivian_A1.5CTarget.5Crepo_projects.5CpFOTA.5CcL_LATEST.5Cmake.5Cobj.5CESLib_RSA_PSS_Ver.32::
                         577 .LDWlin32:
000001f8 03f0            578 	mov	sp,ep
000001fa 0845            579 	sld.w	16[ep],r8
000001fc 23861800        580 	movea	24,sp,r16
00000200 237e1c00        581 	movea	28,sp,r15
00000204 1d361c02        582 	addi	540,r29,r6
00000208 1b38            583 	mov	r27,r7
0000020a 1d4e1000        584 	addi	16,r29,r9
0000020e 0185            585 	sst.w	r16,0[ep]
00000210 037d            586 	sst.w	r15,4[ep]
                         587 	jarl	_esl_checkStandardConditionsEncodedMessage,lp
                         587 <EXPANSION BEGIN>
                         587 jarl22 _esl_checkStandardConditionsEncodedMessage , lp 
00000212 bfffa6fe*       587 <EXPANSION END>
00000216 0ae0            588 	mov	r10,r28
                         589 --line210
                         590 ..lin.C.3A.5C_ECU2.5CECU_Rivian_A1.5CTarget.5Crepo_projects.5CpFOTA.5CcL_LATEST.5Cmake.5Cobj.5CESLib_RSA_PSS_Ver.33::
                         591 .LDWlin33:
00000218 e051            592 	cmp	zero,r10
0000021a da6d*           593 	bne	.L888
                         594 --line211
                         595 ..lin.C.3A.5C_ECU2.5CECU_Rivian_A1.5CTarget.5Crepo_projects.5CpFOTA.5CcL_LATEST.5Cmake.5Cobj.5CESLib_RSA_PSS_Ver.34::
                         596 .LDWlin34:
0000021c 23971d00        597 	ld.w	28[sp],r18
00000220 1a760200        598 	addi	2,r26,r14
00000224 ee91            599 	cmp	r14,r18
00000226 c905*           600 	bnl	.L890
                         601 --line212
                         602 ..lin.C.3A.5C_ECU2.5CECU_Rivian_A1.5CTarget.5Crepo_projects.5CpFOTA.5CcL_LATEST.5Cmake.5Cobj.5CESLib_RSA_PSS_Ver.35::
                         603 .LDWlin35:
00000228 20e61e20        604 	movea	8222,zero,r28
0000022c c565*           605 	br	.L888
                         606 .L890:
                         607 --line215
                         608 ..lin.C.3A.5C_ECU2.5CECU_Rivian_A1.5CTarget.5Crepo_projects.5CpFOTA.5CcL_LATEST.5Cmake.5Cobj.5CESLib_RSA_PSS_Ver.36::
                         609 .LDWlin36:
0000022e ba91            610 	sub	r26,r18
00000230 12deffff        611 	addi	-1,r18,r27
00000234 1dbe1000        612 	addi	16,r29,r23
00000238 dbb9            613 	add	r27,r23
0000023a 1530            614 	mov	r21,r6
0000023c 1d3e5008        615 	addi	2128,r29,r7
00000240 1640            616 	mov	r22,r8
00000242 1a48            617 	mov	r26,r9
00000244 1860            618 	mov	r24,r12
00000246 1b68            619 	mov	r27,r13
00000248 1770            620 	mov	r23,r14
0000024a 1a78            621 	mov	r26,r15

                                                                      Page 12
                                                              C:\Users\nhuliyap\AppData\Local\Temp\gh_00003r81.s
0000024c 031e1000        622 	addi	16,sp,sp
00000250 ec476079        623 	pushsp	r12-r15
                         624 	jarl	_esl_generateMaskMGF1,lp
                         624 <EXPANSION BEGIN>
                         624 jarl22 _esl_generateMaskMGF1 , lp 
00000254 80ff0000*       624 <EXPANSION END>
00000258 0ae0            625 	mov	r10,r28
                         626 --line221
                         627 ..lin.C.3A.5C_ECU2.5CECU_Rivian_A1.5CTarget.5Crepo_projects.5CpFOTA.5CcL_LATEST.5Cmake.5Cobj.5CESLib_RSA_PSS_Ver.37::
                         628 .LDWlin37:
0000025a e051            629 	cmp	zero,r10
0000025c ca4d*           630 	bne	.L888
                         631 --line223
                         632 ..lin.C.3A.5C_ECU2.5CECU_Rivian_A1.5CTarget.5Crepo_projects.5CpFOTA.5CcL_LATEST.5Cmake.5Cobj.5CESLib_RSA_PSS_Ver.38::
                         633 .LDWlin38:
0000025e 1830            634 	mov	r24,r6
00000260 1d3e1000        635 	addi	16,r29,r7
00000264 1b40            636 	mov	r27,r8
                         637 	jarl	_actXOR,lp
                         637 <EXPANSION BEGIN>
                         637 jarl22 _actXOR , lp 
00000266 80ff0000*       637 <EXPANSION END>
                         638 --line225
                         639 ..lin.C.3A.5C_ECU2.5CECU_Rivian_A1.5CTarget.5Crepo_projects.5CpFOTA.5CcL_LATEST.5Cmake.5Cobj.5CESLib_RSA_PSS_Ver.39::
                         640 .LDWlin39:
0000026a 236f1900        641 	ld.w	24[sp],r13
0000026e 988f0100        642 	ld.bu	0[r24],r17
00000272 00ca            643 	mov	0,r25
00000274 cdf60700        644 	andi	7,r13,ep
00000278 c5f1            645 	add	r5,ep
0000027a be0705580000*   646 	ld.bu	rosdaoff23(_esl_RSAPSSEncodingMask)[ep],r11
00000280 4b89            647 	and	r11,r17
00000282 588f0000        648 	st.b	r17,0[r24]
00000286 f505*           649 	br	.L898
                         650 .L897:
                         651 --line229
                         652 ..lin.C.3A.5C_ECU2.5CECU_Rivian_A1.5CTarget.5Crepo_projects.5CpFOTA.5CcL_LATEST.5Cmake.5Cobj.5CESLib_RSA_PSS_Ver.40::
                         653 .LDWlin40:
00000288 19f0            654 	mov	r25,ep
0000028a d8f1            655 	add	r24,ep
0000028c 6050            656 	sld.bu	0[ep],r10
0000028e e051            657 	cmp	zero,r10
00000290 ea05*           658 	bne	.L901
                         659 --line227
                         660 ..lin.C.3A.5C_ECU2.5CECU_Rivian_A1.5CTarget.5Crepo_projects.5CpFOTA.5CcL_LATEST.5Cmake.5Cobj.5CESLib_RSA_PSS_Ver.41::
                         661 .LDWlin41:
00000292 41ca            662 	add	1,r25
                         663 .L898:
00000294 1b4effff        664 	addi	-1,r27,r9
00000298 e9c9            665 	cmp	r9,r25
0000029a f1f5*           666 	bl	.L897
                         667 .L901:
                         668 --line235
                         669 ..lin.C.3A.5C_ECU2.5CECU_Rivian_A1.5CTarget.5Crepo_projects.5CpFOTA.5CcL_LATEST.5Cmake.5Cobj.5CESLib_RSA_PSS_Ver.42::
                         670 .LDWlin42:
0000029c 1b38            671 	mov	r27,r7
0000029e 1940            672 	mov	r25,r8
000002a0 23361400        673 	movea	20,sp,r6
                         674 	jarl	_esl_checkSaltSizeVer,lp
                         674 <EXPANSION BEGIN>
                         674 jarl22 _esl_checkSaltSizeVer , lp 

                                                                      Page 13
                                                              C:\Users\nhuliyap\AppData\Local\Temp\gh_00003r81.s
000002a4 bffff2fd*       674 <EXPANSION END>
000002a8 0ae0            675 	mov	r10,r28
                         676 --line237
                         677 ..lin.C.3A.5C_ECU2.5CECU_Rivian_A1.5CTarget.5Crepo_projects.5CpFOTA.5CcL_LATEST.5Cmake.5Cobj.5CESLib_RSA_PSS_Ver.43::
                         678 .LDWlin43:
000002aa e051            679 	cmp	zero,r10
000002ac ca25*           680 	bne	.L888
                         681 --line239
                         682 ..lin.C.3A.5C_ECU2.5CECU_Rivian_A1.5CTarget.5Crepo_projects.5CpFOTA.5CcL_LATEST.5Cmake.5Cobj.5CESLib_RSA_PSS_Ver.44::
                         683 .LDWlin44:
000002ae 233f1500        684 	ld.w	20[sp],r7
000002b2 a7d9            685 	sub	r7,r27
000002b4 1b86ffff        686 	addi	-1,r27,r16
000002b8 10f0            687 	mov	r16,ep
000002ba d8f1            688 	add	r24,ep
000002bc 1e460100        689 	addi	1,ep,r8
000002c0 f0c9            690 	cmp	r16,r25
000002c2 fa15*           691 	bne	.L912
000002c4 6030            692 	sld.bu	0[ep],r6
000002c6 6132            693 	cmp	1,r6
000002c8 ca15*           694 	bne	.L912
                         695 --line249
                         696 ..lin.C.3A.5C_ECU2.5CECU_Rivian_A1.5CTarget.5Crepo_projects.5CpFOTA.5CcL_LATEST.5Cmake.5Cobj.5CESLib_RSA_PSS_Ver.45::
                         697 .LDWlin45:
000002ca 03f0            698 	mov	sp,ep
000002cc 1d365008        699 	addi	2128,r29,r6
000002d0 1448            700 	mov	r20,r9
000002d2 01d5            701 	sst.w	r26,0[ep]
000002d4 03b5            702 	sst.w	r22,4[ep]
000002d6 05ad            703 	sst.w	r21,8[ep]
                         704 	jarl	_esl_calcSaltedHashRSA_PSS,lp
                         704 <EXPANSION BEGIN>
                         704 jarl22 _esl_calcSaltedHashRSA_PSS , lp 
000002d8 80ff0000*       704 <EXPANSION END>
000002dc 0ae0            705 	mov	r10,r28
                         706 --line255
                         707 ..lin.C.3A.5C_ECU2.5CECU_Rivian_A1.5CTarget.5Crepo_projects.5CpFOTA.5CcL_LATEST.5Cmake.5Cobj.5CESLib_RSA_PSS_Ver.46::
                         708 .LDWlin46:
000002de e051            709 	cmp	zero,r10
000002e0 aa0d*           710 	bne	.L888
                         711 --line257
                         712 ..lin.C.3A.5C_ECU2.5CECU_Rivian_A1.5CTarget.5Crepo_projects.5CpFOTA.5CcL_LATEST.5Cmake.5Cobj.5CESLib_RSA_PSS_Ver.47::
                         713 .LDWlin47:
000002e2 1730            714 	mov	r23,r6
000002e4 1638            715 	mov	r22,r7
000002e6 1a40            716 	mov	r26,r8
                         717 	jarl	_actMemcmp,lp
                         717 <EXPANSION BEGIN>
                         717 jarl22 _actMemcmp , lp 
000002e8 80ff0000*       717 <EXPANSION END>
000002ec 6152            718 	cmp	1,r10
000002ee b205*           719 	be	.L888
                         720 .L912:
                         721 --line259
                         722 ..lin.C.3A.5C_ECU2.5CECU_Rivian_A1.5CTarget.5Crepo_projects.5CpFOTA.5CcL_LATEST.5Cmake.5Cobj.5CESLib_RSA_PSS_Ver.48::
                         723 .LDWlin48:
000002f0 20e61d20        724 	movea	8221,zero,r28
                         725 .L888:
000002f4 1c50            726 	mov	r28,r10
                         727 --	    .ef
                         728 .LDW53:

                                                                      Page 14
                                                              C:\Users\nhuliyap\AppData\Local\Temp\gh_00003r81.s
000002f6 5006ffff        729 	dispose	8,{r20,r21,r22,r23,r24,r25,r26,r27,r28,r29,r31},[lp]
                         730 	.type	_esl_verifySigVerifyRSA_PSS,@function
                         731 	.size	_esl_verifySigVerifyRSA_PSS,.-_esl_verifySigVerifyRSA_PSS
                         732 	.type	_esl_verifySigVerifyRSA_PSS..C.3A.5C_ECU2.5CECU_Rivian_A1.5CTarget.5Crepo_projects.5CpFOTA.5CcL_LATEST.5Cmake.5Cobj.5CESLib_RSA_PSS_Ver.,@function
                         733 	.size	_esl_verifySigVerifyRSA_PSS..C.3A.5C_ECU2.5CECU_Rivian_A1.5CTarget.5Crepo_projects.5CpFOTA.5CcL_LATEST.5Cmake.5Cobj.5CESLib_RSA_PSS_Ver.,.-_esl_verifySigVerifyRSA_PSS..C.3A.5C_ECU2.5CECU_Rivian_A1.5CTarget.5Crepo_projects.5CpFOTA.5CcL_LATEST.5Cmake.5Cobj.5CESLib_RSA_PSS_Ver.
                         734 	.align	2
                         735 .LDW63:
                         736 --_returnValue	r28	local
                         737 --_keyPairModuleSize	16[sp]	local
                         738 --_saltLength	20[sp]	local
                         739 --_i	r25	local
                         740 --_emBits	24[sp]	local
                         741 --_emLength	28[sp]	local
                         742 --_psLength	r16	local
                         743 --_dbLength	r27	local
                         744 --_saltedHash	r23	local
                         745 --_db	r24	local
                         746 --_dbSalt	r8	local
                         747 --_tempHash	r22	local
                         748 
                         749 --_workSpace	r29	param
                         750 --_messageDigest	r20	param
                         751 --_hashDigestSize	r26	param
                         752 --_saltSize	r9	param
                         753 --_signatureSize	r27	param
                         754 --_signature	r19	param
                         755 --_hashID	r21	param
                         756 
                         757 	.section ".bss","awb"
                         758 .L1077:
                         759 	.type	.L1077,@object
                         760 	.size	.L1077,0
                         761 	.data
                         762 	.section ".MSR_CODE","ax"
                         763 	.align	2
                         764 	.align	2
                         765 ..gh.f.f.1.e.9:
                         766 	.type	..gh.f.f.1.e.9,@object
                         767 	.size	..gh.f.f.1.e.9,0
                         768 	.global	_esl_initVerifyRSASHA1_PSS
                         769 _esl_initVerifyRSASHA1_PSS:
000002fa 8407e170        770 	prepare	{r25,r26,r27,r28,r29,r31},2
000002fe 23cf2100        771 	ld.w	32[sp],r25
                         772 --	    .bf
                         773 .LDW73:
00000302 e031            774 	cmp	zero,r6
00000304 da05*           775 	bne	.L1238
                         776 --line279
                         777 ..lin.C.3A.5C_ECU2.5CECU_Rivian_A1.5CTarget.5Crepo_projects.5CpFOTA.5CcL_LATEST.5Cmake.5Cobj.5CESLib_RSA_PSS_Ver.49::
                         778 .LDWlin49:
00000306 20560320        779 	movea	8195,zero,r10
0000030a 4406ff70        780 	dispose	2,{r25,r26,r27,r28,r29,r31},[lp]
                         781 .L1238:
0000030e 07e0            782 	mov	r7,r28
00000310 06e8            783 	mov	r6,r29
00000312 08d8            784 	mov	r8,r27
00000314 09d0            785 	mov	r9,r26
                         786 --line281
                         787 ..lin.C.3A.5C_ECU2.5CECU_Rivian_A1.5CTarget.5Crepo_projects.5CpFOTA.5CcL_LATEST.5Cmake.5Cobj.5CESLib_RSA_PSS_Ver.50::
                         788 .LDWlin50:
00000316 203ec408        789 	movea	2244,zero,r7

                                                                      Page 15
                                                              C:\Users\nhuliyap\AppData\Local\Temp\gh_00003r81.s
                         790 	jarl	_esl_CheckWorkSpaceHeader,lp
                         790 <EXPANSION BEGIN>
                         790 jarl22 _esl_CheckWorkSpaceHeader , lp 
0000031a 80ff0000*       790 <EXPANSION END>
0000031e e051            791 	cmp	zero,r10
00000320 ca15*           792 	bne	.L1236
                         793 --line285
                         794 ..lin.C.3A.5C_ECU2.5CECU_Rivian_A1.5CTarget.5Crepo_projects.5CpFOTA.5CcL_LATEST.5Cmake.5Cobj.5CESLib_RSA_PSS_Ver.51::
                         795 .LDWlin51:
00000322 3d470900        796 	ld.w	8[r29],r8
00000326 204e6000        797 	movea	96,zero,r9
0000032a 7d4f5108        798 	st.w	r9,2128[r29]
0000032e 03f0            799 	mov	sp,ep
00000330 7d475908        800 	st.w	r8,2136[r29]
00000334 1d30            801 	mov	r29,r6
00000336 1c38            802 	mov	r28,r7
00000338 1b40            803 	mov	r27,r8
0000033a 1a48            804 	mov	r26,r9
0000033c 01cd            805 	sst.w	r25,0[ep]
0000033e 0305            806 	sst.w	zero,4[ep]
                         807 	jarl	_esl_initVerifyRSA_PSS,lp
                         807 <EXPANSION BEGIN>
                         807 jarl22 _esl_initVerifyRSA_PSS , lp 
00000340 bfffd2fd*       807 <EXPANSION END>
00000344 4406ff70        808 	dispose	2,{r25,r26,r27,r28,r29,r31},[lp]
                         809 .L1236:
                         810 --	    .ef
                         811 .LDW83:
                         812 --line289
                         813 ..lin.C.3A.5C_ECU2.5CECU_Rivian_A1.5CTarget.5Crepo_projects.5CpFOTA.5CcL_LATEST.5Cmake.5Cobj.5CESLib_RSA_PSS_Ver.52::
                         814 .LDWlin52:
00000348 4406ff70        815 	dispose	2,{r25,r26,r27,r28,r29,r31},[lp]
                         816 	.type	_esl_initVerifyRSASHA1_PSS,@function
                         817 	.size	_esl_initVerifyRSASHA1_PSS,.-_esl_initVerifyRSASHA1_PSS
                         818 	.align	2
                         819 .LDW93:
                         820 --_returnValue	r10	local
                         821 
                         822 --_workSpace	r29	param
                         823 --_keyPairModuleSize	r28	param
                         824 --_keyPairModule	r27	param
                         825 --_publicKeyExponentSize	r26	param
                         826 --_publicKeyExponent	r25	param
                         827 
                         828 	.section ".bss","awb"
                         829 .L1292:
                         830 	.type	.L1292,@object
                         831 	.size	.L1292,0
                         832 	.data
                         833 	.section ".MSR_CODE","ax"
                         834 	.align	2
                         835 	.align	2
                         836 ..gh.f.f.1.e.10:
                         837 	.type	..gh.f.f.1.e.10,@object
                         838 	.size	..gh.f.f.1.e.10,0
                         839 	.global	_esl_updateVerifyRSASHA1_PSS
                         840 _esl_updateVerifyRSASHA1_PSS:
0000034c 8007e110        841 	prepare	{r27,r28,r29,r31},0
                         842 --	    .bf
                         843 .LDW04:
00000350 e031            844 	cmp	zero,r6

                                                                      Page 16
                                                              C:\Users\nhuliyap\AppData\Local\Temp\gh_00003r81.s
00000352 da05*           845 	bne	.L1353
                         846 --line299
                         847 ..lin.C.3A.5C_ECU2.5CECU_Rivian_A1.5CTarget.5Crepo_projects.5CpFOTA.5CcL_LATEST.5Cmake.5Cobj.5CESLib_RSA_PSS_Ver.53::
                         848 .LDWlin53:
00000354 20560320        849 	movea	8195,zero,r10
00000358 4006ff10        850 	dispose	0,{r27,r28,r29,r31},[lp]
                         851 .L1353:
0000035c 07e0            852 	mov	r7,r28
0000035e 08d8            853 	mov	r8,r27
00000360 06e8            854 	mov	r6,r29
                         855 --line302
                         856 ..lin.C.3A.5C_ECU2.5CECU_Rivian_A1.5CTarget.5Crepo_projects.5CpFOTA.5CcL_LATEST.5Cmake.5Cobj.5CESLib_RSA_PSS_Ver.54::
                         857 .LDWlin54:
00000362 203ec408        858 	movea	2244,zero,r7
00000366 20460007        859 	movea	1792,zero,r8
                         860 	jarl	_esl_CheckWorkSpaceHeaderAndState,lp
                         860 <EXPANSION BEGIN>
                         860 jarl22 _esl_CheckWorkSpaceHeaderAndState , lp 
0000036a 80ff0000*       860 <EXPANSION END>
                         861 --line305
                         862 ..lin.C.3A.5C_ECU2.5CECU_Rivian_A1.5CTarget.5Crepo_projects.5CpFOTA.5CcL_LATEST.5Cmake.5Cobj.5CESLib_RSA_PSS_Ver.55::
                         863 .LDWlin55:
0000036e e051            864 	cmp	zero,r10
00000370 ea0d*           865 	bne	.L1351
                         866 --line306
                         867 ..lin.C.3A.5C_ECU2.5CECU_Rivian_A1.5CTarget.5Crepo_projects.5CpFOTA.5CcL_LATEST.5Cmake.5Cobj.5CESLib_RSA_PSS_Ver.56::
                         868 .LDWlin56:
00000372 1d30            869 	mov	r29,r6
00000374 1c38            870 	mov	r28,r7
00000376 1b40            871 	mov	r27,r8
00000378 0a48            872 	mov	r10,r9
                         873 	jarl	_esl_updateVerifyRSA_PSS,lp
                         873 <EXPANSION BEGIN>
                         873 jarl22 _esl_updateVerifyRSA_PSS , lp 
0000037a bfff06fe*       873 <EXPANSION END>
                         874 --line307
                         875 ..lin.C.3A.5C_ECU2.5CECU_Rivian_A1.5CTarget.5Crepo_projects.5CpFOTA.5CcL_LATEST.5Cmake.5Cobj.5CESLib_RSA_PSS_Ver.57::
                         876 .LDWlin57:
0000037e 0a06d4df        877 	addi	-8236,r10,zero
00000382 da05*           878 	bne	.L1351
                         879 --line308
                         880 ..lin.C.3A.5C_ECU2.5CECU_Rivian_A1.5CTarget.5Crepo_projects.5CpFOTA.5CcL_LATEST.5Cmake.5Cobj.5CESLib_RSA_PSS_Ver.58::
                         881 .LDWlin58:
00000384 20560d20        882 	movea	8205,zero,r10
00000388 4006ff10        883 	dispose	0,{r27,r28,r29,r31},[lp]
                         884 .L1351:
                         885 --	    .ef
                         886 .LDW14:
                         887 --line311
                         888 ..lin.C.3A.5C_ECU2.5CECU_Rivian_A1.5CTarget.5Crepo_projects.5CpFOTA.5CcL_LATEST.5Cmake.5Cobj.5CESLib_RSA_PSS_Ver.59::
                         889 .LDWlin59:
0000038c 4006ff10        890 	dispose	0,{r27,r28,r29,r31},[lp]
                         891 	.type	_esl_updateVerifyRSASHA1_PSS,@function
                         892 	.size	_esl_updateVerifyRSASHA1_PSS,.-_esl_updateVerifyRSASHA1_PSS
                         893 	.align	2
                         894 .LDW24:
                         895 --_returnValue	r10	local
                         896 
                         897 --_workSpace	r29	param
                         898 --_inputSize	r28	param
                         899 --_input	r27	param

                                                                      Page 17
                                                              C:\Users\nhuliyap\AppData\Local\Temp\gh_00003r81.s
                         900 
                         901 	.section ".bss","awb"
                         902 .L1425:
                         903 	.type	.L1425,@object
                         904 	.size	.L1425,0
                         905 	.data
                         906 	.section ".MSR_CODE","ax"
                         907 	.align	2
                         908 	.align	2
                         909 ..gh.f.f.1.e.11:
                         910 	.type	..gh.f.f.1.e.11,@object
                         911 	.size	..gh.f.f.1.e.11,0
                         912 	.global	_esl_finalizeHashVerifyRSASHA1_PSS
                         913 _esl_finalizeHashVerifyRSASHA1_PSS:
00000390 8007e110        914 	prepare	{r27,r28,r29,r31},0
00000394 06e0            915 	mov	r6,r28
00000396 07d8            916 	mov	r7,r27
                         917 --	    .bf
                         918 .LDW34:
00000398 e031            919 	cmp	zero,r6
0000039a b205*           920 	be	.L1499
0000039c e039            921 	cmp	zero,r7
0000039e ca05*           922 	bne	.L1498
                         923 .L1499:
                         924 --line320
                         925 ..lin.C.3A.5C_ECU2.5CECU_Rivian_A1.5CTarget.5Crepo_projects.5CpFOTA.5CcL_LATEST.5Cmake.5Cobj.5CESLib_RSA_PSS_Ver.60::
                         926 .LDWlin60:
000003a0 20ee0320        927 	movea	8195,zero,r29
000003a4 f50d*           928 	br	.L1502
                         929 .L1498:
                         930 --line323
                         931 ..lin.C.3A.5C_ECU2.5CECU_Rivian_A1.5CTarget.5Crepo_projects.5CpFOTA.5CcL_LATEST.5Cmake.5Cobj.5CESLib_RSA_PSS_Ver.61::
                         932 .LDWlin61:
000003a6 203ec408        933 	movea	2244,zero,r7
000003aa 20460007        934 	movea	1792,zero,r8
                         935 	jarl	_esl_CheckWorkSpaceHeaderAndState,lp
                         935 <EXPANSION BEGIN>
                         935 jarl22 _esl_CheckWorkSpaceHeaderAndState , lp 
000003ae 80ff0000*       935 <EXPANSION END>
000003b2 0ae8            936 	mov	r10,r29
                         937 --line326
                         938 ..lin.C.3A.5C_ECU2.5CECU_Rivian_A1.5CTarget.5Crepo_projects.5CpFOTA.5CcL_LATEST.5Cmake.5Cobj.5CESLib_RSA_PSS_Ver.62::
                         939 .LDWlin62:
000003b4 e051            940 	cmp	zero,r10
000003b6 ea05*           941 	bne	.L1502
                         942 --line327
                         943 ..lin.C.3A.5C_ECU2.5CECU_Rivian_A1.5CTarget.5Crepo_projects.5CpFOTA.5CcL_LATEST.5Cmake.5Cobj.5CESLib_RSA_PSS_Ver.63::
                         944 .LDWlin63:
000003b8 1c30            945 	mov	r28,r6
000003ba 1b38            946 	mov	r27,r7
000003bc 0a40            947 	mov	r10,r8
                         948 	jarl	_esl_finalizeHashVerifyRSA_PSS,lp
                         948 <EXPANSION BEGIN>
                         948 jarl22 _esl_finalizeHashVerifyRSA_PSS , lp 
000003be bffff0fd*       948 <EXPANSION END>
                         949 .L1502:
                         950 --line330
                         951 ..lin.C.3A.5C_ECU2.5CECU_Rivian_A1.5CTarget.5Crepo_projects.5CpFOTA.5CcL_LATEST.5Cmake.5Cobj.5CESLib_RSA_PSS_Ver.64::
                         952 .LDWlin64:
000003c2 1d50            953 	mov	r29,r10
                         954 --	    .ef

                                                                      Page 18
                                                              C:\Users\nhuliyap\AppData\Local\Temp\gh_00003r81.s
                         955 .LDW44:
000003c4 4006ff10        956 	dispose	0,{r27,r28,r29,r31},[lp]
                         957 	.type	_esl_finalizeHashVerifyRSASHA1_PSS,@function
                         958 	.size	_esl_finalizeHashVerifyRSASHA1_PSS,.-_esl_finalizeHashVerifyRSASHA1_PSS
                         959 	.align	2
                         960 .LDW54:
                         961 --_returnValue	r29	local
                         962 
                         963 --_workSpace	r28	param
                         964 --_messageDigest	r27	param
                         965 
                         966 	.section ".bss","awb"
                         967 .L1569:
                         968 	.type	.L1569,@object
                         969 	.size	.L1569,0
                         970 	.data
                         971 	.section ".MSR_CODE","ax"
                         972 	.align	2
                         973 	.align	2
                         974 ..gh.f.f.1.e.12:
                         975 	.type	..gh.f.f.1.e.12,@object
                         976 	.size	..gh.f.f.1.e.12,0
                         977 	.global	_esl_verifySigVerifyRSASHA1_PSS
                         978 _esl_verifySigVerifyRSASHA1_PSS:
000003c8 8607e170        979 	prepare	{r25,r26,r27,r28,r29,r31},3
000003cc 06e8            980 	mov	r6,r29
000003ce 07e0            981 	mov	r7,r28
000003d0 08d0            982 	mov	r8,r26
000003d2 09c8            983 	mov	r9,r25
000003d4 23df2500        984 	ld.w	36[sp],r27
                         985 --	    .bf
                         986 .LDW64:
000003d8 e031            987 	cmp	zero,r6
000003da d205*           988 	be	.L1638
000003dc e039            989 	cmp	zero,r7
000003de b205*           990 	be	.L1638
000003e0 e0d9            991 	cmp	zero,r27
000003e2 da05*           992 	bne	.L1637
                         993 .L1638:
                         994 --line342
                         995 ..lin.C.3A.5C_ECU2.5CECU_Rivian_A1.5CTarget.5Crepo_projects.5CpFOTA.5CcL_LATEST.5Cmake.5Cobj.5CESLib_RSA_PSS_Ver.65::
                         996 .LDWlin65:
000003e4 20560320        997 	movea	8195,zero,r10
000003e8 4606ff70        998 	dispose	3,{r25,r26,r27,r28,r29,r31},[lp]
                         999 .L1637:
                        1000 --line345
                        1001 ..lin.C.3A.5C_ECU2.5CECU_Rivian_A1.5CTarget.5Crepo_projects.5CpFOTA.5CcL_LATEST.5Cmake.5Cobj.5CESLib_RSA_PSS_Ver.66::
                        1002 .LDWlin66:
000003ec 203ec408       1003 	movea	2244,zero,r7
000003f0 20460007       1004 	movea	1792,zero,r8
                        1005 	jarl	_esl_CheckWorkSpaceHeaderAndState,lp
                        1005 <EXPANSION BEGIN>
                        1005 jarl22 _esl_CheckWorkSpaceHeaderAndState , lp 
000003f4 80ff0000*      1005 <EXPANSION END>
                        1006 --line348
                        1007 ..lin.C.3A.5C_ECU2.5CECU_Rivian_A1.5CTarget.5Crepo_projects.5CpFOTA.5CcL_LATEST.5Cmake.5Cobj.5CESLib_RSA_PSS_Ver.67::
                        1008 .LDWlin67:
000003f8 e051           1009 	cmp	zero,r10
000003fa ea0d*          1010 	bne	.L1635
                        1011 --line349
                        1012 ..lin.C.3A.5C_ECU2.5CECU_Rivian_A1.5CTarget.5Crepo_projects.5CpFOTA.5CcL_LATEST.5Cmake.5Cobj.5CESLib_RSA_PSS_Ver.68::

                                                                      Page 19
                                                              C:\Users\nhuliyap\AppData\Local\Temp\gh_00003r81.s
                        1013 .LDWlin68:
000003fc 03f0           1014 	mov	sp,ep
000003fe 1d30           1015 	mov	r29,r6
00000400 1c38           1016 	mov	r28,r7
00000402 1a48           1017 	mov	r26,r9
00000404 01cd           1018 	sst.w	r25,0[ep]
00000406 03dd           1019 	sst.w	r27,4[ep]
00000408 0505           1020 	sst.w	zero,8[ep]
0000040a 20461400       1021 	movea	20,zero,r8
                        1022 	jarl	_esl_verifySigVerifyRSA_PSS,lp
                        1022 <EXPANSION BEGIN>
                        1022 jarl22 _esl_verifySigVerifyRSA_PSS , lp 
0000040e bfffaafd*      1022 <EXPANSION END>
00000412 4606ff70       1023 	dispose	3,{r25,r26,r27,r28,r29,r31},[lp]
                        1024 .L1635:
                        1025 --	    .ef
                        1026 .LDW74:
                        1027 --line352
                        1028 ..lin.C.3A.5C_ECU2.5CECU_Rivian_A1.5CTarget.5Crepo_projects.5CpFOTA.5CcL_LATEST.5Cmake.5Cobj.5CESLib_RSA_PSS_Ver.69::
                        1029 .LDWlin69:
00000416 4606ff70       1030 	dispose	3,{r25,r26,r27,r28,r29,r31},[lp]
                        1031 	.type	_esl_verifySigVerifyRSASHA1_PSS,@function
                        1032 	.size	_esl_verifySigVerifyRSASHA1_PSS,.-_esl_verifySigVerifyRSASHA1_PSS
                        1033 	.align	2
                        1034 .LDW84:
                        1035 --_returnValue	r10	local
                        1036 
                        1037 --_workSpace	r29	param
                        1038 --_messageDigest	r28	param
                        1039 --_saltSize	r26	param
                        1040 --_signatureSize	r25	param
                        1041 --_signature	r27	param
                        1042 
                        1043 	.section ".bss","awb"
                        1044 .L1720:
                        1045 	.type	.L1720,@object
                        1046 	.size	.L1720,0
                        1047 	.data
                        1048 	.section ".MSR_CODE","ax"
                        1049 	.align	2
                        1050 	.align	2
                        1051 ..gh.f.f.1.e.13:
                        1052 	.type	..gh.f.f.1.e.13,@object
                        1053 	.size	..gh.f.f.1.e.13,0
                        1054 	.global	_esl_verifySigVerifyRSASHA1_PSS_AutoSalt
                        1055 _esl_verifySigVerifyRSASHA1_PSS_AutoSalt:
0000041a 82072100       1056 	prepare	{r31},1
                        1057 --	    .bf
                        1058 .LDW94:
0000041e 634f0100       1059 	st.w	r9,0[sp]
00000422 0848           1060 	mov	r8,r9
00000424 1f42           1061 	mov	-1,r8
                        1062 	jarl	_esl_verifySigVerifyRSASHA1_PSS,lp
                        1062 <EXPANSION BEGIN>
                        1062 jarl22 _esl_verifySigVerifyRSASHA1_PSS , lp 
00000426 bfffa2ff*      1062 <EXPANSION END>
                        1063 --	    .ef
                        1064 .LDW05:
                        1065 --line362
                        1066 ..lin.C.3A.5C_ECU2.5CECU_Rivian_A1.5CTarget.5Crepo_projects.5CpFOTA.5CcL_LATEST.5Cmake.5Cobj.5CESLib_RSA_PSS_Ver.70::
                        1067 .LDWlin70:

                                                                      Page 20
                                                              C:\Users\nhuliyap\AppData\Local\Temp\gh_00003r81.s
0000042a 42063f00       1068 	dispose	1,{r31},[lp]
                        1069 	.type	_esl_verifySigVerifyRSASHA1_PSS_AutoSalt,@function
                        1070 	.size	_esl_verifySigVerifyRSASHA1_PSS_AutoSalt,.-_esl_verifySigVerifyRSASHA1_PSS_AutoSalt
                        1071 	.align	2
                        1072 .LDW15:
                        1073 
                        1074 --_workSpace	r6	param
                        1075 --_messageDigest	r7	param
                        1076 --_signatureSize	r8	param
                        1077 --_signature	r19	param
                        1078 
                        1079 	.section ".bss","awb"
                        1080 .L1828:
                        1081 	.type	.L1828,@object
                        1082 	.size	.L1828,0
                        1083 	.data
                        1084 	.section ".MSR_CODE","ax"
                        1085 	.align	2
                        1086 	.align	2
                        1087 ..gh.f.f.1.e.14:
                        1088 	.type	..gh.f.f.1.e.14,@object
                        1089 	.size	..gh.f.f.1.e.14,0
                        1090 	.global	_esl_verifySigVerifyRSASHA1_PSS_NoSalt
                        1091 _esl_verifySigVerifyRSASHA1_PSS_NoSalt:
0000042e 82072100       1092 	prepare	{r31},1
                        1093 --	    .bf
                        1094 .LDW25:
00000432 634f0100       1095 	st.w	r9,0[sp]
00000436 0848           1096 	mov	r8,r9
00000438 0042           1097 	mov	0,r8
                        1098 	jarl	_esl_verifySigVerifyRSASHA1_PSS,lp
                        1098 <EXPANSION BEGIN>
                        1098 jarl22 _esl_verifySigVerifyRSASHA1_PSS , lp 
0000043a bfff8eff*      1098 <EXPANSION END>
                        1099 --	    .ef
                        1100 .LDW35:
                        1101 --line372
                        1102 ..lin.C.3A.5C_ECU2.5CECU_Rivian_A1.5CTarget.5Crepo_projects.5CpFOTA.5CcL_LATEST.5Cmake.5Cobj.5CESLib_RSA_PSS_Ver.71::
                        1103 .LDWlin71:
0000043e 42063f00       1104 	dispose	1,{r31},[lp]
                        1105 	.type	_esl_verifySigVerifyRSASHA1_PSS_NoSalt,@function
                        1106 	.size	_esl_verifySigVerifyRSASHA1_PSS_NoSalt,.-_esl_verifySigVerifyRSASHA1_PSS_NoSalt
                        1107 	.align	2
                        1108 .LDW45:
                        1109 
                        1110 --_workSpace	r6	param
                        1111 --_messageDigest	r7	param
                        1112 --_signatureSize	r8	param
                        1113 --_signature	r19	param
                        1114 
                        1115 	.section ".bss","awb"
                        1116 .L1876:
                        1117 	.type	.L1876,@object
                        1118 	.size	.L1876,0
                        1119 	.data
                        1120 	.section ".MSR_CODE","ax"
                        1121 	.align	2
                        1122 	.align	2
                        1123 ..gh.f.f.1.e.15:
                        1124 	.type	..gh.f.f.1.e.15,@object
                        1125 	.size	..gh.f.f.1.e.15,0

                                                                      Page 21
                                                              C:\Users\nhuliyap\AppData\Local\Temp\gh_00003r81.s
                        1126 	.global	_esl_verifySigVerifyRSASHA1_PSS_DigestLengthSalt
                        1127 _esl_verifySigVerifyRSASHA1_PSS_DigestLengthSalt:
00000442 82072100       1128 	prepare	{r31},1
                        1129 --	    .bf
                        1130 .LDW55:
00000446 634f0100       1131 	st.w	r9,0[sp]
0000044a 0848           1132 	mov	r8,r9
0000044c 20461400       1133 	movea	20,zero,r8
                        1134 	jarl	_esl_verifySigVerifyRSASHA1_PSS,lp
                        1134 <EXPANSION BEGIN>
                        1134 jarl22 _esl_verifySigVerifyRSASHA1_PSS , lp 
00000450 bfff78ff*      1134 <EXPANSION END>
                        1135 --	    .ef
                        1136 .LDW65:
                        1137 --line383
                        1138 ..lin.C.3A.5C_ECU2.5CECU_Rivian_A1.5CTarget.5Crepo_projects.5CpFOTA.5CcL_LATEST.5Cmake.5Cobj.5CESLib_RSA_PSS_Ver.72::
                        1139 .LDWlin72:
00000454 42063f00       1140 	dispose	1,{r31},[lp]
                        1141 	.type	_esl_verifySigVerifyRSASHA1_PSS_DigestLengthSalt,@function
                        1142 	.size	_esl_verifySigVerifyRSASHA1_PSS_DigestLengthSalt,.-_esl_verifySigVerifyRSASHA1_PSS_DigestLengthSalt
                        1143 	.align	2
                        1144 .LDW75:
                        1145 
                        1146 --_workSpace	r6	param
                        1147 --_messageDigest	r7	param
                        1148 --_signatureSize	r8	param
                        1149 --_signature	r19	param
                        1150 
                        1151 	.section ".bss","awb"
                        1152 .L1924:
                        1153 	.type	.L1924,@object
                        1154 	.size	.L1924,0
                        1155 	.data
                        1156 	.section ".MSR_CODE","ax"
                        1157 	.align	2
                        1158 	.align	2
                        1159 ..gh.f.f.1.e.16:
                        1160 	.type	..gh.f.f.1.e.16,@object
                        1161 	.size	..gh.f.f.1.e.16,0
                        1162 	.global	_esl_finalizeVerifyRSASHA1_PSS
                        1163 _esl_finalizeVerifyRSASHA1_PSS:
00000458 8c07e130       1164 	prepare	{r26,r27,r28,r29,r31},6
0000045c 06e8           1165 	mov	r6,r29
0000045e 07e0           1166 	mov	r7,r28
00000460 08d8           1167 	mov	r8,r27
00000462 09d0           1168 	mov	r9,r26
                        1169 --	    .bf
                        1170 .LDW85:
00000464 23360400       1171 	movea	4,sp,r6
00000468 003a           1172 	mov	0,r7
0000046a 20461400       1173 	movea	20,zero,r8
                        1174 	jarl	_VStdLib_MemSet,lp
                        1174 <EXPANSION BEGIN>
                        1174 jarl22 _VStdLib_MemSet , lp 
0000046e 80ff0000*      1174 <EXPANSION END>
                        1175 --line396
                        1176 ..lin.C.3A.5C_ECU2.5CECU_Rivian_A1.5CTarget.5Crepo_projects.5CpFOTA.5CcL_LATEST.5Cmake.5Cobj.5CESLib_RSA_PSS_Ver.73::
                        1177 .LDWlin73:
00000472 e0e9           1178 	cmp	zero,r29
00000474 da05*          1179 	bne	.L1944
                        1180 --line397

                                                                      Page 22
                                                              C:\Users\nhuliyap\AppData\Local\Temp\gh_00003r81.s
                        1181 ..lin.C.3A.5C_ECU2.5CECU_Rivian_A1.5CTarget.5Crepo_projects.5CpFOTA.5CcL_LATEST.5Cmake.5Cobj.5CESLib_RSA_PSS_Ver.74::
                        1182 .LDWlin74:
00000476 20560320       1183 	movea	8195,zero,r10
0000047a 4c06ff30       1184 	dispose	6,{r26,r27,r28,r29,r31},[lp]
                        1185 .L1944:
                        1186 --line400
                        1187 ..lin.C.3A.5C_ECU2.5CECU_Rivian_A1.5CTarget.5Crepo_projects.5CpFOTA.5CcL_LATEST.5Cmake.5Cobj.5CESLib_RSA_PSS_Ver.75::
                        1188 .LDWlin75:
0000047e 1d30           1189 	mov	r29,r6
00000480 203ec408       1190 	movea	2244,zero,r7
00000484 20460007       1191 	movea	1792,zero,r8
                        1192 	jarl	_esl_CheckWorkSpaceHeaderAndState,lp
                        1192 <EXPANSION BEGIN>
                        1192 jarl22 _esl_CheckWorkSpaceHeaderAndState , lp 
00000488 80ff0000*      1192 <EXPANSION END>
                        1193 --line403
                        1194 ..lin.C.3A.5C_ECU2.5CECU_Rivian_A1.5CTarget.5Crepo_projects.5CpFOTA.5CcL_LATEST.5Cmake.5Cobj.5CESLib_RSA_PSS_Ver.76::
                        1195 .LDWlin76:
0000048c e051           1196 	cmp	zero,r10
0000048e 9a15*          1197 	bne	.L1942
                        1198 --line404
                        1199 ..lin.C.3A.5C_ECU2.5CECU_Rivian_A1.5CTarget.5Crepo_projects.5CpFOTA.5CcL_LATEST.5Cmake.5Cobj.5CESLib_RSA_PSS_Ver.77::
                        1200 .LDWlin77:
00000490 1d30           1201 	mov	r29,r6
00000492 233e0400       1202 	movea	4,sp,r7
                        1203 	jarl	_esl_finalizeHashVerifyRSASHA1_PSS,lp
                        1203 <EXPANSION BEGIN>
                        1203 jarl22 _esl_finalizeHashVerifyRSASHA1_PSS , lp 
00000496 bffffafe*      1203 <EXPANSION END>
                        1204 --line405
                        1205 ..lin.C.3A.5C_ECU2.5CECU_Rivian_A1.5CTarget.5Crepo_projects.5CpFOTA.5CcL_LATEST.5Cmake.5Cobj.5CESLib_RSA_PSS_Ver.78::
                        1206 .LDWlin78:
0000049a 1d30           1207 	mov	r29,r6
0000049c 1c40           1208 	mov	r28,r8
0000049e 1b48           1209 	mov	r27,r9
000004a0 63d70100       1210 	st.w	r26,0[sp]
000004a4 233e0400       1211 	movea	4,sp,r7
                        1212 	jarl	_esl_verifySigVerifyRSASHA1_PSS,lp
                        1212 <EXPANSION BEGIN>
                        1212 jarl22 _esl_verifySigVerifyRSASHA1_PSS , lp 
000004a8 bfff20ff*      1212 <EXPANSION END>
000004ac 4c06ff30       1213 	dispose	6,{r26,r27,r28,r29,r31},[lp]
                        1214 .L1942:
                        1215 --	    .ef
                        1216 .LDW95:
                        1217 --line407
                        1218 ..lin.C.3A.5C_ECU2.5CECU_Rivian_A1.5CTarget.5Crepo_projects.5CpFOTA.5CcL_LATEST.5Cmake.5Cobj.5CESLib_RSA_PSS_Ver.79::
                        1219 .LDWlin79:
000004b0 4c06ff30       1220 	dispose	6,{r26,r27,r28,r29,r31},[lp]
                        1221 	.type	_esl_finalizeVerifyRSASHA1_PSS,@function
                        1222 	.size	_esl_finalizeVerifyRSASHA1_PSS,.-_esl_finalizeVerifyRSASHA1_PSS
                        1223 	.align	2
                        1224 .LDW06:
                        1225 --_returnValue	r10	local
                        1226 --_hash	4[sp]	local
                        1227 
                        1228 --_workSpace	r29	param
                        1229 --_saltSize	r28	param
                        1230 --_signatureSize	r27	param
                        1231 --_signature	r26	param
                        1232 

                                                                      Page 23
                                                              C:\Users\nhuliyap\AppData\Local\Temp\gh_00003r81.s
                        1233 	.section ".bss","awb"
                        1234 .L2010:
                        1235 	.type	.L2010,@object
                        1236 	.size	.L2010,0
                        1237 	.data
                        1238 	.section ".MSR_CODE","ax"
                        1239 	.align	2
                        1240 	.align	2
                        1241 ..gh.f.f.1.e.17:
                        1242 	.type	..gh.f.f.1.e.17,@object
                        1243 	.size	..gh.f.f.1.e.17,0
                        1244 	.global	_esl_finalizeVerifyRSASHA1_PSS_AutoSalt
                        1245 _esl_finalizeVerifyRSASHA1_PSS_AutoSalt:
000004b4 0848           1246 	mov	r8,r9
                        1247 --	    .bf
                        1248 .LDW16:
000004b6 0740           1249 	mov	r7,r8
000004b8 1f3a           1250 	mov	-1,r7
000004ba bf079eff*      1251 	jr	_esl_finalizeVerifyRSASHA1_PSS
                        1252 --	    .ef
                        1253 .LDW26:
                        1254 	.type	_esl_finalizeVerifyRSASHA1_PSS_AutoSalt,@function
                        1255 	.size	_esl_finalizeVerifyRSASHA1_PSS_AutoSalt,.-_esl_finalizeVerifyRSASHA1_PSS_AutoSalt
                        1256 	.align	2
                        1257 .LDW36:
                        1258 
                        1259 --_workSpace	r6	param
                        1260 --_signatureSize	r7	param
                        1261 --_signature	r9	param
                        1262 
                        1263 	.section ".bss","awb"
                        1264 .L2100:
                        1265 	.type	.L2100,@object
                        1266 	.size	.L2100,0
                        1267 	.data
                        1268 	.section ".MSR_CODE","ax"
                        1269 	.align	2
                        1270 	.align	2
                        1271 ..gh.f.f.1.e.18:
                        1272 	.type	..gh.f.f.1.e.18,@object
                        1273 	.size	..gh.f.f.1.e.18,0
                        1274 	.global	_esl_finalizeVerifyRSASHA1_PSS_NoSalt
                        1275 _esl_finalizeVerifyRSASHA1_PSS_NoSalt:
000004be 0848           1276 	mov	r8,r9
                        1277 --	    .bf
                        1278 .LDW46:
000004c0 0740           1279 	mov	r7,r8
000004c2 003a           1280 	mov	0,r7
000004c4 bf0794ff*      1281 	jr	_esl_finalizeVerifyRSASHA1_PSS
                        1282 --	    .ef
                        1283 .LDW56:
                        1284 	.type	_esl_finalizeVerifyRSASHA1_PSS_NoSalt,@function
                        1285 	.size	_esl_finalizeVerifyRSASHA1_PSS_NoSalt,.-_esl_finalizeVerifyRSASHA1_PSS_NoSalt
                        1286 	.align	2
                        1287 .LDW66:
                        1288 
                        1289 --_workSpace	r6	param
                        1290 --_signatureSize	r7	param
                        1291 --_signature	r9	param
                        1292 
                        1293 	.section ".bss","awb"

                                                                      Page 24
                                                              C:\Users\nhuliyap\AppData\Local\Temp\gh_00003r81.s
                        1294 .L2148:
                        1295 	.type	.L2148,@object
                        1296 	.size	.L2148,0
                        1297 	.data
                        1298 	.section ".MSR_CODE","ax"
                        1299 	.align	2
                        1300 	.align	2
                        1301 ..gh.f.f.1.e.19:
                        1302 	.type	..gh.f.f.1.e.19,@object
                        1303 	.size	..gh.f.f.1.e.19,0
                        1304 	.global	_esl_finalizeVerifyRSASHA1_PSS_DigestLengthSalt
                        1305 _esl_finalizeVerifyRSASHA1_PSS_DigestLengthSalt:
000004c8 0848           1306 	mov	r8,r9
                        1307 --	    .bf
                        1308 .LDW76:
000004ca 0740           1309 	mov	r7,r8
000004cc 203e1400       1310 	movea	20,zero,r7
000004d0 bf0788ff*      1311 	jr	_esl_finalizeVerifyRSASHA1_PSS
                        1312 --	    .ef
                        1313 .LDW86:
                        1314 	.type	_esl_finalizeVerifyRSASHA1_PSS_DigestLengthSalt,@function
                        1315 	.size	_esl_finalizeVerifyRSASHA1_PSS_DigestLengthSalt,.-_esl_finalizeVerifyRSASHA1_PSS_DigestLengthSalt
                        1316 	.align	2
                        1317 .LDW96:
                        1318 
                        1319 --_workSpace	r6	param
                        1320 --_signatureSize	r7	param
                        1321 --_signature	r9	param
                        1322 
                        1323 	.section ".bss","awb"
                        1324 .L2196:
                        1325 	.type	.L2196,@object
                        1326 	.size	.L2196,0
                        1327 	.data
                        1328 	.section ".MSR_CODE","ax"
                        1329 	.align	2
                        1330 	.align	2
                        1331 ..gh.f.f.1.e.20:
                        1332 	.type	..gh.f.f.1.e.20,@object
                        1333 	.size	..gh.f.f.1.e.20,0
                        1334 	.global	_esl_initVerifyRSASHA256_PSS
                        1335 _esl_initVerifyRSASHA256_PSS:
000004d4 8407e170       1336 	prepare	{r25,r26,r27,r28,r29,r31},2
000004d8 23cf2100       1337 	ld.w	32[sp],r25
                        1338 --	    .bf
                        1339 .LDW07:
000004dc e031           1340 	cmp	zero,r6
000004de da05*          1341 	bne	.L2217
                        1342 --line449
                        1343 ..lin.C.3A.5C_ECU2.5CECU_Rivian_A1.5CTarget.5Crepo_projects.5CpFOTA.5CcL_LATEST.5Cmake.5Cobj.5CESLib_RSA_PSS_Ver.80::
                        1344 .LDWlin80:
000004e0 20560320       1345 	movea	8195,zero,r10
000004e4 4406ff70       1346 	dispose	2,{r25,r26,r27,r28,r29,r31},[lp]
                        1347 .L2217:
000004e8 07e0           1348 	mov	r7,r28
000004ea 06e8           1349 	mov	r6,r29
000004ec 08d8           1350 	mov	r8,r27
000004ee 09d0           1351 	mov	r9,r26
                        1352 --line451
                        1353 ..lin.C.3A.5C_ECU2.5CECU_Rivian_A1.5CTarget.5Crepo_projects.5CpFOTA.5CcL_LATEST.5Cmake.5Cobj.5CESLib_RSA_PSS_Ver.81::
                        1354 .LDWlin81:

                                                                      Page 25
                                                              C:\Users\nhuliyap\AppData\Local\Temp\gh_00003r81.s
000004f0 203ec408       1355 	movea	2244,zero,r7
                        1356 	jarl	_esl_CheckWorkSpaceHeader,lp
                        1356 <EXPANSION BEGIN>
                        1356 jarl22 _esl_CheckWorkSpaceHeader , lp 
000004f4 80ff0000*      1356 <EXPANSION END>
000004f8 e051           1357 	cmp	zero,r10
000004fa da15*          1358 	bne	.L2215
                        1359 --line455
                        1360 ..lin.C.3A.5C_ECU2.5CECU_Rivian_A1.5CTarget.5Crepo_projects.5CpFOTA.5CcL_LATEST.5Cmake.5Cobj.5CESLib_RSA_PSS_Ver.82::
                        1361 .LDWlin82:
000004fc 3d470900       1362 	ld.w	8[r29],r8
00000500 204e7000       1363 	movea	112,zero,r9
00000504 7d4f5108       1364 	st.w	r9,2128[r29]
00000508 03f0           1365 	mov	sp,ep
0000050a 7d475908       1366 	st.w	r8,2136[r29]
0000050e 029a           1367 	mov	2,r19
00000510 1d30           1368 	mov	r29,r6
00000512 1c38           1369 	mov	r28,r7
00000514 1b40           1370 	mov	r27,r8
00000516 1a48           1371 	mov	r26,r9
00000518 01cd           1372 	sst.w	r25,0[ep]
0000051a 039d           1373 	sst.w	r19,4[ep]
                        1374 	jarl	_esl_initVerifyRSA_PSS,lp
                        1374 <EXPANSION BEGIN>
                        1374 jarl22 _esl_initVerifyRSA_PSS , lp 
0000051c bffff6fb*      1374 <EXPANSION END>
00000520 4406ff70       1375 	dispose	2,{r25,r26,r27,r28,r29,r31},[lp]
                        1376 .L2215:
                        1377 --	    .ef
                        1378 .LDW17:
                        1379 --line459
                        1380 ..lin.C.3A.5C_ECU2.5CECU_Rivian_A1.5CTarget.5Crepo_projects.5CpFOTA.5CcL_LATEST.5Cmake.5Cobj.5CESLib_RSA_PSS_Ver.83::
                        1381 .LDWlin83:
00000524 4406ff70       1382 	dispose	2,{r25,r26,r27,r28,r29,r31},[lp]
                        1383 	.type	_esl_initVerifyRSASHA256_PSS,@function
                        1384 	.size	_esl_initVerifyRSASHA256_PSS,.-_esl_initVerifyRSASHA256_PSS
                        1385 	.align	2
                        1386 .LDW27:
                        1387 --_returnValue	r10	local
                        1388 
                        1389 --_workSpace	r29	param
                        1390 --_keyPairModuleSize	r28	param
                        1391 --_keyPairModule	r27	param
                        1392 --_publicKeyExponentSize	r26	param
                        1393 --_publicKeyExponent	r25	param
                        1394 
                        1395 	.section ".bss","awb"
                        1396 .L2268:
                        1397 	.type	.L2268,@object
                        1398 	.size	.L2268,0
                        1399 	.data
                        1400 	.section ".MSR_CODE","ax"
                        1401 	.align	2
                        1402 	.align	2
                        1403 ..gh.f.f.1.e.21:
                        1404 	.type	..gh.f.f.1.e.21,@object
                        1405 	.size	..gh.f.f.1.e.21,0
                        1406 	.global	_esl_updateVerifyRSASHA256_PSS
                        1407 _esl_updateVerifyRSASHA256_PSS:
00000528 8007e110       1408 	prepare	{r27,r28,r29,r31},0
                        1409 --	    .bf

                                                                      Page 26
                                                              C:\Users\nhuliyap\AppData\Local\Temp\gh_00003r81.s
                        1410 .LDW37:
0000052c e031           1411 	cmp	zero,r6
0000052e da05*          1412 	bne	.L2329
                        1413 --line469
                        1414 ..lin.C.3A.5C_ECU2.5CECU_Rivian_A1.5CTarget.5Crepo_projects.5CpFOTA.5CcL_LATEST.5Cmake.5Cobj.5CESLib_RSA_PSS_Ver.84::
                        1415 .LDWlin84:
00000530 20560320       1416 	movea	8195,zero,r10
00000534 4006ff10       1417 	dispose	0,{r27,r28,r29,r31},[lp]
                        1418 .L2329:
00000538 07e0           1419 	mov	r7,r28
0000053a 08d8           1420 	mov	r8,r27
0000053c 06e8           1421 	mov	r6,r29
                        1422 --line472
                        1423 ..lin.C.3A.5C_ECU2.5CECU_Rivian_A1.5CTarget.5Crepo_projects.5CpFOTA.5CcL_LATEST.5Cmake.5Cobj.5CESLib_RSA_PSS_Ver.85::
                        1424 .LDWlin85:
0000053e 203ec408       1425 	movea	2244,zero,r7
00000542 20460007       1426 	movea	1792,zero,r8
                        1427 	jarl	_esl_CheckWorkSpaceHeaderAndState,lp
                        1427 <EXPANSION BEGIN>
                        1427 jarl22 _esl_CheckWorkSpaceHeaderAndState , lp 
00000546 80ff0000*      1427 <EXPANSION END>
                        1428 --line475
                        1429 ..lin.C.3A.5C_ECU2.5CECU_Rivian_A1.5CTarget.5Crepo_projects.5CpFOTA.5CcL_LATEST.5Cmake.5Cobj.5CESLib_RSA_PSS_Ver.86::
                        1430 .LDWlin86:
0000054a e051           1431 	cmp	zero,r10
0000054c 9a0d*          1432 	bne	.L2327
                        1433 --line476
                        1434 ..lin.C.3A.5C_ECU2.5CECU_Rivian_A1.5CTarget.5Crepo_projects.5CpFOTA.5CcL_LATEST.5Cmake.5Cobj.5CESLib_RSA_PSS_Ver.87::
                        1435 .LDWlin87:
0000054e 1d30           1436 	mov	r29,r6
00000550 1c38           1437 	mov	r28,r7
00000552 1b40           1438 	mov	r27,r8
00000554 024a           1439 	mov	2,r9
                        1440 	jarl	_esl_updateVerifyRSA_PSS,lp
                        1440 <EXPANSION BEGIN>
                        1440 jarl22 _esl_updateVerifyRSA_PSS , lp 
00000556 bfff2afc*      1440 <EXPANSION END>
                        1441 --line477
                        1442 ..lin.C.3A.5C_ECU2.5CECU_Rivian_A1.5CTarget.5Crepo_projects.5CpFOTA.5CcL_LATEST.5Cmake.5Cobj.5CESLib_RSA_PSS_Ver.88::
                        1443 .LDWlin88:
0000055a 4006ff10       1444 	dispose	0,{r27,r28,r29,r31},[lp]
                        1445 .L2327:
                        1446 --	    .ef
                        1447 .LDW47:
                        1448 --line481
                        1449 ..lin.C.3A.5C_ECU2.5CECU_Rivian_A1.5CTarget.5Crepo_projects.5CpFOTA.5CcL_LATEST.5Cmake.5Cobj.5CESLib_RSA_PSS_Ver.89::
                        1450 .LDWlin89:
0000055e 4006ff10       1451 	dispose	0,{r27,r28,r29,r31},[lp]
                        1452 	.type	_esl_updateVerifyRSASHA256_PSS,@function
                        1453 	.size	_esl_updateVerifyRSASHA256_PSS,.-_esl_updateVerifyRSASHA256_PSS
                        1454 	.align	2
                        1455 .LDW57:
                        1456 --_returnValue	r10	local
                        1457 
                        1458 --_workSpace	r29	param
                        1459 --_inputSize	r28	param
                        1460 --_input	r27	param
                        1461 
                        1462 	.section ".bss","awb"
                        1463 .L2408:
                        1464 	.type	.L2408,@object

                                                                      Page 27
                                                              C:\Users\nhuliyap\AppData\Local\Temp\gh_00003r81.s
                        1465 	.size	.L2408,0
                        1466 	.data
                        1467 	.section ".MSR_CODE","ax"
                        1468 	.align	2
                        1469 	.align	2
                        1470 ..gh.f.f.1.e.22:
                        1471 	.type	..gh.f.f.1.e.22,@object
                        1472 	.size	..gh.f.f.1.e.22,0
                        1473 	.global	_esl_finalizeHashVerifyRSASHA256_PSS
                        1474 _esl_finalizeHashVerifyRSASHA256_PSS:
00000562 8007e110       1475 	prepare	{r27,r28,r29,r31},0
00000566 06e0           1476 	mov	r6,r28
00000568 07d8           1477 	mov	r7,r27
                        1478 --	    .bf
                        1479 .LDW67:
0000056a e031           1480 	cmp	zero,r6
0000056c b205*          1481 	be	.L2473
0000056e e039           1482 	cmp	zero,r7
00000570 ca05*          1483 	bne	.L2472
                        1484 .L2473:
                        1485 --line489
                        1486 ..lin.C.3A.5C_ECU2.5CECU_Rivian_A1.5CTarget.5Crepo_projects.5CpFOTA.5CcL_LATEST.5Cmake.5Cobj.5CESLib_RSA_PSS_Ver.90::
                        1487 .LDWlin90:
00000572 20ee0320       1488 	movea	8195,zero,r29
00000576 f50d*          1489 	br	.L2476
                        1490 .L2472:
                        1491 --line492
                        1492 ..lin.C.3A.5C_ECU2.5CECU_Rivian_A1.5CTarget.5Crepo_projects.5CpFOTA.5CcL_LATEST.5Cmake.5Cobj.5CESLib_RSA_PSS_Ver.91::
                        1493 .LDWlin91:
00000578 203ec408       1494 	movea	2244,zero,r7
0000057c 20460007       1495 	movea	1792,zero,r8
                        1496 	jarl	_esl_CheckWorkSpaceHeaderAndState,lp
                        1496 <EXPANSION BEGIN>
                        1496 jarl22 _esl_CheckWorkSpaceHeaderAndState , lp 
00000580 80ff0000*      1496 <EXPANSION END>
00000584 0ae8           1497 	mov	r10,r29
                        1498 --line495
                        1499 ..lin.C.3A.5C_ECU2.5CECU_Rivian_A1.5CTarget.5Crepo_projects.5CpFOTA.5CcL_LATEST.5Cmake.5Cobj.5CESLib_RSA_PSS_Ver.92::
                        1500 .LDWlin92:
00000586 e051           1501 	cmp	zero,r10
00000588 ea05*          1502 	bne	.L2476
                        1503 --line496
                        1504 ..lin.C.3A.5C_ECU2.5CECU_Rivian_A1.5CTarget.5Crepo_projects.5CpFOTA.5CcL_LATEST.5Cmake.5Cobj.5CESLib_RSA_PSS_Ver.93::
                        1505 .LDWlin93:
0000058a 1c30           1506 	mov	r28,r6
0000058c 1b38           1507 	mov	r27,r7
0000058e 0242           1508 	mov	2,r8
                        1509 	jarl	_esl_finalizeHashVerifyRSA_PSS,lp
                        1509 <EXPANSION BEGIN>
                        1509 jarl22 _esl_finalizeHashVerifyRSA_PSS , lp 
00000590 bfff1efc*      1509 <EXPANSION END>
                        1510 .L2476:
                        1511 --line498
                        1512 ..lin.C.3A.5C_ECU2.5CECU_Rivian_A1.5CTarget.5Crepo_projects.5CpFOTA.5CcL_LATEST.5Cmake.5Cobj.5CESLib_RSA_PSS_Ver.94::
                        1513 .LDWlin94:
00000594 1d50           1514 	mov	r29,r10
                        1515 --	    .ef
                        1516 .LDW77:
00000596 4006ff10       1517 	dispose	0,{r27,r28,r29,r31},[lp]
                        1518 	.type	_esl_finalizeHashVerifyRSASHA256_PSS,@function
                        1519 	.size	_esl_finalizeHashVerifyRSASHA256_PSS,.-_esl_finalizeHashVerifyRSASHA256_PSS

                                                                      Page 28
                                                              C:\Users\nhuliyap\AppData\Local\Temp\gh_00003r81.s
                        1520 	.align	2
                        1521 .LDW87:
                        1522 --_returnValue	r29	local
                        1523 
                        1524 --_workSpace	r28	param
                        1525 --_messageDigest	r27	param
                        1526 
                        1527 	.section ".bss","awb"
                        1528 .L2545:
                        1529 	.type	.L2545,@object
                        1530 	.size	.L2545,0
                        1531 	.data
                        1532 	.section ".MSR_CODE","ax"
                        1533 	.align	2
                        1534 	.align	2
                        1535 ..gh.f.f.1.e.23:
                        1536 	.type	..gh.f.f.1.e.23,@object
                        1537 	.size	..gh.f.f.1.e.23,0
                        1538 	.global	_esl_verifySigVerifyRSASHA256_PSS
                        1539 _esl_verifySigVerifyRSASHA256_PSS:
0000059a 8607e170       1540 	prepare	{r25,r26,r27,r28,r29,r31},3
0000059e 06e8           1541 	mov	r6,r29
000005a0 07e0           1542 	mov	r7,r28
000005a2 08d0           1543 	mov	r8,r26
000005a4 09c8           1544 	mov	r9,r25
000005a6 23df2500       1545 	ld.w	36[sp],r27
                        1546 --	    .bf
                        1547 .LDW97:
000005aa e031           1548 	cmp	zero,r6
000005ac d205*          1549 	be	.L2614
000005ae e039           1550 	cmp	zero,r7
000005b0 b205*          1551 	be	.L2614
000005b2 e0d9           1552 	cmp	zero,r27
000005b4 da05*          1553 	bne	.L2613
                        1554 .L2614:
                        1555 --line509
                        1556 ..lin.C.3A.5C_ECU2.5CECU_Rivian_A1.5CTarget.5Crepo_projects.5CpFOTA.5CcL_LATEST.5Cmake.5Cobj.5CESLib_RSA_PSS_Ver.95::
                        1557 .LDWlin95:
000005b6 20560320       1558 	movea	8195,zero,r10
000005ba 4606ff70       1559 	dispose	3,{r25,r26,r27,r28,r29,r31},[lp]
                        1560 .L2613:
                        1561 --line512
                        1562 ..lin.C.3A.5C_ECU2.5CECU_Rivian_A1.5CTarget.5Crepo_projects.5CpFOTA.5CcL_LATEST.5Cmake.5Cobj.5CESLib_RSA_PSS_Ver.96::
                        1563 .LDWlin96:
000005be 203ec408       1564 	movea	2244,zero,r7
000005c2 20460007       1565 	movea	1792,zero,r8
                        1566 	jarl	_esl_CheckWorkSpaceHeaderAndState,lp
                        1566 <EXPANSION BEGIN>
                        1566 jarl22 _esl_CheckWorkSpaceHeaderAndState , lp 
000005c6 80ff0000*      1566 <EXPANSION END>
                        1567 --line515
                        1568 ..lin.C.3A.5C_ECU2.5CECU_Rivian_A1.5CTarget.5Crepo_projects.5CpFOTA.5CcL_LATEST.5Cmake.5Cobj.5CESLib_RSA_PSS_Ver.97::
                        1569 .LDWlin97:
000005ca e051           1570 	cmp	zero,r10
000005cc fa0d*          1571 	bne	.L2611
                        1572 --line516
                        1573 ..lin.C.3A.5C_ECU2.5CECU_Rivian_A1.5CTarget.5Crepo_projects.5CpFOTA.5CcL_LATEST.5Cmake.5Cobj.5CESLib_RSA_PSS_Ver.98::
                        1574 .LDWlin98:
000005ce 03f0           1575 	mov	sp,ep
000005d0 0242           1576 	mov	2,r8
000005d2 0545           1577 	sst.w	r8,8[ep]

                                                                      Page 29
                                                              C:\Users\nhuliyap\AppData\Local\Temp\gh_00003r81.s
000005d4 1d30           1578 	mov	r29,r6
000005d6 1c38           1579 	mov	r28,r7
000005d8 1a48           1580 	mov	r26,r9
000005da 01cd           1581 	sst.w	r25,0[ep]
000005dc 03dd           1582 	sst.w	r27,4[ep]
000005de 20462000       1583 	movea	32,zero,r8
                        1584 	jarl	_esl_verifySigVerifyRSA_PSS,lp
                        1584 <EXPANSION BEGIN>
                        1584 jarl22 _esl_verifySigVerifyRSA_PSS , lp 
000005e2 bfffd6fb*      1584 <EXPANSION END>
000005e6 4606ff70       1585 	dispose	3,{r25,r26,r27,r28,r29,r31},[lp]
                        1586 .L2611:
                        1587 --	    .ef
                        1588 .LDW08:
                        1589 --line519
                        1590 ..lin.C.3A.5C_ECU2.5CECU_Rivian_A1.5CTarget.5Crepo_projects.5CpFOTA.5CcL_LATEST.5Cmake.5Cobj.5CESLib_RSA_PSS_Ver.99::
                        1591 .LDWlin99:
000005ea 4606ff70       1592 	dispose	3,{r25,r26,r27,r28,r29,r31},[lp]
                        1593 	.type	_esl_verifySigVerifyRSASHA256_PSS,@function
                        1594 	.size	_esl_verifySigVerifyRSASHA256_PSS,.-_esl_verifySigVerifyRSASHA256_PSS
                        1595 	.align	2
                        1596 .LDW18:
                        1597 --_returnValue	r10	local
                        1598 
                        1599 --_workSpace	r29	param
                        1600 --_messageDigest	r28	param
                        1601 --_saltSize	r26	param
                        1602 --_signatureSize	r25	param
                        1603 --_signature	r27	param
                        1604 
                        1605 	.section ".bss","awb"
                        1606 .L2696:
                        1607 	.type	.L2696,@object
                        1608 	.size	.L2696,0
                        1609 	.data
                        1610 	.section ".MSR_CODE","ax"
                        1611 	.align	2
                        1612 	.align	2
                        1613 ..gh.f.f.1.e.24:
                        1614 	.type	..gh.f.f.1.e.24,@object
                        1615 	.size	..gh.f.f.1.e.24,0
                        1616 	.global	_esl_verifySigVerifyRSASHA256_PSS_AutoSalt
                        1617 _esl_verifySigVerifyRSASHA256_PSS_AutoSalt:
000005ee 82072100       1618 	prepare	{r31},1
                        1619 --	    .bf
                        1620 .LDW28:
000005f2 634f0100       1621 	st.w	r9,0[sp]
000005f6 0848           1622 	mov	r8,r9
000005f8 1f42           1623 	mov	-1,r8
                        1624 	jarl	_esl_verifySigVerifyRSASHA256_PSS,lp
                        1624 <EXPANSION BEGIN>
                        1624 jarl22 _esl_verifySigVerifyRSASHA256_PSS , lp 
000005fa bfffa0ff*      1624 <EXPANSION END>
                        1625 --	    .ef
                        1626 .LDW38:
                        1627 --line529
                        1628 ..lin.C.3A.5C_ECU2.5CECU_Rivian_A1.5CTarget.5Crepo_projects.5CpFOTA.5CcL_LATEST.5Cmake.5Cobj.5CESLib_RSA_PSS_Ver.100::
                        1629 .LDWlin100:
000005fe 42063f00       1630 	dispose	1,{r31},[lp]
                        1631 	.type	_esl_verifySigVerifyRSASHA256_PSS_AutoSalt,@function
                        1632 	.size	_esl_verifySigVerifyRSASHA256_PSS_AutoSalt,.-_esl_verifySigVerifyRSASHA256_PSS_AutoSalt

                                                                      Page 30
                                                              C:\Users\nhuliyap\AppData\Local\Temp\gh_00003r81.s
                        1633 	.align	2
                        1634 .LDW48:
                        1635 
                        1636 --_workSpace	r6	param
                        1637 --_messageDigest	r7	param
                        1638 --_signatureSize	r8	param
                        1639 --_signature	r19	param
                        1640 
                        1641 	.section ".bss","awb"
                        1642 .L2804:
                        1643 	.type	.L2804,@object
                        1644 	.size	.L2804,0
                        1645 	.data
                        1646 	.section ".MSR_CODE","ax"
                        1647 	.align	2
                        1648 	.align	2
                        1649 ..gh.f.f.1.e.25:
                        1650 	.type	..gh.f.f.1.e.25,@object
                        1651 	.size	..gh.f.f.1.e.25,0
                        1652 	.global	_esl_verifySigVerifyRSASHA256_PSS_NoSalt
                        1653 _esl_verifySigVerifyRSASHA256_PSS_NoSalt:
00000602 82072100       1654 	prepare	{r31},1
                        1655 --	    .bf
                        1656 .LDW58:
00000606 634f0100       1657 	st.w	r9,0[sp]
0000060a 0848           1658 	mov	r8,r9
0000060c 0042           1659 	mov	0,r8
                        1660 	jarl	_esl_verifySigVerifyRSASHA256_PSS,lp
                        1660 <EXPANSION BEGIN>
                        1660 jarl22 _esl_verifySigVerifyRSASHA256_PSS , lp 
0000060e bfff8cff*      1660 <EXPANSION END>
                        1661 --	    .ef
                        1662 .LDW68:
                        1663 --line539
                        1664 ..lin.C.3A.5C_ECU2.5CECU_Rivian_A1.5CTarget.5Crepo_projects.5CpFOTA.5CcL_LATEST.5Cmake.5Cobj.5CESLib_RSA_PSS_Ver.101::
                        1665 .LDWlin101:
00000612 42063f00       1666 	dispose	1,{r31},[lp]
                        1667 	.type	_esl_verifySigVerifyRSASHA256_PSS_NoSalt,@function
                        1668 	.size	_esl_verifySigVerifyRSASHA256_PSS_NoSalt,.-_esl_verifySigVerifyRSASHA256_PSS_NoSalt
                        1669 	.align	2
                        1670 .LDW78:
                        1671 
                        1672 --_workSpace	r6	param
                        1673 --_messageDigest	r7	param
                        1674 --_signatureSize	r8	param
                        1675 --_signature	r19	param
                        1676 
                        1677 	.section ".bss","awb"
                        1678 .L2852:
                        1679 	.type	.L2852,@object
                        1680 	.size	.L2852,0
                        1681 	.data
                        1682 	.section ".MSR_CODE","ax"
                        1683 	.align	2
                        1684 	.align	2
                        1685 ..gh.f.f.1.e.26:
                        1686 	.type	..gh.f.f.1.e.26,@object
                        1687 	.size	..gh.f.f.1.e.26,0
                        1688 	.global	_esl_verifySigVerifyRSASHA256_PSS_DigestLengthSalt
                        1689 _esl_verifySigVerifyRSASHA256_PSS_DigestLengthSalt:
00000616 82072100       1690 	prepare	{r31},1

                                                                      Page 31
                                                              C:\Users\nhuliyap\AppData\Local\Temp\gh_00003r81.s
                        1691 --	    .bf
                        1692 .LDW88:
0000061a 634f0100       1693 	st.w	r9,0[sp]
0000061e 0848           1694 	mov	r8,r9
00000620 20462000       1695 	movea	32,zero,r8
                        1696 	jarl	_esl_verifySigVerifyRSASHA256_PSS,lp
                        1696 <EXPANSION BEGIN>
                        1696 jarl22 _esl_verifySigVerifyRSASHA256_PSS , lp 
00000624 bfff76ff*      1696 <EXPANSION END>
                        1697 --	    .ef
                        1698 .LDW98:
                        1699 --line550
                        1700 ..lin.C.3A.5C_ECU2.5CECU_Rivian_A1.5CTarget.5Crepo_projects.5CpFOTA.5CcL_LATEST.5Cmake.5Cobj.5CESLib_RSA_PSS_Ver.102::
                        1701 .LDWlin102:
00000628 42063f00       1702 	dispose	1,{r31},[lp]
                        1703 	.type	_esl_verifySigVerifyRSASHA256_PSS_DigestLengthSalt,@function
                        1704 	.size	_esl_verifySigVerifyRSASHA256_PSS_DigestLengthSalt,.-_esl_verifySigVerifyRSASHA256_PSS_DigestLengthSalt
                        1705 	.align	2
                        1706 .LDW09:
                        1707 
                        1708 --_workSpace	r6	param
                        1709 --_messageDigest	r7	param
                        1710 --_signatureSize	r8	param
                        1711 --_signature	r19	param
                        1712 
                        1713 	.section ".bss","awb"
                        1714 .L2900:
                        1715 	.type	.L2900,@object
                        1716 	.size	.L2900,0
                        1717 	.data
                        1718 	.section ".MSR_CODE","ax"
                        1719 	.align	2
                        1720 	.align	2
                        1721 ..gh.f.f.1.e.27:
                        1722 	.type	..gh.f.f.1.e.27,@object
                        1723 	.size	..gh.f.f.1.e.27,0
                        1724 	.global	_esl_finalizeVerifyRSASHA256_PSS
                        1725 _esl_finalizeVerifyRSASHA256_PSS:
0000062c 9207e130       1726 	prepare	{r26,r27,r28,r29,r31},9
00000630 06e8           1727 	mov	r6,r29
00000632 07e0           1728 	mov	r7,r28
00000634 08d8           1729 	mov	r8,r27
00000636 09d0           1730 	mov	r9,r26
                        1731 --	    .bf
                        1732 .LDW19:
00000638 23360400       1733 	movea	4,sp,r6
0000063c 003a           1734 	mov	0,r7
0000063e 20462000       1735 	movea	32,zero,r8
                        1736 	jarl	_VStdLib_MemSet,lp
                        1736 <EXPANSION BEGIN>
                        1736 jarl22 _VStdLib_MemSet , lp 
00000642 80ff0000*      1736 <EXPANSION END>
                        1737 --line563
                        1738 ..lin.C.3A.5C_ECU2.5CECU_Rivian_A1.5CTarget.5Crepo_projects.5CpFOTA.5CcL_LATEST.5Cmake.5Cobj.5CESLib_RSA_PSS_Ver.103::
                        1739 .LDWlin103:
00000646 e0e9           1740 	cmp	zero,r29
00000648 da05*          1741 	bne	.L2920
                        1742 --line564
                        1743 ..lin.C.3A.5C_ECU2.5CECU_Rivian_A1.5CTarget.5Crepo_projects.5CpFOTA.5CcL_LATEST.5Cmake.5Cobj.5CESLib_RSA_PSS_Ver.104::
                        1744 .LDWlin104:
0000064a 20560320       1745 	movea	8195,zero,r10

                                                                      Page 32
                                                              C:\Users\nhuliyap\AppData\Local\Temp\gh_00003r81.s
0000064e 5206ff30       1746 	dispose	9,{r26,r27,r28,r29,r31},[lp]
                        1747 .L2920:
                        1748 --line567
                        1749 ..lin.C.3A.5C_ECU2.5CECU_Rivian_A1.5CTarget.5Crepo_projects.5CpFOTA.5CcL_LATEST.5Cmake.5Cobj.5CESLib_RSA_PSS_Ver.105::
                        1750 .LDWlin105:
00000652 1d30           1751 	mov	r29,r6
00000654 203ec408       1752 	movea	2244,zero,r7
00000658 20460007       1753 	movea	1792,zero,r8
                        1754 	jarl	_esl_CheckWorkSpaceHeaderAndState,lp
                        1754 <EXPANSION BEGIN>
                        1754 jarl22 _esl_CheckWorkSpaceHeaderAndState , lp 
0000065c 80ff0000*      1754 <EXPANSION END>
                        1755 --line570
                        1756 ..lin.C.3A.5C_ECU2.5CECU_Rivian_A1.5CTarget.5Crepo_projects.5CpFOTA.5CcL_LATEST.5Cmake.5Cobj.5CESLib_RSA_PSS_Ver.106::
                        1757 .LDWlin106:
00000660 e051           1758 	cmp	zero,r10
00000662 9a15*          1759 	bne	.L2918
                        1760 --line571
                        1761 ..lin.C.3A.5C_ECU2.5CECU_Rivian_A1.5CTarget.5Crepo_projects.5CpFOTA.5CcL_LATEST.5Cmake.5Cobj.5CESLib_RSA_PSS_Ver.107::
                        1762 .LDWlin107:
00000664 1d30           1763 	mov	r29,r6
00000666 233e0400       1764 	movea	4,sp,r7
                        1765 	jarl	_esl_finalizeHashVerifyRSASHA256_PSS,lp
                        1765 <EXPANSION BEGIN>
                        1765 jarl22 _esl_finalizeHashVerifyRSASHA256_PSS , lp 
0000066a bffff8fe*      1765 <EXPANSION END>
                        1766 --line572
                        1767 ..lin.C.3A.5C_ECU2.5CECU_Rivian_A1.5CTarget.5Crepo_projects.5CpFOTA.5CcL_LATEST.5Cmake.5Cobj.5CESLib_RSA_PSS_Ver.108::
                        1768 .LDWlin108:
0000066e 1d30           1769 	mov	r29,r6
00000670 1c40           1770 	mov	r28,r8
00000672 1b48           1771 	mov	r27,r9
00000674 63d70100       1772 	st.w	r26,0[sp]
00000678 233e0400       1773 	movea	4,sp,r7
                        1774 	jarl	_esl_verifySigVerifyRSASHA256_PSS,lp
                        1774 <EXPANSION BEGIN>
                        1774 jarl22 _esl_verifySigVerifyRSASHA256_PSS , lp 
0000067c bfff1eff*      1774 <EXPANSION END>
00000680 5206ff30       1775 	dispose	9,{r26,r27,r28,r29,r31},[lp]
                        1776 .L2918:
                        1777 --	    .ef
                        1778 .LDW29:
                        1779 --line575
                        1780 ..lin.C.3A.5C_ECU2.5CECU_Rivian_A1.5CTarget.5Crepo_projects.5CpFOTA.5CcL_LATEST.5Cmake.5Cobj.5CESLib_RSA_PSS_Ver.109::
                        1781 .LDWlin109:
00000684 5206ff30       1782 	dispose	9,{r26,r27,r28,r29,r31},[lp]
                        1783 	.type	_esl_finalizeVerifyRSASHA256_PSS,@function
                        1784 	.size	_esl_finalizeVerifyRSASHA256_PSS,.-_esl_finalizeVerifyRSASHA256_PSS
                        1785 	.align	2
                        1786 .LDW39:
                        1787 --_returnValue	r10	local
                        1788 --_hash	4[sp]	local
                        1789 
                        1790 --_workSpace	r29	param
                        1791 --_saltSize	r28	param
                        1792 --_signatureSize	r27	param
                        1793 --_signature	r26	param
                        1794 
                        1795 	.section ".bss","awb"
                        1796 .L2986:
                        1797 	.type	.L2986,@object

                                                                      Page 33
                                                              C:\Users\nhuliyap\AppData\Local\Temp\gh_00003r81.s
                        1798 	.size	.L2986,0
                        1799 	.data
                        1800 	.section ".MSR_CODE","ax"
                        1801 	.align	2
                        1802 	.align	2
                        1803 ..gh.f.f.1.e.28:
                        1804 	.type	..gh.f.f.1.e.28,@object
                        1805 	.size	..gh.f.f.1.e.28,0
                        1806 	.global	_esl_finalizeVerifyRSASHA256_PSS_AutoSalt
                        1807 _esl_finalizeVerifyRSASHA256_PSS_AutoSalt:
00000688 0848           1808 	mov	r8,r9
                        1809 --	    .bf
                        1810 .LDW49:
0000068a 0740           1811 	mov	r7,r8
0000068c 1f3a           1812 	mov	-1,r7
0000068e bf079eff*      1813 	jr	_esl_finalizeVerifyRSASHA256_PSS
                        1814 --	    .ef
                        1815 .LDW59:
                        1816 	.type	_esl_finalizeVerifyRSASHA256_PSS_AutoSalt,@function
                        1817 	.size	_esl_finalizeVerifyRSASHA256_PSS_AutoSalt,.-_esl_finalizeVerifyRSASHA256_PSS_AutoSalt
                        1818 	.align	2
                        1819 .LDW69:
                        1820 
                        1821 --_workSpace	r6	param
                        1822 --_signatureSize	r7	param
                        1823 --_signature	r9	param
                        1824 
                        1825 	.section ".bss","awb"
                        1826 .L3076:
                        1827 	.type	.L3076,@object
                        1828 	.size	.L3076,0
                        1829 	.data
                        1830 	.section ".MSR_CODE","ax"
                        1831 	.align	2
                        1832 	.align	2
                        1833 ..gh.f.f.1.e.29:
                        1834 	.type	..gh.f.f.1.e.29,@object
                        1835 	.size	..gh.f.f.1.e.29,0
                        1836 	.global	_esl_finalizeVerifyRSASHA256_PSS_NoSalt
                        1837 _esl_finalizeVerifyRSASHA256_PSS_NoSalt:
00000692 0848           1838 	mov	r8,r9
                        1839 --	    .bf
                        1840 .LDW79:
00000694 0740           1841 	mov	r7,r8
00000696 003a           1842 	mov	0,r7
00000698 bf0794ff*      1843 	jr	_esl_finalizeVerifyRSASHA256_PSS
                        1844 --	    .ef
                        1845 .LDW89:
                        1846 	.type	_esl_finalizeVerifyRSASHA256_PSS_NoSalt,@function
                        1847 	.size	_esl_finalizeVerifyRSASHA256_PSS_NoSalt,.-_esl_finalizeVerifyRSASHA256_PSS_NoSalt
                        1848 	.align	2
                        1849 .LDW99:
                        1850 
                        1851 --_workSpace	r6	param
                        1852 --_signatureSize	r7	param
                        1853 --_signature	r9	param
                        1854 
                        1855 	.section ".bss","awb"
                        1856 .L3124:
                        1857 	.type	.L3124,@object
                        1858 	.size	.L3124,0

                                                                      Page 34
                                                              C:\Users\nhuliyap\AppData\Local\Temp\gh_00003r81.s
                        1859 	.data
                        1860 	.section ".MSR_CODE","ax"
                        1861 	.align	2
                        1862 	.align	2
                        1863 ..gh.f.f.1.e.30:
                        1864 	.type	..gh.f.f.1.e.30,@object
                        1865 	.size	..gh.f.f.1.e.30,0
                        1866 	.global	_esl_finalizeVerifyRSASHA256_PSS_DigestLengthSalt
                        1867 _esl_finalizeVerifyRSASHA256_PSS_DigestLengthSalt:
0000069c 0848           1868 	mov	r8,r9
                        1869 --	    .bf
                        1870 .LDW001:
0000069e 0740           1871 	mov	r7,r8
000006a0 203e2000       1872 	movea	32,zero,r7
000006a4 bf0788ff*      1873 	jr	_esl_finalizeVerifyRSASHA256_PSS
                        1874 --	    .ef
                        1875 .LDW101:
                        1876 	.type	_esl_finalizeVerifyRSASHA256_PSS_DigestLengthSalt,@function
                        1877 	.size	_esl_finalizeVerifyRSASHA256_PSS_DigestLengthSalt,.-_esl_finalizeVerifyRSASHA256_PSS_DigestLengthSalt
                        1878 	.align	2
                        1879 .LDW201:
                        1880 
                        1881 --_workSpace	r6	param
                        1882 --_signatureSize	r7	param
                        1883 --_signature	r9	param
                        1884 
                        1885 	.section ".bss","awb"
                        1886 .L3172:
                        1887 	.type	.L3172,@object
                        1888 	.size	.L3172,0
                        1889 	.data
                        1890 	.section ".MSR_CODE","ax"
                        1891 	.align	2
                        1892 --_esl_RSAPSSEncodingMask	rosdaoff23(_esl_RSAPSSEncodingMask)	import
                        1893 
                        1894 	.data
                        1895 	.ghsnote version,17
                        1896 	.ghsnote tools,3
                        1897 	.ghsnote options,144
                        1898 	.section ".MSR_CODE","ax"
                        1899 	.align	2
                        1900 ..eof.C.3A.5C_ECU2.5CECU_Rivian_A1.5CTarget.5Crepo_projects.5CpFOTA.5CcL_LATEST.5Cmake.5Cobj.5CESLib_RSA_PSS_Ver...43.3A.5C_ECU2.5CECU_Rivian_A1.5CTarget.5Crepo_projects.5CpFOTA.5CcL_LATEST.5Cmake..64F86AFB..0::
                        1901 .rh850_flags REGMODE32,DATA_ALIGN8,GP_FIX,EP_NONFIX,TP_FIX,REG2_RESERVE,G3K,SDA_EXTRA_REGS_0
