                                                                      Page 1
                                                              C:\Users\nhuliyap\AppData\Local\Temp\gh_000099c1.s
Command Line: C:\GHS\comp_201517\ease850.exe -w -stderr=err/fbl_diag_oem.err -elf -b0 -I../source/_common -I../source/common -I../source/ecuabcanif -I../source/ecuabcantrcv -I../source/ecuabcryif -I../source/ecuabfee -I../source/ecuabmemif -I../source/libautosar -I../source/mcalcan -I../source/mcalcry -I../source/mcaldio -I../source/mcaleep -I../source/mcalfls -I../source/mcalmcu -I../source/projectara -I../source/projectcfg -I../source/projectcompiler -I../source/swcservicebswm -I../source/swcservicecantp -I../source/swcservicecomm -I../source/swcservicecsm -I../source/swcservicedcm -I../source/swcservicedem -I../source/swcservicedet -I../source/swcserviceecum -I../source/swcservicenvm -I../source/swcserviceos -I../source/swcservicepdur -I../source/swcserviceschm -I../source/swcservicestartup -I../source/wrappers/swcservicesecm -I../source/wrappers/vsecprim -I../source/wrappers/vstdlib -Ic:/ghs/comp_201517/ansi -Ic:/ghs/comp_201517/include/v800 -Igendata -IC:\GHS\comp_201517\lib\rh850 -cg_underscore -cpu=rh850g3k -nofpu -no_v850_simd -rh850_fpsimd=none -nomacro -patch_dbo=C:\_ECU2\ECU_Rivian_A1\Target\repo_projects\pFOTA\cL_LATEST\make\obj\fbl_diag_oem.dbo -source=fbl_diag_oem.c -o obj\gh_000099c1.o -list=lst/fbl_diag_oem.lst C:\Users\nhuliyap\AppData\Local\Temp\gh_000099c1.s 
Original File: C:\Users\nhuliyap\AppData\Local\Temp\gh_000099c1.s
Source File: fbl_diag_oem.c
Directory: C:\_ECU2\ECU_Rivian_A1\Target\repo_projects\pFOTA\cL_LATEST\make
Host OS: Windows
EASE: Copyright (C) 1983-2015 Green Hills Software.  All Rights Reserved.
Release: Compiler v2015.1.7
Build Directory: [Directory] BTOWORKER6:c:/build_2015_1_bto/2015-10-21.2100-2015_1_bto/win32-comp-ecom
Revision: [VCInfo] http://toolsvc/branches/release-branch-70-bto/src@544153 (built by build)
Revision Date: Thu Oct 22 07:50:13 2015

Release Date: Thu Oct 22 09:32:32 2015

                           1 --Driver Command: ccrh850 -DBRS_DERIVATIVE_701018 -DBRS_OSC_CLK=16
                           2 --		-DBRS_TIMEBASE_CLOCK=80 -DBRS_EVA_BOARD_
                           3 --		-DBRS_DERIVATIVE_GROUP_F1L -DBRS_OS_USECASE_BRS
                           4 --		-DBRS_PLATFORM_RH850 -DBRS_COMP_GHS
                           5 --		-DBRS_CPU_LOCAL_RAM_SIZE_CORE0=32
                           6 --		-DBRS_CPU_RAM_START_CORE0=0xFEDF8000 -list=lst/fbl_diag_oem.lst
                           7 --		-object_dir=obj -stderr=err/fbl_diag_oem.err -c -cpu=rh850
                           8 --		-sda=all -large_sda -prepare_dispose -pragma_asm_inline -no_callt
                           9 --		-inline_prologue -notda -reserve_r2 -fsoft
                          10 --		--unknown_pragma_warnings -list -g -Ogeneral -shortenum
                          11 --		-registermode=32 -I../source/_common -I../source/common
                          12 --		-I../source/ecuabcanif -I../source/ecuabcantrcv
                          13 --		-I../source/ecuabcryif -I../source/ecuabfee
                          14 --		-I../source/ecuabmemif -I../source/libautosar -I../source/mcalcan
                          15 --		-I../source/mcalcry -I../source/mcaldio -I../source/mcaleep
                          16 --		-I../source/mcalfls -I../source/mcalmcu -I../source/projectara
                          17 --		-I../source/projectcfg -I../source/projectcompiler
                          18 --		-I../source/swcservicebswm -I../source/swcservicecantp
                          19 --		-I../source/swcservicecomm -I../source/swcservicecsm
                          20 --		-I../source/swcservicedcm -I../source/swcservicedem
                          21 --		-I../source/swcservicedet -I../source/swcserviceecum
                          22 --		-I../source/swcservicenvm -I../source/swcserviceos
                          23 --		-I../source/swcservicepdur -I../source/swcserviceschm
                          24 --		-I../source/swcservicestartup -I../source/wrappers/swcservicesecm
                          25 --		-I../source/wrappers/vsecprim -I../source/wrappers/vstdlib
                          26 --		-Ic:/ghs/comp_201517/ansi -Ic:/ghs/comp_201517/include/v800
                          27 --		-Igendata ../source/SwcServiceStartUp/fbl_diag_oem.c
                          28 --Source File:   ../source/SwcServiceStartUp/fbl_diag_oem.c
                          29 --Directory:     
                          30 --		C:\_ECU2\ECU_Rivian_A1\Target\repo_projects\pFOTA\cL_LATEST\make
                          31 --Compile Date:  Wed Sep 06 14:09:20 2023
                          32 --Host OS:       Win32
                          33 --Version:       C-RH850 2015.1.7 RELEASE VERSION
                          34 --Release:       Compiler v2015.1.7
                          35 --Revision Date: Thu Oct 22 08:06:12 2015
                          36 --Release Date:  Thu Oct 22 09:34:32 2015
                          37 -- ecom  -g -w -OM
                          38 	.text
                          39 ..bof.C.3A.5C_ECU2.5CECU_Rivian_A1.5CTarget.5Crepo_projects.5CpFOTA.5CcL_LATEST.5Cmake.5Cobj.5Cfbl_diag_oem...43.3A.5C_ECU2.5CECU_Rivian_A1.5CTarget.5Crepo_projects.5CpFOTA.5CcL_LATEST.5Cmake..64F86BF0..0::
                          40 	.align	2
                          41 ..gh.f.f.1.e.0:
                          42 	.type	..gh.f.f.1.e.0,@object
                          43 	.size	..gh.f.f.1.e.0,0
                          44 	.global	_FblDiagDownloadCheck
                          45 _FblDiagDownloadCheck:
00000000 9c076300         46 	prepare	{r29,r31},14,sp
00000004 c700             47 	zxh	r7
                          48 --	    .bf
                          49 .LDW01:
00000006 078efdff         50 	addi	-3,r7,r17

                                                                      Page 2
                                                              C:\Users\nhuliyap\AppData\Local\Temp\gh_000099c1.s
0000000a 06860300         51 	addi	3,r6,r16
0000000e 1b8d             52 	sst.w	r17,52[ep]
00000010 1985             53 	sst.w	r16,48[ep]
00000012 23361800         54 	movea	24,sp,r6
00000016 233e1700         55 	movea	23,sp,r7
                          56 	jarl	_FblMemBlockVerify,lp
                          56 <EXPANSION BEGIN>
                          56 jarl22 _FblMemBlockVerify , lp 
0000001a 80ff0000*        56 <EXPANSION END>
0000001e caeeff00         57 	andi	255,r10,r29
00000022 ba2d*            58 	bne	.L12
                          59 --line669
                          60 ..lin.C.3A.5C_ECU2.5CECU_Rivian_A1.5CTarget.5Crepo_projects.5CpFOTA.5CcL_LATEST.5Cmake.5Cobj.5Cfbl_diag_oem.1::
                          61 .LDWlin1:
00000024 2b0600000000*    62 	mov	sdaoff23(_fblDiagStates+1),r11
0000002a cbe70000         63 	tst1	4,0[r11]
0000002e a225*            64 	be	.L7
                          65 --line671
                          66 ..lin.C.3A.5C_ECU2.5CECU_Rivian_A1.5CTarget.5Crepo_projects.5CpFOTA.5CcL_LATEST.5Cmake.5Cobj.5Cfbl_diag_oem.2::
                          67 .LDWlin2:
                          68 	jarl	_FblRealTimeSupport,lp
                          68 <EXPANSION BEGIN>
                          68 jarl22 _FblRealTimeSupport , lp 
00000030 80ff0000*        68 <EXPANSION END>
                          69 --line680
                          70 ..lin.C.3A.5C_ECU2.5CECU_Rivian_A1.5CTarget.5Crepo_projects.5CpFOTA.5CcL_LATEST.5Cmake.5Cobj.5Cfbl_diag_oem.3::
                          71 .LDWlin3:
00000034 330600000000*    72 	mov	sdaoff23(_downloadBlockDescriptor),r19
0000003a b30709300000     73 	ld.dw	0[r19],r6
00000040 b30789400000     74 	ld.dw	8[r19],r8
00000046 13f61000         75 	addi	16,r19,ep
0000004a b30709710000     76 	ld.dw	16[r19],r14
00000050 b30789610000     77 	ld.dw	24[r19],r12
00000056 085d             78 	sld.w	16[ep],r11
00000058 a3070f700000     79 	st.dw	r14,0[sp]
0000005e a3078f600000     80 	st.dw	r12,8[sp]
00000064 635f1100         81 	st.w	r11,16[sp]
                          82 	jarl	_ApplFblValidateBlock,lp
                          82 <EXPANSION BEGIN>
                          82 jarl22 _ApplFblValidateBlock , lp 
00000068 80ff0000*        82 <EXPANSION END>
0000006c e051             83 	cmp	zero,r10
0000006e f205*            84 	be	.L11
00000070 01ea             85 	mov	1,r29
                          86 .L7:
                          87 --line708
                          88 ..lin.C.3A.5C_ECU2.5CECU_Rivian_A1.5CTarget.5Crepo_projects.5CpFOTA.5CcL_LATEST.5Cmake.5Cobj.5Cfbl_diag_oem.4::
                          89 .LDWlin4:
00000072 1d50             90 	mov	r29,r10
                          91 --	    .ef
                          92 .LDW11:
00000074 5c067f00         93 	dispose	14,{r29,r31},[lp]
                          94 .L12:
                          95 --line682
                          96 ..lin.C.3A.5C_ECU2.5CECU_Rivian_A1.5CTarget.5Crepo_projects.5CpFOTA.5CcL_LATEST.5Cmake.5Cobj.5Cfbl_diag_oem.5::
                          97 .LDWlin5:
00000078 01ea             98 	mov	1,r29
0000007a c5fd*            99 	br	.L7
                         100 .L11:
                         101 --line686
                         102 ..lin.C.3A.5C_ECU2.5CECU_Rivian_A1.5CTarget.5Crepo_projects.5CpFOTA.5CcL_LATEST.5Cmake.5Cobj.5Cfbl_diag_oem.6::

                                                                      Page 3
                                                              C:\Users\nhuliyap\AppData\Local\Temp\gh_000099c1.s
                         103 .LDWlin6:
0000007c 320600000000*   104 	mov	sdaoff23(_downloadBlockDescriptor),r18
00000082 b20709300000    105 	ld.dw	0[r18],r6
00000088 b20789400000    106 	ld.dw	8[r18],r8
0000008e 12f61000        107 	addi	16,r18,ep
00000092 b20709910000    108 	ld.dw	16[r18],r18
00000098 be0789700000    109 	ld.dw	8[ep],r14
0000009e 086d            110 	sld.w	16[ep],r13
000000a0 a3070f900000    111 	st.dw	r18,0[sp]
000000a6 a3078f700000    112 	st.dw	r14,8[sp]
000000ac 636f1100        113 	st.w	r13,16[sp]
                         114 	jarl	_ApplFblIncProgCounts,lp
                         114 <EXPANSION BEGIN>
                         114 jarl22 _ApplFblIncProgCounts , lp 
000000b0 80ff0000*       114 <EXPANSION END>
000000b4 f5dd*           115 	br	.L7
                         116 	.type	_FblDiagDownloadCheck,@function
                         117 	.size	_FblDiagDownloadCheck,.-_FblDiagDownloadCheck
                         118 	.align	2
                         119 .LDW21:
                         120 --_verifyData	24[sp]	local
                         121 --_verifyErrorCode	23[sp]	local
                         122 --_result	r29	local
                         123 
                         124 --_pbDiagData	r6	param
                         125 --_diagReqDataLen	r7	param
                         126 
                         127 	.section ".bss","awb"
                         128 .L104:
                         129 	.type	.L104,@object
                         130 	.size	.L104,0
                         131 	.section ".sbss","awb"
                         132 	.align	4
                         133 	.global	_transferRemainder..C.3A.5C_ECU2.5CECU_Rivian_A1.5CTarget.5Crepo_projects.5CpFOTA.5CcL_LATEST.5Cmake.5Cobj.5Cfbl_diag_oem.
                         134 _transferRemainder..C.3A.5C_ECU2.5CECU_Rivian_A1.5CTarget.5Crepo_projects.5CpFOTA.5CcL_LATEST.5Cmake.5Cobj.5Cfbl_diag_oem.:
00000000 00000000        135 _transferRemainder:	.space	4
                         136 	.type	_transferRemainder..C.3A.5C_ECU2.5CECU_Rivian_A1.5CTarget.5Crepo_projects.5CpFOTA.5CcL_LATEST.5Cmake.5Cobj.5Cfbl_diag_oem.,@object
                         137 	.size	_transferRemainder..C.3A.5C_ECU2.5CECU_Rivian_A1.5CTarget.5Crepo_projects.5CpFOTA.5CcL_LATEST.5Cmake.5Cobj.5Cfbl_diag_oem.,4
                         138 	.type	_transferRemainder,@object
                         139 	.size	_transferRemainder,4
                         140 	.global	_ulMemEraseStartAddress..C.3A.5C_ECU2.5CECU_Rivian_A1.5CTarget.5Crepo_projects.5CpFOTA.5CcL_LATEST.5Cmake.5Cobj.5Cfbl_diag_oem.
                         141 _ulMemEraseStartAddress..C.3A.5C_ECU2.5CECU_Rivian_A1.5CTarget.5Crepo_projects.5CpFOTA.5CcL_LATEST.5Cmake.5Cobj.5Cfbl_diag_oem.:
00000004 00000000        142 _ulMemEraseStartAddress:	.space	4
                         143 	.type	_ulMemEraseStartAddress..C.3A.5C_ECU2.5CECU_Rivian_A1.5CTarget.5Crepo_projects.5CpFOTA.5CcL_LATEST.5Cmake.5Cobj.5Cfbl_diag_oem.,@object
                         144 	.size	_ulMemEraseStartAddress..C.3A.5C_ECU2.5CECU_Rivian_A1.5CTarget.5Crepo_projects.5CpFOTA.5CcL_LATEST.5Cmake.5Cobj.5Cfbl_diag_oem.,4
                         145 	.type	_ulMemEraseStartAddress,@object
                         146 	.size	_ulMemEraseStartAddress,4
                         147 	.global	_ulMemEraseLength..C.3A.5C_ECU2.5CECU_Rivian_A1.5CTarget.5Crepo_projects.5CpFOTA.5CcL_LATEST.5Cmake.5Cobj.5Cfbl_diag_oem.
                         148 _ulMemEraseLength..C.3A.5C_ECU2.5CECU_Rivian_A1.5CTarget.5Crepo_projects.5CpFOTA.5CcL_LATEST.5Cmake.5Cobj.5Cfbl_diag_oem.:
00000008 00000000        149 _ulMemEraseLength:	.space	4
                         150 	.type	_ulMemEraseLength..C.3A.5C_ECU2.5CECU_Rivian_A1.5CTarget.5Crepo_projects.5CpFOTA.5CcL_LATEST.5Cmake.5Cobj.5Cfbl_diag_oem.,@object
                         151 	.size	_ulMemEraseLength..C.3A.5C_ECU2.5CECU_Rivian_A1.5CTarget.5Crepo_projects.5CpFOTA.5CcL_LATEST.5Cmake.5Cobj.5Cfbl_diag_oem.,4
                         152 	.type	_ulMemEraseLength,@object
                         153 	.size	_ulMemEraseLength,4
                         154 	.section ".rosdata","a"
                         155 	.align	4
                         156 	.global	_kFblDiagSubtableWdbi_ModuleToProgram..C.3A.5C_ECU2.5CECU_Rivian_A1.5CTarget.5Crepo_projects.5CpFOTA.5CcL_LATEST.5Cmake.5Cobj.5Cfbl_diag_oem.
                         157 _kFblDiagSubtableWdbi_ModuleToProgram..C.3A.5C_ECU2.5CECU_Rivian_A1.5CTarget.5Crepo_projects.5CpFOTA.5CcL_LATEST.5Cmake.5Cobj.5Cfbl_diag_oem.:
00000000 0102            158 _kFblDiagSubtableWdbi_ModuleToProgram:	.byte	1,2
                         159 	.type	_kFblDiagSubtableWdbi_ModuleToProgram..C.3A.5C_ECU2.5CECU_Rivian_A1.5CTarget.5Crepo_projects.5CpFOTA.5CcL_LATEST.5Cmake.5Cobj.5Cfbl_diag_oem.,@object
                         160 	.size	_kFblDiagSubtableWdbi_ModuleToProgram..C.3A.5C_ECU2.5CECU_Rivian_A1.5CTarget.5Crepo_projects.5CpFOTA.5CcL_LATEST.5Cmake.5Cobj.5Cfbl_diag_oem.,2

                                                                      Page 4
                                                              C:\Users\nhuliyap\AppData\Local\Temp\gh_000099c1.s
                         161 	.type	_kFblDiagSubtableWdbi_ModuleToProgram,@object
                         162 	.size	_kFblDiagSubtableWdbi_ModuleToProgram,2
                         163 	.global	_kFblDiagSubtableWdbi_BoardPartnumber..C.3A.5C_ECU2.5CECU_Rivian_A1.5CTarget.5Crepo_projects.5CpFOTA.5CcL_LATEST.5Cmake.5Cobj.5Cfbl_diag_oem.
                         164 _kFblDiagSubtableWdbi_BoardPartnumber..C.3A.5C_ECU2.5CECU_Rivian_A1.5CTarget.5Crepo_projects.5CpFOTA.5CcL_LATEST.5Cmake.5Cobj.5Cfbl_diag_oem.:
00000002 f112            165 _kFblDiagSubtableWdbi_BoardPartnumber:	.byte	241,18
                         166 	.type	_kFblDiagSubtableWdbi_BoardPartnumber..C.3A.5C_ECU2.5CECU_Rivian_A1.5CTarget.5Crepo_projects.5CpFOTA.5CcL_LATEST.5Cmake.5Cobj.5Cfbl_diag_oem.,@object
                         167 	.size	_kFblDiagSubtableWdbi_BoardPartnumber..C.3A.5C_ECU2.5CECU_Rivian_A1.5CTarget.5Crepo_projects.5CpFOTA.5CcL_LATEST.5Cmake.5Cobj.5Cfbl_diag_oem.,2
                         168 	.type	_kFblDiagSubtableWdbi_BoardPartnumber,@object
                         169 	.size	_kFblDiagSubtableWdbi_BoardPartnumber,2
                         170 	.global	_kFblDiagSubtableWdbi_BoardSerialnumber..C.3A.5C_ECU2.5CECU_Rivian_A1.5CTarget.5Crepo_projects.5CpFOTA.5CcL_LATEST.5Cmake.5Cobj.5Cfbl_diag_oem.
                         171 _kFblDiagSubtableWdbi_BoardSerialnumber..C.3A.5C_ECU2.5CECU_Rivian_A1.5CTarget.5Crepo_projects.5CpFOTA.5CcL_LATEST.5Cmake.5Cobj.5Cfbl_diag_oem.:
00000004 f113            172 _kFblDiagSubtableWdbi_BoardSerialnumber:	.byte	241,19
                         173 	.type	_kFblDiagSubtableWdbi_BoardSerialnumber..C.3A.5C_ECU2.5CECU_Rivian_A1.5CTarget.5Crepo_projects.5CpFOTA.5CcL_LATEST.5Cmake.5Cobj.5Cfbl_diag_oem.,@object
                         174 	.size	_kFblDiagSubtableWdbi_BoardSerialnumber..C.3A.5C_ECU2.5CECU_Rivian_A1.5CTarget.5Crepo_projects.5CpFOTA.5CcL_LATEST.5Cmake.5Cobj.5Cfbl_diag_oem.,2
                         175 	.type	_kFblDiagSubtableWdbi_BoardSerialnumber,@object
                         176 	.size	_kFblDiagSubtableWdbi_BoardSerialnumber,2
                         177 	.global	_kFblDiagSubtableWdbi_EcuPartnumber..C.3A.5C_ECU2.5CECU_Rivian_A1.5CTarget.5Crepo_projects.5CpFOTA.5CcL_LATEST.5Cmake.5Cobj.5Cfbl_diag_oem.
                         178 _kFblDiagSubtableWdbi_EcuPartnumber..C.3A.5C_ECU2.5CECU_Rivian_A1.5CTarget.5Crepo_projects.5CpFOTA.5CcL_LATEST.5Cmake.5Cobj.5Cfbl_diag_oem.:
00000006 f191            179 _kFblDiagSubtableWdbi_EcuPartnumber:	.byte	241,145
                         180 	.type	_kFblDiagSubtableWdbi_EcuPartnumber..C.3A.5C_ECU2.5CECU_Rivian_A1.5CTarget.5Crepo_projects.5CpFOTA.5CcL_LATEST.5Cmake.5Cobj.5Cfbl_diag_oem.,@object
                         181 	.size	_kFblDiagSubtableWdbi_EcuPartnumber..C.3A.5C_ECU2.5CECU_Rivian_A1.5CTarget.5Crepo_projects.5CpFOTA.5CcL_LATEST.5Cmake.5Cobj.5Cfbl_diag_oem.,2
                         182 	.type	_kFblDiagSubtableWdbi_EcuPartnumber,@object
                         183 	.size	_kFblDiagSubtableWdbi_EcuPartnumber,2
                         184 	.global	_kFblDiagSubtableWdbi_EcuSerialnumber..C.3A.5C_ECU2.5CECU_Rivian_A1.5CTarget.5Crepo_projects.5CpFOTA.5CcL_LATEST.5Cmake.5Cobj.5Cfbl_diag_oem.
                         185 _kFblDiagSubtableWdbi_EcuSerialnumber..C.3A.5C_ECU2.5CECU_Rivian_A1.5CTarget.5Crepo_projects.5CpFOTA.5CcL_LATEST.5Cmake.5Cobj.5Cfbl_diag_oem.:
00000008 f18c            186 _kFblDiagSubtableWdbi_EcuSerialnumber:	.byte	241,140
                         187 	.type	_kFblDiagSubtableWdbi_EcuSerialnumber..C.3A.5C_ECU2.5CECU_Rivian_A1.5CTarget.5Crepo_projects.5CpFOTA.5CcL_LATEST.5Cmake.5Cobj.5Cfbl_diag_oem.,@object
                         188 	.size	_kFblDiagSubtableWdbi_EcuSerialnumber..C.3A.5C_ECU2.5CECU_Rivian_A1.5CTarget.5Crepo_projects.5CpFOTA.5CcL_LATEST.5Cmake.5Cobj.5Cfbl_diag_oem.,2
                         189 	.type	_kFblDiagSubtableWdbi_EcuSerialnumber,@object
                         190 	.size	_kFblDiagSubtableWdbi_EcuSerialnumber,2
                         191 	.global	_kFblDiagSubtableWdbi_ManufSupport..C.3A.5C_ECU2.5CECU_Rivian_A1.5CTarget.5Crepo_projects.5CpFOTA.5CcL_LATEST.5Cmake.5Cobj.5Cfbl_diag_oem.
                         192 _kFblDiagSubtableWdbi_ManufSupport..C.3A.5C_ECU2.5CECU_Rivian_A1.5CTarget.5Crepo_projects.5CpFOTA.5CcL_LATEST.5Cmake.5Cobj.5Cfbl_diag_oem.:
0000000a f018            193 _kFblDiagSubtableWdbi_ManufSupport:	.byte	240,24
                         194 	.type	_kFblDiagSubtableWdbi_ManufSupport..C.3A.5C_ECU2.5CECU_Rivian_A1.5CTarget.5Crepo_projects.5CpFOTA.5CcL_LATEST.5Cmake.5Cobj.5Cfbl_diag_oem.,@object
                         195 	.size	_kFblDiagSubtableWdbi_ManufSupport..C.3A.5C_ECU2.5CECU_Rivian_A1.5CTarget.5Crepo_projects.5CpFOTA.5CcL_LATEST.5Cmake.5Cobj.5Cfbl_diag_oem.,2
                         196 	.type	_kFblDiagSubtableWdbi_ManufSupport,@object
                         197 	.size	_kFblDiagSubtableWdbi_ManufSupport,2
                         198 	.global	_kFblDiagSubtableWdbi_Vin..C.3A.5C_ECU2.5CECU_Rivian_A1.5CTarget.5Crepo_projects.5CpFOTA.5CcL_LATEST.5Cmake.5Cobj.5Cfbl_diag_oem.
                         199 _kFblDiagSubtableWdbi_Vin..C.3A.5C_ECU2.5CECU_Rivian_A1.5CTarget.5Crepo_projects.5CpFOTA.5CcL_LATEST.5Cmake.5Cobj.5Cfbl_diag_oem.:
0000000c f190            200 _kFblDiagSubtableWdbi_Vin:	.byte	241,144
                         201 	.type	_kFblDiagSubtableWdbi_Vin..C.3A.5C_ECU2.5CECU_Rivian_A1.5CTarget.5Crepo_projects.5CpFOTA.5CcL_LATEST.5Cmake.5Cobj.5Cfbl_diag_oem.,@object
                         202 	.size	_kFblDiagSubtableWdbi_Vin..C.3A.5C_ECU2.5CECU_Rivian_A1.5CTarget.5Crepo_projects.5CpFOTA.5CcL_LATEST.5Cmake.5Cobj.5Cfbl_diag_oem.,2
                         203 	.type	_kFblDiagSubtableWdbi_Vin,@object
                         204 	.size	_kFblDiagSubtableWdbi_Vin,2
                         205 	.global	_kFblDiagSubtableWdbi_FingerprintApp..C.3A.5C_ECU2.5CECU_Rivian_A1.5CTarget.5Crepo_projects.5CpFOTA.5CcL_LATEST.5Cmake.5Cobj.5Cfbl_diag_oem.
                         206 _kFblDiagSubtableWdbi_FingerprintApp..C.3A.5C_ECU2.5CECU_Rivian_A1.5CTarget.5Crepo_projects.5CpFOTA.5CcL_LATEST.5Cmake.5Cobj.5Cfbl_diag_oem.:
0000000e f184            207 _kFblDiagSubtableWdbi_FingerprintApp:	.byte	241,132
                         208 	.type	_kFblDiagSubtableWdbi_FingerprintApp..C.3A.5C_ECU2.5CECU_Rivian_A1.5CTarget.5Crepo_projects.5CpFOTA.5CcL_LATEST.5Cmake.5Cobj.5Cfbl_diag_oem.,@object
                         209 	.size	_kFblDiagSubtableWdbi_FingerprintApp..C.3A.5C_ECU2.5CECU_Rivian_A1.5CTarget.5Crepo_projects.5CpFOTA.5CcL_LATEST.5Cmake.5Cobj.5Cfbl_diag_oem.,2
                         210 	.type	_kFblDiagSubtableWdbi_FingerprintApp,@object
                         211 	.size	_kFblDiagSubtableWdbi_FingerprintApp,2
                         212 	.global	_kFblDiagSubtableWdbi_ModeId..C.3A.5C_ECU2.5CECU_Rivian_A1.5CTarget.5Crepo_projects.5CpFOTA.5CcL_LATEST.5Cmake.5Cobj.5Cfbl_diag_oem.
                         213 _kFblDiagSubtableWdbi_ModeId..C.3A.5C_ECU2.5CECU_Rivian_A1.5CTarget.5Crepo_projects.5CpFOTA.5CcL_LATEST.5Cmake.5Cobj.5Cfbl_diag_oem.:
00000010 f11d            214 _kFblDiagSubtableWdbi_ModeId:	.byte	241,29
                         215 	.type	_kFblDiagSubtableWdbi_ModeId..C.3A.5C_ECU2.5CECU_Rivian_A1.5CTarget.5Crepo_projects.5CpFOTA.5CcL_LATEST.5Cmake.5Cobj.5Cfbl_diag_oem.,@object
                         216 	.size	_kFblDiagSubtableWdbi_ModeId..C.3A.5C_ECU2.5CECU_Rivian_A1.5CTarget.5Crepo_projects.5CpFOTA.5CcL_LATEST.5Cmake.5Cobj.5Cfbl_diag_oem.,2
                         217 	.type	_kFblDiagSubtableWdbi_ModeId,@object
                         218 	.size	_kFblDiagSubtableWdbi_ModeId,2
                         219 	.global	_kFblDiagSubtableWdbi_AuxId..C.3A.5C_ECU2.5CECU_Rivian_A1.5CTarget.5Crepo_projects.5CpFOTA.5CcL_LATEST.5Cmake.5Cobj.5Cfbl_diag_oem.
                         220 _kFblDiagSubtableWdbi_AuxId..C.3A.5C_ECU2.5CECU_Rivian_A1.5CTarget.5Crepo_projects.5CpFOTA.5CcL_LATEST.5Cmake.5Cobj.5Cfbl_diag_oem.:
00000012 f11c            221 _kFblDiagSubtableWdbi_AuxId:	.byte	241,28

                                                                      Page 5
                                                              C:\Users\nhuliyap\AppData\Local\Temp\gh_000099c1.s
                         222 	.type	_kFblDiagSubtableWdbi_AuxId..C.3A.5C_ECU2.5CECU_Rivian_A1.5CTarget.5Crepo_projects.5CpFOTA.5CcL_LATEST.5Cmake.5Cobj.5Cfbl_diag_oem.,@object
                         223 	.size	_kFblDiagSubtableWdbi_AuxId..C.3A.5C_ECU2.5CECU_Rivian_A1.5CTarget.5Crepo_projects.5CpFOTA.5CcL_LATEST.5Cmake.5Cobj.5Cfbl_diag_oem.,2
                         224 	.type	_kFblDiagSubtableWdbi_AuxId,@object
                         225 	.size	_kFblDiagSubtableWdbi_AuxId,2
                         226 	.section ".sbss","awb"
                         227 	.global	_currentSequenceCnt..C.3A.5C_ECU2.5CECU_Rivian_A1.5CTarget.5Crepo_projects.5CpFOTA.5CcL_LATEST.5Cmake.5Cobj.5Cfbl_diag_oem.
                         228 _currentSequenceCnt..C.3A.5C_ECU2.5CECU_Rivian_A1.5CTarget.5Crepo_projects.5CpFOTA.5CcL_LATEST.5Cmake.5Cobj.5Cfbl_diag_oem.:
0000000c 00              229 _currentSequenceCnt:	.space	1
                         230 	.type	_currentSequenceCnt..C.3A.5C_ECU2.5CECU_Rivian_A1.5CTarget.5Crepo_projects.5CpFOTA.5CcL_LATEST.5Cmake.5Cobj.5Cfbl_diag_oem.,@object
                         231 	.size	_currentSequenceCnt..C.3A.5C_ECU2.5CECU_Rivian_A1.5CTarget.5Crepo_projects.5CpFOTA.5CcL_LATEST.5Cmake.5Cobj.5Cfbl_diag_oem.,1
                         232 	.type	_currentSequenceCnt,@object
                         233 	.size	_currentSequenceCnt,1
                         234 	.global	_secSendKeyInvalid..C.3A.5C_ECU2.5CECU_Rivian_A1.5CTarget.5Crepo_projects.5CpFOTA.5CcL_LATEST.5Cmake.5Cobj.5Cfbl_diag_oem.
                         235 _secSendKeyInvalid..C.3A.5C_ECU2.5CECU_Rivian_A1.5CTarget.5Crepo_projects.5CpFOTA.5CcL_LATEST.5Cmake.5Cobj.5Cfbl_diag_oem.:
0000000d 00              236 _secSendKeyInvalid:	.space	1
                         237 	.type	_secSendKeyInvalid..C.3A.5C_ECU2.5CECU_Rivian_A1.5CTarget.5Crepo_projects.5CpFOTA.5CcL_LATEST.5Cmake.5Cobj.5Cfbl_diag_oem.,@object
                         238 	.size	_secSendKeyInvalid..C.3A.5C_ECU2.5CECU_Rivian_A1.5CTarget.5Crepo_projects.5CpFOTA.5CcL_LATEST.5Cmake.5Cobj.5Cfbl_diag_oem.,1
                         239 	.type	_secSendKeyInvalid,@object
                         240 	.size	_secSendKeyInvalid,1
                         241 	.global	_expectedSequenceCnt..C.3A.5C_ECU2.5CECU_Rivian_A1.5CTarget.5Crepo_projects.5CpFOTA.5CcL_LATEST.5Cmake.5Cobj.5Cfbl_diag_oem.
                         242 _expectedSequenceCnt..C.3A.5C_ECU2.5CECU_Rivian_A1.5CTarget.5Crepo_projects.5CpFOTA.5CcL_LATEST.5Cmake.5Cobj.5Cfbl_diag_oem.:
0000000e 00              243 _expectedSequenceCnt:	.space	1
                         244 	.type	_expectedSequenceCnt..C.3A.5C_ECU2.5CECU_Rivian_A1.5CTarget.5Crepo_projects.5CpFOTA.5CcL_LATEST.5Cmake.5Cobj.5Cfbl_diag_oem.,@object
                         245 	.size	_expectedSequenceCnt..C.3A.5C_ECU2.5CECU_Rivian_A1.5CTarget.5Crepo_projects.5CpFOTA.5CcL_LATEST.5Cmake.5Cobj.5Cfbl_diag_oem.,1
                         246 	.type	_expectedSequenceCnt,@object
                         247 	.size	_expectedSequenceCnt,1
                         248 	.section ".rosdata","a"
                         249 	.global	_kFblDiagSubtableDsc_DefaultSession..C.3A.5C_ECU2.5CECU_Rivian_A1.5CTarget.5Crepo_projects.5CpFOTA.5CcL_LATEST.5Cmake.5Cobj.5Cfbl_diag_oem.
                         250 _kFblDiagSubtableDsc_DefaultSession..C.3A.5C_ECU2.5CECU_Rivian_A1.5CTarget.5Crepo_projects.5CpFOTA.5CcL_LATEST.5Cmake.5Cobj.5Cfbl_diag_oem.:
00000014 01              251 _kFblDiagSubtableDsc_DefaultSession:	.byte	1
                         252 	.type	_kFblDiagSubtableDsc_DefaultSession..C.3A.5C_ECU2.5CECU_Rivian_A1.5CTarget.5Crepo_projects.5CpFOTA.5CcL_LATEST.5Cmake.5Cobj.5Cfbl_diag_oem.,@object
                         253 	.size	_kFblDiagSubtableDsc_DefaultSession..C.3A.5C_ECU2.5CECU_Rivian_A1.5CTarget.5Crepo_projects.5CpFOTA.5CcL_LATEST.5Cmake.5Cobj.5Cfbl_diag_oem.,1
                         254 	.type	_kFblDiagSubtableDsc_DefaultSession,@object
                         255 	.size	_kFblDiagSubtableDsc_DefaultSession,1
                         256 	.global	_kFblDiagSubtableDsc_ProgSession..C.3A.5C_ECU2.5CECU_Rivian_A1.5CTarget.5Crepo_projects.5CpFOTA.5CcL_LATEST.5Cmake.5Cobj.5Cfbl_diag_oem.
                         257 _kFblDiagSubtableDsc_ProgSession..C.3A.5C_ECU2.5CECU_Rivian_A1.5CTarget.5Crepo_projects.5CpFOTA.5CcL_LATEST.5Cmake.5Cobj.5Cfbl_diag_oem.:
00000015 02              258 _kFblDiagSubtableDsc_ProgSession:	.byte	2
                         259 	.type	_kFblDiagSubtableDsc_ProgSession..C.3A.5C_ECU2.5CECU_Rivian_A1.5CTarget.5Crepo_projects.5CpFOTA.5CcL_LATEST.5Cmake.5Cobj.5Cfbl_diag_oem.,@object
                         260 	.size	_kFblDiagSubtableDsc_ProgSession..C.3A.5C_ECU2.5CECU_Rivian_A1.5CTarget.5Crepo_projects.5CpFOTA.5CcL_LATEST.5Cmake.5Cobj.5Cfbl_diag_oem.,1
                         261 	.type	_kFblDiagSubtableDsc_ProgSession,@object
                         262 	.size	_kFblDiagSubtableDsc_ProgSession,1
                         263 	.global	_kFblDiagSubtableDsc_ExtendedSession..C.3A.5C_ECU2.5CECU_Rivian_A1.5CTarget.5Crepo_projects.5CpFOTA.5CcL_LATEST.5Cmake.5Cobj.5Cfbl_diag_oem.
                         264 _kFblDiagSubtableDsc_ExtendedSession..C.3A.5C_ECU2.5CECU_Rivian_A1.5CTarget.5Crepo_projects.5CpFOTA.5CcL_LATEST.5Cmake.5Cobj.5Cfbl_diag_oem.:
00000016 03              265 _kFblDiagSubtableDsc_ExtendedSession:	.byte	3
                         266 	.type	_kFblDiagSubtableDsc_ExtendedSession..C.3A.5C_ECU2.5CECU_Rivian_A1.5CTarget.5Crepo_projects.5CpFOTA.5CcL_LATEST.5Cmake.5Cobj.5Cfbl_diag_oem.,@object
                         267 	.size	_kFblDiagSubtableDsc_ExtendedSession..C.3A.5C_ECU2.5CECU_Rivian_A1.5CTarget.5Crepo_projects.5CpFOTA.5CcL_LATEST.5Cmake.5Cobj.5Cfbl_diag_oem.,1
                         268 	.type	_kFblDiagSubtableDsc_ExtendedSession,@object
                         269 	.size	_kFblDiagSubtableDsc_ExtendedSession,1
                         270 	.global	_kFblDiagSubtableEcuReset_HardReset..C.3A.5C_ECU2.5CECU_Rivian_A1.5CTarget.5Crepo_projects.5CpFOTA.5CcL_LATEST.5Cmake.5Cobj.5Cfbl_diag_oem.
                         271 _kFblDiagSubtableEcuReset_HardReset..C.3A.5C_ECU2.5CECU_Rivian_A1.5CTarget.5Crepo_projects.5CpFOTA.5CcL_LATEST.5Cmake.5Cobj.5Cfbl_diag_oem.:
00000017 01              272 _kFblDiagSubtableEcuReset_HardReset:	.byte	1
                         273 	.type	_kFblDiagSubtableEcuReset_HardReset..C.3A.5C_ECU2.5CECU_Rivian_A1.5CTarget.5Crepo_projects.5CpFOTA.5CcL_LATEST.5Cmake.5Cobj.5Cfbl_diag_oem.,@object
                         274 	.size	_kFblDiagSubtableEcuReset_HardReset..C.3A.5C_ECU2.5CECU_Rivian_A1.5CTarget.5Crepo_projects.5CpFOTA.5CcL_LATEST.5Cmake.5Cobj.5Cfbl_diag_oem.,1
                         275 	.type	_kFblDiagSubtableEcuReset_HardReset,@object
                         276 	.size	_kFblDiagSubtableEcuReset_HardReset,1
                         277 	.global	_kFblDiagSubtableSecAccess_Seed..C.3A.5C_ECU2.5CECU_Rivian_A1.5CTarget.5Crepo_projects.5CpFOTA.5CcL_LATEST.5Cmake.5Cobj.5Cfbl_diag_oem.
                         278 _kFblDiagSubtableSecAccess_Seed..C.3A.5C_ECU2.5CECU_Rivian_A1.5CTarget.5Crepo_projects.5CpFOTA.5CcL_LATEST.5Cmake.5Cobj.5Cfbl_diag_oem.:
00000018 01              279 _kFblDiagSubtableSecAccess_Seed:	.byte	1
                         280 	.type	_kFblDiagSubtableSecAccess_Seed..C.3A.5C_ECU2.5CECU_Rivian_A1.5CTarget.5Crepo_projects.5CpFOTA.5CcL_LATEST.5Cmake.5Cobj.5Cfbl_diag_oem.,@object
                         281 	.size	_kFblDiagSubtableSecAccess_Seed..C.3A.5C_ECU2.5CECU_Rivian_A1.5CTarget.5Crepo_projects.5CpFOTA.5CcL_LATEST.5Cmake.5Cobj.5Cfbl_diag_oem.,1
                         282 	.type	_kFblDiagSubtableSecAccess_Seed,@object

                                                                      Page 6
                                                              C:\Users\nhuliyap\AppData\Local\Temp\gh_000099c1.s
                         283 	.size	_kFblDiagSubtableSecAccess_Seed,1
                         284 	.global	_kFblDiagSubtableSecAccess_Key..C.3A.5C_ECU2.5CECU_Rivian_A1.5CTarget.5Crepo_projects.5CpFOTA.5CcL_LATEST.5Cmake.5Cobj.5Cfbl_diag_oem.
                         285 _kFblDiagSubtableSecAccess_Key..C.3A.5C_ECU2.5CECU_Rivian_A1.5CTarget.5Crepo_projects.5CpFOTA.5CcL_LATEST.5Cmake.5Cobj.5Cfbl_diag_oem.:
00000019 02              286 _kFblDiagSubtableSecAccess_Key:	.byte	2
                         287 	.type	_kFblDiagSubtableSecAccess_Key..C.3A.5C_ECU2.5CECU_Rivian_A1.5CTarget.5Crepo_projects.5CpFOTA.5CcL_LATEST.5Cmake.5Cobj.5Cfbl_diag_oem.,@object
                         288 	.size	_kFblDiagSubtableSecAccess_Key..C.3A.5C_ECU2.5CECU_Rivian_A1.5CTarget.5Crepo_projects.5CpFOTA.5CcL_LATEST.5Cmake.5Cobj.5Cfbl_diag_oem.,1
                         289 	.type	_kFblDiagSubtableSecAccess_Key,@object
                         290 	.size	_kFblDiagSubtableSecAccess_Key,1
                         291 	.global	_kFblDiagSubtableCommControl_EnRxEnTx..C.3A.5C_ECU2.5CECU_Rivian_A1.5CTarget.5Crepo_projects.5CpFOTA.5CcL_LATEST.5Cmake.5Cobj.5Cfbl_diag_oem.
                         292 _kFblDiagSubtableCommControl_EnRxEnTx..C.3A.5C_ECU2.5CECU_Rivian_A1.5CTarget.5Crepo_projects.5CpFOTA.5CcL_LATEST.5Cmake.5Cobj.5Cfbl_diag_oem.:
0000001a 00              293 _kFblDiagSubtableCommControl_EnRxEnTx:	.space	1
                         294 	.type	_kFblDiagSubtableCommControl_EnRxEnTx..C.3A.5C_ECU2.5CECU_Rivian_A1.5CTarget.5Crepo_projects.5CpFOTA.5CcL_LATEST.5Cmake.5Cobj.5Cfbl_diag_oem.,@object
                         295 	.size	_kFblDiagSubtableCommControl_EnRxEnTx..C.3A.5C_ECU2.5CECU_Rivian_A1.5CTarget.5Crepo_projects.5CpFOTA.5CcL_LATEST.5Cmake.5Cobj.5Cfbl_diag_oem.,1
                         296 	.type	_kFblDiagSubtableCommControl_EnRxEnTx,@object
                         297 	.size	_kFblDiagSubtableCommControl_EnRxEnTx,1
                         298 	.global	_kFblDiagSubtableCommControl_Disable..C.3A.5C_ECU2.5CECU_Rivian_A1.5CTarget.5Crepo_projects.5CpFOTA.5CcL_LATEST.5Cmake.5Cobj.5Cfbl_diag_oem.
                         299 _kFblDiagSubtableCommControl_Disable..C.3A.5C_ECU2.5CECU_Rivian_A1.5CTarget.5Crepo_projects.5CpFOTA.5CcL_LATEST.5Cmake.5Cobj.5Cfbl_diag_oem.:
0000001b 01              300 _kFblDiagSubtableCommControl_Disable:	.byte	1
                         301 	.type	_kFblDiagSubtableCommControl_Disable..C.3A.5C_ECU2.5CECU_Rivian_A1.5CTarget.5Crepo_projects.5CpFOTA.5CcL_LATEST.5Cmake.5Cobj.5Cfbl_diag_oem.,@object
                         302 	.size	_kFblDiagSubtableCommControl_Disable..C.3A.5C_ECU2.5CECU_Rivian_A1.5CTarget.5Crepo_projects.5CpFOTA.5CcL_LATEST.5Cmake.5Cobj.5Cfbl_diag_oem.,1
                         303 	.type	_kFblDiagSubtableCommControl_Disable,@object
                         304 	.size	_kFblDiagSubtableCommControl_Disable,1
                         305 	.global	_kFblDiagSubtableTesterPresent_ZeroSubfunction..C.3A.5C_ECU2.5CECU_Rivian_A1.5CTarget.5Crepo_projects.5CpFOTA.5CcL_LATEST.5Cmake.5Cobj.5Cfbl_diag_oem.
                         306 _kFblDiagSubtableTesterPresent_ZeroSubfunction..C.3A.5C_ECU2.5CECU_Rivian_A1.5CTarget.5Crepo_projects.5CpFOTA.5CcL_LATEST.5Cmake.5Cobj.5Cfbl_diag_oem.:
0000001c 00              307 _kFblDiagSubtableTesterPresent_ZeroSubfunction:	.space	1
                         308 	.type	_kFblDiagSubtableTesterPresent_ZeroSubfunction..C.3A.5C_ECU2.5CECU_Rivian_A1.5CTarget.5Crepo_projects.5CpFOTA.5CcL_LATEST.5Cmake.5Cobj.5Cfbl_diag_oem.,@object
                         309 	.size	_kFblDiagSubtableTesterPresent_ZeroSubfunction..C.3A.5C_ECU2.5CECU_Rivian_A1.5CTarget.5Crepo_projects.5CpFOTA.5CcL_LATEST.5Cmake.5Cobj.5Cfbl_diag_oem.,1
                         310 	.type	_kFblDiagSubtableTesterPresent_ZeroSubfunction,@object
                         311 	.size	_kFblDiagSubtableTesterPresent_ZeroSubfunction,1
                         312 	.global	_kFblDiagSubtableControlDtc_OnSubfunction..C.3A.5C_ECU2.5CECU_Rivian_A1.5CTarget.5Crepo_projects.5CpFOTA.5CcL_LATEST.5Cmake.5Cobj.5Cfbl_diag_oem.
                         313 _kFblDiagSubtableControlDtc_OnSubfunction..C.3A.5C_ECU2.5CECU_Rivian_A1.5CTarget.5Crepo_projects.5CpFOTA.5CcL_LATEST.5Cmake.5Cobj.5Cfbl_diag_oem.:
0000001d 01              314 _kFblDiagSubtableControlDtc_OnSubfunction:	.byte	1
                         315 	.type	_kFblDiagSubtableControlDtc_OnSubfunction..C.3A.5C_ECU2.5CECU_Rivian_A1.5CTarget.5Crepo_projects.5CpFOTA.5CcL_LATEST.5Cmake.5Cobj.5Cfbl_diag_oem.,@object
                         316 	.size	_kFblDiagSubtableControlDtc_OnSubfunction..C.3A.5C_ECU2.5CECU_Rivian_A1.5CTarget.5Crepo_projects.5CpFOTA.5CcL_LATEST.5Cmake.5Cobj.5Cfbl_diag_oem.,1
                         317 	.type	_kFblDiagSubtableControlDtc_OnSubfunction,@object
                         318 	.size	_kFblDiagSubtableControlDtc_OnSubfunction,1
                         319 	.global	_kFblDiagSubtableControlDtc_OffSubfunction..C.3A.5C_ECU2.5CECU_Rivian_A1.5CTarget.5Crepo_projects.5CpFOTA.5CcL_LATEST.5Cmake.5Cobj.5Cfbl_diag_oem.
                         320 _kFblDiagSubtableControlDtc_OffSubfunction..C.3A.5C_ECU2.5CECU_Rivian_A1.5CTarget.5Crepo_projects.5CpFOTA.5CcL_LATEST.5Cmake.5Cobj.5Cfbl_diag_oem.:
0000001e 02              321 _kFblDiagSubtableControlDtc_OffSubfunction:	.byte	2
                         322 	.type	_kFblDiagSubtableControlDtc_OffSubfunction..C.3A.5C_ECU2.5CECU_Rivian_A1.5CTarget.5Crepo_projects.5CpFOTA.5CcL_LATEST.5Cmake.5Cobj.5Cfbl_diag_oem.,@object
                         323 	.size	_kFblDiagSubtableControlDtc_OffSubfunction..C.3A.5C_ECU2.5CECU_Rivian_A1.5CTarget.5Crepo_projects.5CpFOTA.5CcL_LATEST.5Cmake.5Cobj.5Cfbl_diag_oem.,1
                         324 	.type	_kFblDiagSubtableControlDtc_OffSubfunction,@object
                         325 	.size	_kFblDiagSubtableControlDtc_OffSubfunction,1
                         326 	.global	_kFblDiagSubtableRC_StartErase..C.3A.5C_ECU2.5CECU_Rivian_A1.5CTarget.5Crepo_projects.5CpFOTA.5CcL_LATEST.5Cmake.5Cobj.5Cfbl_diag_oem.
                         327 _kFblDiagSubtableRC_StartErase..C.3A.5C_ECU2.5CECU_Rivian_A1.5CTarget.5Crepo_projects.5CpFOTA.5CcL_LATEST.5Cmake.5Cobj.5Cfbl_diag_oem.:
0000001f 01ff            328 _kFblDiagSubtableRC_StartErase:	.byte	1,255
00000021 00              329 	.space	1
                         330 	.type	_kFblDiagSubtableRC_StartErase..C.3A.5C_ECU2.5CECU_Rivian_A1.5CTarget.5Crepo_projects.5CpFOTA.5CcL_LATEST.5Cmake.5Cobj.5Cfbl_diag_oem.,@object
                         331 	.size	_kFblDiagSubtableRC_StartErase..C.3A.5C_ECU2.5CECU_Rivian_A1.5CTarget.5Crepo_projects.5CpFOTA.5CcL_LATEST.5Cmake.5Cobj.5Cfbl_diag_oem.,3
                         332 	.type	_kFblDiagSubtableRC_StartErase,@object
                         333 	.size	_kFblDiagSubtableRC_StartErase,3
                         334 	.global	_kFblDiagSubtableRC_ApplicationHwidCheck..C.3A.5C_ECU2.5CECU_Rivian_A1.5CTarget.5Crepo_projects.5CpFOTA.5CcL_LATEST.5Cmake.5Cobj.5Cfbl_diag_oem.
                         335 _kFblDiagSubtableRC_ApplicationHwidCheck..C.3A.5C_ECU2.5CECU_Rivian_A1.5CTarget.5Crepo_projects.5CpFOTA.5CcL_LATEST.5Cmake.5Cobj.5Cfbl_diag_oem.:
00000022 0104            336 _kFblDiagSubtableRC_ApplicationHwidCheck:	.byte	1,4
00000024 01              337 	.byte	1
                         338 	.type	_kFblDiagSubtableRC_ApplicationHwidCheck..C.3A.5C_ECU2.5CECU_Rivian_A1.5CTarget.5Crepo_projects.5CpFOTA.5CcL_LATEST.5Cmake.5Cobj.5Cfbl_diag_oem.,@object
                         339 	.size	_kFblDiagSubtableRC_ApplicationHwidCheck..C.3A.5C_ECU2.5CECU_Rivian_A1.5CTarget.5Crepo_projects.5CpFOTA.5CcL_LATEST.5Cmake.5Cobj.5Cfbl_diag_oem.,3
                         340 	.type	_kFblDiagSubtableRC_ApplicationHwidCheck,@object
                         341 	.size	_kFblDiagSubtableRC_ApplicationHwidCheck,3
                         342 	.global	_kFblDiagSubtableRC_CompareAndStoreSignature..C.3A.5C_ECU2.5CECU_Rivian_A1.5CTarget.5Crepo_projects.5CpFOTA.5CcL_LATEST.5Cmake.5Cobj.5Cfbl_diag_oem.
                         343 _kFblDiagSubtableRC_CompareAndStoreSignature..C.3A.5C_ECU2.5CECU_Rivian_A1.5CTarget.5Crepo_projects.5CpFOTA.5CcL_LATEST.5Cmake.5Cobj.5Cfbl_diag_oem.:

                                                                      Page 7
                                                              C:\Users\nhuliyap\AppData\Local\Temp\gh_000099c1.s
00000025 0104            344 _kFblDiagSubtableRC_CompareAndStoreSignature:	.byte	1,4
00000027 06              345 	.byte	6
                         346 	.type	_kFblDiagSubtableRC_CompareAndStoreSignature..C.3A.5C_ECU2.5CECU_Rivian_A1.5CTarget.5Crepo_projects.5CpFOTA.5CcL_LATEST.5Cmake.5Cobj.5Cfbl_diag_oem.,@object
                         347 	.size	_kFblDiagSubtableRC_CompareAndStoreSignature..C.3A.5C_ECU2.5CECU_Rivian_A1.5CTarget.5Crepo_projects.5CpFOTA.5CcL_LATEST.5Cmake.5Cobj.5Cfbl_diag_oem.,3
                         348 	.type	_kFblDiagSubtableRC_CompareAndStoreSignature,@object
                         349 	.size	_kFblDiagSubtableRC_CompareAndStoreSignature,3
                         350 	.global	_kFblDiagSubtableRC_CheckValidModule..C.3A.5C_ECU2.5CECU_Rivian_A1.5CTarget.5Crepo_projects.5CpFOTA.5CcL_LATEST.5Cmake.5Cobj.5Cfbl_diag_oem.
                         351 _kFblDiagSubtableRC_CheckValidModule..C.3A.5C_ECU2.5CECU_Rivian_A1.5CTarget.5Crepo_projects.5CpFOTA.5CcL_LATEST.5Cmake.5Cobj.5Cfbl_diag_oem.:
00000028 0104            352 _kFblDiagSubtableRC_CheckValidModule:	.byte	1,4
0000002a 02              353 	.byte	2
                         354 	.type	_kFblDiagSubtableRC_CheckValidModule..C.3A.5C_ECU2.5CECU_Rivian_A1.5CTarget.5Crepo_projects.5CpFOTA.5CcL_LATEST.5Cmake.5Cobj.5Cfbl_diag_oem.,@object
                         355 	.size	_kFblDiagSubtableRC_CheckValidModule..C.3A.5C_ECU2.5CECU_Rivian_A1.5CTarget.5Crepo_projects.5CpFOTA.5CcL_LATEST.5Cmake.5Cobj.5Cfbl_diag_oem.,3
                         356 	.type	_kFblDiagSubtableRC_CheckValidModule,@object
                         357 	.size	_kFblDiagSubtableRC_CheckValidModule,3
                         358 	.global	_kFblDiagSubtableRC_InitGenealogyBlock..C.3A.5C_ECU2.5CECU_Rivian_A1.5CTarget.5Crepo_projects.5CpFOTA.5CcL_LATEST.5Cmake.5Cobj.5Cfbl_diag_oem.
                         359 _kFblDiagSubtableRC_InitGenealogyBlock..C.3A.5C_ECU2.5CECU_Rivian_A1.5CTarget.5Crepo_projects.5CpFOTA.5CcL_LATEST.5Cmake.5Cobj.5Cfbl_diag_oem.:
0000002b 0104            360 _kFblDiagSubtableRC_InitGenealogyBlock:	.byte	1,4
0000002d 04              361 	.byte	4
                         362 	.type	_kFblDiagSubtableRC_InitGenealogyBlock..C.3A.5C_ECU2.5CECU_Rivian_A1.5CTarget.5Crepo_projects.5CpFOTA.5CcL_LATEST.5Cmake.5Cobj.5Cfbl_diag_oem.,@object
                         363 	.size	_kFblDiagSubtableRC_InitGenealogyBlock..C.3A.5C_ECU2.5CECU_Rivian_A1.5CTarget.5Crepo_projects.5CpFOTA.5CcL_LATEST.5Cmake.5Cobj.5Cfbl_diag_oem.,3
                         364 	.type	_kFblDiagSubtableRC_InitGenealogyBlock,@object
                         365 	.size	_kFblDiagSubtableRC_InitGenealogyBlock,3
                         366 	.global	_kFblDiagSubtableRC_LoadSecurityKey..C.3A.5C_ECU2.5CECU_Rivian_A1.5CTarget.5Crepo_projects.5CpFOTA.5CcL_LATEST.5Cmake.5Cobj.5Cfbl_diag_oem.
                         367 _kFblDiagSubtableRC_LoadSecurityKey..C.3A.5C_ECU2.5CECU_Rivian_A1.5CTarget.5Crepo_projects.5CpFOTA.5CcL_LATEST.5Cmake.5Cobj.5Cfbl_diag_oem.:
0000002e 0102            368 _kFblDiagSubtableRC_LoadSecurityKey:	.byte	1,2
00000030 07              369 	.byte	7
                         370 	.type	_kFblDiagSubtableRC_LoadSecurityKey..C.3A.5C_ECU2.5CECU_Rivian_A1.5CTarget.5Crepo_projects.5CpFOTA.5CcL_LATEST.5Cmake.5Cobj.5Cfbl_diag_oem.,@object
                         371 	.size	_kFblDiagSubtableRC_LoadSecurityKey..C.3A.5C_ECU2.5CECU_Rivian_A1.5CTarget.5Crepo_projects.5CpFOTA.5CcL_LATEST.5Cmake.5Cobj.5Cfbl_diag_oem.,3
                         372 	.type	_kFblDiagSubtableRC_LoadSecurityKey,@object
                         373 	.size	_kFblDiagSubtableRC_LoadSecurityKey,3
                         374 	.global	_kFblDiagSubtableRC_SecretService..C.3A.5C_ECU2.5CECU_Rivian_A1.5CTarget.5Crepo_projects.5CpFOTA.5CcL_LATEST.5Cmake.5Cobj.5Cfbl_diag_oem.
                         375 _kFblDiagSubtableRC_SecretService..C.3A.5C_ECU2.5CECU_Rivian_A1.5CTarget.5Crepo_projects.5CpFOTA.5CcL_LATEST.5Cmake.5Cobj.5Cfbl_diag_oem.:
00000031 0112            376 _kFblDiagSubtableRC_SecretService:	.byte	1,18
00000033 48              377 	.byte	72
                         378 	.type	_kFblDiagSubtableRC_SecretService..C.3A.5C_ECU2.5CECU_Rivian_A1.5CTarget.5Crepo_projects.5CpFOTA.5CcL_LATEST.5Cmake.5Cobj.5Cfbl_diag_oem.,@object
                         379 	.size	_kFblDiagSubtableRC_SecretService..C.3A.5C_ECU2.5CECU_Rivian_A1.5CTarget.5Crepo_projects.5CpFOTA.5CcL_LATEST.5Cmake.5Cobj.5Cfbl_diag_oem.,3
                         380 	.type	_kFblDiagSubtableRC_SecretService,@object
                         381 	.size	_kFblDiagSubtableRC_SecretService,3
                         382 	.global	_kFlashDriverInitData..C.3A.5C_ECU2.5CECU_Rivian_A1.5CTarget.5Crepo_projects.5CpFOTA.5CcL_LATEST.5Cmake.5Cobj.5Cfbl_diag_oem.
                         383 _kFlashDriverInitData..C.3A.5C_ECU2.5CECU_Rivian_A1.5CTarget.5Crepo_projects.5CpFOTA.5CcL_LATEST.5Cmake.5Cobj.5Cfbl_diag_oem.:
00000034 00000000*       384 _kFlashDriverInitData:	.word	_flashDrvBlk0
00000038 00000000*       385 	.word	_flashCode
0000003c 00250000        386 	.byte	0,37,0,0
00000040 cc              387 	.byte	204
00000041 000000          388 	.space	3
                         389 	.type	_kFlashDriverInitData..C.3A.5C_ECU2.5CECU_Rivian_A1.5CTarget.5Crepo_projects.5CpFOTA.5CcL_LATEST.5Cmake.5Cobj.5Cfbl_diag_oem.,@object
                         390 	.size	_kFlashDriverInitData..C.3A.5C_ECU2.5CECU_Rivian_A1.5CTarget.5Crepo_projects.5CpFOTA.5CcL_LATEST.5Cmake.5Cobj.5Cfbl_diag_oem.,16
                         391 	.type	_kFlashDriverInitData,@object
                         392 	.size	_kFlashDriverInitData,16
                         393 	.global	_kFblDiagSubtableSecAccess..C.3A.5C_ECU2.5CECU_Rivian_A1.5CTarget.5Crepo_projects.5CpFOTA.5CcL_LATEST.5Cmake.5Cobj.5Cfbl_diag_oem.
                         394 _kFblDiagSubtableSecAccess..C.3A.5C_ECU2.5CECU_Rivian_A1.5CTarget.5Crepo_projects.5CpFOTA.5CcL_LATEST.5Cmake.5Cobj.5Cfbl_diag_oem.:
00000044 00000000*       395 _kFblDiagSubtableSecAccess:	.word	rosdaoff23(_kFblDiagSubtableSecAccess_Seed)
00000048 04000000        396 	.byte	4,0,0,0
0000004c 0100            397 	.byte	1,0
0000004e 0000            398 	.space	2
00000050 00000000        399 	.space	4
00000054 00000000*       400 	.word	_FblDiagSecAccessSeedMainHandler
00000058 00000000*       401 	.word	rosdaoff23(_kFblDiagSubtableSecAccess_Key)
0000005c 04000000        402 	.byte	4,0,0,0
00000060 1100            403 	.byte	17,0
00000062 0000            404 	.space	2

                                                                      Page 8
                                                              C:\Users\nhuliyap\AppData\Local\Temp\gh_000099c1.s
00000064 00000000        405 	.space	4
00000068 00000000*       406 	.word	_FblDiagSecAccessKeyMainHandler
                         407 	.type	_kFblDiagSubtableSecAccess..C.3A.5C_ECU2.5CECU_Rivian_A1.5CTarget.5Crepo_projects.5CpFOTA.5CcL_LATEST.5Cmake.5Cobj.5Cfbl_diag_oem.,@object
                         408 	.size	_kFblDiagSubtableSecAccess..C.3A.5C_ECU2.5CECU_Rivian_A1.5CTarget.5Crepo_projects.5CpFOTA.5CcL_LATEST.5Cmake.5Cobj.5Cfbl_diag_oem.,40
                         409 	.type	_kFblDiagSubtableSecAccess,@object
                         410 	.size	_kFblDiagSubtableSecAccess,40
                         411 	.global	_kFblDiagSubtableCommControl..C.3A.5C_ECU2.5CECU_Rivian_A1.5CTarget.5Crepo_projects.5CpFOTA.5CcL_LATEST.5Cmake.5Cobj.5Cfbl_diag_oem.
                         412 _kFblDiagSubtableCommControl..C.3A.5C_ECU2.5CECU_Rivian_A1.5CTarget.5Crepo_projects.5CpFOTA.5CcL_LATEST.5Cmake.5Cobj.5Cfbl_diag_oem.:
0000006c 00000000*       413 _kFblDiagSubtableCommControl:	.word	rosdaoff23(_kFblDiagSubtableCommControl_EnRxEnTx)
00000070 22000000        414 	.byte	34,0,0,0
00000074 0200            415 	.byte	2,0
00000076 0000            416 	.space	2
00000078 00000000        417 	.space	4
0000007c 00000000*       418 	.word	_FblDiagCommCtrlMainHandler
00000080 00000000*       419 	.word	rosdaoff23(_kFblDiagSubtableCommControl_Disable)
00000084 22000000        420 	.byte	34,0,0,0
00000088 0200            421 	.byte	2,0
0000008a 0000            422 	.space	2
0000008c 00000000        423 	.space	4
00000090 00000000*       424 	.word	_FblDiagCommCtrlMainHandler
                         425 	.type	_kFblDiagSubtableCommControl..C.3A.5C_ECU2.5CECU_Rivian_A1.5CTarget.5Crepo_projects.5CpFOTA.5CcL_LATEST.5Cmake.5Cobj.5Cfbl_diag_oem.,@object
                         426 	.size	_kFblDiagSubtableCommControl..C.3A.5C_ECU2.5CECU_Rivian_A1.5CTarget.5Crepo_projects.5CpFOTA.5CcL_LATEST.5Cmake.5Cobj.5Cfbl_diag_oem.,40
                         427 	.type	_kFblDiagSubtableCommControl,@object
                         428 	.size	_kFblDiagSubtableCommControl,40
                         429 	.global	_kFblDiagSubtableControlDtc..C.3A.5C_ECU2.5CECU_Rivian_A1.5CTarget.5Crepo_projects.5CpFOTA.5CcL_LATEST.5Cmake.5Cobj.5Cfbl_diag_oem.
                         430 _kFblDiagSubtableControlDtc..C.3A.5C_ECU2.5CECU_Rivian_A1.5CTarget.5Crepo_projects.5CpFOTA.5CcL_LATEST.5Cmake.5Cobj.5Cfbl_diag_oem.:
00000094 00000000*       431 _kFblDiagSubtableControlDtc:	.word	rosdaoff23(_kFblDiagSubtableControlDtc_OnSubfunction)
00000098 22000000        432 	.byte	34,0,0,0
0000009c 0100            433 	.byte	1,0
0000009e 0000            434 	.space	2
000000a0 00000000        435 	.space	4
000000a4 00000000*       436 	.word	_FblDiagControlDTCMainHandler
000000a8 00000000*       437 	.word	rosdaoff23(_kFblDiagSubtableControlDtc_OffSubfunction)
000000ac 22000000        438 	.byte	34,0,0,0
000000b0 0100            439 	.byte	1,0
000000b2 0000            440 	.space	2
000000b4 00000000        441 	.space	4
000000b8 00000000*       442 	.word	_FblDiagControlDTCMainHandler
                         443 	.type	_kFblDiagSubtableControlDtc..C.3A.5C_ECU2.5CECU_Rivian_A1.5CTarget.5Crepo_projects.5CpFOTA.5CcL_LATEST.5Cmake.5Cobj.5Cfbl_diag_oem.,@object
                         444 	.size	_kFblDiagSubtableControlDtc..C.3A.5C_ECU2.5CECU_Rivian_A1.5CTarget.5Crepo_projects.5CpFOTA.5CcL_LATEST.5Cmake.5Cobj.5Cfbl_diag_oem.,40
                         445 	.type	_kFblDiagSubtableControlDtc,@object
                         446 	.size	_kFblDiagSubtableControlDtc,40
                         447 	.section ".sbss","awb"
0000000f 00              448 	.space	1
                         449 	.global	_verifyParam..C.3A.5C_ECU2.5CECU_Rivian_A1.5CTarget.5Crepo_projects.5CpFOTA.5CcL_LATEST.5Cmake.5Cobj.5Cfbl_diag_oem.
                         450 _verifyParam..C.3A.5C_ECU2.5CECU_Rivian_A1.5CTarget.5Crepo_projects.5CpFOTA.5CcL_LATEST.5Cmake.5Cobj.5Cfbl_diag_oem.:
00000010 000000000000    451 _verifyParam:	.space	44
00000016 000000000000 
0000001c 000000000000 
00000022 000000000000 
00000028 000000000000 
0000002e 000000000000 
00000034 000000000000 
0000003a 0000 
                         452 	.type	_verifyParam..C.3A.5C_ECU2.5CECU_Rivian_A1.5CTarget.5Crepo_projects.5CpFOTA.5CcL_LATEST.5Cmake.5Cobj.5Cfbl_diag_oem.,@object
                         453 	.size	_verifyParam..C.3A.5C_ECU2.5CECU_Rivian_A1.5CTarget.5Crepo_projects.5CpFOTA.5CcL_LATEST.5Cmake.5Cobj.5Cfbl_diag_oem.,44
                         454 	.type	_verifyParam,@object
                         455 	.size	_verifyParam,44
                         456 	.global	_downloadBlockDescriptor..C.3A.5C_ECU2.5CECU_Rivian_A1.5CTarget.5Crepo_projects.5CpFOTA.5CcL_LATEST.5Cmake.5Cobj.5Cfbl_diag_oem.
                         457 _downloadBlockDescriptor..C.3A.5C_ECU2.5CECU_Rivian_A1.5CTarget.5Crepo_projects.5CpFOTA.5CcL_LATEST.5Cmake.5Cobj.5Cfbl_diag_oem.:
0000003c 000000000000    458 _downloadBlockDescriptor:	.space	36

                                                                      Page 9
                                                              C:\Users\nhuliyap\AppData\Local\Temp\gh_000099c1.s
00000042 000000000000 
00000048 000000000000 
0000004e 000000000000 
00000054 000000000000 
0000005a 000000000000 
                         459 	.type	_downloadBlockDescriptor..C.3A.5C_ECU2.5CECU_Rivian_A1.5CTarget.5Crepo_projects.5CpFOTA.5CcL_LATEST.5Cmake.5Cobj.5Cfbl_diag_oem.,@object
                         460 	.size	_downloadBlockDescriptor..C.3A.5C_ECU2.5CECU_Rivian_A1.5CTarget.5Crepo_projects.5CpFOTA.5CcL_LATEST.5Cmake.5Cobj.5Cfbl_diag_oem.,36
                         461 	.type	_downloadBlockDescriptor,@object
                         462 	.size	_downloadBlockDescriptor,36
                         463 	.section ".rosdata","a"
                         464 	.global	_kFblDiagSubtableSessionControl..C.3A.5C_ECU2.5CECU_Rivian_A1.5CTarget.5Crepo_projects.5CpFOTA.5CcL_LATEST.5Cmake.5Cobj.5Cfbl_diag_oem.
                         465 _kFblDiagSubtableSessionControl..C.3A.5C_ECU2.5CECU_Rivian_A1.5CTarget.5Crepo_projects.5CpFOTA.5CcL_LATEST.5Cmake.5Cobj.5Cfbl_diag_oem.:
000000bc 00000000*       466 _kFblDiagSubtableSessionControl:	.word	rosdaoff23(_kFblDiagSubtableDsc_DefaultSession)
000000c0 27000000        467 	.byte	39,0,0,0
000000c4 0100            468 	.byte	1,0
000000c6 0000            469 	.space	2
000000c8 00000000        470 	.space	4
000000cc 00000000*       471 	.word	_FblDiagDefaultSessionMainHandler
000000d0 00000000*       472 	.word	rosdaoff23(_kFblDiagSubtableDsc_ProgSession)
000000d4 27000000        473 	.byte	39,0,0,0
000000d8 0100            474 	.byte	1,0
000000da 0000            475 	.space	2
000000dc 00000000        476 	.space	4
000000e0 00000000*       477 	.word	_FblDiagProgrammingSessionMainHandler
000000e4 00000000*       478 	.word	rosdaoff23(_kFblDiagSubtableDsc_ExtendedSession)
000000e8 23000000        479 	.byte	35,0,0,0
000000ec 0100            480 	.byte	1,0
000000ee 0000            481 	.space	2
000000f0 00000000        482 	.space	4
000000f4 00000000*       483 	.word	_FblDiagExtendedSessionMainHandler
                         484 	.type	_kFblDiagSubtableSessionControl..C.3A.5C_ECU2.5CECU_Rivian_A1.5CTarget.5Crepo_projects.5CpFOTA.5CcL_LATEST.5Cmake.5Cobj.5Cfbl_diag_oem.,@object
                         485 	.size	_kFblDiagSubtableSessionControl..C.3A.5C_ECU2.5CECU_Rivian_A1.5CTarget.5Crepo_projects.5CpFOTA.5CcL_LATEST.5Cmake.5Cobj.5Cfbl_diag_oem.,60
                         486 	.type	_kFblDiagSubtableSessionControl,@object
                         487 	.size	_kFblDiagSubtableSessionControl,60
                         488 	.global	_kFblDiagSubtableEcuReset..C.3A.5C_ECU2.5CECU_Rivian_A1.5CTarget.5Crepo_projects.5CpFOTA.5CcL_LATEST.5Cmake.5Cobj.5Cfbl_diag_oem.
                         489 _kFblDiagSubtableEcuReset..C.3A.5C_ECU2.5CECU_Rivian_A1.5CTarget.5Crepo_projects.5CpFOTA.5CcL_LATEST.5Cmake.5Cobj.5Cfbl_diag_oem.:
000000f8 00000000*       490 _kFblDiagSubtableEcuReset:	.word	rosdaoff23(_kFblDiagSubtableEcuReset_HardReset)
000000fc 27000000        491 	.byte	39,0,0,0
00000100 0100            492 	.byte	1,0
00000102 0000            493 	.space	2
00000104 00000000        494 	.space	4
00000108 00000000*       495 	.word	_FblDiagEcuResetMainHandler
                         496 	.type	_kFblDiagSubtableEcuReset..C.3A.5C_ECU2.5CECU_Rivian_A1.5CTarget.5Crepo_projects.5CpFOTA.5CcL_LATEST.5Cmake.5Cobj.5Cfbl_diag_oem.,@object
                         497 	.size	_kFblDiagSubtableEcuReset..C.3A.5C_ECU2.5CECU_Rivian_A1.5CTarget.5Crepo_projects.5CpFOTA.5CcL_LATEST.5Cmake.5Cobj.5Cfbl_diag_oem.,20
                         498 	.type	_kFblDiagSubtableEcuReset,@object
                         499 	.size	_kFblDiagSubtableEcuReset,20
                         500 	.global	_kFblDiagSubtableTesterPresent..C.3A.5C_ECU2.5CECU_Rivian_A1.5CTarget.5Crepo_projects.5CpFOTA.5CcL_LATEST.5Cmake.5Cobj.5Cfbl_diag_oem.
                         501 _kFblDiagSubtableTesterPresent..C.3A.5C_ECU2.5CECU_Rivian_A1.5CTarget.5Crepo_projects.5CpFOTA.5CcL_LATEST.5Cmake.5Cobj.5Cfbl_diag_oem.:
0000010c 00000000*       502 _kFblDiagSubtableTesterPresent:	.word	rosdaoff23(_kFblDiagSubtableTesterPresent_ZeroSubfunction)
00000110 27000000        503 	.byte	39,0,0,0
00000114 0100            504 	.byte	1,0
00000116 0000            505 	.space	2
00000118 00000000        506 	.space	4
0000011c 00000000*       507 	.word	_FblDiagTesterPresentMainHandler
                         508 	.type	_kFblDiagSubtableTesterPresent..C.3A.5C_ECU2.5CECU_Rivian_A1.5CTarget.5Crepo_projects.5CpFOTA.5CcL_LATEST.5Cmake.5Cobj.5Cfbl_diag_oem.,@object
                         509 	.size	_kFblDiagSubtableTesterPresent..C.3A.5C_ECU2.5CECU_Rivian_A1.5CTarget.5Crepo_projects.5CpFOTA.5CcL_LATEST.5Cmake.5Cobj.5Cfbl_diag_oem.,20
                         510 	.type	_kFblDiagSubtableTesterPresent,@object
                         511 	.size	_kFblDiagSubtableTesterPresent,20
                         512 	.section ".sbss","awb"
                         513 	.global	_downloadSegments..C.3A.5C_ECU2.5CECU_Rivian_A1.5CTarget.5Crepo_projects.5CpFOTA.5CcL_LATEST.5Cmake.5Cobj.5Cfbl_diag_oem.
                         514 _downloadSegments..C.3A.5C_ECU2.5CECU_Rivian_A1.5CTarget.5Crepo_projects.5CpFOTA.5CcL_LATEST.5Cmake.5Cobj.5Cfbl_diag_oem.:

                                                                      Page 10
                                                              C:\Users\nhuliyap\AppData\Local\Temp\gh_000099c1.s
00000060 000000000000    515 _downloadSegments:	.space	96
00000066 000000000000 
0000006c 000000000000 
00000072 000000000000 
00000078 000000000000 
0000007e 000000000000 
00000084 000000000000 
0000008a 000000000000 
00000090 000000000000 
00000096 000000000000 
0000009c 000000000000 
000000a2 000000000000 
000000a8 000000000000 
000000ae 000000000000 
000000b4 000000000000 
000000ba 000000000000 
                         516 	.type	_downloadSegments..C.3A.5C_ECU2.5CECU_Rivian_A1.5CTarget.5Crepo_projects.5CpFOTA.5CcL_LATEST.5Cmake.5Cobj.5Cfbl_diag_oem.,@object
                         517 	.size	_downloadSegments..C.3A.5C_ECU2.5CECU_Rivian_A1.5CTarget.5Crepo_projects.5CpFOTA.5CcL_LATEST.5Cmake.5Cobj.5Cfbl_diag_oem.,96
                         518 	.type	_downloadSegments,@object
                         519 	.size	_downloadSegments,96
                         520 	.section ".rosdata","a"
                         521 	.global	_kFblDiagSubtableRoutine..C.3A.5C_ECU2.5CECU_Rivian_A1.5CTarget.5Crepo_projects.5CpFOTA.5CcL_LATEST.5Cmake.5Cobj.5Cfbl_diag_oem.
                         522 _kFblDiagSubtableRoutine..C.3A.5C_ECU2.5CECU_Rivian_A1.5CTarget.5Crepo_projects.5CpFOTA.5CcL_LATEST.5Cmake.5Cobj.5Cfbl_diag_oem.:
00000120 00000000*       523 _kFblDiagSubtableRoutine:	.word	rosdaoff23(_kFblDiagSubtableRC_StartErase)
00000124 0c000000        524 	.byte	12,0,0,0
00000128 0300            525 	.byte	3,0
0000012a 0000            526 	.space	2
0000012c 00000000*       527 	.word	_FblDiagRCStartEraseLengthCheck
00000130 00000000*       528 	.word	_FblDiagRCStartEraseMainHandler
00000134 00000000*       529 	.word	rosdaoff23(_kFblDiagSubtableRC_ApplicationHwidCheck)
00000138 0c000000        530 	.byte	12,0,0,0
0000013c 0300            531 	.byte	3,0
0000013e 0000            532 	.space	2
00000140 00000000        533 	.space	4
00000144 00000000*       534 	.word	_FblDiagRCStartApplicationHwidCheckMainHandler
00000148 00000000*       535 	.word	rosdaoff23(_kFblDiagSubtableRC_CompareAndStoreSignature)
0000014c 0c000000        536 	.byte	12,0,0,0
00000150 1300            537 	.byte	19,0
00000152 0000            538 	.space	2
00000154 00000000        539 	.space	4
00000158 00000000*       540 	.word	_FblDiagRCStartCompareAndStoreSignatureMainHandler
0000015c 00000000*       541 	.word	rosdaoff23(_kFblDiagSubtableRC_CheckValidModule)
00000160 0c000000        542 	.byte	12,0,0,0
00000164 0300            543 	.byte	3,0
00000166 0000            544 	.space	2
00000168 00000000        545 	.space	4
0000016c 00000000*       546 	.word	_FblDiagRCStartCheckValidModuleMainHandler
00000170 00000000*       547 	.word	rosdaoff23(_kFblDiagSubtableRC_InitGenealogyBlock)
00000174 0c000000        548 	.byte	12,0,0,0
00000178 0300            549 	.byte	3,0
0000017a 0000            550 	.space	2
0000017c 00000000        551 	.space	4
00000180 00000000*       552 	.word	_FblDiagRCStartInitGenealogyBlockMainHandler
00000184 00000000*       553 	.word	rosdaoff23(_kFblDiagSubtableRC_LoadSecurityKey)
00000188 0c000000        554 	.byte	12,0,0,0
0000018c 1400            555 	.byte	20,0
0000018e 0000            556 	.space	2
00000190 00000000        557 	.space	4
00000194 00000000*       558 	.word	_FblDiagRCStartLoadSecurityKeyMainHandler
00000198 00000000*       559 	.word	rosdaoff23(_kFblDiagSubtableRC_SecretService)
0000019c 07000000        560 	.byte	7,0,0,0

                                                                      Page 11
                                                              C:\Users\nhuliyap\AppData\Local\Temp\gh_000099c1.s
000001a0 0d00            561 	.byte	13,0
000001a2 0000            562 	.space	2
000001a4 00000000        563 	.space	4
000001a8 00000000*       564 	.word	_FblDiagRCStartSecretServiceMainHandler
                         565 	.type	_kFblDiagSubtableRoutine..C.3A.5C_ECU2.5CECU_Rivian_A1.5CTarget.5Crepo_projects.5CpFOTA.5CcL_LATEST.5Cmake.5Cobj.5Cfbl_diag_oem.,@object
                         566 	.size	_kFblDiagSubtableRoutine..C.3A.5C_ECU2.5CECU_Rivian_A1.5CTarget.5Crepo_projects.5CpFOTA.5CcL_LATEST.5Cmake.5Cobj.5Cfbl_diag_oem.,140
                         567 	.type	_kFblDiagSubtableRoutine,@object
                         568 	.size	_kFblDiagSubtableRoutine,140
                         569 	.global	_kFblDiagSubtableWdbi..C.3A.5C_ECU2.5CECU_Rivian_A1.5CTarget.5Crepo_projects.5CpFOTA.5CcL_LATEST.5Cmake.5Cobj.5Cfbl_diag_oem.
                         570 _kFblDiagSubtableWdbi..C.3A.5C_ECU2.5CECU_Rivian_A1.5CTarget.5Crepo_projects.5CpFOTA.5CcL_LATEST.5Cmake.5Cobj.5Cfbl_diag_oem.:
000001ac 00000000*       571 _kFblDiagSubtableWdbi:	.word	rosdaoff23(_kFblDiagSubtableWdbi_ModuleToProgram)
000001b0 24000000        572 	.byte	36,0,0,0
000001b4 0300            573 	.byte	3,0
000001b6 0000            574 	.space	2
000001b8 00000000        575 	.space	4
000001bc 00000000*       576 	.word	_FblDiagWdbiModuleToProgramMainHandler
000001c0 00000000*       577 	.word	rosdaoff23(_kFblDiagSubtableWdbi_BoardPartnumber)
000001c4 24000000        578 	.byte	36,0,0,0
000001c8 2500            579 	.byte	37,0
000001ca 0000            580 	.space	2
000001cc 00000000        581 	.space	4
000001d0 00000000*       582 	.word	_FblDiagWdbiBoardPartnumberMainHandler
000001d4 00000000*       583 	.word	rosdaoff23(_kFblDiagSubtableWdbi_BoardSerialnumber)
000001d8 24000000        584 	.byte	36,0,0,0
000001dc 1400            585 	.byte	20,0
000001de 0000            586 	.space	2
000001e0 00000000        587 	.space	4
000001e4 00000000*       588 	.word	_FblDiagWdbiBoardSerialnumberMainHandler
000001e8 00000000*       589 	.word	rosdaoff23(_kFblDiagSubtableWdbi_EcuPartnumber)
000001ec 24000000        590 	.byte	36,0,0,0
000001f0 2500            591 	.byte	37,0
000001f2 0000            592 	.space	2
000001f4 00000000        593 	.space	4
000001f8 00000000*       594 	.word	_FblDiagWdbiEcuPartnumberMainHandler
000001fc 00000000*       595 	.word	rosdaoff23(_kFblDiagSubtableWdbi_EcuSerialnumber)
00000200 24000000        596 	.byte	36,0,0,0
00000204 1400            597 	.byte	20,0
00000206 0000            598 	.space	2
00000208 00000000        599 	.space	4
0000020c 00000000*       600 	.word	_FblDiagWdbiEcuSerialnumberMainHandler
00000210 00000000*       601 	.word	rosdaoff23(_kFblDiagSubtableWdbi_ManufSupport)
00000214 24000000        602 	.byte	36,0,0,0
00000218 0300            603 	.byte	3,0
0000021a 0000            604 	.space	2
0000021c 00000000        605 	.space	4
00000220 00000000*       606 	.word	_FblDiagWdbiManufSupportMainHandler
00000224 00000000*       607 	.word	rosdaoff23(_kFblDiagSubtableWdbi_Vin)
00000228 24000000        608 	.byte	36,0,0,0
0000022c 1300            609 	.byte	19,0
0000022e 0000            610 	.space	2
00000230 00000000        611 	.space	4
00000234 00000000*       612 	.word	_FblDiagWdbiVinMainHandler
00000238 00000000*       613 	.word	rosdaoff23(_kFblDiagSubtableWdbi_FingerprintApp)
0000023c 24000000        614 	.byte	36,0,0,0
00000240 1a00            615 	.byte	26,0
00000242 0000            616 	.space	2
00000244 00000000        617 	.space	4
00000248 00000000*       618 	.word	_FblDiagWdbiFingerprintAppMainHandler
0000024c 00000000*       619 	.word	rosdaoff23(_kFblDiagSubtableWdbi_ModeId)
00000250 24000000        620 	.byte	36,0,0,0
00000254 0400            621 	.byte	4,0

                                                                      Page 12
                                                              C:\Users\nhuliyap\AppData\Local\Temp\gh_000099c1.s
00000256 0000            622 	.space	2
00000258 00000000        623 	.space	4
0000025c 00000000*       624 	.word	_FblDiagWdbiModeIdMainHandler
00000260 00000000*       625 	.word	rosdaoff23(_kFblDiagSubtableWdbi_AuxId)
00000264 24000000        626 	.byte	36,0,0,0
00000268 0300            627 	.byte	3,0
0000026a 0000            628 	.space	2
0000026c 00000000        629 	.space	4
00000270 00000000*       630 	.word	_FblDiagWdbiAuxIdMainHandler
                         631 	.type	_kFblDiagSubtableWdbi..C.3A.5C_ECU2.5CECU_Rivian_A1.5CTarget.5Crepo_projects.5CpFOTA.5CcL_LATEST.5Cmake.5Cobj.5Cfbl_diag_oem.,@object
                         632 	.size	_kFblDiagSubtableWdbi..C.3A.5C_ECU2.5CECU_Rivian_A1.5CTarget.5Crepo_projects.5CpFOTA.5CcL_LATEST.5Cmake.5Cobj.5Cfbl_diag_oem.,200
                         633 	.type	_kFblDiagSubtableWdbi,@object
                         634 	.size	_kFblDiagSubtableWdbi,200
                         635 	.data
                         636 	.text
                         637 	.align	2
                         638 	.align	2
                         639 ..gh.f.f.1.e.1:
                         640 	.type	..gh.f.f.1.e.1,@object
                         641 	.size	..gh.f.f.1.e.1,0
                         642 	.global	_FblDiagEraseBlock..C.3A.5C_ECU2.5CECU_Rivian_A1.5CTarget.5Crepo_projects.5CpFOTA.5CcL_LATEST.5Cmake.5Cobj.5Cfbl_diag_oem.
                         643 _FblDiagEraseBlock..C.3A.5C_ECU2.5CECU_Rivian_A1.5CTarget.5Crepo_projects.5CpFOTA.5CcL_LATEST.5Cmake.5Cobj.5Cfbl_diag_oem.:
                         644 _FblDiagEraseBlock:
000000b6 9e07e100        645 	prepare	{r28,r29,r31},15
000000ba 06e8            646 	mov	r6,r29
                         647 --	    .bf
                         648 .LDW31:
000000bc 0638            649 	mov	r6,r7
000000be 86370100        650 	ld.bu	0[r6],r6
                         651 	jarl	_FblLbtGetBlockDescriptorByNr,lp
                         651 <EXPANSION BEGIN>
                         651 jarl22 _FblLbtGetBlockDescriptorByNr , lp 
000000c2 80ff0000*       651 <EXPANSION END>
000000c6 0ae0            652 	mov	r10,r28
                         653 --line717
                         654 ..lin.C.3A.5C_ECU2.5CECU_Rivian_A1.5CTarget.5Crepo_projects.5CpFOTA.5CcL_LATEST.5Cmake.5Cobj.5Cfbl_diag_oem.7::
                         655 .LDWlin7:
000000c8 e051            656 	cmp	zero,r10
000000ca ea1d*           657 	bne	.L179
                         658 --line718
                         659 ..lin.C.3A.5C_ECU2.5CECU_Rivian_A1.5CTarget.5Crepo_projects.5CpFOTA.5CcL_LATEST.5Cmake.5Cobj.5Cfbl_diag_oem.8::
                         660 .LDWlin8:
000000cc 1df0            661 	mov	r29,ep
000000ce 028d            662 	sld.w	4[ep],r17
000000d0 0495            663 	sld.w	8[ep],r18
000000d2 03f0            664 	mov	sp,ep
000000d4 0330            665 	mov	sp,r6
000000d6 638f0100        666 	st.w	r17,0[sp]
000000da 0395            667 	sst.w	r18,4[ep]
000000dc 058d            668 	sst.w	r17,8[ep]
000000de 0795            669 	sst.w	r18,12[ep]
                         670 	jarl	_FblMemBlockEraseIndication,lp
                         670 <EXPANSION BEGIN>
                         670 jarl22 _FblMemBlockEraseIndication , lp 
000000e0 80ff0000*       670 <EXPANSION END>
000000e4 d852            671 	shl	24,r10
000000e6 fa0d*           672 	bne	.L175
                         673 --line725
                         674 ..lin.C.3A.5C_ECU2.5CECU_Rivian_A1.5CTarget.5Crepo_projects.5CpFOTA.5CcL_LATEST.5Cmake.5Cobj.5Cfbl_diag_oem.9::
                         675 .LDWlin9:
000000e8 2b0600000000*   676 	mov	sdaoff23(_fblDiagStates+2),r11

                                                                      Page 13
                                                              C:\Users\nhuliyap\AppData\Local\Temp\gh_000099c1.s
000000ee cb2f0000        677 	set1	5,0[r11]
000000f2 260600000000*   678 	mov	sdaoff23(_downloadBlockDescriptor),r6
                         679 	jarl	_ApplFblAdjustLbtBlockData,lp
                         679 <EXPANSION BEGIN>
                         679 jarl22 _ApplFblAdjustLbtBlockData , lp 
000000f8 80ff0000*       679 <EXPANSION END>
                         680 --line729
                         681 ..lin.C.3A.5C_ECU2.5CECU_Rivian_A1.5CTarget.5Crepo_projects.5CpFOTA.5CcL_LATEST.5Cmake.5Cobj.5Cfbl_diag_oem.10::
                         682 .LDWlin10:
000000fc 84070d000000*   683 	st.b	zero,sdaoff23(_segmentCount)[gp]
00000102 f505*           684 	br	.L178
                         685 .L175:
                         686 --line733
                         687 ..lin.C.3A.5C_ECU2.5CECU_Rivian_A1.5CTarget.5Crepo_projects.5CpFOTA.5CcL_LATEST.5Cmake.5Cobj.5Cfbl_diag_oem.11::
                         688 .LDWlin11:
00000104 01e2            689 	mov	1,r28
                         690 .L179:
00000106 2b0600000000*   691 	mov	sdaoff23(_fblDiagStates+2),r11
0000010c cbaf0000        692 	clr1	5,0[r11]
                         693 .L178:
00000110 1c50            694 	mov	r28,r10
                         695 --	    .ef
                         696 .LDW41:
00000112 5e06ff00        697 	dispose	15,{r28,r29,r31},[lp]
                         698 	.type	_FblDiagEraseBlock,@function
                         699 	.size	_FblDiagEraseBlock,.-_FblDiagEraseBlock
                         700 	.type	_FblDiagEraseBlock..C.3A.5C_ECU2.5CECU_Rivian_A1.5CTarget.5Crepo_projects.5CpFOTA.5CcL_LATEST.5Cmake.5Cobj.5Cfbl_diag_oem.,@function
                         701 	.size	_FblDiagEraseBlock..C.3A.5C_ECU2.5CECU_Rivian_A1.5CTarget.5Crepo_projects.5CpFOTA.5CcL_LATEST.5Cmake.5Cobj.5Cfbl_diag_oem.,.-_FblDiagEraseBlock..C.3A.5C_ECU2.5CECU_Rivian_A1.5CTarget.5Crepo_projects.5CpFOTA.5CcL_LATEST.5Cmake.5Cobj.5Cfbl_diag_oem.
                         702 	.align	2
                         703 .LDW51:
                         704 --_result	r28	local
                         705 --_blockInfo	0[sp]	local
                         706 
                         707 --_pBlockDescriptor	r29	param
                         708 
                         709 	.section ".bss","awb"
                         710 .L270:
                         711 	.type	.L270,@object
                         712 	.size	.L270,0
                         713 	.data
                         714 	.text
                         715 	.align	2
                         716 	.align	2
                         717 ..gh.f.f.1.e.2:
                         718 	.type	..gh.f.f.1.e.2,@object
                         719 	.size	..gh.f.f.1.e.2,0
                         720 	.global	_FblDiagPrepareFlashDriver..C.3A.5C_ECU2.5CECU_Rivian_A1.5CTarget.5Crepo_projects.5CpFOTA.5CcL_LATEST.5Cmake.5Cobj.5Cfbl_diag_oem.
                         721 _FblDiagPrepareFlashDriver..C.3A.5C_ECU2.5CECU_Rivian_A1.5CTarget.5Crepo_projects.5CpFOTA.5CcL_LATEST.5Cmake.5Cobj.5Cfbl_diag_oem.:
                         722 _FblDiagPrepareFlashDriver:
00000116 8007e110        723 	prepare	{r27,r28,r29,r31},0
                         724 --	    .bf
                         725 .LDW61:
0000011a 2b0600000000*   726 	mov	sdaoff23(_fblDiagStates+2),r11
00000120 cbcf0000        727 	tst1	1,0[r11]
00000124 ea4d*           728 	bne	.L335
                         729 --line798
                         730 ..lin.C.3A.5C_ECU2.5CECU_Rivian_A1.5CTarget.5Crepo_projects.5CpFOTA.5CcL_LATEST.5Cmake.5Cobj.5Cfbl_diag_oem.12::
                         731 .LDWlin12:
00000126 840709e80000*   732 	ld.w	sdaoff23(_fblDiagStates)[gp],r29
0000012c 404e0002        733 	movhi	hi(33554432),zero,r9
00000130 01da            734 	mov	1,r27

                                                                      Page 14
                                                              C:\Users\nhuliyap\AppData\Local\Temp\gh_000099c1.s
00000132 3c0600000000*   735 	mov	_flashCode,r28
00000138 49e9            736 	and	r9,r29
0000013a 9a1d*           737 	bne	.L337
                         738 .L348:
                         739 --line812
                         740 ..lin.C.3A.5C_ECU2.5CECU_Rivian_A1.5CTarget.5Crepo_projects.5CpFOTA.5CcL_LATEST.5Cmake.5Cobj.5Cfbl_diag_oem.13::
                         741 .LDWlin13:
0000013c 40960000*       742 	movhi	hi(_flashDrvBlk0),zero,r18
00000140 dd91            743 	add	r29,r18
00000142 923f0100*       744 	ld.bu	lo(_flashDrvBlk0)[r18],r7
00000146 1df0            745 	mov	r29,ep
00000148 dcf1            746 	add	r28,ep
0000014a a746cc00        747 	xori	204,r7,r8
0000014e 8043            748 	sst.b	r8,0[ep]
00000150 dd06ff00        749 	andi	255,r29,zero
00000154 ba05*           750 	bne	.L347
                         751 --line815
                         752 ..lin.C.3A.5C_ECU2.5CECU_Rivian_A1.5CTarget.5Crepo_projects.5CpFOTA.5CcL_LATEST.5Cmake.5Cobj.5Cfbl_diag_oem.14::
                         753 .LDWlin14:
                         754 	jarl	_FblLookForWatchdogVoid,lp
                         754 <EXPANSION BEGIN>
                         754 jarl22 _FblLookForWatchdogVoid , lp 
00000156 80ff0000*       754 <EXPANSION END>
                         755 .L347:
                         756 --line810
                         757 ..lin.C.3A.5C_ECU2.5CECU_Rivian_A1.5CTarget.5Crepo_projects.5CpFOTA.5CcL_LATEST.5Cmake.5Cobj.5Cfbl_diag_oem.15::
                         758 .LDWlin15:
0000015a 41ea            759 	add	1,r29
0000015c 1d0600db        760 	addi	-9472,r29,zero
00000160 e9ed*           761 	bnl	.L348
                         762 --line822
                         763 ..lin.C.3A.5C_ECU2.5CECU_Rivian_A1.5CTarget.5Crepo_projects.5CpFOTA.5CcL_LATEST.5Cmake.5Cobj.5Cfbl_diag_oem.16::
                         764 .LDWlin16:
00000162 2b0600000000*   765 	mov	sdaoff23(_fblDiagStates+3),r11
00000168 cb0f0000        766 	set1	1,0[r11]
                         767 .L337:
0000016c 2b0600000000*   768 	mov	sdaoff23(_fblDiagStates+3),r11
00000172 cbcf0000        769 	tst1	1,0[r11]
00000176 e225*           770 	be	.L359
                         771 --line829
                         772 ..lin.C.3A.5C_ECU2.5CECU_Rivian_A1.5CTarget.5Crepo_projects.5CpFOTA.5CcL_LATEST.5Cmake.5Cobj.5Cfbl_diag_oem.17::
                         773 .LDWlin17:
00000178 1cf0            774 	mov	r28,ep
0000017a 6098            775 	sld.bu	0[ep],r19
0000017c 6190            776 	sld.bu	1[ep],r18
0000017e 6388            777 	sld.bu	3[ep],r17
00000180 84070d980000*   778 	st.b	r19,sdaoff23(_errStatFlashDrvVersion)[gp]
00000186 84070d900000*   779 	st.b	r18,sdaoff23(_errStatFlashDrvVersion+1)[gp]
0000018c 84070d880000*   780 	st.b	r17,sdaoff23(_errStatFlashDrvVersion+2)[gp]
                         781 	jarl	_ApplFblSetVfp,lp
                         781 <EXPANSION BEGIN>
                         781 jarl22 _ApplFblSetVfp , lp 
00000192 80ff0000*       781 <EXPANSION END>
                         782 --line835
                         783 ..lin.C.3A.5C_ECU2.5CECU_Rivian_A1.5CTarget.5Crepo_projects.5CpFOTA.5CcL_LATEST.5Cmake.5Cobj.5Cfbl_diag_oem.18::
                         784 .LDWlin18:
00000196 0032            785 	mov	0,r6
                         786 	jarl	_MemDriver_InitSync,lp
                         786 <EXPANSION BEGIN>
                         786 jarl22 _MemDriver_InitSync , lp 
00000198 80ff0000*       786 <EXPANSION END>

                                                                      Page 15
                                                              C:\Users\nhuliyap\AppData\Local\Temp\gh_000099c1.s
                         787 --line838
                         788 ..lin.C.3A.5C_ECU2.5CECU_Rivian_A1.5CTarget.5Crepo_projects.5CpFOTA.5CcL_LATEST.5Cmake.5Cobj.5Cfbl_diag_oem.19::
                         789 .LDWlin19:
0000019c e051            790 	cmp	zero,r10
0000019e 8a0d*           791 	bne	.L356
                         792 --line840
                         793 ..lin.C.3A.5C_ECU2.5CECU_Rivian_A1.5CTarget.5Crepo_projects.5CpFOTA.5CcL_LATEST.5Cmake.5Cobj.5Cfbl_diag_oem.20::
                         794 .LDWlin20:
000001a0 2b0600000000*   795 	mov	sdaoff23(_fblDiagStates+2),r11
000001a6 cb0f0000        796 	set1	1,0[r11]
000001aa 0ad8            797 	mov	r10,r27
000001ac b50d*           798 	br	.L359
                         799 .L356:
                         800 --line845
                         801 ..lin.C.3A.5C_ECU2.5CECU_Rivian_A1.5CTarget.5Crepo_projects.5CpFOTA.5CcL_LATEST.5Cmake.5Cobj.5Cfbl_diag_oem.21::
                         802 .LDWlin21:
000001ae 20863000        803 	movea	48,zero,r16
000001b2 a4070d800000*   804 	st.h	r16,sdaoff23(_errStatErrorCode)[gp]
000001b8 a4070d500000*   805 	st.h	r10,sdaoff23(_errStatFlashDrvErrorCode)[gp]
000001be a505*           806 	br	.L359
                         807 .L335:
                         808 --line851
                         809 ..lin.C.3A.5C_ECU2.5CECU_Rivian_A1.5CTarget.5Crepo_projects.5CpFOTA.5CcL_LATEST.5Cmake.5Cobj.5Cfbl_diag_oem.22::
                         810 .LDWlin22:
000001c0 00da            811 	mov	0,r27
                         812 .L359:
000001c2 1b50            813 	mov	r27,r10
                         814 --	    .ef
                         815 .LDW71:
000001c4 4006ff10        816 	dispose	0,{r27,r28,r29,r31},[lp]
                         817 	.type	_FblDiagPrepareFlashDriver,@function
                         818 	.size	_FblDiagPrepareFlashDriver,.-_FblDiagPrepareFlashDriver
                         819 	.type	_FblDiagPrepareFlashDriver..C.3A.5C_ECU2.5CECU_Rivian_A1.5CTarget.5Crepo_projects.5CpFOTA.5CcL_LATEST.5Cmake.5Cobj.5Cfbl_diag_oem.,@function
                         820 	.size	_FblDiagPrepareFlashDriver..C.3A.5C_ECU2.5CECU_Rivian_A1.5CTarget.5Crepo_projects.5CpFOTA.5CcL_LATEST.5Cmake.5Cobj.5Cfbl_diag_oem.,.-_FblDiagPrepareFlashDriver..C.3A.5C_ECU2.5CECU_Rivian_A1.5CTarget.5Crepo_projects.5CpFOTA.5CcL_LATEST.5Cmake.5Cobj.5Cfbl_diag_oem.
                         821 	.align	2
                         822 .LDW81:
                         823 --_result	r27	local
                         824 --_flashErrorCode	r10	local
                         825 --_byteIndex	r29	local
                         826 
                         827 	.section ".bss","awb"
                         828 .L553:
                         829 	.type	.L553,@object
                         830 	.size	.L553,0
                         831 	.data
                         832 	.text
                         833 	.align	2
                         834 	.align	2
                         835 ..gh.f.f.1.e.3:
                         836 	.type	..gh.f.f.1.e.3,@object
                         837 	.size	..gh.f.f.1.e.3,0
                         838 	.global	_FblDiagCheckErasePreconditionsCustom..C.3A.5C_ECU2.5CECU_Rivian_A1.5CTarget.5Crepo_projects.5CpFOTA.5CcL_LATEST.5Cmake.5Cobj.5Cfbl_diag_oem.
                         839 _FblDiagCheckErasePreconditionsCustom..C.3A.5C_ECU2.5CECU_Rivian_A1.5CTarget.5Crepo_projects.5CpFOTA.5CcL_LATEST.5Cmake.5Cobj.5Cfbl_diag_oem.:
                         840 _FblDiagCheckErasePreconditionsCustom:
000001c8 8007e110        841 	prepare	{r27,r28,r29,r31},0
000001cc 07d8            842 	mov	r7,r27
000001ce 08e8            843 	mov	r8,r29
000001d0 09e0            844 	mov	r9,r28
                         845 --	    .bf
                         846 .LDW91:
000001d2 68070100        847 	st.w	zero,0[r8]

                                                                      Page 16
                                                              C:\Users\nhuliyap\AppData\Local\Temp\gh_000099c1.s
000001d6 69070100        848 	st.w	zero,0[r9]
                         849 	jarl	_FblDiagPrepareFlashDriver,lp
                         849 <EXPANSION BEGIN>
                         849 jarl22 _FblDiagPrepareFlashDriver , lp 
000001da bfff3cff*       849 <EXPANSION END>
000001de e051            850 	cmp	zero,r10
000001e0 820d*           851 	be	.L680
                         852 --line754
                         853 ..lin.C.3A.5C_ECU2.5CECU_Rivian_A1.5CTarget.5Crepo_projects.5CpFOTA.5CcL_LATEST.5Cmake.5Cobj.5Cfbl_diag_oem.23::
                         854 .LDWlin23:
000001e2 20362200        855 	movea	34,zero,r6
                         856 	jarl	_FblDiagSetError,lp
                         856 <EXPANSION BEGIN>
                         856 jarl22 _FblDiagSetError , lp 
000001e6 80ff0000*       856 <EXPANSION END>
                         857 --line755
                         858 ..lin.C.3A.5C_ECU2.5CECU_Rivian_A1.5CTarget.5Crepo_projects.5CpFOTA.5CcL_LATEST.5Cmake.5Cobj.5Cfbl_diag_oem.24::
                         859 .LDWlin24:
000001ea 0152            860 	mov	1,r10
000001ec 4006ff10        861 	dispose	0,{r27,r28,r29,r31},[lp]
                         862 .L680:
000001f0 9b00            863 	zxb	r27
                         864 --line758
                         865 ..lin.C.3A.5C_ECU2.5CECU_Rivian_A1.5CTarget.5Crepo_projects.5CpFOTA.5CcL_LATEST.5Cmake.5Cobj.5Cfbl_diag_oem.25::
                         866 .LDWlin25:
000001f2 63da            867 	cmp	3,r27
000001f4 ba1d*           868 	bne	.L683
                         869 --line760
                         870 ..lin.C.3A.5C_ECU2.5CECU_Rivian_A1.5CTarget.5Crepo_projects.5CpFOTA.5CcL_LATEST.5Cmake.5Cobj.5Cfbl_diag_oem.26::
                         871 .LDWlin26:
000001f6 840709480000*   872 	ld.w	sdaoff23(_ulMemEraseLength)[gp],r9
000001fc e049            873 	cmp	zero,r9
000001fe 8a0d*           874 	bne	.L685
                         875 --line762
                         876 ..lin.C.3A.5C_ECU2.5CECU_Rivian_A1.5CTarget.5Crepo_projects.5CpFOTA.5CcL_LATEST.5Cmake.5Cobj.5Cfbl_diag_oem.27::
                         877 .LDWlin27:
00000200 20362400        878 	movea	36,zero,r6
                         879 	jarl	_FblDiagSetError,lp
                         879 <EXPANSION BEGIN>
                         879 jarl22 _FblDiagSetError , lp 
00000204 80ff0000*       879 <EXPANSION END>
                         880 --line763
                         881 ..lin.C.3A.5C_ECU2.5CECU_Rivian_A1.5CTarget.5Crepo_projects.5CpFOTA.5CcL_LATEST.5Cmake.5Cobj.5Cfbl_diag_oem.28::
                         882 .LDWlin28:
00000208 0152            883 	mov	1,r10
0000020a 4006ff10        884 	dispose	0,{r27,r28,r29,r31},[lp]
                         885 .L685:
                         886 --line768
                         887 ..lin.C.3A.5C_ECU2.5CECU_Rivian_A1.5CTarget.5Crepo_projects.5CpFOTA.5CcL_LATEST.5Cmake.5Cobj.5Cfbl_diag_oem.29::
                         888 .LDWlin29:
0000020e 840709400000*   889 	ld.w	sdaoff23(_ulMemEraseStartAddress)[gp],r8
00000214 3e0600000000*   890 	mov	sdaoff23(_ulMemEraseLength),ep
0000021a 7d470100        891 	st.w	r8,0[r29]
0000021e 003d            892 	sld.w	0[ep],r7
00000220 7c3f0100        893 	st.w	r7,0[r28]
00000224 0105            894 	sst.w	zero,0[ep]
00000226 4006ff10        895 	dispose	0,{r27,r28,r29,r31},[lp]
                         896 .L683:
                         897 --line776
                         898 ..lin.C.3A.5C_ECU2.5CECU_Rivian_A1.5CTarget.5Crepo_projects.5CpFOTA.5CcL_LATEST.5Cmake.5Cobj.5Cfbl_diag_oem.30::
                         899 .LDWlin30:

                                                                      Page 17
                                                              C:\Users\nhuliyap\AppData\Local\Temp\gh_000099c1.s
0000022a 20363100        900 	movea	49,zero,r6
                         901 	jarl	_FblDiagSetError,lp
                         901 <EXPANSION BEGIN>
                         901 jarl22 _FblDiagSetError , lp 
0000022e 80ff0000*       901 <EXPANSION END>
                         902 --line777
                         903 ..lin.C.3A.5C_ECU2.5CECU_Rivian_A1.5CTarget.5Crepo_projects.5CpFOTA.5CcL_LATEST.5Cmake.5Cobj.5Cfbl_diag_oem.31::
                         904 .LDWlin31:
00000232 0152            905 	mov	1,r10
                         906 --	    .ef
                         907 .LDW02:
00000234 4006ff10        908 	dispose	0,{r27,r28,r29,r31},[lp]
                         909 	.type	_FblDiagCheckErasePreconditionsCustom,@function
                         910 	.size	_FblDiagCheckErasePreconditionsCustom,.-_FblDiagCheckErasePreconditionsCustom
                         911 	.type	_FblDiagCheckErasePreconditionsCustom..C.3A.5C_ECU2.5CECU_Rivian_A1.5CTarget.5Crepo_projects.5CpFOTA.5CcL_LATEST.5Cmake.5Cobj.5Cfbl_diag_oem.,@function
                         912 	.size	_FblDiagCheckErasePreconditionsCustom..C.3A.5C_ECU2.5CECU_Rivian_A1.5CTarget.5Crepo_projects.5CpFOTA.5CcL_LATEST.5Cmake.5Cobj.5Cfbl_diag_oem.,.-_FblDiagCheckErasePreconditionsCustom..C.3A.5C_ECU2.5CECU_Rivian_A1.5CTarget.5Crepo_projects.5CpFOTA.5CcL_LATEST.5Cmake.5Cobj.5Cfbl_diag_oem.
                         913 	.align	2
                         914 .LDW12:
                         915 --_result	r10	local
                         916 
                         917 --_pbDiagData	none	param
                         918 --_ucDynamicLength	r27	param
                         919 --_pEraseAddress	r29	param
                         920 --_pEraseLength	r28	param
                         921 
                         922 	.section ".bss","awb"
                         923 .L750:
                         924 	.type	.L750,@object
                         925 	.size	.L750,0
                         926 	.data
                         927 	.text
                         928 	.align	2
                         929 	.align	2
                         930 ..gh.f.f.1.e.4:
                         931 	.type	..gh.f.f.1.e.4,@object
                         932 	.size	..gh.f.f.1.e.4,0
                         933 	.global	_FblDiagCheckProgAttemptCounter..C.3A.5C_ECU2.5CECU_Rivian_A1.5CTarget.5Crepo_projects.5CpFOTA.5CcL_LATEST.5Cmake.5Cobj.5Cfbl_diag_oem.
                         934 _FblDiagCheckProgAttemptCounter..C.3A.5C_ECU2.5CECU_Rivian_A1.5CTarget.5Crepo_projects.5CpFOTA.5CcL_LATEST.5Cmake.5Cobj.5Cfbl_diag_oem.:
                         935 _FblDiagCheckProgAttemptCounter:
00000238 8e07e300        936 	prepare	{r28,r29,r31},7,sp
0000023c 06e8            937 	mov	r6,r29
                         938 --	    .bf
                         939 .LDW22:
0000023e bd0709810000    940 	ld.dw	16[r29],r16
00000244 bd0789710000    941 	ld.dw	24[r29],r14
0000024a 3d6f2100        942 	ld.w	32[r29],r13
0000024e a60709300000    943 	ld.dw	0[r6],r6
00000254 bd0789400000    944 	ld.dw	8[r29],r8
0000025a be070f800000    945 	st.dw	r16,0[ep]
00000260 be078f700000    946 	st.dw	r14,8[ep]
00000266 096d            947 	sst.w	r13,16[ep]
00000268 23661a00        948 	movea	26,sp,r12
0000026c 00e2            949 	mov	0,r28
0000026e 63671500        950 	st.w	r12,20[sp]
                         951 	jarl	_ApplFblGetProgAttempts,lp
                         951 <EXPANSION BEGIN>
                         951 jarl22 _ApplFblGetProgAttempts , lp 
00000272 80ff0000*       951 <EXPANSION END>
00000276 e051            952 	cmp	zero,r10
00000278 b205*           953 	be	.L833
                         954 --line864

                                                                      Page 18
                                                              C:\Users\nhuliyap\AppData\Local\Temp\gh_000099c1.s
                         955 ..lin.C.3A.5C_ECU2.5CECU_Rivian_A1.5CTarget.5Crepo_projects.5CpFOTA.5CcL_LATEST.5Cmake.5Cobj.5Cfbl_diag_oem.32::
                         956 .LDWlin32:
0000027a 63071a00        957 	st.h	zero,26[sp]
                         958 .L833:
0000027e 9d370100        959 	ld.bu	0[r29],r6
                         960 	jarl	_ApplFblGetPromMaxProgAttempts,lp
                         960 <EXPANSION BEGIN>
                         960 jarl22 _ApplFblGetPromMaxProgAttempts , lp 
00000282 80ff0000*       960 <EXPANSION END>
00000286 e051            961 	cmp	zero,r10
00000288 b215*           962 	be	.L835
                         963 --line868
                         964 ..lin.C.3A.5C_ECU2.5CECU_Rivian_A1.5CTarget.5Crepo_projects.5CpFOTA.5CcL_LATEST.5Cmake.5Cobj.5Cfbl_diag_oem.33::
                         965 .LDWlin33:
0000028a 9d370100        966 	ld.bu	0[r29],r6
                         967 	jarl	_ApplFblGetPromMaxProgAttempts,lp
                         967 <EXPANSION BEGIN>
                         967 jarl22 _ApplFblGetPromMaxProgAttempts , lp 
0000028e 80ff0000*       967 <EXPANSION END>
00000292 e34f1b00        968 	ld.hu	26[sp],r9
00000296 ea49            969 	cmp	r10,r9
00000298 b10d*           970 	bl	.L835
                         971 --line870
                         972 ..lin.C.3A.5C_ECU2.5CECU_Rivian_A1.5CTarget.5Crepo_projects.5CpFOTA.5CcL_LATEST.5Cmake.5Cobj.5Cfbl_diag_oem.34::
                         973 .LDWlin34:
0000029a 20461200        974 	movea	18,zero,r8
0000029e a4070d400000*   975 	st.h	r8,sdaoff23(_errStatErrorCode)[gp]
000002a4 20362200        976 	movea	34,zero,r6
                         977 	jarl	_FblDiagSetError,lp
                         977 <EXPANSION BEGIN>
                         977 jarl22 _FblDiagSetError , lp 
000002a8 80ff0000*       977 <EXPANSION END>
                         978 --line872
                         979 ..lin.C.3A.5C_ECU2.5CECU_Rivian_A1.5CTarget.5Crepo_projects.5CpFOTA.5CcL_LATEST.5Cmake.5Cobj.5Cfbl_diag_oem.35::
                         980 .LDWlin35:
000002ac 01e2            981 	mov	1,r28
                         982 .L835:
000002ae 1c50            983 	mov	r28,r10
                         984 --	    .ef
                         985 .LDW32:
000002b0 4e06ff00        986 	dispose	7,{r28,r29,r31},[lp]
                         987 	.type	_FblDiagCheckProgAttemptCounter,@function
                         988 	.size	_FblDiagCheckProgAttemptCounter,.-_FblDiagCheckProgAttemptCounter
                         989 	.type	_FblDiagCheckProgAttemptCounter..C.3A.5C_ECU2.5CECU_Rivian_A1.5CTarget.5Crepo_projects.5CpFOTA.5CcL_LATEST.5Cmake.5Cobj.5Cfbl_diag_oem.,@function
                         990 	.size	_FblDiagCheckProgAttemptCounter..C.3A.5C_ECU2.5CECU_Rivian_A1.5CTarget.5Crepo_projects.5CpFOTA.5CcL_LATEST.5Cmake.5Cobj.5Cfbl_diag_oem.,.-_FblDiagCheckProgAttemptCounter..C.3A.5C_ECU2.5CECU_Rivian_A1.5CTarget.5Crepo_projects.5CpFOTA.5CcL_LATEST.5Cmake.5Cobj.5Cfbl_diag_oem.
                         991 	.align	2
                         992 .LDW42:
                         993 --_result	r28	local
                         994 --_progAttempts	26[sp]	local
                         995 
                         996 --_pBlockDescriptor	r29	param
                         997 
                         998 	.section ".bss","awb"
                         999 .L898:
                        1000 	.type	.L898,@object
                        1001 	.size	.L898,0
                        1002 	.data
                        1003 	.text
                        1004 	.align	2
                        1005 	.align	2
                        1006 ..gh.f.f.1.e.5:

                                                                      Page 19
                                                              C:\Users\nhuliyap\AppData\Local\Temp\gh_000099c1.s
                        1007 	.type	..gh.f.f.1.e.5,@object
                        1008 	.size	..gh.f.f.1.e.5,0
                        1009 	.global	_FblDiagCheckRequestDownloadPreconditions..C.3A.5C_ECU2.5CECU_Rivian_A1.5CTarget.5Crepo_projects.5CpFOTA.5CcL_LATEST.5Cmake.5Cobj.5Cfbl_diag_oem.
                        1010 _FblDiagCheckRequestDownloadPreconditions..C.3A.5C_ECU2.5CECU_Rivian_A1.5CTarget.5Crepo_projects.5CpFOTA.5CcL_LATEST.5Cmake.5Cobj.5Cfbl_diag_oem.:
                        1011 _FblDiagCheckRequestDownloadPreconditions:
000002b4 8007e130       1012 	prepare	{r26,r27,r28,r29,r31},0
000002b8 06d0           1013 	mov	r6,r26
000002ba 07e8           1014 	mov	r7,r29
                        1015 --	    .bf
                        1016 .LDW52:
000002bc 07f0           1017 	mov	r7,ep
000002be 0505           1018 	sst.w	zero,8[ep]
000002c0 0705           1019 	sst.w	zero,12[ep]
000002c2 0105           1020 	sst.w	zero,0[ep]
000002c4 0305           1021 	sst.w	zero,4[ep]
000002c6 a6470100       1022 	ld.bu	1[r6],r8
000002ca 864f0100       1023 	ld.bu	0[r6],r9
000002ce 08d8           1024 	mov	r8,r27
000002d0 84da           1025 	shr	4,r27
000002d2 c8e60f00       1026 	andi	15,r8,r28
000002d6 914b           1027 	sst.b	r9,17[ep]
000002d8 e215*          1028 	be	.L973
000002da e0d9           1029 	cmp	zero,r27
000002dc c215*          1030 	be	.L973
000002de 64e2           1031 	cmp	4,r28
000002e0 ab15*          1032 	bh	.L973
000002e2 64da           1033 	cmp	4,r27
000002e4 8b15*          1034 	bh	.L973
                        1035 --line900
                        1036 ..lin.C.3A.5C_ECU2.5CECU_Rivian_A1.5CTarget.5Crepo_projects.5CpFOTA.5CcL_LATEST.5Cmake.5Cobj.5Cfbl_diag_oem.36::
                        1037 .LDWlin36:
000002e6 2b0600000000*  1038 	mov	sdaoff23(_fblDiagStates+2),r11
000002ec cbf70000       1039 	tst1	6,0[r11]
000002f0 820d*          1040 	be	.L969
                        1041 --line901
                        1042 ..lin.C.3A.5C_ECU2.5CECU_Rivian_A1.5CTarget.5Crepo_projects.5CpFOTA.5CcL_LATEST.5Cmake.5Cobj.5Cfbl_diag_oem.37::
                        1043 .LDWlin37:
000002f2 20362200       1044 	movea	34,zero,r6
                        1045 	jarl	_FblDiagSetError,lp
                        1045 <EXPANSION BEGIN>
                        1045 jarl22 _FblDiagSetError , lp 
000002f6 80ff0000*      1045 <EXPANSION END>
                        1046 --line902
                        1047 ..lin.C.3A.5C_ECU2.5CECU_Rivian_A1.5CTarget.5Crepo_projects.5CpFOTA.5CcL_LATEST.5Cmake.5Cobj.5Cfbl_diag_oem.38::
                        1048 .LDWlin38:
000002fa 0152           1049 	mov	1,r10
000002fc 4006ff30       1050 	dispose	0,{r26,r27,r28,r29,r31},[lp]
                        1051 .L969:
                        1052 --line926
                        1053 ..lin.C.3A.5C_ECU2.5CECU_Rivian_A1.5CTarget.5Crepo_projects.5CpFOTA.5CcL_LATEST.5Cmake.5Cobj.5Cfbl_diag_oem.39::
                        1054 .LDWlin39:
00000300 e049           1055 	cmp	zero,r9
00000302 820d*          1056 	be	.L972
                        1057 .L973:
                        1058 --line931
                        1059 ..lin.C.3A.5C_ECU2.5CECU_Rivian_A1.5CTarget.5Crepo_projects.5CpFOTA.5CcL_LATEST.5Cmake.5Cobj.5Cfbl_diag_oem.40::
                        1060 .LDWlin40:
00000304 20363100       1061 	movea	49,zero,r6
                        1062 	jarl	_FblDiagSetError,lp
                        1062 <EXPANSION BEGIN>
                        1062 jarl22 _FblDiagSetError , lp 

                                                                      Page 20
                                                              C:\Users\nhuliyap\AppData\Local\Temp\gh_000099c1.s
00000308 80ff0000*      1062 <EXPANSION END>
                        1063 --line932
                        1064 ..lin.C.3A.5C_ECU2.5CECU_Rivian_A1.5CTarget.5Crepo_projects.5CpFOTA.5CcL_LATEST.5Cmake.5Cobj.5Cfbl_diag_oem.41::
                        1065 .LDWlin41:
0000030c 0152           1066 	mov	1,r10
0000030e 4006ff30       1067 	dispose	0,{r26,r27,r28,r29,r31},[lp]
                        1068 .L972:
                        1069 --line936
                        1070 ..lin.C.3A.5C_ECU2.5CECU_Rivian_A1.5CTarget.5Crepo_projects.5CpFOTA.5CcL_LATEST.5Cmake.5Cobj.5Cfbl_diag_oem.42::
                        1071 .LDWlin42:
00000312 1c30           1072 	mov	r28,r6
00000314 1a3e0200       1073 	addi	2,r26,r7
                        1074 	jarl	_FblMemGetInteger,lp
                        1074 <EXPANSION BEGIN>
                        1074 jarl22 _FblMemGetInteger , lp 
00000318 80ff0000*      1074 <EXPANSION END>
                        1075 --line938
                        1076 ..lin.C.3A.5C_ECU2.5CECU_Rivian_A1.5CTarget.5Crepo_projects.5CpFOTA.5CcL_LATEST.5Cmake.5Cobj.5Cfbl_diag_oem.43::
                        1077 .LDWlin43:
0000031c dae1           1078 	add	r26,r28
0000031e 7d570900       1079 	st.w	r10,8[r29]
00000322 1b30           1080 	mov	r27,r6
00000324 1c3e0200       1081 	addi	2,r28,r7
                        1082 	jarl	_FblMemGetInteger,lp
                        1082 <EXPANSION BEGIN>
                        1082 jarl22 _FblMemGetInteger , lp 
00000328 80ff0000*      1082 <EXPANSION END>
0000032c 7d570d00       1083 	st.w	r10,12[r29]
                        1084 --line940
                        1085 ..lin.C.3A.5C_ECU2.5CECU_Rivian_A1.5CTarget.5Crepo_projects.5CpFOTA.5CcL_LATEST.5Cmake.5Cobj.5Cfbl_diag_oem.44::
                        1086 .LDWlin44:
00000330 0052           1087 	mov	0,r10
                        1088 --	    .ef
                        1089 .LDW62:
00000332 4006ff30       1090 	dispose	0,{r26,r27,r28,r29,r31},[lp]
                        1091 	.type	_FblDiagCheckRequestDownloadPreconditions,@function
                        1092 	.size	_FblDiagCheckRequestDownloadPreconditions,.-_FblDiagCheckRequestDownloadPreconditions
                        1093 	.type	_FblDiagCheckRequestDownloadPreconditions..C.3A.5C_ECU2.5CECU_Rivian_A1.5CTarget.5Crepo_projects.5CpFOTA.5CcL_LATEST.5Cmake.5Cobj.5Cfbl_diag_oem.,@function
                        1094 	.size	_FblDiagCheckRequestDownloadPreconditions..C.3A.5C_ECU2.5CECU_Rivian_A1.5CTarget.5Crepo_projects.5CpFOTA.5CcL_LATEST.5Cmake.5Cobj.5Cfbl_diag_oem.,.-_FblDiagCheckRequestDownloadPreconditions..C.3A.5C_ECU2.5CECU_Rivian_A1.5CTarget.5Crepo_projects.5CpFOTA.5CcL_LATEST.5Cmake.5Cobj.5Cfbl_diag_oem.
                        1095 	.align	2
                        1096 .LDW72:
                        1097 --_result	r10	local
                        1098 --_lengthFormat	r27	local
                        1099 --_addrFormat	r28	local
                        1100 
                        1101 --_pbDiagData	r26	param
                        1102 --_pSegmentInfo	r29	param
                        1103 
                        1104 	.section ".bss","awb"
                        1105 .L1064:
                        1106 	.type	.L1064,@object
                        1107 	.size	.L1064,0
                        1108 	.data
                        1109 	.text
                        1110 	.align	2
                        1111 	.align	2
                        1112 ..gh.f.f.1.e.6:
                        1113 	.type	..gh.f.f.1.e.6,@object
                        1114 	.size	..gh.f.f.1.e.6,0
                        1115 	.global	_FblDiagCheckFlashMemoryDownload..C.3A.5C_ECU2.5CECU_Rivian_A1.5CTarget.5Crepo_projects.5CpFOTA.5CcL_LATEST.5Cmake.5Cobj.5Cfbl_diag_oem.
                        1116 _FblDiagCheckFlashMemoryDownload..C.3A.5C_ECU2.5CECU_Rivian_A1.5CTarget.5Crepo_projects.5CpFOTA.5CcL_LATEST.5Cmake.5Cobj.5Cfbl_diag_oem.:

                                                                      Page 21
                                                              C:\Users\nhuliyap\AppData\Local\Temp\gh_000099c1.s
                        1117 _FblDiagCheckFlashMemoryDownload:
00000336 8007e100       1118 	prepare	{r28,r29,r31},0
                        1119 --	    .bf
                        1120 .LDW82:
0000033a 2b0600000000*  1121 	mov	sdaoff23(_fblDiagStates+2),r11
00000340 cbcf0000       1122 	tst1	1,0[r11]
00000344 ca05*          1123 	bne	.L1168
                        1124 --line1042
                        1125 ..lin.C.3A.5C_ECU2.5CECU_Rivian_A1.5CTarget.5Crepo_projects.5CpFOTA.5CcL_LATEST.5Cmake.5Cobj.5Cfbl_diag_oem.45::
                        1126 .LDWlin45:
00000346 20367000       1127 	movea	112,zero,r6
0000034a e54d*          1128 	br	.L1260
                        1129 .L1168:
                        1130 --line1056
                        1131 ..lin.C.3A.5C_ECU2.5CECU_Rivian_A1.5CTarget.5Crepo_projects.5CpFOTA.5CcL_LATEST.5Cmake.5Cobj.5Cfbl_diag_oem.46::
                        1132 .LDWlin46:
0000034c a40705480000*  1133 	ld.bu	sdaoff23(_segmentCount)[gp],r9
00000352 06e8           1134 	mov	r6,r29
00000354 00e2           1135 	mov	0,r28
00000356 e049           1136 	cmp	zero,r9
00000358 fa05*          1137 	bne	.L1169
0000035a cbef0000       1138 	tst1	5,0[r11]
0000035e ca05*          1139 	bne	.L1169
                        1140 --line1058
                        1141 ..lin.C.3A.5C_ECU2.5CECU_Rivian_A1.5CTarget.5Crepo_projects.5CpFOTA.5CcL_LATEST.5Cmake.5Cobj.5Cfbl_diag_oem.47::
                        1142 .LDWlin47:
00000360 20367000       1143 	movea	112,zero,r6
00000364 9545*          1144 	br	.L1260
                        1145 .L1169:
                        1146 --line1064
                        1147 ..lin.C.3A.5C_ECU2.5CECU_Rivian_A1.5CTarget.5Crepo_projects.5CpFOTA.5CcL_LATEST.5Cmake.5Cobj.5Cfbl_diag_oem.48::
                        1148 .LDWlin48:
00000366 3e0600000000*  1149 	mov	sdaoff23(_downloadBlockDescriptor),ep
0000036c 26370900       1150 	ld.w	8[r6],r6
00000370 3d3f0d00       1151 	ld.w	12[r29],r7
00000374 0245           1152 	sld.w	4[ep],r8
00000376 044d           1153 	sld.w	8[ep],r9
                        1154 	jarl	_FblLbtCheckRangeContained,lp
                        1154 <EXPANSION BEGIN>
                        1154 jarl22 _FblLbtCheckRangeContained , lp 
00000378 80ff0000*      1154 <EXPANSION END>
0000037c e051           1155 	cmp	zero,r10
0000037e ea05*          1156 	bne	.L1174
00000380 840709480000*  1157 	ld.w	sdaoff23(_transferRemainder)[gp],r9
00000386 e049           1158 	cmp	zero,r9
00000388 9a0d*          1159 	bne	.L1177
                        1160 .L1174:
                        1161 --line1071
                        1162 ..lin.C.3A.5C_ECU2.5CECU_Rivian_A1.5CTarget.5Crepo_projects.5CpFOTA.5CcL_LATEST.5Cmake.5Cobj.5Cfbl_diag_oem.49::
                        1163 .LDWlin49:
0000038a 20464100       1164 	movea	65,zero,r8
0000038e a4070d400000*  1165 	st.h	r8,sdaoff23(_errStatErrorCode)[gp]
00000394 20363100       1166 	movea	49,zero,r6
00000398 f525*          1167 	br	.L1260
                        1168 .L1177:
                        1169 --line1080
                        1170 ..lin.C.3A.5C_ECU2.5CECU_Rivian_A1.5CTarget.5Crepo_projects.5CpFOTA.5CcL_LATEST.5Cmake.5Cobj.5Cfbl_diag_oem.50::
                        1171 .LDWlin50:
                        1172 	jarl	_FblDiagSegmentNext,lp
                        1172 <EXPANSION BEGIN>
                        1172 jarl22 _FblDiagSegmentNext , lp 

                                                                      Page 22
                                                              C:\Users\nhuliyap\AppData\Local\Temp\gh_000099c1.s
0000039a 80ff0000*      1172 <EXPANSION END>
0000039e 0a0601ff       1173 	addi	-255,r10,zero
000003a2 fa05*          1174 	bne	.L1178
                        1175 --line1082
                        1176 ..lin.C.3A.5C_ECU2.5CECU_Rivian_A1.5CTarget.5Crepo_projects.5CpFOTA.5CcL_LATEST.5Cmake.5Cobj.5Cfbl_diag_oem.51::
                        1177 .LDWlin51:
000003a4 203e2200       1178 	movea	34,zero,r7
000003a8 a4070d380000*  1179 	st.h	r7,sdaoff23(_errStatErrorCode)[gp]
000003ae a51d*          1180 	br	.L1241
                        1181 .L1178:
                        1182 --line1088
                        1183 ..lin.C.3A.5C_ECU2.5CECU_Rivian_A1.5CTarget.5Crepo_projects.5CpFOTA.5CcL_LATEST.5Cmake.5Cobj.5Cfbl_diag_oem.52::
                        1184 .LDWlin52:
000003b0 1df0           1185 	mov	r29,ep
000003b2 0495           1186 	sld.w	8[ep],r18
000003b4 0635           1187 	sld.w	12[ep],r6
000003b6 a40705980000*  1188 	ld.bu	sdaoff23(_segmentCount)[gp],r19
000003bc 0195           1189 	sst.w	r18,0[ep]
000003be 0335           1190 	sst.w	r6,4[ep]
000003c0 619a           1191 	cmp	1,r19
000003c2 d315*          1192 	bnh	.L1176
                        1193 --line1093
                        1194 ..lin.C.3A.5C_ECU2.5CECU_Rivian_A1.5CTarget.5Crepo_projects.5CpFOTA.5CcL_LATEST.5Cmake.5Cobj.5Cfbl_diag_oem.53::
                        1195 .LDWlin53:
000003c4 f38e0c00       1196 	mulhi	12,r19,r17
000003c8 840709980000*  1197 	ld.w	sdaoff23(_verifyParam+4)[gp],r19
000003ce d389           1198 	add	r19,r17
000003d0 11f6e8ff       1199 	addi	-24,r17,ep
000003d4 008d           1200 	sld.w	0[ep],r17
000003d6 f191           1201 	cmp	r17,r18
000003d8 d305*          1202 	bnh	.L1241
000003da b191           1203 	sub	r17,r18
000003dc 048d           1204 	sld.w	8[ep],r17
000003de f191           1205 	cmp	r17,r18
000003e0 e905*          1206 	bnl	.L1176
                        1207 .L1241:
                        1208 --line1093
                        1209 ..lin.C.3A.5C_ECU2.5CECU_Rivian_A1.5CTarget.5Crepo_projects.5CpFOTA.5CcL_LATEST.5Cmake.5Cobj.5Cfbl_diag_oem.54::
                        1210 .LDWlin54:
000003e2 20363100       1211 	movea	49,zero,r6
                        1212 .L1260:
                        1213 	jarl	_FblDiagSetError,lp
                        1213 <EXPANSION BEGIN>
                        1213 jarl22 _FblDiagSetError , lp 
000003e6 80ff0000*      1213 <EXPANSION END>
000003ea 01e2           1214 	mov	1,r28
                        1215 .L1176:
                        1216 --line1106
                        1217 ..lin.C.3A.5C_ECU2.5CECU_Rivian_A1.5CTarget.5Crepo_projects.5CpFOTA.5CcL_LATEST.5Cmake.5Cobj.5Cfbl_diag_oem.55::
                        1218 .LDWlin55:
000003ec 1c50           1219 	mov	r28,r10
                        1220 --	    .ef
                        1221 .LDW92:
000003ee 4006ff00       1222 	dispose	0,{r28,r29,r31},[lp]
                        1223 	.type	_FblDiagCheckFlashMemoryDownload,@function
                        1224 	.size	_FblDiagCheckFlashMemoryDownload,.-_FblDiagCheckFlashMemoryDownload
                        1225 	.type	_FblDiagCheckFlashMemoryDownload..C.3A.5C_ECU2.5CECU_Rivian_A1.5CTarget.5Crepo_projects.5CpFOTA.5CcL_LATEST.5Cmake.5Cobj.5Cfbl_diag_oem.,@function
                        1226 	.size	_FblDiagCheckFlashMemoryDownload..C.3A.5C_ECU2.5CECU_Rivian_A1.5CTarget.5Crepo_projects.5CpFOTA.5CcL_LATEST.5Cmake.5Cobj.5Cfbl_diag_oem.,.-_FblDiagCheckFlashMemoryDownload..C.3A.5C_ECU2.5CECU_Rivian_A1.5CTarget.5Crepo_projects.5CpFOTA.5CcL_LATEST.5Cmake.5Cobj.5Cfbl_diag_oem.
                        1227 	.align	2
                        1228 .LDW03:
                        1229 --_segment	ep	local

                                                                      Page 23
                                                              C:\Users\nhuliyap\AppData\Local\Temp\gh_000099c1.s
                        1230 --_result	r28	local
                        1231 
                        1232 --_pSegmentInfo	r29	param
                        1233 
                        1234 	.section ".bss","awb"
                        1235 .L1356:
                        1236 	.type	.L1356,@object
                        1237 	.size	.L1356,0
                        1238 	.data
                        1239 	.text
                        1240 	.align	2
                        1241 	.align	2
                        1242 ..gh.f.f.1.e.7:
                        1243 	.type	..gh.f.f.1.e.7,@object
                        1244 	.size	..gh.f.f.1.e.7,0
                        1245 	.global	_FblDiagPrepareFirstDownloadSegment..C.3A.5C_ECU2.5CECU_Rivian_A1.5CTarget.5Crepo_projects.5CpFOTA.5CcL_LATEST.5Cmake.5Cobj.5Cfbl_diag_oem.
                        1246 _FblDiagPrepareFirstDownloadSegment..C.3A.5C_ECU2.5CECU_Rivian_A1.5CTarget.5Crepo_projects.5CpFOTA.5CcL_LATEST.5Cmake.5Cobj.5Cfbl_diag_oem.:
                        1247 _FblDiagPrepareFirstDownloadSegment:
000003f2 8207e100       1248 	prepare	{r28,r29,r31},1
000003f6 06e8           1249 	mov	r6,r29
000003f8 0830           1250 	mov	r8,r6
000003fa 8600           1251 	zxb	r6
                        1252 --	    .bf
                        1253 .LDW13:
000003fc 0338           1254 	mov	sp,r7
                        1255 	jarl	_FblLbtGetBlockVerifyOutputFuncByNr,lp
                        1255 <EXPANSION BEGIN>
                        1255 jarl22 _FblLbtGetBlockVerifyOutputFuncByNr , lp 
000003fe 80ff0000*      1255 <EXPANSION END>
00000402 0ae0           1256 	mov	r10,r28
                        1257 --line1160
                        1258 ..lin.C.3A.5C_ECU2.5CECU_Rivian_A1.5CTarget.5Crepo_projects.5CpFOTA.5CcL_LATEST.5Cmake.5Cobj.5Cfbl_diag_oem.56::
                        1259 .LDWlin56:
00000404 e051           1260 	cmp	zero,r10
00000406 8a35*          1261 	bne	.L1518
                        1262 --line1161
                        1263 ..lin.C.3A.5C_ECU2.5CECU_Rivian_A1.5CTarget.5Crepo_projects.5CpFOTA.5CcL_LATEST.5Cmake.5Cobj.5Cfbl_diag_oem.57::
                        1264 .LDWlin57:
00000408 233f0100       1265 	ld.w	0[sp],r7
0000040c 1df0           1266 	mov	r29,ep
0000040e 260600000000*  1267 	mov	sdaoff23(_verifyParam),r6
00000414 0892           1268 	mov	8,r18
00000416 153d           1269 	sst.w	r7,40[ep]
00000418 1735           1270 	sst.w	r6,44[ep]
0000041a 1b35           1271 	sst.w	r6,52[ep]
0000041c b893           1272 	sst.b	r18,56[ep]
0000041e 310600000000*  1273 	mov	sdaoff23(_downloadSegments),r17
00000424 2b0600000000*  1274 	mov	sdaoff23(_fblDiagStates+1),r11
0000042a 84070f880000*  1275 	st.w	r17,sdaoff23(_verifyParam+4)[gp]
00000430 cbe70000       1276 	tst1	4,0[r11]
00000434 8215*          1277 	be	.L1520
                        1278 --line1187
                        1279 ..lin.C.3A.5C_ECU2.5CECU_Rivian_A1.5CTarget.5Crepo_projects.5CpFOTA.5CcL_LATEST.5Cmake.5Cobj.5Cfbl_diag_oem.58::
                        1280 .LDWlin58:
00000436 3e0600000000*  1281 	mov	sdaoff23(_downloadBlockDescriptor),ep
0000043c 0295           1282 	sld.w	4[ep],r18
0000043e 300600000000*  1283 	mov	_FblReadProm,r16
00000444 7d970100       1284 	st.w	r18,0[r29]
00000448 049d           1285 	sld.w	8[ep],r19
0000044a 1df0           1286 	mov	r29,ep
0000044c 0595           1287 	sst.w	r18,8[ep]

                                                                      Page 24
                                                              C:\Users\nhuliyap\AppData\Local\Temp\gh_000099c1.s
0000044e 1985           1288 	sst.w	r16,48[ep]
00000450 039d           1289 	sst.w	r19,4[ep]
00000452 079d           1290 	sst.w	r19,12[ep]
                        1291 .L1520:
00000454 1d30           1292 	mov	r29,r6
                        1293 	jarl	_FblMemBlockStartIndication,lp
                        1293 <EXPANSION BEGIN>
                        1293 jarl22 _FblMemBlockStartIndication , lp 
00000456 80ff0000*      1293 <EXPANSION END>
                        1294 --line1208
                        1295 ..lin.C.3A.5C_ECU2.5CECU_Rivian_A1.5CTarget.5Crepo_projects.5CpFOTA.5CcL_LATEST.5Cmake.5Cobj.5Cfbl_diag_oem.59::
                        1296 .LDWlin59:
0000045a ca36ff00       1297 	andi	255,r10,r6
0000045e c205*          1298 	be	.L1518
                        1299 --line1210
                        1300 ..lin.C.3A.5C_ECU2.5CECU_Rivian_A1.5CTarget.5Crepo_projects.5CpFOTA.5CcL_LATEST.5Cmake.5Cobj.5Cfbl_diag_oem.60::
                        1301 .LDWlin60:
                        1302 	jarl	_FblDiagSetError,lp
                        1302 <EXPANSION BEGIN>
                        1302 jarl22 _FblDiagSetError , lp 
00000460 80ff0000*      1302 <EXPANSION END>
                        1303 --line1211
                        1304 ..lin.C.3A.5C_ECU2.5CECU_Rivian_A1.5CTarget.5Crepo_projects.5CpFOTA.5CcL_LATEST.5Cmake.5Cobj.5Cfbl_diag_oem.61::
                        1305 .LDWlin61:
00000464 01e2           1306 	mov	1,r28
                        1307 .L1518:
00000466 1c50           1308 	mov	r28,r10
                        1309 --	    .ef
                        1310 .LDW23:
00000468 4206ff00       1311 	dispose	1,{r28,r29,r31},[lp]
                        1312 	.type	_FblDiagPrepareFirstDownloadSegment,@function
                        1313 	.size	_FblDiagPrepareFirstDownloadSegment,.-_FblDiagPrepareFirstDownloadSegment
                        1314 	.type	_FblDiagPrepareFirstDownloadSegment..C.3A.5C_ECU2.5CECU_Rivian_A1.5CTarget.5Crepo_projects.5CpFOTA.5CcL_LATEST.5Cmake.5Cobj.5Cfbl_diag_oem.,@function
                        1315 	.size	_FblDiagPrepareFirstDownloadSegment..C.3A.5C_ECU2.5CECU_Rivian_A1.5CTarget.5Crepo_projects.5CpFOTA.5CcL_LATEST.5Cmake.5Cobj.5Cfbl_diag_oem.,.-_FblDiagPrepareFirstDownloadSegment..C.3A.5C_ECU2.5CECU_Rivian_A1.5CTarget.5Crepo_projects.5CpFOTA.5CcL_LATEST.5Cmake.5Cobj.5Cfbl_diag_oem.
                        1316 	.align	2
                        1317 .LDW33:
                        1318 --_result	r28	local
                        1319 --_libMemResult	r6	local
                        1320 --_exportFct	0[sp]	local
                        1321 
                        1322 --_pBlockInfo	r29	param
                        1323 --_pSegmentInfo	none	param
                        1324 --_tempBlockNr	r8	param
                        1325 
                        1326 	.section ".bss","awb"
                        1327 .L1637:
                        1328 	.type	.L1637,@object
                        1329 	.size	.L1637,0
                        1330 	.data
                        1331 	.text
                        1332 	.align	2
                        1333 	.align	2
                        1334 ..gh.f.f.1.e.8:
                        1335 	.type	..gh.f.f.1.e.8,@object
                        1336 	.size	..gh.f.f.1.e.8,0
                        1337 	.global	_FblDiagSessionControlParamInit..C.3A.5C_ECU2.5CECU_Rivian_A1.5CTarget.5Crepo_projects.5CpFOTA.5CcL_LATEST.5Cmake.5Cobj.5Cfbl_diag_oem.
                        1338 _FblDiagSessionControlParamInit..C.3A.5C_ECU2.5CECU_Rivian_A1.5CTarget.5Crepo_projects.5CpFOTA.5CcL_LATEST.5Cmake.5Cobj.5Cfbl_diag_oem.:
                        1339 _FblDiagSessionControlParamInit:
0000046c 80077b000000*  1340 	prepare	{r29,r31},0,sdaoff23(_fblDiagStates)
00000472 0000*
00000474 06e8           1341 	mov	r6,r29

                                                                      Page 25
                                                              C:\Users\nhuliyap\AppData\Local\Temp\gh_000099c1.s
                        1342 --	    .bf
                        1343 .LDW43:
00000476 0095           1344 	sld.w	0[ep],r18
00000478 3106ffef02fe   1345 	mov	-33361921,r17
0000047e 84070f000000*  1346 	st.w	zero,sdaoff23(_transferRemainder)[gp]
00000484 84070d000000*  1347 	st.b	zero,sdaoff23(_segmentCount)[gp]
0000048a 5191           1348 	and	r17,r18
0000048c 0195           1349 	sst.w	r18,0[ep]
                        1350 	jarl	_ApplFblSecurityInit,lp
                        1350 <EXPANSION BEGIN>
                        1350 jarl22 _ApplFblSecurityInit , lp 
0000048e 80ff0000*      1350 <EXPANSION END>
                        1351 --line1239
                        1352 ..lin.C.3A.5C_ECU2.5CECU_Rivian_A1.5CTarget.5Crepo_projects.5CpFOTA.5CcL_LATEST.5Cmake.5Cobj.5Cfbl_diag_oem.62::
                        1353 .LDWlin62:
00000492 1df0           1354 	mov	r29,ep
00000494 0a7a           1355 	mov	10,r15
00000496 0172           1356 	mov	1,r14
00000498 146a           1357 	mov	-12,r13
0000049a 8103           1358 	sst.b	zero,1[ep]
0000049c 827b           1359 	sst.b	r15,2[ep]
0000049e 8373           1360 	sst.b	r14,3[ep]
000004a0 846b           1361 	sst.b	r13,4[ep]
                        1362 --	    .ef
                        1363 .LDW53:
000004a2 40067f00       1364 	dispose	0,{r29,r31},[lp]
                        1365 	.type	_FblDiagSessionControlParamInit,@function
                        1366 	.size	_FblDiagSessionControlParamInit,.-_FblDiagSessionControlParamInit
                        1367 	.type	_FblDiagSessionControlParamInit..C.3A.5C_ECU2.5CECU_Rivian_A1.5CTarget.5Crepo_projects.5CpFOTA.5CcL_LATEST.5Cmake.5Cobj.5Cfbl_diag_oem.,@function
                        1368 	.size	_FblDiagSessionControlParamInit..C.3A.5C_ECU2.5CECU_Rivian_A1.5CTarget.5Crepo_projects.5CpFOTA.5CcL_LATEST.5Cmake.5Cobj.5Cfbl_diag_oem.,.-_FblDiagSessionControlParamInit..C.3A.5C_ECU2.5CECU_Rivian_A1.5CTarget.5Crepo_projects.5CpFOTA.5CcL_LATEST.5Cmake.5Cobj.5Cfbl_diag_oem.
                        1369 	.align	2
                        1370 .LDW63:
                        1371 
                        1372 --_pbDiagData	r29	param
                        1373 --_diagReqDataLen	none	param
                        1374 
                        1375 	.section ".bss","awb"
                        1376 .L1732:
                        1377 	.type	.L1732,@object
                        1378 	.size	.L1732,0
                        1379 	.data
                        1380 	.text
                        1381 	.align	2
                        1382 	.align	2
                        1383 ..gh.f.f.1.e.9:
                        1384 	.type	..gh.f.f.1.e.9,@object
                        1385 	.size	..gh.f.f.1.e.9,0
                        1386 	.global	_FblDiagOemInitPowerOn
                        1387 _FblDiagOemInitPowerOn:
                        1388 --	    .bf
                        1389 .LDW73:
000004a6 84070d000000*  1390 	st.b	zero,sdaoff23(_expectedSequenceCnt)[gp]
                        1391 --	    .ef
                        1392 .LDW83:
000004ac 7f00           1393 	jmp	[lp]
                        1394 	.type	_FblDiagOemInitPowerOn,@function
                        1395 	.size	_FblDiagOemInitPowerOn,.-_FblDiagOemInitPowerOn
                        1396 	.align	2
                        1397 .LDW93:
                        1398 
                        1399 	.section ".bss","awb"

                                                                      Page 26
                                                              C:\Users\nhuliyap\AppData\Local\Temp\gh_000099c1.s
                        1400 .L1777:
                        1401 	.type	.L1777,@object
                        1402 	.size	.L1777,0
                        1403 	.data
                        1404 	.text
                        1405 	.align	2
                        1406 	.align	2
                        1407 ..gh.f.f.1.e.10:
                        1408 	.type	..gh.f.f.1.e.10,@object
                        1409 	.size	..gh.f.f.1.e.10,0
                        1410 	.global	_FblDiagProcessServiceNrc..C.3A.5C_ECU2.5CECU_Rivian_A1.5CTarget.5Crepo_projects.5CpFOTA.5CcL_LATEST.5Cmake.5Cobj.5Cfbl_diag_oem.
                        1411 _FblDiagProcessServiceNrc..C.3A.5C_ECU2.5CECU_Rivian_A1.5CTarget.5Crepo_projects.5CpFOTA.5CcL_LATEST.5Cmake.5Cobj.5Cfbl_diag_oem.:
                        1412 _FblDiagProcessServiceNrc:
000004ae 80072100       1413 	prepare	{r31},0
                        1414 --	    .bf
                        1415 .LDW04:
000004b2 c6060002       1416 	andi	512,r6,zero
000004b6 f205*          1417 	be	.L1797
                        1418 --line1255
                        1419 ..lin.C.3A.5C_ECU2.5CECU_Rivian_A1.5CTarget.5Crepo_projects.5CpFOTA.5CcL_LATEST.5Cmake.5Cobj.5Cfbl_diag_oem.63::
                        1420 .LDWlin63:
000004b8 2b0600000000*  1421 	mov	sdaoff23(_diagResponseFlag),r11
000004be cb0f0000       1422 	set1	1,0[r11]
000004c2 c52d*          1423 	br	.L1799
                        1424 .L1797:
                        1425 --line1258
                        1426 ..lin.C.3A.5C_ECU2.5CECU_Rivian_A1.5CTarget.5Crepo_projects.5CpFOTA.5CcL_LATEST.5Cmake.5Cobj.5Cfbl_diag_oem.64::
                        1427 .LDWlin64:
000004c4 c6060004       1428 	andi	1024,r6,zero
000004c8 e205*          1429 	be	.L1800
                        1430 --line1260
                        1431 ..lin.C.3A.5C_ECU2.5CECU_Rivian_A1.5CTarget.5Crepo_projects.5CpFOTA.5CcL_LATEST.5Cmake.5Cobj.5Cfbl_diag_oem.65::
                        1432 .LDWlin65:
000004ca 20367f00       1433 	movea	127,zero,r6
                        1434 	jarl	_FblDiagSetError,lp
                        1434 <EXPANSION BEGIN>
                        1434 jarl22 _FblDiagSetError , lp 
000004ce 80ff0000*      1434 <EXPANSION END>
000004d2 c525*          1435 	br	.L1799
                        1436 .L1800:
                        1437 --line1263
                        1438 ..lin.C.3A.5C_ECU2.5CECU_Rivian_A1.5CTarget.5Crepo_projects.5CpFOTA.5CcL_LATEST.5Cmake.5Cobj.5Cfbl_diag_oem.66::
                        1439 .LDWlin66:
000004d4 c6060008       1440 	andi	2048,r6,zero
000004d8 ca0d*          1441 	bne	.L1810
                        1442 --line1268
                        1443 ..lin.C.3A.5C_ECU2.5CECU_Rivian_A1.5CTarget.5Crepo_projects.5CpFOTA.5CcL_LATEST.5Cmake.5Cobj.5Cfbl_diag_oem.67::
                        1444 .LDWlin67:
000004da c6060010       1445 	andi	4096,r6,zero
000004de e205*          1446 	be	.L1806
                        1447 --line1270
                        1448 ..lin.C.3A.5C_ECU2.5CECU_Rivian_A1.5CTarget.5Crepo_projects.5CpFOTA.5CcL_LATEST.5Cmake.5Cobj.5Cfbl_diag_oem.68::
                        1449 .LDWlin68:
000004e0 20363300       1450 	movea	51,zero,r6
                        1451 	jarl	_FblDiagSetError,lp
                        1451 <EXPANSION BEGIN>
                        1451 jarl22 _FblDiagSetError , lp 
000004e4 80ff0000*      1451 <EXPANSION END>
000004e8 951d*          1452 	br	.L1799
                        1453 .L1806:
                        1454 --line1273

                                                                      Page 27
                                                              C:\Users\nhuliyap\AppData\Local\Temp\gh_000099c1.s
                        1455 ..lin.C.3A.5C_ECU2.5CECU_Rivian_A1.5CTarget.5Crepo_projects.5CpFOTA.5CcL_LATEST.5Cmake.5Cobj.5Cfbl_diag_oem.69::
                        1456 .LDWlin69:
000004ea c6060020       1457 	andi	8192,r6,zero
000004ee e205*          1458 	be	.L1809
                        1459 .L1810:
                        1460 --line1275
                        1461 ..lin.C.3A.5C_ECU2.5CECU_Rivian_A1.5CTarget.5Crepo_projects.5CpFOTA.5CcL_LATEST.5Cmake.5Cobj.5Cfbl_diag_oem.70::
                        1462 .LDWlin70:
000004f0 20361300       1463 	movea	19,zero,r6
                        1464 	jarl	_FblDiagSetError,lp
                        1464 <EXPANSION BEGIN>
                        1464 jarl22 _FblDiagSetError , lp 
000004f4 80ff0000*      1464 <EXPANSION END>
000004f8 9515*          1465 	br	.L1799
                        1466 .L1809:
                        1467 --line1277
                        1468 ..lin.C.3A.5C_ECU2.5CECU_Rivian_A1.5CTarget.5Crepo_projects.5CpFOTA.5CcL_LATEST.5Cmake.5Cobj.5Cfbl_diag_oem.71::
                        1469 .LDWlin71:
000004fa 9d32           1470 	shr	29,r6
000004fc b90d*          1471 	bnl	.L1812
                        1472 --line1279
                        1473 ..lin.C.3A.5C_ECU2.5CECU_Rivian_A1.5CTarget.5Crepo_projects.5CpFOTA.5CcL_LATEST.5Cmake.5Cobj.5Cfbl_diag_oem.72::
                        1474 .LDWlin72:
000004fe a40705680000*  1475 	ld.bu	sdaoff23(_diagErrorCode)[gp],r13
00000504 e069           1476 	cmp	zero,r13
00000506 aa0d*          1477 	bne	.L1799
                        1478 --line1281
                        1479 ..lin.C.3A.5C_ECU2.5CECU_Rivian_A1.5CTarget.5Crepo_projects.5CpFOTA.5CcL_LATEST.5Cmake.5Cobj.5Cfbl_diag_oem.73::
                        1480 .LDWlin73:
00000508 20362200       1481 	movea	34,zero,r6
                        1482 	jarl	_FblDiagSetError,lp
                        1482 <EXPANSION BEGIN>
                        1482 jarl22 _FblDiagSetError , lp 
0000050c 80ff0000*      1482 <EXPANSION END>
00000510 d505*          1483 	br	.L1799
                        1484 .L1812:
                        1485 --line1287
                        1486 ..lin.C.3A.5C_ECU2.5CECU_Rivian_A1.5CTarget.5Crepo_projects.5CpFOTA.5CcL_LATEST.5Cmake.5Cobj.5Cfbl_diag_oem.74::
                        1487 .LDWlin74:
00000512 20361000       1488 	movea	16,zero,r6
                        1489 	jarl	_FblDiagSetError,lp
                        1489 <EXPANSION BEGIN>
                        1489 jarl22 _FblDiagSetError , lp 
00000516 80ff0000*      1489 <EXPANSION END>
                        1490 .L1799:
                        1491 --line1291
                        1492 ..lin.C.3A.5C_ECU2.5CECU_Rivian_A1.5CTarget.5Crepo_projects.5CpFOTA.5CcL_LATEST.5Cmake.5Cobj.5Cfbl_diag_oem.75::
                        1493 .LDWlin75:
0000051a 0052           1494 	mov	0,r10
                        1495 --	    .ef
                        1496 .LDW14:
0000051c 40063f00       1497 	dispose	0,{r31},[lp]
                        1498 	.type	_FblDiagProcessServiceNrc,@function
                        1499 	.size	_FblDiagProcessServiceNrc,.-_FblDiagProcessServiceNrc
                        1500 	.type	_FblDiagProcessServiceNrc..C.3A.5C_ECU2.5CECU_Rivian_A1.5CTarget.5Crepo_projects.5CpFOTA.5CcL_LATEST.5Cmake.5Cobj.5Cfbl_diag_oem.,@function
                        1501 	.size	_FblDiagProcessServiceNrc..C.3A.5C_ECU2.5CECU_Rivian_A1.5CTarget.5Crepo_projects.5CpFOTA.5CcL_LATEST.5Cmake.5Cobj.5Cfbl_diag_oem.,.-_FblDiagProcessServiceNrc..C.3A.5C_ECU2.5CECU_Rivian_A1.5CTarget.5Crepo_projects.5CpFOTA.5CcL_LATEST.5Cmake.5Cobj.5Cfbl_diag_oem.
                        1502 	.align	2
                        1503 .LDW24:
                        1504 
                        1505 --_serviceErrorMask	r6	param
                        1506 

                                                                      Page 28
                                                              C:\Users\nhuliyap\AppData\Local\Temp\gh_000099c1.s
                        1507 	.section ".bss","awb"
                        1508 .L1924:
                        1509 	.type	.L1924,@object
                        1510 	.size	.L1924,0
                        1511 	.data
                        1512 	.text
                        1513 	.align	2
                        1514 	.align	2
                        1515 ..gh.f.f.1.e.11:
                        1516 	.type	..gh.f.f.1.e.11,@object
                        1517 	.size	..gh.f.f.1.e.11,0
                        1518 	.global	_FblDiagProcessSubfunctionNrc..C.3A.5C_ECU2.5CECU_Rivian_A1.5CTarget.5Crepo_projects.5CpFOTA.5CcL_LATEST.5Cmake.5Cobj.5Cfbl_diag_oem.
                        1519 _FblDiagProcessSubfunctionNrc..C.3A.5C_ECU2.5CECU_Rivian_A1.5CTarget.5Crepo_projects.5CpFOTA.5CcL_LATEST.5Cmake.5Cobj.5Cfbl_diag_oem.:
                        1520 _FblDiagProcessSubfunctionNrc:
00000520 80072100       1521 	prepare	{r31},0
                        1522 --	    .bf
                        1523 .LDW34:
00000524 330600020400   1524 	mov	262656,r19
0000052a 4699           1525 	and	r6,r19
0000052c f205*          1526 	be	.L2061
                        1527 --line1300
                        1528 ..lin.C.3A.5C_ECU2.5CECU_Rivian_A1.5CTarget.5Crepo_projects.5CpFOTA.5CcL_LATEST.5Cmake.5Cobj.5Cfbl_diag_oem.76::
                        1529 .LDWlin76:
0000052e 2b0600000000*  1530 	mov	sdaoff23(_diagResponseFlag),r11
00000534 cb0f0000       1531 	set1	1,0[r11]
00000538 d555*          1532 	br	.L2063
                        1533 .L2061:
                        1534 --line1303
                        1535 ..lin.C.3A.5C_ECU2.5CECU_Rivian_A1.5CTarget.5Crepo_projects.5CpFOTA.5CcL_LATEST.5Cmake.5Cobj.5Cfbl_diag_oem.77::
                        1536 .LDWlin77:
0000053a c6060004       1537 	andi	1024,r6,zero
0000053e e205*          1538 	be	.L2064
                        1539 --line1305
                        1540 ..lin.C.3A.5C_ECU2.5CECU_Rivian_A1.5CTarget.5Crepo_projects.5CpFOTA.5CcL_LATEST.5Cmake.5Cobj.5Cfbl_diag_oem.78::
                        1541 .LDWlin78:
00000540 20367f00       1542 	movea	127,zero,r6
                        1543 	jarl	_FblDiagSetError,lp
                        1543 <EXPANSION BEGIN>
                        1543 jarl22 _FblDiagSetError , lp 
00000544 80ff0000*      1543 <EXPANSION END>
00000548 d54d*          1544 	br	.L2063
                        1545 .L2064:
                        1546 --line1308
                        1547 ..lin.C.3A.5C_ECU2.5CECU_Rivian_A1.5CTarget.5Crepo_projects.5CpFOTA.5CcL_LATEST.5Cmake.5Cobj.5Cfbl_diag_oem.79::
                        1548 .LDWlin79:
0000054a c6060008       1549 	andi	2048,r6,zero
0000054e ca2d*          1550 	bne	.L2080
                        1551 --line1313
                        1552 ..lin.C.3A.5C_ECU2.5CECU_Rivian_A1.5CTarget.5Crepo_projects.5CpFOTA.5CcL_LATEST.5Cmake.5Cobj.5Cfbl_diag_oem.80::
                        1553 .LDWlin80:
00000550 40960100       1554 	movhi	1,zero,r18
00000554 4691           1555 	and	r6,r18
00000556 9215*          1556 	be	.L2070
                        1557 --line1318
                        1558 ..lin.C.3A.5C_ECU2.5CECU_Rivian_A1.5CTarget.5Crepo_projects.5CpFOTA.5CcL_LATEST.5Cmake.5Cobj.5Cfbl_diag_oem.81::
                        1559 .LDWlin81:
00000558 840709680000*  1560 	ld.w	sdaoff23(_DiagBuffer)[gp],r13
0000055e a40707380000*  1561 	ld.hu	sdaoff23(_DiagDataLength)[gp],r7
00000564 2b0600000000*  1562 	mov	sdaoff23(_fblDiagStates),r11
0000056a cb3f0000       1563 	set1	7,0[r11]
0000056e 0d360100       1564 	addi	1,r13,r6

                                                                      Page 29
                                                              C:\Users\nhuliyap\AppData\Local\Temp\gh_000099c1.s
                        1565 	jarl	_ApplDiagUserSubFunction,lp
                        1565 <EXPANSION BEGIN>
                        1565 jarl22 _ApplDiagUserSubFunction , lp 
00000572 80ff0000*      1565 <EXPANSION END>
00000576 e535*          1566 	br	.L2063
                        1567 .L2070:
                        1568 --line1324
                        1569 ..lin.C.3A.5C_ECU2.5CECU_Rivian_A1.5CTarget.5Crepo_projects.5CpFOTA.5CcL_LATEST.5Cmake.5Cobj.5Cfbl_diag_oem.82::
                        1570 .LDWlin82:
00000578 0688           1571 	mov	r6,r17
0000057a 928a           1572 	shr	18,r17
0000057c e905*          1573 	bnl	.L2073
                        1574 --line1326
                        1575 ..lin.C.3A.5C_ECU2.5CECU_Rivian_A1.5CTarget.5Crepo_projects.5CpFOTA.5CcL_LATEST.5Cmake.5Cobj.5Cfbl_diag_oem.83::
                        1576 .LDWlin83:
0000057e 20363100       1577 	movea	49,zero,r6
                        1578 	jarl	_FblDiagSetError,lp
                        1578 <EXPANSION BEGIN>
                        1578 jarl22 _FblDiagSetError , lp 
00000582 80ff0000*      1578 <EXPANSION END>
00000586 e52d*          1579 	br	.L2063
                        1580 .L2073:
                        1581 --line1329
                        1582 ..lin.C.3A.5C_ECU2.5CECU_Rivian_A1.5CTarget.5Crepo_projects.5CpFOTA.5CcL_LATEST.5Cmake.5Cobj.5Cfbl_diag_oem.84::
                        1583 .LDWlin84:
00000588 30060010c000   1584 	mov	12587008,r16
0000058e 4681           1585 	and	r6,r16
00000590 e205*          1586 	be	.L2076
                        1587 --line1331
                        1588 ..lin.C.3A.5C_ECU2.5CECU_Rivian_A1.5CTarget.5Crepo_projects.5CpFOTA.5CcL_LATEST.5Cmake.5Cobj.5Cfbl_diag_oem.85::
                        1589 .LDWlin85:
00000592 20363300       1590 	movea	51,zero,r6
                        1591 	jarl	_FblDiagSetError,lp
                        1591 <EXPANSION BEGIN>
                        1591 jarl22 _FblDiagSetError , lp 
00000596 80ff0000*      1591 <EXPANSION END>
0000059a c525*          1592 	br	.L2063
                        1593 .L2076:
                        1594 --line1334
                        1595 ..lin.C.3A.5C_ECU2.5CECU_Rivian_A1.5CTarget.5Crepo_projects.5CpFOTA.5CcL_LATEST.5Cmake.5Cobj.5Cfbl_diag_oem.86::
                        1596 .LDWlin86:
0000059c 2f0600202001   1597 	mov	18882560,r15
000005a2 4679           1598 	and	r6,r15
000005a4 e205*          1599 	be	.L2079
                        1600 .L2080:
                        1601 --line1336
                        1602 ..lin.C.3A.5C_ECU2.5CECU_Rivian_A1.5CTarget.5Crepo_projects.5CpFOTA.5CcL_LATEST.5Cmake.5Cobj.5Cfbl_diag_oem.87::
                        1603 .LDWlin87:
000005a6 20361300       1604 	movea	19,zero,r6
                        1605 	jarl	_FblDiagSetError,lp
                        1605 <EXPANSION BEGIN>
                        1605 jarl22 _FblDiagSetError , lp 
000005aa 80ff0000*      1605 <EXPANSION END>
000005ae a51d*          1606 	br	.L2063
                        1607 .L2079:
                        1608 --line1339
                        1609 ..lin.C.3A.5C_ECU2.5CECU_Rivian_A1.5CTarget.5Crepo_projects.5CpFOTA.5CcL_LATEST.5Cmake.5Cobj.5Cfbl_diag_oem.88::
                        1610 .LDWlin88:
000005b0 40761800       1611 	movhi	24,zero,r14
000005b4 4671           1612 	and	r6,r14
000005b6 e205*          1613 	be	.L2082

                                                                      Page 30
                                                              C:\Users\nhuliyap\AppData\Local\Temp\gh_000099c1.s
                        1614 --line1341
                        1615 ..lin.C.3A.5C_ECU2.5CECU_Rivian_A1.5CTarget.5Crepo_projects.5CpFOTA.5CcL_LATEST.5Cmake.5Cobj.5Cfbl_diag_oem.89::
                        1616 .LDWlin89:
000005b8 20367e00       1617 	movea	126,zero,r6
                        1618 	jarl	_FblDiagSetError,lp
                        1618 <EXPANSION BEGIN>
                        1618 jarl22 _FblDiagSetError , lp 
000005bc 80ff0000*      1618 <EXPANSION END>
000005c0 9515*          1619 	br	.L2063
                        1620 .L2082:
                        1621 --line1343
                        1622 ..lin.C.3A.5C_ECU2.5CECU_Rivian_A1.5CTarget.5Crepo_projects.5CpFOTA.5CcL_LATEST.5Cmake.5Cobj.5Cfbl_diag_oem.90::
                        1623 .LDWlin90:
000005c2 9d32           1624 	shr	29,r6
000005c4 b90d*          1625 	bnl	.L2085
                        1626 --line1345
                        1627 ..lin.C.3A.5C_ECU2.5CECU_Rivian_A1.5CTarget.5Crepo_projects.5CpFOTA.5CcL_LATEST.5Cmake.5Cobj.5Cfbl_diag_oem.91::
                        1628 .LDWlin91:
000005c6 a40705480000*  1629 	ld.bu	sdaoff23(_diagErrorCode)[gp],r9
000005cc e049           1630 	cmp	zero,r9
000005ce aa0d*          1631 	bne	.L2063
                        1632 --line1347
                        1633 ..lin.C.3A.5C_ECU2.5CECU_Rivian_A1.5CTarget.5Crepo_projects.5CpFOTA.5CcL_LATEST.5Cmake.5Cobj.5Cfbl_diag_oem.92::
                        1634 .LDWlin92:
000005d0 20362200       1635 	movea	34,zero,r6
                        1636 	jarl	_FblDiagSetError,lp
                        1636 <EXPANSION BEGIN>
                        1636 jarl22 _FblDiagSetError , lp 
000005d4 80ff0000*      1636 <EXPANSION END>
000005d8 d505*          1637 	br	.L2063
                        1638 .L2085:
                        1639 --line1353
                        1640 ..lin.C.3A.5C_ECU2.5CECU_Rivian_A1.5CTarget.5Crepo_projects.5CpFOTA.5CcL_LATEST.5Cmake.5Cobj.5Cfbl_diag_oem.93::
                        1641 .LDWlin93:
000005da 20361000       1642 	movea	16,zero,r6
                        1643 	jarl	_FblDiagSetError,lp
                        1643 <EXPANSION BEGIN>
                        1643 jarl22 _FblDiagSetError , lp 
000005de 80ff0000*      1643 <EXPANSION END>
                        1644 .L2063:
                        1645 --line1357
                        1646 ..lin.C.3A.5C_ECU2.5CECU_Rivian_A1.5CTarget.5Crepo_projects.5CpFOTA.5CcL_LATEST.5Cmake.5Cobj.5Cfbl_diag_oem.94::
                        1647 .LDWlin94:
000005e2 0052           1648 	mov	0,r10
                        1649 --	    .ef
                        1650 .LDW44:
000005e4 40063f00       1651 	dispose	0,{r31},[lp]
                        1652 	.type	_FblDiagProcessSubfunctionNrc,@function
                        1653 	.size	_FblDiagProcessSubfunctionNrc,.-_FblDiagProcessSubfunctionNrc
                        1654 	.type	_FblDiagProcessSubfunctionNrc..C.3A.5C_ECU2.5CECU_Rivian_A1.5CTarget.5Crepo_projects.5CpFOTA.5CcL_LATEST.5Cmake.5Cobj.5Cfbl_diag_oem.,@function
                        1655 	.size	_FblDiagProcessSubfunctionNrc..C.3A.5C_ECU2.5CECU_Rivian_A1.5CTarget.5Crepo_projects.5CpFOTA.5CcL_LATEST.5Cmake.5Cobj.5Cfbl_diag_oem.,.-_FblDiagProcessSubfunctionNrc..C.3A.5C_ECU2.5CECU_Rivian_A1.5CTarget.5Crepo_projects.5CpFOTA.5CcL_LATEST.5Cmake.5Cobj.5Cfbl_diag_oem.
                        1656 	.align	2
                        1657 .LDW54:
                        1658 
                        1659 --_serviceErrorMask	r6	param
                        1660 
                        1661 	.section ".bss","awb"
                        1662 .L2232:
                        1663 	.type	.L2232,@object
                        1664 	.size	.L2232,0
                        1665 	.data

                                                                      Page 31
                                                              C:\Users\nhuliyap\AppData\Local\Temp\gh_000099c1.s
                        1666 	.text
                        1667 	.align	2
                        1668 	.align	2
                        1669 ..gh.f.f.1.e.12:
                        1670 	.type	..gh.f.f.1.e.12,@object
                        1671 	.size	..gh.f.f.1.e.12,0
                        1672 	.global	_FblDiagProcessRoutineNrc..C.3A.5C_ECU2.5CECU_Rivian_A1.5CTarget.5Crepo_projects.5CpFOTA.5CcL_LATEST.5Cmake.5Cobj.5Cfbl_diag_oem.
                        1673 _FblDiagProcessRoutineNrc..C.3A.5C_ECU2.5CECU_Rivian_A1.5CTarget.5Crepo_projects.5CpFOTA.5CcL_LATEST.5Cmake.5Cobj.5Cfbl_diag_oem.:
                        1674 _FblDiagProcessRoutineNrc:
000005e8 80072100       1675 	prepare	{r31},0
                        1676 --	    .bf
                        1677 .LDW64:
000005ec 330600020400   1678 	mov	262656,r19
000005f2 4699           1679 	and	r6,r19
000005f4 f205*          1680 	be	.L2423
                        1681 --line1366
                        1682 ..lin.C.3A.5C_ECU2.5CECU_Rivian_A1.5CTarget.5Crepo_projects.5CpFOTA.5CcL_LATEST.5Cmake.5Cobj.5Cfbl_diag_oem.95::
                        1683 .LDWlin95:
000005f6 2b0600000000*  1684 	mov	sdaoff23(_diagResponseFlag),r11
000005fc cb0f0000       1685 	set1	1,0[r11]
00000600 d555*          1686 	br	.L2425
                        1687 .L2423:
                        1688 --line1369
                        1689 ..lin.C.3A.5C_ECU2.5CECU_Rivian_A1.5CTarget.5Crepo_projects.5CpFOTA.5CcL_LATEST.5Cmake.5Cobj.5Cfbl_diag_oem.96::
                        1690 .LDWlin96:
00000602 c6060004       1691 	andi	1024,r6,zero
00000606 e205*          1692 	be	.L2426
                        1693 --line1371
                        1694 ..lin.C.3A.5C_ECU2.5CECU_Rivian_A1.5CTarget.5Crepo_projects.5CpFOTA.5CcL_LATEST.5Cmake.5Cobj.5Cfbl_diag_oem.97::
                        1695 .LDWlin97:
00000608 20367f00       1696 	movea	127,zero,r6
                        1697 	jarl	_FblDiagSetError,lp
                        1697 <EXPANSION BEGIN>
                        1697 jarl22 _FblDiagSetError , lp 
0000060c 80ff0000*      1697 <EXPANSION END>
00000610 d54d*          1698 	br	.L2425
                        1699 .L2426:
                        1700 --line1374
                        1701 ..lin.C.3A.5C_ECU2.5CECU_Rivian_A1.5CTarget.5Crepo_projects.5CpFOTA.5CcL_LATEST.5Cmake.5Cobj.5Cfbl_diag_oem.98::
                        1702 .LDWlin98:
00000612 c6060008       1703 	andi	2048,r6,zero
00000616 ca2d*          1704 	bne	.L2442
                        1705 --line1379
                        1706 ..lin.C.3A.5C_ECU2.5CECU_Rivian_A1.5CTarget.5Crepo_projects.5CpFOTA.5CcL_LATEST.5Cmake.5Cobj.5Cfbl_diag_oem.99::
                        1707 .LDWlin99:
00000618 0690           1708 	mov	r6,r18
0000061a 9292           1709 	shr	18,r18
0000061c e905*          1710 	bnl	.L2432
                        1711 --line1386
                        1712 ..lin.C.3A.5C_ECU2.5CECU_Rivian_A1.5CTarget.5Crepo_projects.5CpFOTA.5CcL_LATEST.5Cmake.5Cobj.5Cfbl_diag_oem.100::
                        1713 .LDWlin100:
0000061e 20363100       1714 	movea	49,zero,r6
                        1715 	jarl	_FblDiagSetError,lp
                        1715 <EXPANSION BEGIN>
                        1715 jarl22 _FblDiagSetError , lp 
00000622 80ff0000*      1715 <EXPANSION END>
00000626 a545*          1716 	br	.L2425
                        1717 .L2432:
                        1718 --line1390
                        1719 ..lin.C.3A.5C_ECU2.5CECU_Rivian_A1.5CTarget.5Crepo_projects.5CpFOTA.5CcL_LATEST.5Cmake.5Cobj.5Cfbl_diag_oem.101::
                        1720 .LDWlin101:

                                                                      Page 32
                                                              C:\Users\nhuliyap\AppData\Local\Temp\gh_000099c1.s
00000628 408e0100       1721 	movhi	1,zero,r17
0000062c 4689           1722 	and	r6,r17
0000062e 9215*          1723 	be	.L2435
                        1724 --line1395
                        1725 ..lin.C.3A.5C_ECU2.5CECU_Rivian_A1.5CTarget.5Crepo_projects.5CpFOTA.5CcL_LATEST.5Cmake.5Cobj.5Cfbl_diag_oem.102::
                        1726 .LDWlin102:
00000630 840709680000*  1727 	ld.w	sdaoff23(_DiagBuffer)[gp],r13
00000636 a40707380000*  1728 	ld.hu	sdaoff23(_DiagDataLength)[gp],r7
0000063c 2b0600000000*  1729 	mov	sdaoff23(_fblDiagStates),r11
00000642 cb3f0000       1730 	set1	7,0[r11]
00000646 0d360100       1731 	addi	1,r13,r6
                        1732 	jarl	_ApplDiagUserSubFunction,lp
                        1732 <EXPANSION BEGIN>
                        1732 jarl22 _ApplDiagUserSubFunction , lp 
0000064a 80ff0000*      1732 <EXPANSION END>
0000064e e52d*          1733 	br	.L2425
                        1734 .L2435:
                        1735 --line1401
                        1736 ..lin.C.3A.5C_ECU2.5CECU_Rivian_A1.5CTarget.5Crepo_projects.5CpFOTA.5CcL_LATEST.5Cmake.5Cobj.5Cfbl_diag_oem.103::
                        1737 .LDWlin103:
00000650 30060010c000   1738 	mov	12587008,r16
00000656 4681           1739 	and	r6,r16
00000658 e205*          1740 	be	.L2438
                        1741 --line1403
                        1742 ..lin.C.3A.5C_ECU2.5CECU_Rivian_A1.5CTarget.5Crepo_projects.5CpFOTA.5CcL_LATEST.5Cmake.5Cobj.5Cfbl_diag_oem.104::
                        1743 .LDWlin104:
0000065a 20363300       1744 	movea	51,zero,r6
                        1745 	jarl	_FblDiagSetError,lp
                        1745 <EXPANSION BEGIN>
                        1745 jarl22 _FblDiagSetError , lp 
0000065e 80ff0000*      1745 <EXPANSION END>
00000662 c525*          1746 	br	.L2425
                        1747 .L2438:
                        1748 --line1406
                        1749 ..lin.C.3A.5C_ECU2.5CECU_Rivian_A1.5CTarget.5Crepo_projects.5CpFOTA.5CcL_LATEST.5Cmake.5Cobj.5Cfbl_diag_oem.105::
                        1750 .LDWlin105:
00000664 2f0600202001   1751 	mov	18882560,r15
0000066a 4679           1752 	and	r6,r15
0000066c e205*          1753 	be	.L2441
                        1754 .L2442:
                        1755 --line1408
                        1756 ..lin.C.3A.5C_ECU2.5CECU_Rivian_A1.5CTarget.5Crepo_projects.5CpFOTA.5CcL_LATEST.5Cmake.5Cobj.5Cfbl_diag_oem.106::
                        1757 .LDWlin106:
0000066e 20361300       1758 	movea	19,zero,r6
                        1759 	jarl	_FblDiagSetError,lp
                        1759 <EXPANSION BEGIN>
                        1759 jarl22 _FblDiagSetError , lp 
00000672 80ff0000*      1759 <EXPANSION END>
00000676 a51d*          1760 	br	.L2425
                        1761 .L2441:
                        1762 --line1411
                        1763 ..lin.C.3A.5C_ECU2.5CECU_Rivian_A1.5CTarget.5Crepo_projects.5CpFOTA.5CcL_LATEST.5Cmake.5Cobj.5Cfbl_diag_oem.107::
                        1764 .LDWlin107:
00000678 40761800       1765 	movhi	24,zero,r14
0000067c 4671           1766 	and	r6,r14
0000067e e205*          1767 	be	.L2444
                        1768 --line1413
                        1769 ..lin.C.3A.5C_ECU2.5CECU_Rivian_A1.5CTarget.5Crepo_projects.5CpFOTA.5CcL_LATEST.5Cmake.5Cobj.5Cfbl_diag_oem.108::
                        1770 .LDWlin108:
00000680 20367e00       1771 	movea	126,zero,r6
                        1772 	jarl	_FblDiagSetError,lp

                                                                      Page 33
                                                              C:\Users\nhuliyap\AppData\Local\Temp\gh_000099c1.s
                        1772 <EXPANSION BEGIN>
                        1772 jarl22 _FblDiagSetError , lp 
00000684 80ff0000*      1772 <EXPANSION END>
00000688 9515*          1773 	br	.L2425
                        1774 .L2444:
                        1775 --line1415
                        1776 ..lin.C.3A.5C_ECU2.5CECU_Rivian_A1.5CTarget.5Crepo_projects.5CpFOTA.5CcL_LATEST.5Cmake.5Cobj.5Cfbl_diag_oem.109::
                        1777 .LDWlin109:
0000068a 9d32           1778 	shr	29,r6
0000068c b90d*          1779 	bnl	.L2447
                        1780 --line1417
                        1781 ..lin.C.3A.5C_ECU2.5CECU_Rivian_A1.5CTarget.5Crepo_projects.5CpFOTA.5CcL_LATEST.5Cmake.5Cobj.5Cfbl_diag_oem.110::
                        1782 .LDWlin110:
0000068e a40705480000*  1783 	ld.bu	sdaoff23(_diagErrorCode)[gp],r9
00000694 e049           1784 	cmp	zero,r9
00000696 aa0d*          1785 	bne	.L2425
                        1786 --line1419
                        1787 ..lin.C.3A.5C_ECU2.5CECU_Rivian_A1.5CTarget.5Crepo_projects.5CpFOTA.5CcL_LATEST.5Cmake.5Cobj.5Cfbl_diag_oem.111::
                        1788 .LDWlin111:
00000698 20362200       1789 	movea	34,zero,r6
                        1790 	jarl	_FblDiagSetError,lp
                        1790 <EXPANSION BEGIN>
                        1790 jarl22 _FblDiagSetError , lp 
0000069c 80ff0000*      1790 <EXPANSION END>
000006a0 d505*          1791 	br	.L2425
                        1792 .L2447:
                        1793 --line1425
                        1794 ..lin.C.3A.5C_ECU2.5CECU_Rivian_A1.5CTarget.5Crepo_projects.5CpFOTA.5CcL_LATEST.5Cmake.5Cobj.5Cfbl_diag_oem.112::
                        1795 .LDWlin112:
000006a2 20361000       1796 	movea	16,zero,r6
                        1797 	jarl	_FblDiagSetError,lp
                        1797 <EXPANSION BEGIN>
                        1797 jarl22 _FblDiagSetError , lp 
000006a6 80ff0000*      1797 <EXPANSION END>
                        1798 .L2425:
                        1799 --line1429
                        1800 ..lin.C.3A.5C_ECU2.5CECU_Rivian_A1.5CTarget.5Crepo_projects.5CpFOTA.5CcL_LATEST.5Cmake.5Cobj.5Cfbl_diag_oem.113::
                        1801 .LDWlin113:
000006aa 0052           1802 	mov	0,r10
                        1803 --	    .ef
                        1804 .LDW74:
000006ac 40063f00       1805 	dispose	0,{r31},[lp]
                        1806 	.type	_FblDiagProcessRoutineNrc,@function
                        1807 	.size	_FblDiagProcessRoutineNrc,.-_FblDiagProcessRoutineNrc
                        1808 	.type	_FblDiagProcessRoutineNrc..C.3A.5C_ECU2.5CECU_Rivian_A1.5CTarget.5Crepo_projects.5CpFOTA.5CcL_LATEST.5Cmake.5Cobj.5Cfbl_diag_oem.,@function
                        1809 	.size	_FblDiagProcessRoutineNrc..C.3A.5C_ECU2.5CECU_Rivian_A1.5CTarget.5Crepo_projects.5CpFOTA.5CcL_LATEST.5Cmake.5Cobj.5Cfbl_diag_oem.,.-_FblDiagProcessRoutineNrc..C.3A.5C_ECU2.5CECU_Rivian_A1.5CTarget.5Crepo_projects.5CpFOTA.5CcL_LATEST.5Cmake.5Cobj.5Cfbl_diag_oem.
                        1810 	.align	2
                        1811 .LDW84:
                        1812 
                        1813 --_serviceErrorMask	r6	param
                        1814 
                        1815 	.section ".bss","awb"
                        1816 .L2600:
                        1817 	.type	.L2600,@object
                        1818 	.size	.L2600,0
                        1819 	.data
                        1820 	.text
                        1821 	.align	2
                        1822 	.align	2
                        1823 ..gh.f.f.1.e.13:
                        1824 	.type	..gh.f.f.1.e.13,@object

                                                                      Page 34
                                                              C:\Users\nhuliyap\AppData\Local\Temp\gh_000099c1.s
                        1825 	.size	..gh.f.f.1.e.13,0
                        1826 	.global	_FblDiagDefaultSessionMainHandler..C.3A.5C_ECU2.5CECU_Rivian_A1.5CTarget.5Crepo_projects.5CpFOTA.5CcL_LATEST.5Cmake.5Cobj.5Cfbl_diag_oem.
                        1827 _FblDiagDefaultSessionMainHandler..C.3A.5C_ECU2.5CECU_Rivian_A1.5CTarget.5Crepo_projects.5CpFOTA.5CcL_LATEST.5Cmake.5Cobj.5Cfbl_diag_oem.:
                        1828 _FblDiagDefaultSessionMainHandler:
000006b0 82072100       1829 	prepare	{r31},1
                        1830 --	    .bf
                        1831 .LDW94:
000006b4 2b0600000000*  1832 	mov	sdaoff23(_fblDiagStates),r11
000006ba cbd70000       1833 	tst1	2,0[r11]
000006be e21d*          1834 	be	.L2791
                        1835 --line1438
                        1836 ..lin.C.3A.5C_ECU2.5CECU_Rivian_A1.5CTarget.5Crepo_projects.5CpFOTA.5CcL_LATEST.5Cmake.5Cobj.5Cfbl_diag_oem.114::
                        1837 .LDWlin114:
000006c0 20368813       1838 	movea	5000,zero,r6
000006c4 2b0600000000*  1839 	mov	sdaoff23(_fblDiagStates+1),r11
000006ca a4070d300000*  1840 	st.h	r6,sdaoff23(_ecuResetTimeout)[gp]
000006d0 cb2f0000       1841 	set1	5,0[r11]
000006d4 0132           1842 	mov	1,r6
                        1843 	jarl	_DiagExRCRResponsePending,lp
                        1843 <EXPANSION BEGIN>
                        1843 jarl22 _DiagExRCRResponsePending , lp 
000006d6 80ff0000*      1843 <EXPANSION END>
                        1844 --line1444
                        1845 ..lin.C.3A.5C_ECU2.5CECU_Rivian_A1.5CTarget.5Crepo_projects.5CpFOTA.5CcL_LATEST.5Cmake.5Cobj.5Cfbl_diag_oem.115::
                        1846 .LDWlin115:
000006da 0132           1847 	mov	1,r6
000006dc 43370300       1848 	st.b	r6,3[sp]
000006e0 233e0300       1849 	movea	3,sp,r7
000006e4 0640           1850 	mov	r6,r8
                        1851 	jarl	_ApplFblNvWriteProcessData,lp
                        1851 <EXPANSION BEGIN>
                        1851 jarl22 _ApplFblNvWriteProcessData , lp 
000006e6 80ff0000*      1851 <EXPANSION END>
                        1852 --line1447
                        1853 ..lin.C.3A.5C_ECU2.5CECU_Rivian_A1.5CTarget.5Crepo_projects.5CpFOTA.5CcL_LATEST.5Cmake.5Cobj.5Cfbl_diag_oem.116::
                        1854 .LDWlin116:
                        1855 	jarl	_FblCwSaveResponseAddress,lp
                        1855 <EXPANSION BEGIN>
                        1855 jarl22 _FblCwSaveResponseAddress , lp 
000006ea 80ff0000*      1855 <EXPANSION END>
                        1856 --line1456
                        1857 ..lin.C.3A.5C_ECU2.5CECU_Rivian_A1.5CTarget.5Crepo_projects.5CpFOTA.5CcL_LATEST.5Cmake.5Cobj.5Cfbl_diag_oem.117::
                        1858 .LDWlin117:
000006ee 2b0600000000*  1859 	mov	sdaoff23(_fblDiagStates+1),r11
000006f4 cb370000       1860 	set1	6,0[r11]
000006f8 d50d*          1861 	br	.L2795
                        1862 .L2791:
                        1863 --line1459
                        1864 ..lin.C.3A.5C_ECU2.5CECU_Rivian_A1.5CTarget.5Crepo_projects.5CpFOTA.5CcL_LATEST.5Cmake.5Cobj.5Cfbl_diag_oem.118::
                        1865 .LDWlin118:
000006fa cb070000       1866 	set1	0,0[r11]
000006fe cb970000       1867 	clr1	2,0[r11]
00000702 c700           1868 	zxh	r7
00000704 cb8f0000       1869 	clr1	1,0[r11]
                        1870 	jarl	_FblDiagSessionControlParamInit,lp
                        1870 <EXPANSION BEGIN>
                        1870 jarl22 _FblDiagSessionControlParamInit , lp 
00000708 bfff64fd*      1870 <EXPANSION END>
                        1871 --line1463
                        1872 ..lin.C.3A.5C_ECU2.5CECU_Rivian_A1.5CTarget.5Crepo_projects.5CpFOTA.5CcL_LATEST.5Cmake.5Cobj.5Cfbl_diag_oem.119::
                        1873 .LDWlin119:

                                                                      Page 35
                                                              C:\Users\nhuliyap\AppData\Local\Temp\gh_000099c1.s
0000070c 0532           1874 	mov	5,r6
                        1875 	jarl	_DiagProcessingDone,lp
                        1875 <EXPANSION BEGIN>
                        1875 jarl22 _DiagProcessingDone , lp 
0000070e 80ff0000*      1875 <EXPANSION END>
                        1876 .L2795:
                        1877 --line1466
                        1878 ..lin.C.3A.5C_ECU2.5CECU_Rivian_A1.5CTarget.5Crepo_projects.5CpFOTA.5CcL_LATEST.5Cmake.5Cobj.5Cfbl_diag_oem.120::
                        1879 .LDWlin120:
00000712 0052           1880 	mov	0,r10
                        1881 --	    .ef
                        1882 .LDW05:
00000714 42063f00       1883 	dispose	1,{r31},[lp]
                        1884 	.type	_FblDiagDefaultSessionMainHandler,@function
                        1885 	.size	_FblDiagDefaultSessionMainHandler,.-_FblDiagDefaultSessionMainHandler
                        1886 	.type	_FblDiagDefaultSessionMainHandler..C.3A.5C_ECU2.5CECU_Rivian_A1.5CTarget.5Crepo_projects.5CpFOTA.5CcL_LATEST.5Cmake.5Cobj.5Cfbl_diag_oem.,@function
                        1887 	.size	_FblDiagDefaultSessionMainHandler..C.3A.5C_ECU2.5CECU_Rivian_A1.5CTarget.5Crepo_projects.5CpFOTA.5CcL_LATEST.5Cmake.5Cobj.5Cfbl_diag_oem.,.-_FblDiagDefaultSessionMainHandler..C.3A.5C_ECU2.5CECU_Rivian_A1.5CTarget.5Crepo_projects.5CpFOTA.5CcL_LATEST.5Cmake.5Cobj.5Cfbl_diag_oem.
                        1888 	.align	2
                        1889 .LDW15:
                        1890 --_responseFlag	3[sp]	local
                        1891 
                        1892 --_pbDiagData	r6	param
                        1893 --_diagReqDataLen	r7	param
                        1894 
                        1895 	.section ".bss","awb"
                        1896 .L2844:
                        1897 	.type	.L2844,@object
                        1898 	.size	.L2844,0
                        1899 	.data
                        1900 	.text
                        1901 	.align	2
                        1902 	.align	2
                        1903 ..gh.f.f.1.e.14:
                        1904 	.type	..gh.f.f.1.e.14,@object
                        1905 	.size	..gh.f.f.1.e.14,0
                        1906 	.global	_FblDiagExtendedSessionMainHandler..C.3A.5C_ECU2.5CECU_Rivian_A1.5CTarget.5Crepo_projects.5CpFOTA.5CcL_LATEST.5Cmake.5Cobj.5Cfbl_diag_oem.
                        1907 _FblDiagExtendedSessionMainHandler..C.3A.5C_ECU2.5CECU_Rivian_A1.5CTarget.5Crepo_projects.5CpFOTA.5CcL_LATEST.5Cmake.5Cobj.5Cfbl_diag_oem.:
                        1908 _FblDiagExtendedSessionMainHandler:
00000718 80073b000000*  1909 	prepare	{r31},0,sdaoff23(_fblDiagStates)
0000071e 0000*
00000720 c700           1910 	zxh	r7
                        1911 --	    .bf
                        1912 .LDW25:
00000722 de0f0000       1913 	set1	1,0[ep]
00000726 de970000       1914 	clr1	2,0[ep]
0000072a de870000       1915 	clr1	0,0[ep]
                        1916 	jarl	_FblDiagSessionControlParamInit,lp
                        1916 <EXPANSION BEGIN>
                        1916 jarl22 _FblDiagSessionControlParamInit , lp 
0000072e bfff3efd*      1916 <EXPANSION END>
                        1917 --line1474
                        1918 ..lin.C.3A.5C_ECU2.5CECU_Rivian_A1.5CTarget.5Crepo_projects.5CpFOTA.5CcL_LATEST.5Cmake.5Cobj.5Cfbl_diag_oem.121::
                        1919 .LDWlin121:
00000732 0532           1920 	mov	5,r6
                        1921 	jarl	_DiagProcessingDone,lp
                        1921 <EXPANSION BEGIN>
                        1921 jarl22 _DiagProcessingDone , lp 
00000734 80ff0000*      1921 <EXPANSION END>
                        1922 --line1476
                        1923 ..lin.C.3A.5C_ECU2.5CECU_Rivian_A1.5CTarget.5Crepo_projects.5CpFOTA.5CcL_LATEST.5Cmake.5Cobj.5Cfbl_diag_oem.122::
                        1924 .LDWlin122:

                                                                      Page 36
                                                              C:\Users\nhuliyap\AppData\Local\Temp\gh_000099c1.s
00000738 0052           1925 	mov	0,r10
                        1926 --	    .ef
                        1927 .LDW35:
0000073a 40063f00       1928 	dispose	0,{r31},[lp]
                        1929 	.type	_FblDiagExtendedSessionMainHandler,@function
                        1930 	.size	_FblDiagExtendedSessionMainHandler,.-_FblDiagExtendedSessionMainHandler
                        1931 	.type	_FblDiagExtendedSessionMainHandler..C.3A.5C_ECU2.5CECU_Rivian_A1.5CTarget.5Crepo_projects.5CpFOTA.5CcL_LATEST.5Cmake.5Cobj.5Cfbl_diag_oem.,@function
                        1932 	.size	_FblDiagExtendedSessionMainHandler..C.3A.5C_ECU2.5CECU_Rivian_A1.5CTarget.5Crepo_projects.5CpFOTA.5CcL_LATEST.5Cmake.5Cobj.5Cfbl_diag_oem.,.-_FblDiagExtendedSessionMainHandler..C.3A.5C_ECU2.5CECU_Rivian_A1.5CTarget.5Crepo_projects.5CpFOTA.5CcL_LATEST.5Cmake.5Cobj.5Cfbl_diag_oem.
                        1933 	.align	2
                        1934 .LDW45:
                        1935 
                        1936 --_pbDiagData	r6	param
                        1937 --_diagReqDataLen	r7	param
                        1938 
                        1939 	.section ".bss","awb"
                        1940 .L2913:
                        1941 	.type	.L2913,@object
                        1942 	.size	.L2913,0
                        1943 	.data
                        1944 	.text
                        1945 	.align	2
                        1946 	.align	2
                        1947 ..gh.f.f.1.e.15:
                        1948 	.type	..gh.f.f.1.e.15,@object
                        1949 	.size	..gh.f.f.1.e.15,0
                        1950 	.global	_FblDiagProgrammingSessionMainHandler..C.3A.5C_ECU2.5CECU_Rivian_A1.5CTarget.5Crepo_projects.5CpFOTA.5CcL_LATEST.5Cmake.5Cobj.5Cfbl_diag_oem.
                        1951 _FblDiagProgrammingSessionMainHandler..C.3A.5C_ECU2.5CECU_Rivian_A1.5CTarget.5Crepo_projects.5CpFOTA.5CcL_LATEST.5Cmake.5Cobj.5Cfbl_diag_oem.:
                        1952 _FblDiagProgrammingSessionMainHandler:
0000073e 8007e110       1953 	prepare	{r27,r28,r29,r31},0
00000742 06e0           1954 	mov	r6,r28
00000744 07d8           1955 	mov	r7,r27
                        1956 --	    .bf
                        1957 .LDW55:
                        1958 	jarl	_ApplFblCheckProgConditions,lp
                        1958 <EXPANSION BEGIN>
                        1958 jarl22 _ApplFblCheckProgConditions , lp 
00000746 80ff0000*      1958 <EXPANSION END>
0000074a e051           1959 	cmp	zero,r10
0000074c c20d*          1960 	be	.L2933
                        1961 --line1500
                        1962 ..lin.C.3A.5C_ECU2.5CECU_Rivian_A1.5CTarget.5Crepo_projects.5CpFOTA.5CcL_LATEST.5Cmake.5Cobj.5Cfbl_diag_oem.123::
                        1963 .LDWlin123:
0000074e 208e1200       1964 	movea	18,zero,r17
00000752 a4070d880000*  1965 	st.h	r17,sdaoff23(_errStatErrorCode)[gp]
00000758 20362200       1966 	movea	34,zero,r6
                        1967 	jarl	_FblDiagSetError,lp
                        1967 <EXPANSION BEGIN>
                        1967 jarl22 _FblDiagSetError , lp 
0000075c 80ff0000*      1967 <EXPANSION END>
                        1968 --line1502
                        1969 ..lin.C.3A.5C_ECU2.5CECU_Rivian_A1.5CTarget.5Crepo_projects.5CpFOTA.5CcL_LATEST.5Cmake.5Cobj.5Cfbl_diag_oem.124::
                        1970 .LDWlin124:
00000760 01ea           1971 	mov	1,r29
00000762 b515*          1972 	br	.L2935
                        1973 .L2933:
                        1974 --line1507
                        1975 ..lin.C.3A.5C_ECU2.5CECU_Rivian_A1.5CTarget.5Crepo_projects.5CpFOTA.5CcL_LATEST.5Cmake.5Cobj.5Cfbl_diag_oem.125::
                        1976 .LDWlin125:
00000764 3e0600000000*  1977 	mov	sdaoff23(_fblDiagStates),ep
0000076a de170000       1978 	set1	2,0[ep]
0000076e db00           1979 	zxh	r27

                                                                      Page 37
                                                              C:\Users\nhuliyap\AppData\Local\Temp\gh_000099c1.s
00000770 de8f0000       1980 	clr1	1,0[ep]
00000774 0ae8           1981 	mov	r10,r29
00000776 de870000       1982 	clr1	0,0[ep]
0000077a 1c30           1983 	mov	r28,r6
0000077c 1b38           1984 	mov	r27,r7
                        1985 	jarl	_FblDiagSessionControlParamInit,lp
                        1985 <EXPANSION BEGIN>
                        1985 jarl22 _FblDiagSessionControlParamInit , lp 
0000077e bfffeefc*      1985 <EXPANSION END>
                        1986 --line1511
                        1987 ..lin.C.3A.5C_ECU2.5CECU_Rivian_A1.5CTarget.5Crepo_projects.5CpFOTA.5CcL_LATEST.5Cmake.5Cobj.5Cfbl_diag_oem.126::
                        1988 .LDWlin126:
00000782 0532           1989 	mov	5,r6
                        1990 	jarl	_DiagProcessingDone,lp
                        1990 <EXPANSION BEGIN>
                        1990 jarl22 _DiagProcessingDone , lp 
00000784 80ff0000*      1990 <EXPANSION END>
                        1991 .L2935:
                        1992 --line1514
                        1993 ..lin.C.3A.5C_ECU2.5CECU_Rivian_A1.5CTarget.5Crepo_projects.5CpFOTA.5CcL_LATEST.5Cmake.5Cobj.5Cfbl_diag_oem.127::
                        1994 .LDWlin127:
00000788 1d50           1995 	mov	r29,r10
                        1996 --	    .ef
                        1997 .LDW65:
0000078a 4006ff10       1998 	dispose	0,{r27,r28,r29,r31},[lp]
                        1999 	.type	_FblDiagProgrammingSessionMainHandler,@function
                        2000 	.size	_FblDiagProgrammingSessionMainHandler,.-_FblDiagProgrammingSessionMainHandler
                        2001 	.type	_FblDiagProgrammingSessionMainHandler..C.3A.5C_ECU2.5CECU_Rivian_A1.5CTarget.5Crepo_projects.5CpFOTA.5CcL_LATEST.5Cmake.5Cobj.5Cfbl_diag_oem.,@function
                        2002 	.size	_FblDiagProgrammingSessionMainHandler..C.3A.5C_ECU2.5CECU_Rivian_A1.5CTarget.5Crepo_projects.5CpFOTA.5CcL_LATEST.5Cmake.5Cobj.5Cfbl_diag_oem.,.-_FblDiagProgrammingSessionMainHandler..C.3A.5C_ECU2.5CECU_Rivian_A1.5CTarget.5Crepo_projects.5CpFOTA.5CcL_LATEST.5Cmake.5Cobj.5Cfbl_diag_oem.
                        2003 	.align	2
                        2004 .LDW75:
                        2005 --_result	r29	local
                        2006 
                        2007 --_pbDiagData	r28	param
                        2008 --_diagReqDataLen	r27	param
                        2009 
                        2010 	.section ".bss","awb"
                        2011 .L2994:
                        2012 	.type	.L2994,@object
                        2013 	.size	.L2994,0
                        2014 	.data
                        2015 	.text
                        2016 	.align	2
                        2017 	.align	2
                        2018 ..gh.f.f.1.e.16:
                        2019 	.type	..gh.f.f.1.e.16,@object
                        2020 	.size	..gh.f.f.1.e.16,0
                        2021 	.global	_FblDiagEcuResetMainHandler..C.3A.5C_ECU2.5CECU_Rivian_A1.5CTarget.5Crepo_projects.5CpFOTA.5CcL_LATEST.5Cmake.5Cobj.5Cfbl_diag_oem.
                        2022 _FblDiagEcuResetMainHandler..C.3A.5C_ECU2.5CECU_Rivian_A1.5CTarget.5Crepo_projects.5CpFOTA.5CcL_LATEST.5Cmake.5Cobj.5Cfbl_diag_oem.:
                        2023 _FblDiagEcuResetMainHandler:
0000078e 82072100       2024 	prepare	{r31},1
                        2025 --	    .bf
                        2026 .LDW85:
00000792 2b0600000000*  2027 	mov	sdaoff23(_fblDiagStates+1),r11
00000798 20968813       2028 	movea	5000,zero,r18
0000079c cb2f0000       2029 	set1	5,0[r11]
000007a0 a4070d900000*  2030 	st.h	r18,sdaoff23(_ecuResetTimeout)[gp]
000007a6 0132           2031 	mov	1,r6
                        2032 	jarl	_DiagExRCRResponsePending,lp
                        2032 <EXPANSION BEGIN>
                        2032 jarl22 _DiagExRCRResponsePending , lp 

                                                                      Page 38
                                                              C:\Users\nhuliyap\AppData\Local\Temp\gh_000099c1.s
000007a8 80ff0000*      2032 <EXPANSION END>
                        2033 --line1534
                        2034 ..lin.C.3A.5C_ECU2.5CECU_Rivian_A1.5CTarget.5Crepo_projects.5CpFOTA.5CcL_LATEST.5Cmake.5Cobj.5Cfbl_diag_oem.128::
                        2035 .LDWlin128:
000007ac 028a           2036 	mov	2,r17
000007ae 0132           2037 	mov	1,r6
000007b0 438f0300       2038 	st.b	r17,3[sp]
000007b4 233e0300       2039 	movea	3,sp,r7
000007b8 0640           2040 	mov	r6,r8
                        2041 	jarl	_ApplFblNvWriteProcessData,lp
                        2041 <EXPANSION BEGIN>
                        2041 jarl22 _ApplFblNvWriteProcessData , lp 
000007ba 80ff0000*      2041 <EXPANSION END>
                        2042 --line1537
                        2043 ..lin.C.3A.5C_ECU2.5CECU_Rivian_A1.5CTarget.5Crepo_projects.5CpFOTA.5CcL_LATEST.5Cmake.5Cobj.5Cfbl_diag_oem.129::
                        2044 .LDWlin129:
                        2045 	jarl	_FblCwSaveResponseAddress,lp
                        2045 <EXPANSION BEGIN>
                        2045 jarl22 _FblCwSaveResponseAddress , lp 
000007be 80ff0000*      2045 <EXPANSION END>
                        2046 --line1543
                        2047 ..lin.C.3A.5C_ECU2.5CECU_Rivian_A1.5CTarget.5Crepo_projects.5CpFOTA.5CcL_LATEST.5Cmake.5Cobj.5Cfbl_diag_oem.130::
                        2048 .LDWlin130:
000007c2 2b0600000000*  2049 	mov	sdaoff23(_fblDiagStates+1),r11
000007c8 cb370000       2050 	set1	6,0[r11]
000007cc 0052           2051 	mov	0,r10
                        2052 --	    .ef
                        2053 .LDW95:
000007ce 42063f00       2054 	dispose	1,{r31},[lp]
                        2055 	.type	_FblDiagEcuResetMainHandler,@function
                        2056 	.size	_FblDiagEcuResetMainHandler,.-_FblDiagEcuResetMainHandler
                        2057 	.type	_FblDiagEcuResetMainHandler..C.3A.5C_ECU2.5CECU_Rivian_A1.5CTarget.5Crepo_projects.5CpFOTA.5CcL_LATEST.5Cmake.5Cobj.5Cfbl_diag_oem.,@function
                        2058 	.size	_FblDiagEcuResetMainHandler..C.3A.5C_ECU2.5CECU_Rivian_A1.5CTarget.5Crepo_projects.5CpFOTA.5CcL_LATEST.5Cmake.5Cobj.5Cfbl_diag_oem.,.-_FblDiagEcuResetMainHandler..C.3A.5C_ECU2.5CECU_Rivian_A1.5CTarget.5Crepo_projects.5CpFOTA.5CcL_LATEST.5Cmake.5Cobj.5Cfbl_diag_oem.
                        2059 	.align	2
                        2060 .LDW06:
                        2061 --_responseFlag	3[sp]	local
                        2062 
                        2063 --_pbDiagData	none	param
                        2064 --_diagReqDataLen	none	param
                        2065 
                        2066 	.section ".bss","awb"
                        2067 .L3082:
                        2068 	.type	.L3082,@object
                        2069 	.size	.L3082,0
                        2070 	.data
                        2071 	.text
                        2072 	.align	2
                        2073 	.align	2
                        2074 ..gh.f.f.1.e.17:
                        2075 	.type	..gh.f.f.1.e.17,@object
                        2076 	.size	..gh.f.f.1.e.17,0
                        2077 	.global	_FblDiagSecAccessSeedMainHandler..C.3A.5C_ECU2.5CECU_Rivian_A1.5CTarget.5Crepo_projects.5CpFOTA.5CcL_LATEST.5Cmake.5Cobj.5Cfbl_diag_oem.
                        2078 _FblDiagSecAccessSeedMainHandler..C.3A.5C_ECU2.5CECU_Rivian_A1.5CTarget.5Crepo_projects.5CpFOTA.5CcL_LATEST.5Cmake.5Cobj.5Cfbl_diag_oem.:
                        2079 _FblDiagSecAccessSeedMainHandler:
000007d2 80076100       2080 	prepare	{r29,r31},0
                        2081 --	    .bf
                        2082 .LDW16:
000007d6 840709980000*  2083 	ld.w	sdaoff23(_secSecurityAccessDelay)[gp],r19
000007dc e099           2084 	cmp	zero,r19
000007de f205*          2085 	be	.L3108
                        2086 --line1561

                                                                      Page 39
                                                              C:\Users\nhuliyap\AppData\Local\Temp\gh_000099c1.s
                        2087 ..lin.C.3A.5C_ECU2.5CECU_Rivian_A1.5CTarget.5Crepo_projects.5CpFOTA.5CcL_LATEST.5Cmake.5Cobj.5Cfbl_diag_oem.131::
                        2088 .LDWlin131:
000007e0 20363700       2089 	movea	55,zero,r6
                        2090 	jarl	_FblDiagSetError,lp
                        2090 <EXPANSION BEGIN>
                        2090 jarl22 _FblDiagSetError , lp 
000007e4 80ff0000*      2090 <EXPANSION END>
                        2091 --line1562
                        2092 ..lin.C.3A.5C_ECU2.5CECU_Rivian_A1.5CTarget.5Crepo_projects.5CpFOTA.5CcL_LATEST.5Cmake.5Cobj.5Cfbl_diag_oem.132::
                        2093 .LDWlin132:
000007e8 01ea           2094 	mov	1,r29
000007ea 952d*          2095 	br	.L3118
                        2096 .L3108:
                        2097 --line1567
                        2098 ..lin.C.3A.5C_ECU2.5CECU_Rivian_A1.5CTarget.5Crepo_projects.5CpFOTA.5CcL_LATEST.5Cmake.5Cobj.5Cfbl_diag_oem.133::
                        2099 .LDWlin133:
000007ec 2b0600000000*  2100 	mov	sdaoff23(_fblDiagStates+2),r11
000007f2 13e8           2101 	mov	r19,r29
000007f4 cbdf0000       2102 	tst1	3,0[r11]
                        2103 --	    .bs
                        2104 .LDW26:
000007f8 1390           2105 	mov	r19,r18
000007fa d20d*          2106 	be	.L3109
                        2107 .L3113:
                        2108 --line1573
                        2109 ..lin.C.3A.5C_ECU2.5CECU_Rivian_A1.5CTarget.5Crepo_projects.5CpFOTA.5CcL_LATEST.5Cmake.5Cobj.5Cfbl_diag_oem.134::
                        2110 .LDWlin134:
000007fc 12f0           2111 	mov	r18,ep
000007fe c6f1           2112 	add	r6,ep
00000800 4192           2113 	add	1,r18
00000802 8103           2114 	sst.b	zero,1[ep]
00000804 1206f0ff       2115 	addi	-16,r18,zero
00000808 a9fd*          2116 	bnl	.L3113
                        2117 .L3119:
                        2118 --line1592
                        2119 ..lin.C.3A.5C_ECU2.5CECU_Rivian_A1.5CTarget.5Crepo_projects.5CpFOTA.5CcL_LATEST.5Cmake.5Cobj.5Cfbl_diag_oem.135::
                        2120 .LDWlin135:
0000080a 20361100       2121 	movea	17,zero,r6
                        2122 	jarl	_DiagProcessingDone,lp
                        2122 <EXPANSION BEGIN>
                        2122 jarl22 _DiagProcessingDone , lp 
0000080e 80ff0000*      2122 <EXPANSION END>
00000812 d515*          2123 	br	.L3118
                        2124 .L3109:
                        2125 --	    .es
                        2126 .LDW36:
                        2127 --line1578
                        2128 ..lin.C.3A.5C_ECU2.5CECU_Rivian_A1.5CTarget.5Crepo_projects.5CpFOTA.5CcL_LATEST.5Cmake.5Cobj.5Cfbl_diag_oem.136::
                        2129 .LDWlin136:
                        2130 	jarl	_ApplFblSecuritySeed,lp
                        2130 <EXPANSION BEGIN>
                        2130 jarl22 _ApplFblSecuritySeed , lp 
00000814 80ff0000*      2130 <EXPANSION END>
00000818 e051           2131 	cmp	zero,r10
0000081a fa05*          2132 	bne	.L3115
                        2133 --line1580
                        2134 ..lin.C.3A.5C_ECU2.5CECU_Rivian_A1.5CTarget.5Crepo_projects.5CpFOTA.5CcL_LATEST.5Cmake.5Cobj.5Cfbl_diag_oem.137::
                        2135 .LDWlin137:
0000081c 2b0600000000*  2136 	mov	sdaoff23(_fblDiagStates+2),r11
00000822 cb170000       2137 	set1	2,0[r11]
00000826 a5f5*          2138 	br	.L3119

                                                                      Page 40
                                                              C:\Users\nhuliyap\AppData\Local\Temp\gh_000099c1.s
                        2139 .L3115:
                        2140 --line1584
                        2141 ..lin.C.3A.5C_ECU2.5CECU_Rivian_A1.5CTarget.5Crepo_projects.5CpFOTA.5CcL_LATEST.5Cmake.5Cobj.5Cfbl_diag_oem.138::
                        2142 .LDWlin138:
00000828 204e2400       2143 	movea	36,zero,r9
0000082c a4070d480000*  2144 	st.h	r9,sdaoff23(_errStatErrorCode)[gp]
00000832 20362200       2145 	movea	34,zero,r6
                        2146 	jarl	_FblDiagSetError,lp
                        2146 <EXPANSION BEGIN>
                        2146 jarl22 _FblDiagSetError , lp 
00000836 80ff0000*      2146 <EXPANSION END>
                        2147 --line1586
                        2148 ..lin.C.3A.5C_ECU2.5CECU_Rivian_A1.5CTarget.5Crepo_projects.5CpFOTA.5CcL_LATEST.5Cmake.5Cobj.5Cfbl_diag_oem.139::
                        2149 .LDWlin139:
0000083a 01ea           2150 	mov	1,r29
                        2151 .L3118:
0000083c 1d50           2152 	mov	r29,r10
                        2153 --	    .ef
                        2154 .LDW46:
0000083e 40067f00       2155 	dispose	0,{r29,r31},[lp]
                        2156 	.type	_FblDiagSecAccessSeedMainHandler,@function
                        2157 	.size	_FblDiagSecAccessSeedMainHandler,.-_FblDiagSecAccessSeedMainHandler
                        2158 	.type	_FblDiagSecAccessSeedMainHandler..C.3A.5C_ECU2.5CECU_Rivian_A1.5CTarget.5Crepo_projects.5CpFOTA.5CcL_LATEST.5Cmake.5Cobj.5Cfbl_diag_oem.,@function
                        2159 	.size	_FblDiagSecAccessSeedMainHandler..C.3A.5C_ECU2.5CECU_Rivian_A1.5CTarget.5Crepo_projects.5CpFOTA.5CcL_LATEST.5Cmake.5Cobj.5Cfbl_diag_oem.,.-_FblDiagSecAccessSeedMainHandler..C.3A.5C_ECU2.5CECU_Rivian_A1.5CTarget.5Crepo_projects.5CpFOTA.5CcL_LATEST.5Cmake.5Cobj.5Cfbl_diag_oem.
                        2160 	.align	2
                        2161 .LDW56:
                        2162 --_result	r29	local
                        2163 --_i	r18	local
                        2164 
                        2165 --_pbDiagData	r6	param
                        2166 --_diagReqDataLen	none	param
                        2167 
                        2168 	.section ".bss","awb"
                        2169 .L3893:
                        2170 	.type	.L3893,@object
                        2171 	.size	.L3893,0
                        2172 	.data
                        2173 	.text
                        2174 	.align	2
                        2175 	.align	2
                        2176 ..gh.f.f.1.e.18:
                        2177 	.type	..gh.f.f.1.e.18,@object
                        2178 	.size	..gh.f.f.1.e.18,0
                        2179 	.global	_FblDiagSecAccessKeyMainHandler..C.3A.5C_ECU2.5CECU_Rivian_A1.5CTarget.5Crepo_projects.5CpFOTA.5CcL_LATEST.5Cmake.5Cobj.5Cfbl_diag_oem.
                        2180 _FblDiagSecAccessKeyMainHandler..C.3A.5C_ECU2.5CECU_Rivian_A1.5CTarget.5Crepo_projects.5CpFOTA.5CcL_LATEST.5Cmake.5Cobj.5Cfbl_diag_oem.:
                        2181 _FblDiagSecAccessKeyMainHandler:
00000842 8007e100       2182 	prepare	{r28,r29,r31},0
                        2183 --	    .bf
                        2184 .LDW66:
00000846 2b0600000000*  2185 	mov	sdaoff23(_fblDiagStates+2),r11
0000084c cbd70000       2186 	tst1	2,0[r11]
00000850 e205*          2187 	be	.L3996
00000852 840709880000*  2188 	ld.w	sdaoff23(_secSecurityAccessDelay)[gp],r17
00000858 e089           2189 	cmp	zero,r17
0000085a f205*          2190 	be	.L3995
                        2191 .L3996:
                        2192 --line1612
                        2193 ..lin.C.3A.5C_ECU2.5CECU_Rivian_A1.5CTarget.5Crepo_projects.5CpFOTA.5CcL_LATEST.5Cmake.5Cobj.5Cfbl_diag_oem.140::
                        2194 .LDWlin140:
0000085c 20362400       2195 	movea	36,zero,r6
                        2196 	jarl	_FblDiagSetError,lp

                                                                      Page 41
                                                              C:\Users\nhuliyap\AppData\Local\Temp\gh_000099c1.s
                        2196 <EXPANSION BEGIN>
                        2196 jarl22 _FblDiagSetError , lp 
00000860 80ff0000*      2196 <EXPANSION END>
                        2197 --line1613
                        2198 ..lin.C.3A.5C_ECU2.5CECU_Rivian_A1.5CTarget.5Crepo_projects.5CpFOTA.5CcL_LATEST.5Cmake.5Cobj.5Cfbl_diag_oem.141::
                        2199 .LDWlin141:
00000864 01ea           2200 	mov	1,r29
00000866 c54d*          2201 	br	.L4007
                        2202 .L3995:
                        2203 --line1616
                        2204 ..lin.C.3A.5C_ECU2.5CECU_Rivian_A1.5CTarget.5Crepo_projects.5CpFOTA.5CcL_LATEST.5Cmake.5Cobj.5Cfbl_diag_oem.142::
                        2205 .LDWlin142:
00000868 0132           2206 	mov	1,r6
                        2207 	jarl	_DiagExRCRResponsePending,lp
                        2207 <EXPANSION BEGIN>
                        2207 jarl22 _DiagExRCRResponsePending , lp 
0000086a 80ff0000*      2207 <EXPANSION END>
                        2208 --line1618
                        2209 ..lin.C.3A.5C_ECU2.5CECU_Rivian_A1.5CTarget.5Crepo_projects.5CpFOTA.5CcL_LATEST.5Cmake.5Cobj.5Cfbl_diag_oem.143::
                        2210 .LDWlin143:
0000086e 2b0600000000*  2211 	mov	sdaoff23(_fblDiagStates+2),r11
00000874 cb970000       2212 	clr1	2,0[r11]
                        2213 	jarl	_ApplFblSecurityKey,lp
                        2213 <EXPANSION BEGIN>
                        2213 jarl22 _ApplFblSecurityKey , lp 
00000878 80ff0000*      2213 <EXPANSION END>
0000087c e051           2214 	cmp	zero,r10
0000087e 8a1d*          2215 	bne	.L3999
                        2216 --line1622
                        2217 ..lin.C.3A.5C_ECU2.5CECU_Rivian_A1.5CTarget.5Crepo_projects.5CpFOTA.5CcL_LATEST.5Cmake.5Cobj.5Cfbl_diag_oem.144::
                        2218 .LDWlin144:
00000880 2b0600000000*  2219 	mov	sdaoff23(_fblDiagStates+2),r11
00000886 cb1f0000       2220 	set1	3,0[r11]
0000088a 0ae8           2221 	mov	r10,r29
0000088c 84070d000000*  2222 	st.b	zero,sdaoff23(_secSendKeyInvalid)[gp]
00000892 0132           2223 	mov	1,r6
00000894 203eff00       2224 	movea	255,zero,r7
                        2225 	jarl	_ApplFblRWSecurityAccessDelayFlag,lp
                        2225 <EXPANSION BEGIN>
                        2225 jarl22 _ApplFblRWSecurityAccessDelayFlag , lp 
00000898 80ff0000*      2225 <EXPANSION END>
                        2226 --line1629
                        2227 ..lin.C.3A.5C_ECU2.5CECU_Rivian_A1.5CTarget.5Crepo_projects.5CpFOTA.5CcL_LATEST.5Cmake.5Cobj.5Cfbl_diag_oem.145::
                        2228 .LDWlin145:
0000089c 260600000000*  2229 	mov	sdaoff23(_secSendKeyInvalid),r6
                        2230 	jarl	_ApplFblWriteSecAccessInvalidCount,lp
                        2230 <EXPANSION BEGIN>
                        2230 jarl22 _ApplFblWriteSecAccessInvalidCount , lp 
000008a2 80ff0000*      2230 <EXPANSION END>
                        2231 --line1664
                        2232 ..lin.C.3A.5C_ECU2.5CECU_Rivian_A1.5CTarget.5Crepo_projects.5CpFOTA.5CcL_LATEST.5Cmake.5Cobj.5Cfbl_diag_oem.146::
                        2233 .LDWlin146:
000008a6 0132           2234 	mov	1,r6
                        2235 	jarl	_DiagProcessingDone,lp
                        2235 <EXPANSION BEGIN>
                        2235 jarl22 _DiagProcessingDone , lp 
000008a8 80ff0000*      2235 <EXPANSION END>
000008ac 952d*          2236 	br	.L4007
                        2237 .L3999:
                        2238 --line1637
                        2239 ..lin.C.3A.5C_ECU2.5CECU_Rivian_A1.5CTarget.5Crepo_projects.5CpFOTA.5CcL_LATEST.5Cmake.5Cobj.5Cfbl_diag_oem.147::

                                                                      Page 42
                                                              C:\Users\nhuliyap\AppData\Local\Temp\gh_000099c1.s
                        2240 .LDWlin147:
000008ae 3c0600000000*  2241 	mov	sdaoff23(_secSendKeyInvalid),r28
000008b4 01ea           2242 	mov	1,r29
000008b6 1c30           2243 	mov	r28,r6
                        2244 	jarl	_ApplFblReadSecAccessInvalidCount,lp
                        2244 <EXPANSION BEGIN>
                        2244 jarl22 _ApplFblReadSecAccessInvalidCount , lp 
000008b8 80ff0000*      2244 <EXPANSION END>
000008bc e051           2245 	cmp	zero,r10
000008be d205*          2246 	be	.L4002
                        2247 --line1639
                        2248 ..lin.C.3A.5C_ECU2.5CECU_Rivian_A1.5CTarget.5Crepo_projects.5CpFOTA.5CcL_LATEST.5Cmake.5Cobj.5Cfbl_diag_oem.148::
                        2249 .LDWlin148:
000008c0 024a           2250 	mov	2,r9
000008c2 84070d480000*  2251 	st.b	r9,sdaoff23(_secSendKeyInvalid)[gp]
                        2252 .L4002:
000008c8 1cf0           2253 	mov	r28,ep
000008ca 6090           2254 	sld.bu	0[ep],r18
000008cc 4192           2255 	add	1,r18
000008ce 8093           2256 	sst.b	r18,0[ep]
000008d0 9200           2257 	zxb	r18
000008d2 6392           2258 	cmp	3,r18
000008d4 e10d*          2259 	bl	.L4004
                        2260 --line1646
                        2261 ..lin.C.3A.5C_ECU2.5CECU_Rivian_A1.5CTarget.5Crepo_projects.5CpFOTA.5CcL_LATEST.5Cmake.5Cobj.5Cfbl_diag_oem.149::
                        2262 .LDWlin149:
000008d6 84070f000000*  2263 	st.w	zero,sdaoff23(_secSecurityAccessDelay)[gp]
000008dc 1d30           2264 	mov	r29,r6
000008de 203ea700       2265 	movea	167,zero,r7
                        2266 	jarl	_ApplFblRWSecurityAccessDelayFlag,lp
                        2266 <EXPANSION BEGIN>
                        2266 jarl22 _ApplFblRWSecurityAccessDelayFlag , lp 
000008e2 80ff0000*      2266 <EXPANSION END>
                        2267 --line1649
                        2268 ..lin.C.3A.5C_ECU2.5CECU_Rivian_A1.5CTarget.5Crepo_projects.5CpFOTA.5CcL_LATEST.5Cmake.5Cobj.5Cfbl_diag_oem.150::
                        2269 .LDWlin150:
000008e6 20363600       2270 	movea	54,zero,r6
                        2271 	jarl	_FblDiagSetError,lp
                        2271 <EXPANSION BEGIN>
                        2271 jarl22 _FblDiagSetError , lp 
000008ea 80ff0000*      2271 <EXPANSION END>
000008ee 850d*          2272 	br	.L4007
                        2273 .L4004:
                        2274 --line1653
                        2275 ..lin.C.3A.5C_ECU2.5CECU_Rivian_A1.5CTarget.5Crepo_projects.5CpFOTA.5CcL_LATEST.5Cmake.5Cobj.5Cfbl_diag_oem.151::
                        2276 .LDWlin151:
000008f0 1c30           2277 	mov	r28,r6
                        2278 	jarl	_ApplFblWriteSecAccessInvalidCount,lp
                        2278 <EXPANSION BEGIN>
                        2278 jarl22 _ApplFblWriteSecAccessInvalidCount , lp 
000008f2 80ff0000*      2278 <EXPANSION END>
                        2279 --line1655
                        2280 ..lin.C.3A.5C_ECU2.5CECU_Rivian_A1.5CTarget.5Crepo_projects.5CpFOTA.5CcL_LATEST.5Cmake.5Cobj.5Cfbl_diag_oem.152::
                        2281 .LDWlin152:
000008f6 20363500       2282 	movea	53,zero,r6
                        2283 	jarl	_FblDiagSetError,lp
                        2283 <EXPANSION BEGIN>
                        2283 jarl22 _FblDiagSetError , lp 
000008fa 80ff0000*      2283 <EXPANSION END>
                        2284 .L4007:
                        2285 --line1667

                                                                      Page 43
                                                              C:\Users\nhuliyap\AppData\Local\Temp\gh_000099c1.s
                        2286 ..lin.C.3A.5C_ECU2.5CECU_Rivian_A1.5CTarget.5Crepo_projects.5CpFOTA.5CcL_LATEST.5Cmake.5Cobj.5Cfbl_diag_oem.153::
                        2287 .LDWlin153:
000008fe 1d50           2288 	mov	r29,r10
                        2289 --	    .ef
                        2290 .LDW76:
00000900 4006ff00       2291 	dispose	0,{r28,r29,r31},[lp]
                        2292 	.type	_FblDiagSecAccessKeyMainHandler,@function
                        2293 	.size	_FblDiagSecAccessKeyMainHandler,.-_FblDiagSecAccessKeyMainHandler
                        2294 	.type	_FblDiagSecAccessKeyMainHandler..C.3A.5C_ECU2.5CECU_Rivian_A1.5CTarget.5Crepo_projects.5CpFOTA.5CcL_LATEST.5Cmake.5Cobj.5Cfbl_diag_oem.,@function
                        2295 	.size	_FblDiagSecAccessKeyMainHandler..C.3A.5C_ECU2.5CECU_Rivian_A1.5CTarget.5Crepo_projects.5CpFOTA.5CcL_LATEST.5Cmake.5Cobj.5Cfbl_diag_oem.,.-_FblDiagSecAccessKeyMainHandler..C.3A.5C_ECU2.5CECU_Rivian_A1.5CTarget.5Crepo_projects.5CpFOTA.5CcL_LATEST.5Cmake.5Cobj.5Cfbl_diag_oem.
                        2296 	.align	2
                        2297 .LDW86:
                        2298 --_result	r29	local
                        2299 
                        2300 --_pbDiagData	none	param
                        2301 --_diagReqDataLen	none	param
                        2302 
                        2303 	.section ".bss","awb"
                        2304 .L4147:
                        2305 	.type	.L4147,@object
                        2306 	.size	.L4147,0
                        2307 	.data
                        2308 	.text
                        2309 	.align	2
                        2310 	.align	2
                        2311 ..gh.f.f.1.e.19:
                        2312 	.type	..gh.f.f.1.e.19,@object
                        2313 	.size	..gh.f.f.1.e.19,0
                        2314 	.global	_FblDiagCommCtrlMainHandler..C.3A.5C_ECU2.5CECU_Rivian_A1.5CTarget.5Crepo_projects.5CpFOTA.5CcL_LATEST.5Cmake.5Cobj.5Cfbl_diag_oem.
                        2315 _FblDiagCommCtrlMainHandler..C.3A.5C_ECU2.5CECU_Rivian_A1.5CTarget.5Crepo_projects.5CpFOTA.5CcL_LATEST.5Cmake.5Cobj.5Cfbl_diag_oem.:
                        2316 _FblDiagCommCtrlMainHandler:
00000904 80072100       2317 	prepare	{r31},0
00000908 06f0           2318 	mov	r6,ep
                        2319 --	    .bf
                        2320 .LDW96:
0000090a 6148           2321 	sld.bu	1[ep],r9
0000090c 614a           2322 	cmp	1,r9
0000090e 820d*          2323 	be	.L4260
                        2324 --line1679
                        2325 ..lin.C.3A.5C_ECU2.5CECU_Rivian_A1.5CTarget.5Crepo_projects.5CpFOTA.5CcL_LATEST.5Cmake.5Cobj.5Cfbl_diag_oem.154::
                        2326 .LDWlin154:
00000910 20363100       2327 	movea	49,zero,r6
                        2328 	jarl	_FblDiagSetError,lp
                        2328 <EXPANSION BEGIN>
                        2328 jarl22 _FblDiagSetError , lp 
00000914 80ff0000*      2328 <EXPANSION END>
                        2329 --line1680
                        2330 ..lin.C.3A.5C_ECU2.5CECU_Rivian_A1.5CTarget.5Crepo_projects.5CpFOTA.5CcL_LATEST.5Cmake.5Cobj.5Cfbl_diag_oem.155::
                        2331 .LDWlin155:
00000918 0152           2332 	mov	1,r10
0000091a 40063f00       2333 	dispose	0,{r31},[lp]
                        2334 .L4260:
                        2335 --line1683
                        2336 ..lin.C.3A.5C_ECU2.5CECU_Rivian_A1.5CTarget.5Crepo_projects.5CpFOTA.5CcL_LATEST.5Cmake.5Cobj.5Cfbl_diag_oem.156::
                        2337 .LDWlin156:
0000091e 0930           2338 	mov	r9,r6
                        2339 	jarl	_DiagProcessingDone,lp
                        2339 <EXPANSION BEGIN>
                        2339 jarl22 _DiagProcessingDone , lp 
00000920 80ff0000*      2339 <EXPANSION END>
                        2340 --line1684

                                                                      Page 44
                                                              C:\Users\nhuliyap\AppData\Local\Temp\gh_000099c1.s
                        2341 ..lin.C.3A.5C_ECU2.5CECU_Rivian_A1.5CTarget.5Crepo_projects.5CpFOTA.5CcL_LATEST.5Cmake.5Cobj.5Cfbl_diag_oem.157::
                        2342 .LDWlin157:
00000924 0052           2343 	mov	0,r10
                        2344 --	    .ef
                        2345 .LDW07:
00000926 40063f00       2346 	dispose	0,{r31},[lp]
                        2347 	.type	_FblDiagCommCtrlMainHandler,@function
                        2348 	.size	_FblDiagCommCtrlMainHandler,.-_FblDiagCommCtrlMainHandler
                        2349 	.type	_FblDiagCommCtrlMainHandler..C.3A.5C_ECU2.5CECU_Rivian_A1.5CTarget.5Crepo_projects.5CpFOTA.5CcL_LATEST.5Cmake.5Cobj.5Cfbl_diag_oem.,@function
                        2350 	.size	_FblDiagCommCtrlMainHandler..C.3A.5C_ECU2.5CECU_Rivian_A1.5CTarget.5Crepo_projects.5CpFOTA.5CcL_LATEST.5Cmake.5Cobj.5Cfbl_diag_oem.,.-_FblDiagCommCtrlMainHandler..C.3A.5C_ECU2.5CECU_Rivian_A1.5CTarget.5Crepo_projects.5CpFOTA.5CcL_LATEST.5Cmake.5Cobj.5Cfbl_diag_oem.
                        2351 	.align	2
                        2352 .LDW17:
                        2353 --_result	r10	local
                        2354 
                        2355 --_pbDiagData	ep	param
                        2356 --_diagReqDataLen	none	param
                        2357 
                        2358 	.section ".bss","awb"
                        2359 .L4310:
                        2360 	.type	.L4310,@object
                        2361 	.size	.L4310,0
                        2362 	.data
                        2363 	.text
                        2364 	.align	2
                        2365 	.align	2
                        2366 ..gh.f.f.1.e.20:
                        2367 	.type	..gh.f.f.1.e.20,@object
                        2368 	.size	..gh.f.f.1.e.20,0
                        2369 	.global	_FblDiagDataByIdLengthCheck..C.3A.5C_ECU2.5CECU_Rivian_A1.5CTarget.5Crepo_projects.5CpFOTA.5CcL_LATEST.5Cmake.5Cobj.5Cfbl_diag_oem.
                        2370 _FblDiagDataByIdLengthCheck..C.3A.5C_ECU2.5CECU_Rivian_A1.5CTarget.5Crepo_projects.5CpFOTA.5CcL_LATEST.5Cmake.5Cobj.5Cfbl_diag_oem.:
                        2371 _FblDiagDataByIdLengthCheck:
                        2372 --	    .bf
                        2373 .LDW27:
0000092a 0052           2374 	mov	0,r10
                        2375 --	    .ef
                        2376 .LDW37:
0000092c 7f00           2377 	jmp	[lp]
                        2378 	.type	_FblDiagDataByIdLengthCheck,@function
                        2379 	.size	_FblDiagDataByIdLengthCheck,.-_FblDiagDataByIdLengthCheck
                        2380 	.type	_FblDiagDataByIdLengthCheck..C.3A.5C_ECU2.5CECU_Rivian_A1.5CTarget.5Crepo_projects.5CpFOTA.5CcL_LATEST.5Cmake.5Cobj.5Cfbl_diag_oem.,@function
                        2381 	.size	_FblDiagDataByIdLengthCheck..C.3A.5C_ECU2.5CECU_Rivian_A1.5CTarget.5Crepo_projects.5CpFOTA.5CcL_LATEST.5Cmake.5Cobj.5Cfbl_diag_oem.,.-_FblDiagDataByIdLengthCheck..C.3A.5C_ECU2.5CECU_Rivian_A1.5CTarget.5Crepo_projects.5CpFOTA.5CcL_LATEST.5Cmake.5Cobj.5Cfbl_diag_oem.
                        2382 	.align	2
                        2383 .LDW47:
                        2384 
                        2385 --_pbDiagData	none	param
                        2386 --_diagReqDataLen	none	param
                        2387 
                        2388 	.section ".bss","awb"
                        2389 .L4385:
                        2390 	.type	.L4385,@object
                        2391 	.size	.L4385,0
                        2392 	.data
                        2393 	.text
                        2394 	.align	2
                        2395 	.align	2
                        2396 ..gh.f.f.1.e.21:
                        2397 	.type	..gh.f.f.1.e.21,@object
                        2398 	.size	..gh.f.f.1.e.21,0
                        2399 	.global	_FblDiagWriteDataByIdMainHandler..C.3A.5C_ECU2.5CECU_Rivian_A1.5CTarget.5Crepo_projects.5CpFOTA.5CcL_LATEST.5Cmake.5Cobj.5Cfbl_diag_oem.
                        2400 _FblDiagWriteDataByIdMainHandler..C.3A.5C_ECU2.5CECU_Rivian_A1.5CTarget.5Crepo_projects.5CpFOTA.5CcL_LATEST.5Cmake.5Cobj.5Cfbl_diag_oem.:
                        2401 _FblDiagWriteDataByIdMainHandler:

                                                                      Page 45
                                                              C:\Users\nhuliyap\AppData\Local\Temp\gh_000099c1.s
0000092e 80072100       2402 	prepare	{r31},0
                        2403 --	    .bf
                        2404 .LDW57:
00000932 20363100       2405 	movea	49,zero,r6
                        2406 	jarl	_FblDiagSetError,lp
                        2406 <EXPANSION BEGIN>
                        2406 jarl22 _FblDiagSetError , lp 
00000936 80ff0000*      2406 <EXPANSION END>
                        2407 --line1706
                        2408 ..lin.C.3A.5C_ECU2.5CECU_Rivian_A1.5CTarget.5Crepo_projects.5CpFOTA.5CcL_LATEST.5Cmake.5Cobj.5Cfbl_diag_oem.158::
                        2409 .LDWlin158:
0000093a 0152           2410 	mov	1,r10
                        2411 --	    .ef
                        2412 .LDW67:
0000093c 40063f00       2413 	dispose	0,{r31},[lp]
                        2414 	.type	_FblDiagWriteDataByIdMainHandler,@function
                        2415 	.size	_FblDiagWriteDataByIdMainHandler,.-_FblDiagWriteDataByIdMainHandler
                        2416 	.type	_FblDiagWriteDataByIdMainHandler..C.3A.5C_ECU2.5CECU_Rivian_A1.5CTarget.5Crepo_projects.5CpFOTA.5CcL_LATEST.5Cmake.5Cobj.5Cfbl_diag_oem.,@function
                        2417 	.size	_FblDiagWriteDataByIdMainHandler..C.3A.5C_ECU2.5CECU_Rivian_A1.5CTarget.5Crepo_projects.5CpFOTA.5CcL_LATEST.5Cmake.5Cobj.5Cfbl_diag_oem.,.-_FblDiagWriteDataByIdMainHandler..C.3A.5C_ECU2.5CECU_Rivian_A1.5CTarget.5Crepo_projects.5CpFOTA.5CcL_LATEST.5Cmake.5Cobj.5Cfbl_diag_oem.
                        2418 	.align	2
                        2419 .LDW77:
                        2420 
                        2421 --_pbDiagData	none	param
                        2422 --_diagReqDataLen	none	param
                        2423 
                        2424 	.section ".bss","awb"
                        2425 .L4433:
                        2426 	.type	.L4433,@object
                        2427 	.size	.L4433,0
                        2428 	.data
                        2429 	.text
                        2430 	.align	2
                        2431 	.align	2
                        2432 ..gh.f.f.1.e.22:
                        2433 	.type	..gh.f.f.1.e.22,@object
                        2434 	.size	..gh.f.f.1.e.22,0
                        2435 	.global	_FblDiagRCStartEraseLengthCheck..C.3A.5C_ECU2.5CECU_Rivian_A1.5CTarget.5Crepo_projects.5CpFOTA.5CcL_LATEST.5Cmake.5Cobj.5Cfbl_diag_oem.
                        2436 _FblDiagRCStartEraseLengthCheck..C.3A.5C_ECU2.5CECU_Rivian_A1.5CTarget.5Crepo_projects.5CpFOTA.5CcL_LATEST.5Cmake.5Cobj.5Cfbl_diag_oem.:
                        2437 _FblDiagRCStartEraseLengthCheck:
                        2438 --	    .bf
                        2439 .LDW87:
00000940 0052           2440 	mov	0,r10
                        2441 --	    .ef
                        2442 .LDW97:
00000942 7f00           2443 	jmp	[lp]
                        2444 	.type	_FblDiagRCStartEraseLengthCheck,@function
                        2445 	.size	_FblDiagRCStartEraseLengthCheck,.-_FblDiagRCStartEraseLengthCheck
                        2446 	.type	_FblDiagRCStartEraseLengthCheck..C.3A.5C_ECU2.5CECU_Rivian_A1.5CTarget.5Crepo_projects.5CpFOTA.5CcL_LATEST.5Cmake.5Cobj.5Cfbl_diag_oem.,@function
                        2447 	.size	_FblDiagRCStartEraseLengthCheck..C.3A.5C_ECU2.5CECU_Rivian_A1.5CTarget.5Crepo_projects.5CpFOTA.5CcL_LATEST.5Cmake.5Cobj.5Cfbl_diag_oem.,.-_FblDiagRCStartEraseLengthCheck..C.3A.5C_ECU2.5CECU_Rivian_A1.5CTarget.5Crepo_projects.5CpFOTA.5CcL_LATEST.5Cmake.5Cobj.5Cfbl_diag_oem.
                        2448 	.align	2
                        2449 .LDW08:
                        2450 
                        2451 --_pbDiagData	none	param
                        2452 --_diagReqDataLen	none	param
                        2453 
                        2454 	.section ".bss","awb"
                        2455 .L4481:
                        2456 	.type	.L4481,@object
                        2457 	.size	.L4481,0
                        2458 	.data
                        2459 	.text

                                                                      Page 46
                                                              C:\Users\nhuliyap\AppData\Local\Temp\gh_000099c1.s
                        2460 	.align	2
                        2461 	.align	2
                        2462 ..gh.f.f.1.e.23:
                        2463 	.type	..gh.f.f.1.e.23,@object
                        2464 	.size	..gh.f.f.1.e.23,0
                        2465 	.global	_FblDiagRCStartEraseMainHandler..C.3A.5C_ECU2.5CECU_Rivian_A1.5CTarget.5Crepo_projects.5CpFOTA.5CcL_LATEST.5Cmake.5Cobj.5Cfbl_diag_oem.
                        2466 _FblDiagRCStartEraseMainHandler..C.3A.5C_ECU2.5CECU_Rivian_A1.5CTarget.5Crepo_projects.5CpFOTA.5CcL_LATEST.5Cmake.5Cobj.5Cfbl_diag_oem.:
                        2467 _FblDiagRCStartEraseMainHandler:
00000944 8e07e110       2468 	prepare	{r27,r28,r29,r31},7
00000948 06d8           2469 	mov	r6,r27
                        2470 --	    .bf
                        2471 .LDW18:
0000094a 8700           2472 	zxb	r7
0000094c 23461400       2473 	movea	20,sp,r8
00000950 234e1800       2474 	movea	24,sp,r9
                        2475 	jarl	_FblDiagCheckErasePreconditionsCustom,lp
                        2475 <EXPANSION BEGIN>
                        2475 jarl22 _FblDiagCheckErasePreconditionsCustom , lp 
00000954 bfff74f8*      2475 <EXPANSION END>
00000958 0ae8           2476 	mov	r10,r29
                        2477 --line1730
                        2478 ..lin.C.3A.5C_ECU2.5CECU_Rivian_A1.5CTarget.5Crepo_projects.5CpFOTA.5CcL_LATEST.5Cmake.5Cobj.5Cfbl_diag_oem.159::
                        2479 .LDWlin159:
0000095a e051           2480 	cmp	zero,r10
0000095c 9a75*          2481 	bne	.L4516
                        2482 --line1731
                        2483 ..lin.C.3A.5C_ECU2.5CECU_Rivian_A1.5CTarget.5Crepo_projects.5CpFOTA.5CcL_LATEST.5Cmake.5Cobj.5Cfbl_diag_oem.160::
                        2484 .LDWlin160:
0000095e 03f0           2485 	mov	sp,ep
00000960 0a35           2486 	sld.w	20[ep],r6
00000962 0c3d           2487 	sld.w	24[ep],r7
00000964 280600000000*  2488 	mov	sdaoff23(_downloadBlockDescriptor),r8
                        2489 	jarl	_FblLbtGetBlockNrByAddressLength,lp
                        2489 <EXPANSION BEGIN>
                        2489 jarl22 _FblLbtGetBlockNrByAddressLength , lp 
0000096a 80ff0000*      2489 <EXPANSION END>
0000096e e051           2490 	cmp	zero,r10
00000970 c20d*          2491 	be	.L4503
                        2492 --line1733
                        2493 ..lin.C.3A.5C_ECU2.5CECU_Rivian_A1.5CTarget.5Crepo_projects.5CpFOTA.5CcL_LATEST.5Cmake.5Cobj.5Cfbl_diag_oem.161::
                        2494 .LDWlin161:
00000972 204e4200       2495 	movea	66,zero,r9
00000976 a4070d480000*  2496 	st.h	r9,sdaoff23(_errStatErrorCode)[gp]
0000097c 20363100       2497 	movea	49,zero,r6
                        2498 	jarl	_FblDiagSetError,lp
                        2498 <EXPANSION BEGIN>
                        2498 jarl22 _FblDiagSetError , lp 
00000980 80ff0000*      2498 <EXPANSION END>
                        2499 --line1735
                        2500 ..lin.C.3A.5C_ECU2.5CECU_Rivian_A1.5CTarget.5Crepo_projects.5CpFOTA.5CcL_LATEST.5Cmake.5Cobj.5Cfbl_diag_oem.162::
                        2501 .LDWlin162:
00000984 01ea           2502 	mov	1,r29
00000986 c55d*          2503 	br	.L4516
                        2504 .L4503:
                        2505 --line1739
                        2506 ..lin.C.3A.5C_ECU2.5CECU_Rivian_A1.5CTarget.5Crepo_projects.5CpFOTA.5CcL_LATEST.5Cmake.5Cobj.5Cfbl_diag_oem.163::
                        2507 .LDWlin163:
00000988 a40705400000*  2508 	ld.bu	sdaoff23(_downloadBlockDescriptor)[gp],r8
0000098e 0132           2509 	mov	1,r6
00000990 84070d400000*  2510 	st.b	r8,sdaoff23(_errStatDescriptor)[gp]
                        2511 	jarl	_DiagExRCRResponsePending,lp

                                                                      Page 47
                                                              C:\Users\nhuliyap\AppData\Local\Temp\gh_000099c1.s
                        2511 <EXPANSION BEGIN>
                        2511 jarl22 _DiagExRCRResponsePending , lp 
00000996 80ff0000*      2511 <EXPANSION END>
                        2512 --line1746
                        2513 ..lin.C.3A.5C_ECU2.5CECU_Rivian_A1.5CTarget.5Crepo_projects.5CpFOTA.5CcL_LATEST.5Cmake.5Cobj.5Cfbl_diag_oem.164::
                        2514 .LDWlin164:
0000099a 3c0600000000*  2515 	mov	sdaoff23(_downloadBlockDescriptor),r28
000009a0 1c30           2516 	mov	r28,r6
                        2517 	jarl	_FblDiagCheckProgAttemptCounter,lp
                        2517 <EXPANSION BEGIN>
                        2517 jarl22 _FblDiagCheckProgAttemptCounter , lp 
000009a2 bfff96f8*      2517 <EXPANSION END>
000009a6 0ae8           2518 	mov	r10,r29
                        2519 --line1749
                        2520 ..lin.C.3A.5C_ECU2.5CECU_Rivian_A1.5CTarget.5Crepo_projects.5CpFOTA.5CcL_LATEST.5Cmake.5Cobj.5Cfbl_diag_oem.165::
                        2521 .LDWlin165:
000009a8 e051           2522 	cmp	zero,r10
000009aa aa4d*          2523 	bne	.L4516
                        2524 --line1750
                        2525 ..lin.C.3A.5C_ECU2.5CECU_Rivian_A1.5CTarget.5Crepo_projects.5CpFOTA.5CcL_LATEST.5Cmake.5Cobj.5Cfbl_diag_oem.166::
                        2526 .LDWlin166:
                        2527 	jarl	_FblRealTimeSupport,lp
                        2527 <EXPANSION BEGIN>
                        2527 jarl22 _FblRealTimeSupport , lp 
000009ac 80ff0000*      2527 <EXPANSION END>
                        2528 --line1752
                        2529 ..lin.C.3A.5C_ECU2.5CECU_Rivian_A1.5CTarget.5Crepo_projects.5CpFOTA.5CcL_LATEST.5Cmake.5Cobj.5Cfbl_diag_oem.167::
                        2530 .LDWlin167:
000009b0 bc0709300000   2531 	ld.dw	0[r28],r6
000009b6 bc0789400000   2532 	ld.dw	8[r28],r8
000009bc 3e0600000000*  2533 	mov	sdaoff23(_downloadBlockDescriptor+16),ep
000009c2 be0709800000   2534 	ld.dw	0[ep],r16
000009c8 be0789700000   2535 	ld.dw	8[ep],r14
000009ce 086d           2536 	sld.w	16[ep],r13
000009d0 a3070f800000   2537 	st.dw	r16,0[sp]
000009d6 a3078f700000   2538 	st.dw	r14,8[sp]
000009dc 636f1100       2539 	st.w	r13,16[sp]
                        2540 	jarl	_ApplFblInvalidateBlock,lp
                        2540 <EXPANSION BEGIN>
                        2540 jarl22 _ApplFblInvalidateBlock , lp 
000009e0 80ff0000*      2540 <EXPANSION END>
000009e4 e051           2541 	cmp	zero,r10
000009e6 da1d*          2542 	bne	.L4515
                        2543 --line1760
                        2544 ..lin.C.3A.5C_ECU2.5CECU_Rivian_A1.5CTarget.5Crepo_projects.5CpFOTA.5CcL_LATEST.5Cmake.5Cobj.5Cfbl_diag_oem.168::
                        2545 .LDWlin168:
000009e8 bc0709300000   2546 	ld.dw	0[r28],r6
000009ee bc0789400000   2547 	ld.dw	8[r28],r8
000009f4 3e0600000000*  2548 	mov	sdaoff23(_downloadBlockDescriptor+16),ep
000009fa be0709900000   2549 	ld.dw	0[ep],r18
00000a00 be0789700000   2550 	ld.dw	8[ep],r14
00000a06 086d           2551 	sld.w	16[ep],r13
00000a08 a3070f900000   2552 	st.dw	r18,0[sp]
00000a0e a3078f700000   2553 	st.dw	r14,8[sp]
00000a14 636f1100       2554 	st.w	r13,16[sp]
                        2555 	jarl	_ApplFblIncProgAttempts,lp
                        2555 <EXPANSION BEGIN>
                        2555 jarl22 _ApplFblIncProgAttempts , lp 
00000a18 80ff0000*      2555 <EXPANSION END>
00000a1c e051           2556 	cmp	zero,r10
00000a1e f205*          2557 	be	.L4517

                                                                      Page 48
                                                              C:\Users\nhuliyap\AppData\Local\Temp\gh_000099c1.s
                        2558 .L4515:
                        2559 --line1762
                        2560 ..lin.C.3A.5C_ECU2.5CECU_Rivian_A1.5CTarget.5Crepo_projects.5CpFOTA.5CcL_LATEST.5Cmake.5Cobj.5Cfbl_diag_oem.169::
                        2561 .LDWlin169:
00000a20 20362200       2562 	movea	34,zero,r6
                        2563 	jarl	_FblDiagSetError,lp
                        2563 <EXPANSION BEGIN>
                        2563 jarl22 _FblDiagSetError , lp 
00000a24 80ff0000*      2563 <EXPANSION END>
                        2564 --line1763
                        2565 ..lin.C.3A.5C_ECU2.5CECU_Rivian_A1.5CTarget.5Crepo_projects.5CpFOTA.5CcL_LATEST.5Cmake.5Cobj.5Cfbl_diag_oem.170::
                        2566 .LDWlin170:
00000a28 01ea           2567 	mov	1,r29
00000a2a a50d*          2568 	br	.L4516
                        2569 .L4517:
                        2570 --line1768
                        2571 ..lin.C.3A.5C_ECU2.5CECU_Rivian_A1.5CTarget.5Crepo_projects.5CpFOTA.5CcL_LATEST.5Cmake.5Cobj.5Cfbl_diag_oem.171::
                        2572 .LDWlin171:
00000a2c 1c30           2573 	mov	r28,r6
                        2574 	jarl	_FblDiagEraseBlock,lp
                        2574 <EXPANSION BEGIN>
                        2574 jarl22 _FblDiagEraseBlock , lp 
00000a2e bfff88f6*      2574 <EXPANSION END>
                        2575 --line1769
                        2576 ..lin.C.3A.5C_ECU2.5CECU_Rivian_A1.5CTarget.5Crepo_projects.5CpFOTA.5CcL_LATEST.5Cmake.5Cobj.5Cfbl_diag_oem.172::
                        2577 .LDWlin172:
00000a32 e051           2578 	cmp	zero,r10
00000a34 ea4f0000       2579 	setfne	r9
00000a38 0ae8           2580 	mov	r10,r29
00000a3a 5b4f0300       2581 	st.b	r9,3[r27]
                        2582 .L4516:
00000a3e a40705400000*  2583 	ld.bu	sdaoff23(_diagErrorCode)[gp],r8
00000a44 e041           2584 	cmp	zero,r8
00000a46 ca05*          2585 	bne	.L4521
                        2586 --line1780
                        2587 ..lin.C.3A.5C_ECU2.5CECU_Rivian_A1.5CTarget.5Crepo_projects.5CpFOTA.5CcL_LATEST.5Cmake.5Cobj.5Cfbl_diag_oem.173::
                        2588 .LDWlin173:
00000a48 0432           2589 	mov	4,r6
                        2590 	jarl	_DiagProcessingDone,lp
                        2590 <EXPANSION BEGIN>
                        2590 jarl22 _DiagProcessingDone , lp 
00000a4a 80ff0000*      2590 <EXPANSION END>
                        2591 .L4521:
                        2592 --line1783
                        2593 ..lin.C.3A.5C_ECU2.5CECU_Rivian_A1.5CTarget.5Crepo_projects.5CpFOTA.5CcL_LATEST.5Cmake.5Cobj.5Cfbl_diag_oem.174::
                        2594 .LDWlin174:
00000a4e 1d50           2595 	mov	r29,r10
                        2596 --	    .ef
                        2597 .LDW28:
00000a50 4e06ff10       2598 	dispose	7,{r27,r28,r29,r31},[lp]
                        2599 	.type	_FblDiagRCStartEraseMainHandler,@function
                        2600 	.size	_FblDiagRCStartEraseMainHandler,.-_FblDiagRCStartEraseMainHandler
                        2601 	.type	_FblDiagRCStartEraseMainHandler..C.3A.5C_ECU2.5CECU_Rivian_A1.5CTarget.5Crepo_projects.5CpFOTA.5CcL_LATEST.5Cmake.5Cobj.5Cfbl_diag_oem.,@function
                        2602 	.size	_FblDiagRCStartEraseMainHandler..C.3A.5C_ECU2.5CECU_Rivian_A1.5CTarget.5Crepo_projects.5CpFOTA.5CcL_LATEST.5Cmake.5Cobj.5Cfbl_diag_oem.,.-_FblDiagRCStartEraseMainHandler..C.3A.5C_ECU2.5CECU_Rivian_A1.5CTarget.5Crepo_projects.5CpFOTA.5CcL_LATEST.5Cmake.5Cobj.5Cfbl_diag_oem.
                        2603 	.align	2
                        2604 .LDW38:
                        2605 --_memoryAddress	20[sp]	local
                        2606 --_memorySize	24[sp]	local
                        2607 --_result	r29	local
                        2608 
                        2609 --_pbDiagData	r27	param

                                                                      Page 49
                                                              C:\Users\nhuliyap\AppData\Local\Temp\gh_000099c1.s
                        2610 --_diagReqDataLen	r7	param
                        2611 
                        2612 	.section ".bss","awb"
                        2613 .L4700:
                        2614 	.type	.L4700,@object
                        2615 	.size	.L4700,0
                        2616 	.data
                        2617 	.text
                        2618 	.align	2
                        2619 	.align	2
                        2620 ..gh.f.f.1.e.24:
                        2621 	.type	..gh.f.f.1.e.24,@object
                        2622 	.size	..gh.f.f.1.e.24,0
                        2623 	.global	_FblDiagRCStartApplicationHwidCheckMainHandler..C.3A.5C_ECU2.5CECU_Rivian_A1.5CTarget.5Crepo_projects.5CpFOTA.5CcL_LATEST.5Cmake.5Cobj.5Cfbl_diag_oem.
                        2624 _FblDiagRCStartApplicationHwidCheckMainHandler..C.3A.5C_ECU2.5CECU_Rivian_A1.5CTarget.5Crepo_projects.5CpFOTA.5CcL_LATEST.5Cmake.5Cobj.5Cfbl_diag_oem.:
                        2625 _FblDiagRCStartApplicationHwidCheckMainHandler:
00000a54 80076100       2626 	prepare	{r29,r31},0
00000a58 06e8           2627 	mov	r6,r29
                        2628 --	    .bf
                        2629 .LDW48:
                        2630 	jarl	_SUPPLIER1_HwidCheck,lp
                        2630 <EXPANSION BEGIN>
                        2630 jarl22 _SUPPLIER1_HwidCheck , lp 
00000a5a 80ff0000*      2630 <EXPANSION END>
00000a5e e051           2631 	cmp	zero,r10
00000a60 e2970000       2632 	setfe	r18
00000a64 5d970300       2633 	st.b	r18,3[r29]
                        2634 --line1817
                        2635 ..lin.C.3A.5C_ECU2.5CECU_Rivian_A1.5CTarget.5Crepo_projects.5CpFOTA.5CcL_LATEST.5Cmake.5Cobj.5Cfbl_diag_oem.175::
                        2636 .LDWlin175:
00000a68 0432           2637 	mov	4,r6
                        2638 	jarl	_DiagProcessingDone,lp
                        2638 <EXPANSION BEGIN>
                        2638 jarl22 _DiagProcessingDone , lp 
00000a6a 80ff0000*      2638 <EXPANSION END>
                        2639 --line1818
                        2640 ..lin.C.3A.5C_ECU2.5CECU_Rivian_A1.5CTarget.5Crepo_projects.5CpFOTA.5CcL_LATEST.5Cmake.5Cobj.5Cfbl_diag_oem.176::
                        2641 .LDWlin176:
00000a6e 0052           2642 	mov	0,r10
                        2643 --	    .ef
                        2644 .LDW58:
00000a70 40067f00       2645 	dispose	0,{r29,r31},[lp]
                        2646 	.type	_FblDiagRCStartApplicationHwidCheckMainHandler,@function
                        2647 	.size	_FblDiagRCStartApplicationHwidCheckMainHandler,.-_FblDiagRCStartApplicationHwidCheckMainHandler
                        2648 	.type	_FblDiagRCStartApplicationHwidCheckMainHandler..C.3A.5C_ECU2.5CECU_Rivian_A1.5CTarget.5Crepo_projects.5CpFOTA.5CcL_LATEST.5Cmake.5Cobj.5Cfbl_diag_oem.,@function
                        2649 	.size	_FblDiagRCStartApplicationHwidCheckMainHandler..C.3A.5C_ECU2.5CECU_Rivian_A1.5CTarget.5Crepo_projects.5CpFOTA.5CcL_LATEST.5Cmake.5Cobj.5Cfbl_diag_oem.,.-_FblDiagRCStartApplicationHwidCheckMainHandler..C.3A.5C_ECU2.5CECU_Rivian_A1.5CTarget.5Crepo_projects.5CpFOTA.5CcL_LATEST.5Cmake.5Cobj.5Cfbl_diag_oem.
                        2650 	.align	2
                        2651 .LDW68:
                        2652 
                        2653 --_pbDiagData	r29	param
                        2654 --_diagReqDataLen	none	param
                        2655 
                        2656 	.section ".bss","awb"
                        2657 .L4862:
                        2658 	.type	.L4862,@object
                        2659 	.size	.L4862,0
                        2660 	.data
                        2661 	.text
                        2662 	.align	2
                        2663 	.align	2
                        2664 ..gh.f.f.1.e.25:

                                                                      Page 50
                                                              C:\Users\nhuliyap\AppData\Local\Temp\gh_000099c1.s
                        2665 	.type	..gh.f.f.1.e.25,@object
                        2666 	.size	..gh.f.f.1.e.25,0
                        2667 	.global	_FblDiagRCStartCompareAndStoreSignatureMainHandler..C.3A.5C_ECU2.5CECU_Rivian_A1.5CTarget.5Crepo_projects.5CpFOTA.5CcL_LATEST.5Cmake.5Cobj.5Cfbl_diag_oem.
                        2668 _FblDiagRCStartCompareAndStoreSignatureMainHandler..C.3A.5C_ECU2.5CECU_Rivian_A1.5CTarget.5Crepo_projects.5CpFOTA.5CcL_LATEST.5Cmake.5Cobj.5Cfbl_diag_oem.:
                        2669 _FblDiagRCStartCompareAndStoreSignatureMainHandler:
00000a74 8a07e100       2670 	prepare	{r28,r29,r31},5
00000a78 07e0           2671 	mov	r7,r28
00000a7a 06e8           2672 	mov	r6,r29
00000a7c dc00           2673 	zxh	r28
                        2674 --	    .bf
                        2675 .LDW78:
                        2676 	jarl	_FblRealTimeSupport,lp
                        2676 <EXPANSION BEGIN>
                        2676 jarl22 _FblRealTimeSupport , lp 
00000a7e 80ff0000*      2676 <EXPANSION END>
                        2677 --line1823
                        2678 ..lin.C.3A.5C_ECU2.5CECU_Rivian_A1.5CTarget.5Crepo_projects.5CpFOTA.5CcL_LATEST.5Cmake.5Cobj.5Cfbl_diag_oem.177::
                        2679 .LDWlin177:
00000a82 310600000000*  2680 	mov	sdaoff23(_downloadBlockDescriptor),r17
00000a88 b10709300000   2681 	ld.dw	0[r17],r6
00000a8e b10789400000   2682 	ld.dw	8[r17],r8
00000a94 11f61000       2683 	addi	16,r17,ep
00000a98 b10709810000   2684 	ld.dw	16[r17],r16
00000a9e be0789700000   2685 	ld.dw	8[ep],r14
00000aa4 086d           2686 	sld.w	16[ep],r13
00000aa6 a3070f800000   2687 	st.dw	r16,0[sp]
00000aac a3078f700000   2688 	st.dw	r14,8[sp]
00000ab2 636f1100       2689 	st.w	r13,16[sp]
                        2690 	jarl	_ApplFblValidateBlock,lp
                        2690 <EXPANSION BEGIN>
                        2690 jarl22 _ApplFblValidateBlock , lp 
00000ab6 80ff0000*      2690 <EXPANSION END>
                        2691 --line1825
                        2692 ..lin.C.3A.5C_ECU2.5CECU_Rivian_A1.5CTarget.5Crepo_projects.5CpFOTA.5CcL_LATEST.5Cmake.5Cobj.5Cfbl_diag_oem.178::
                        2693 .LDWlin178:
00000aba 1d30           2694 	mov	r29,r6
00000abc 1c38           2695 	mov	r28,r7
                        2696 	jarl	_SUPPLIER1_ApplicationSignatureCheck,lp
                        2696 <EXPANSION BEGIN>
                        2696 jarl22 _SUPPLIER1_ApplicationSignatureCheck , lp 
00000abe 80ff0000*      2696 <EXPANSION END>
00000ac2 6152           2697 	cmp	1,r10
00000ac4 ea670000       2698 	setfne	r12
00000ac8 5d670300       2699 	st.b	r12,3[r29]
                        2700 --line1832
                        2701 ..lin.C.3A.5C_ECU2.5CECU_Rivian_A1.5CTarget.5Crepo_projects.5CpFOTA.5CcL_LATEST.5Cmake.5Cobj.5Cfbl_diag_oem.179::
                        2702 .LDWlin179:
                        2703 	jarl	_SUPPLIER1_ClearWakeupFactorRramCopy,lp
                        2703 <EXPANSION BEGIN>
                        2703 jarl22 _SUPPLIER1_ClearWakeupFactorRramCopy , lp 
00000acc 80ff0000*      2703 <EXPANSION END>
                        2704 --line1833
                        2705 ..lin.C.3A.5C_ECU2.5CECU_Rivian_A1.5CTarget.5Crepo_projects.5CpFOTA.5CcL_LATEST.5Cmake.5Cobj.5Cfbl_diag_oem.180::
                        2706 .LDWlin180:
00000ad0 0432           2707 	mov	4,r6
                        2708 	jarl	_DiagProcessingDone,lp
                        2708 <EXPANSION BEGIN>
                        2708 jarl22 _DiagProcessingDone , lp 
00000ad2 80ff0000*      2708 <EXPANSION END>
                        2709 --line1835
                        2710 ..lin.C.3A.5C_ECU2.5CECU_Rivian_A1.5CTarget.5Crepo_projects.5CpFOTA.5CcL_LATEST.5Cmake.5Cobj.5Cfbl_diag_oem.181::

                                                                      Page 51
                                                              C:\Users\nhuliyap\AppData\Local\Temp\gh_000099c1.s
                        2711 .LDWlin181:
00000ad6 0052           2712 	mov	0,r10
                        2713 --	    .ef
                        2714 .LDW88:
00000ad8 4a06ff00       2715 	dispose	5,{r28,r29,r31},[lp]
                        2716 	.type	_FblDiagRCStartCompareAndStoreSignatureMainHandler,@function
                        2717 	.size	_FblDiagRCStartCompareAndStoreSignatureMainHandler,.-_FblDiagRCStartCompareAndStoreSignatureMainHandler
                        2718 	.type	_FblDiagRCStartCompareAndStoreSignatureMainHandler..C.3A.5C_ECU2.5CECU_Rivian_A1.5CTarget.5Crepo_projects.5CpFOTA.5CcL_LATEST.5Cmake.5Cobj.5Cfbl_diag_oem.,@function
                        2719 	.size	_FblDiagRCStartCompareAndStoreSignatureMainHandler..C.3A.5C_ECU2.5CECU_Rivian_A1.5CTarget.5Crepo_projects.5CpFOTA.5CcL_LATEST.5Cmake.5Cobj.5Cfbl_diag_oem.,.-_FblDiagRCStartCompareAndStoreSignatureMainHandler..C.3A.5C_ECU2.5CECU_Rivian_A1.5CTarget.5Crepo_projects.5CpFOTA.5CcL_LATEST.5Cmake.5Cobj.5Cfbl_diag_oem.
                        2720 	.align	2
                        2721 .LDW98:
                        2722 
                        2723 --_pbDiagData	r29	param
                        2724 --_diagReqDataLen	r28	param
                        2725 
                        2726 	.section ".bss","awb"
                        2727 .L4926:
                        2728 	.type	.L4926,@object
                        2729 	.size	.L4926,0
                        2730 	.data
                        2731 	.text
                        2732 	.align	2
                        2733 	.align	2
                        2734 ..gh.f.f.1.e.26:
                        2735 	.type	..gh.f.f.1.e.26,@object
                        2736 	.size	..gh.f.f.1.e.26,0
                        2737 	.global	_FblDiagRCStartLoadSecurityKeyMainHandler..C.3A.5C_ECU2.5CECU_Rivian_A1.5CTarget.5Crepo_projects.5CpFOTA.5CcL_LATEST.5Cmake.5Cobj.5Cfbl_diag_oem.
                        2738 _FblDiagRCStartLoadSecurityKeyMainHandler..C.3A.5C_ECU2.5CECU_Rivian_A1.5CTarget.5Crepo_projects.5CpFOTA.5CcL_LATEST.5Cmake.5Cobj.5Cfbl_diag_oem.:
                        2739 _FblDiagRCStartLoadSecurityKeyMainHandler:
00000adc 80072100       2740 	prepare	{r31},0
00000ae0 06f0           2741 	mov	r6,ep
                        2742 --	    .bf
                        2743 .LDW09:
00000ae2 8403           2744 	sst.b	zero,4[ep]
00000ae4 a40705900000*  2745 	ld.bu	sdaoff23(_diagErrorCode)[gp],r18
00000aea e091           2746 	cmp	zero,r18
00000aec ca05*          2747 	bne	.L4952
                        2748 --line1859
                        2749 ..lin.C.3A.5C_ECU2.5CECU_Rivian_A1.5CTarget.5Crepo_projects.5CpFOTA.5CcL_LATEST.5Cmake.5Cobj.5Cfbl_diag_oem.182::
                        2750 .LDWlin182:
00000aee 0532           2751 	mov	5,r6
                        2752 	jarl	_DiagProcessingDone,lp
                        2752 <EXPANSION BEGIN>
                        2752 jarl22 _DiagProcessingDone , lp 
00000af0 80ff0000*      2752 <EXPANSION END>
                        2753 .L4952:
                        2754 --line1862
                        2755 ..lin.C.3A.5C_ECU2.5CECU_Rivian_A1.5CTarget.5Crepo_projects.5CpFOTA.5CcL_LATEST.5Cmake.5Cobj.5Cfbl_diag_oem.183::
                        2756 .LDWlin183:
00000af4 0052           2757 	mov	0,r10
                        2758 --	    .ef
                        2759 .LDW19:
00000af6 40063f00       2760 	dispose	0,{r31},[lp]
                        2761 	.type	_FblDiagRCStartLoadSecurityKeyMainHandler,@function
                        2762 	.size	_FblDiagRCStartLoadSecurityKeyMainHandler,.-_FblDiagRCStartLoadSecurityKeyMainHandler
                        2763 	.type	_FblDiagRCStartLoadSecurityKeyMainHandler..C.3A.5C_ECU2.5CECU_Rivian_A1.5CTarget.5Crepo_projects.5CpFOTA.5CcL_LATEST.5Cmake.5Cobj.5Cfbl_diag_oem.,@function
                        2764 	.size	_FblDiagRCStartLoadSecurityKeyMainHandler..C.3A.5C_ECU2.5CECU_Rivian_A1.5CTarget.5Crepo_projects.5CpFOTA.5CcL_LATEST.5Cmake.5Cobj.5Cfbl_diag_oem.,.-_FblDiagRCStartLoadSecurityKeyMainHandler..C.3A.5C_ECU2.5CECU_Rivian_A1.5CTarget.5Crepo_projects.5CpFOTA.5CcL_LATEST.5Cmake.5Cobj.5Cfbl_diag_oem.
                        2765 	.align	2
                        2766 .LDW29:
                        2767 
                        2768 --_pbDiagData	ep	param

                                                                      Page 52
                                                              C:\Users\nhuliyap\AppData\Local\Temp\gh_000099c1.s
                        2769 --_diagReqDataLen	none	param
                        2770 
                        2771 	.section ".bss","awb"
                        2772 .L5002:
                        2773 	.type	.L5002,@object
                        2774 	.size	.L5002,0
                        2775 	.data
                        2776 	.text
                        2777 	.align	2
                        2778 	.align	2
                        2779 ..gh.f.f.1.e.27:
                        2780 	.type	..gh.f.f.1.e.27,@object
                        2781 	.size	..gh.f.f.1.e.27,0
                        2782 	.global	_FblDiagRCStartSecretServiceMainHandler..C.3A.5C_ECU2.5CECU_Rivian_A1.5CTarget.5Crepo_projects.5CpFOTA.5CcL_LATEST.5Cmake.5Cobj.5Cfbl_diag_oem.
                        2783 _FblDiagRCStartSecretServiceMainHandler..C.3A.5C_ECU2.5CECU_Rivian_A1.5CTarget.5Crepo_projects.5CpFOTA.5CcL_LATEST.5Cmake.5Cobj.5Cfbl_diag_oem.:
                        2784 _FblDiagRCStartSecretServiceMainHandler:
00000afa 90077b000000*  2785 	prepare	{r29,r31},8,rosdaoff23(.L5188)
00000b00 0000*
                        2786 --	    .bf
                        2787 .LDW39:
00000b02 be0709900000   2788 	ld.dw	0[ep],r18
00000b08 7488           2789 	sld.hu	8[ep],r17
00000b0a 00ea           2790 	mov	0,r29
00000b0c 23861400       2791 	movea	20,sp,r16
00000b10 a3074f910000   2792 	st.dw	r18,20[sp]
00000b16 638f1c00       2793 	st.h	r17,28[sp]
00000b1a 1d90           2794 	mov	r29,r18
                        2795 .L5045:
00000b1c 12f0           2796 	mov	r18,ep
00000b1e 1288           2797 	mov	r18,r17
00000b20 c6f1           2798 	add	r6,ep
00000b22 d089           2799 	add	r16,r17
00000b24 917f0100       2800 	ld.bu	0[r17],r15
00000b28 6370           2801 	sld.bu	3[ep],r14
00000b2a ef71           2802 	cmp	r15,r14
00000b2c e1ef14eb       2803 	cmovne	1,r29,r29
00000b30 4192           2804 	add	1,r18
00000b32 6a92           2805 	cmp	10,r18
00000b34 c1f5*          2806 	bl	.L5045
                        2807 --line1877
                        2808 ..lin.C.3A.5C_ECU2.5CECU_Rivian_A1.5CTarget.5Crepo_projects.5CpFOTA.5CcL_LATEST.5Cmake.5Cobj.5Cfbl_diag_oem.184::
                        2809 .LDWlin184:
00000b36 e0e9           2810 	cmp	zero,r29
00000b38 1d90           2811 	mov	r29,r18
00000b3a ea15*          2812 	bne	.L5048
                        2813 .L5052:
                        2814 --line1879
                        2815 ..lin.C.3A.5C_ECU2.5CECU_Rivian_A1.5CTarget.5Crepo_projects.5CpFOTA.5CcL_LATEST.5Cmake.5Cobj.5Cfbl_diag_oem.185::
                        2816 .LDWlin185:
00000b3c 12f0           2817 	mov	r18,ep
00000b3e 4192           2818 	add	1,r18
00000b40 c3f1           2819 	add	sp,ep
00000b42 1f62           2820 	mov	-1,r12
00000b44 9200           2821 	zxb	r18
00000b46 8063           2822 	sst.b	r12,0[ep]
00000b48 1206ecff       2823 	addi	-20,r18,zero
00000b4c 89fd*          2824 	bnl	.L5052
                        2825 --line1886
                        2826 ..lin.C.3A.5C_ECU2.5CECU_Rivian_A1.5CTarget.5Crepo_projects.5CpFOTA.5CcL_LATEST.5Cmake.5Cobj.5Cfbl_diag_oem.186::
                        2827 .LDWlin186:
00000b4e 0330           2828 	mov	sp,r6

                                                                      Page 53
                                                              C:\Users\nhuliyap\AppData\Local\Temp\gh_000099c1.s
                        2829 	jarl	_PRODFLASH_PutVin,lp
                        2829 <EXPANSION BEGIN>
                        2829 jarl22 _PRODFLASH_PutVin , lp 
00000b50 80ff0000*      2829 <EXPANSION END>
                        2830 --line1888
                        2831 ..lin.C.3A.5C_ECU2.5CECU_Rivian_A1.5CTarget.5Crepo_projects.5CpFOTA.5CcL_LATEST.5Cmake.5Cobj.5Cfbl_diag_oem.187::
                        2832 .LDWlin187:
00000b54 43070000       2833 	st.b	zero,0[sp]
00000b58 0330           2834 	mov	sp,r6
                        2835 	jarl	_PRODFLASH_PutManufacturingSupportMode,lp
                        2835 <EXPANSION BEGIN>
                        2835 jarl22 _PRODFLASH_PutManufacturingSupportMode , lp 
00000b5a 80ff0000*      2835 <EXPANSION END>
                        2836 --line1890
                        2837 ..lin.C.3A.5C_ECU2.5CECU_Rivian_A1.5CTarget.5Crepo_projects.5CpFOTA.5CcL_LATEST.5Cmake.5Cobj.5Cfbl_diag_oem.188::
                        2838 .LDWlin188:
00000b5e 0332           2839 	mov	3,r6
                        2840 	jarl	_DiagProcessingDone,lp
                        2840 <EXPANSION BEGIN>
                        2840 jarl22 _DiagProcessingDone , lp 
00000b60 80ff0000*      2840 <EXPANSION END>
00000b64 d505*          2841 	br	.L5053
                        2842 .L5048:
                        2843 --line1893
                        2844 ..lin.C.3A.5C_ECU2.5CECU_Rivian_A1.5CTarget.5Crepo_projects.5CpFOTA.5CcL_LATEST.5Cmake.5Cobj.5Cfbl_diag_oem.189::
                        2845 .LDWlin189:
00000b66 20363100       2846 	movea	49,zero,r6
                        2847 	jarl	_FblDiagSetError,lp
                        2847 <EXPANSION BEGIN>
                        2847 jarl22 _FblDiagSetError , lp 
00000b6a 80ff0000*      2847 <EXPANSION END>
                        2848 .L5053:
                        2849 --line1895
                        2850 ..lin.C.3A.5C_ECU2.5CECU_Rivian_A1.5CTarget.5Crepo_projects.5CpFOTA.5CcL_LATEST.5Cmake.5Cobj.5Cfbl_diag_oem.190::
                        2851 .LDWlin190:
00000b6e 1d50           2852 	mov	r29,r10
                        2853 --	    .ef
                        2854 .LDW49:
00000b70 50067f00       2855 	dispose	8,{r29,r31},[lp]
                        2856 	.type	_FblDiagRCStartSecretServiceMainHandler,@function
                        2857 	.size	_FblDiagRCStartSecretServiceMainHandler,.-_FblDiagRCStartSecretServiceMainHandler
                        2858 	.type	_FblDiagRCStartSecretServiceMainHandler..C.3A.5C_ECU2.5CECU_Rivian_A1.5CTarget.5Crepo_projects.5CpFOTA.5CcL_LATEST.5Cmake.5Cobj.5Cfbl_diag_oem.,@function
                        2859 	.size	_FblDiagRCStartSecretServiceMainHandler..C.3A.5C_ECU2.5CECU_Rivian_A1.5CTarget.5Crepo_projects.5CpFOTA.5CcL_LATEST.5Cmake.5Cobj.5Cfbl_diag_oem.,.-_FblDiagRCStartSecretServiceMainHandler..C.3A.5C_ECU2.5CECU_Rivian_A1.5CTarget.5Crepo_projects.5CpFOTA.5CcL_LATEST.5Cmake.5Cobj.5Cfbl_diag_oem.
                        2860 	.align	2
                        2861 .LDW59:
                        2862 --_ucPassword	20[sp]	local
                        2863 --_i	r18	local
                        2864 --_clearMem	0[sp]	local
                        2865 --_result	r29	local
                        2866 --.L5152	rosdaoff23(.L5188)	static
                        2867 
                        2868 --_pbDiagData	r6	param
                        2869 --_diagReqDataLen	none	param
                        2870 
                        2871 	.section ".bss","awb"
                        2872 .L5151:
                        2873 	.type	.L5151,@object
                        2874 	.size	.L5151,0
                        2875 	.section ".rosdata","a"
00000274 4d535050       2876 .L5188:	.byte	77,83,80,80
00000278 44503230       2877 	.byte	68,80,50,48

                                                                      Page 54
                                                              C:\Users\nhuliyap\AppData\Local\Temp\gh_000099c1.s
0000027c 3230           2878 	.byte	50,48
0000027e 0000           2879 	.space	2
                        2880 	.type	.L5188,@object
                        2881 	.size	.L5188,12
                        2882 	.data
                        2883 	.text
                        2884 	.align	2
                        2885 	.align	2
                        2886 ..gh.f.f.1.e.28:
                        2887 	.type	..gh.f.f.1.e.28,@object
                        2888 	.size	..gh.f.f.1.e.28,0
                        2889 	.global	_FblDiagRCStartInitGenealogyBlockMainHandler..C.3A.5C_ECU2.5CECU_Rivian_A1.5CTarget.5Crepo_projects.5CpFOTA.5CcL_LATEST.5Cmake.5Cobj.5Cfbl_diag_oem.
                        2890 _FblDiagRCStartInitGenealogyBlockMainHandler..C.3A.5C_ECU2.5CECU_Rivian_A1.5CTarget.5Crepo_projects.5CpFOTA.5CcL_LATEST.5Cmake.5Cobj.5Cfbl_diag_oem.:
                        2891 _FblDiagRCStartInitGenealogyBlockMainHandler:
00000b74 96072100       2892 	prepare	{r31},11
                        2893 --	    .bf
                        2894 .LDW69:
00000b78 0092           2895 	mov	0,r18
                        2896 .L5237:
00000b7a 12f0           2897 	mov	r18,ep
00000b7c c3f1           2898 	add	sp,ep
00000b7e 1f82           2899 	mov	-1,r16
00000b80 4192           2900 	add	1,r18
00000b82 238e0400       2901 	movea	4,sp,r17
00000b86 8483           2902 	sst.b	r16,4[ep]
00000b88 1206d8ff       2903 	addi	-40,r18,zero
00000b8c f9f5*          2904 	bnl	.L5237
                        2905 --line1906
                        2906 ..lin.C.3A.5C_ECU2.5CECU_Rivian_A1.5CTarget.5Crepo_projects.5CpFOTA.5CcL_LATEST.5Cmake.5Cobj.5Cfbl_diag_oem.191::
                        2907 .LDWlin191:
00000b8e 1130           2908 	mov	r17,r6
                        2909 	jarl	_PRODFLASH_PutAuxId,lp
                        2909 <EXPANSION BEGIN>
                        2909 jarl22 _PRODFLASH_PutAuxId , lp 
00000b90 80ff0000*      2909 <EXPANSION END>
                        2910 --line1907
                        2911 ..lin.C.3A.5C_ECU2.5CECU_Rivian_A1.5CTarget.5Crepo_projects.5CpFOTA.5CcL_LATEST.5Cmake.5Cobj.5Cfbl_diag_oem.192::
                        2912 .LDWlin192:
00000b94 23360400       2913 	movea	4,sp,r6
                        2914 	jarl	_PRODFLASH_PutModeId,lp
                        2914 <EXPANSION BEGIN>
                        2914 jarl22 _PRODFLASH_PutModeId , lp 
00000b98 80ff0000*      2914 <EXPANSION END>
                        2915 --line1908
                        2916 ..lin.C.3A.5C_ECU2.5CECU_Rivian_A1.5CTarget.5Crepo_projects.5CpFOTA.5CcL_LATEST.5Cmake.5Cobj.5Cfbl_diag_oem.193::
                        2917 .LDWlin193:
00000b9c 23360400       2918 	movea	4,sp,r6
                        2919 	jarl	_PRODFLASH_PutRivianBoardPartnumber,lp
                        2919 <EXPANSION BEGIN>
                        2919 jarl22 _PRODFLASH_PutRivianBoardPartnumber , lp 
00000ba0 80ff0000*      2919 <EXPANSION END>
                        2920 --line1909
                        2921 ..lin.C.3A.5C_ECU2.5CECU_Rivian_A1.5CTarget.5Crepo_projects.5CpFOTA.5CcL_LATEST.5Cmake.5Cobj.5Cfbl_diag_oem.194::
                        2922 .LDWlin194:
00000ba4 23360400       2923 	movea	4,sp,r6
                        2924 	jarl	_PRODFLASH_PutRivianBoardSerialnumber,lp
                        2924 <EXPANSION BEGIN>
                        2924 jarl22 _PRODFLASH_PutRivianBoardSerialnumber , lp 
00000ba8 80ff0000*      2924 <EXPANSION END>
                        2925 --line1910
                        2926 ..lin.C.3A.5C_ECU2.5CECU_Rivian_A1.5CTarget.5Crepo_projects.5CpFOTA.5CcL_LATEST.5Cmake.5Cobj.5Cfbl_diag_oem.195::

                                                                      Page 55
                                                              C:\Users\nhuliyap\AppData\Local\Temp\gh_000099c1.s
                        2927 .LDWlin195:
00000bac 23360400       2928 	movea	4,sp,r6
                        2929 	jarl	_PRODFLASH_PutRivianEcuPartnumber,lp
                        2929 <EXPANSION BEGIN>
                        2929 jarl22 _PRODFLASH_PutRivianEcuPartnumber , lp 
00000bb0 80ff0000*      2929 <EXPANSION END>
                        2930 --line1911
                        2931 ..lin.C.3A.5C_ECU2.5CECU_Rivian_A1.5CTarget.5Crepo_projects.5CpFOTA.5CcL_LATEST.5Cmake.5Cobj.5Cfbl_diag_oem.196::
                        2932 .LDWlin196:
00000bb4 23360400       2933 	movea	4,sp,r6
                        2934 	jarl	_PRODFLASH_PutRivianEcuSerialnumber,lp
                        2934 <EXPANSION BEGIN>
                        2934 jarl22 _PRODFLASH_PutRivianEcuSerialnumber , lp 
00000bb8 80ff0000*      2934 <EXPANSION END>
                        2935 --line1913
                        2936 ..lin.C.3A.5C_ECU2.5CECU_Rivian_A1.5CTarget.5Crepo_projects.5CpFOTA.5CcL_LATEST.5Cmake.5Cobj.5Cfbl_diag_oem.197::
                        2937 .LDWlin197:
00000bbc 013a           2938 	mov	1,r7
00000bbe 23360400       2939 	movea	4,sp,r6
00000bc2 0740           2940 	mov	r7,r8
                        2941 	jarl	_VERSION_GetGenealogyVersion,lp
                        2941 <EXPANSION BEGIN>
                        2941 jarl22 _VERSION_GetGenealogyVersion , lp 
00000bc4 80ff0000*      2941 <EXPANSION END>
                        2942 --line1914
                        2943 ..lin.C.3A.5C_ECU2.5CECU_Rivian_A1.5CTarget.5Crepo_projects.5CpFOTA.5CcL_LATEST.5Cmake.5Cobj.5Cfbl_diag_oem.198::
                        2944 .LDWlin198:
00000bc8 23360400       2945 	movea	4,sp,r6
                        2946 	jarl	_PRODFLASH_PutGenealogyVersion,lp
                        2946 <EXPANSION BEGIN>
                        2946 jarl22 _PRODFLASH_PutGenealogyVersion , lp 
00000bcc 80ff0000*      2946 <EXPANSION END>
                        2947 --line1915
                        2948 ..lin.C.3A.5C_ECU2.5CECU_Rivian_A1.5CTarget.5Crepo_projects.5CpFOTA.5CcL_LATEST.5Cmake.5Cobj.5Cfbl_diag_oem.199::
                        2949 .LDWlin199:
00000bd0 23360400       2950 	movea	4,sp,r6
00000bd4 023a           2951 	mov	2,r7
00000bd6 0142           2952 	mov	1,r8
                        2953 	jarl	_VERSION_GetComponentId,lp
                        2953 <EXPANSION BEGIN>
                        2953 jarl22 _VERSION_GetComponentId , lp 
00000bd8 80ff0000*      2953 <EXPANSION END>
                        2954 --line1916
                        2955 ..lin.C.3A.5C_ECU2.5CECU_Rivian_A1.5CTarget.5Crepo_projects.5CpFOTA.5CcL_LATEST.5Cmake.5Cobj.5Cfbl_diag_oem.200::
                        2956 .LDWlin200:
00000bdc 23360400       2957 	movea	4,sp,r6
                        2958 	jarl	_PRODFLASH_PutComponentId,lp
                        2958 <EXPANSION BEGIN>
                        2958 jarl22 _PRODFLASH_PutComponentId , lp 
00000be0 80ff0000*      2958 <EXPANSION END>
                        2959 --line1917
                        2960 ..lin.C.3A.5C_ECU2.5CECU_Rivian_A1.5CTarget.5Crepo_projects.5CpFOTA.5CcL_LATEST.5Cmake.5Cobj.5Cfbl_diag_oem.201::
                        2961 .LDWlin201:
00000be4 013a           2962 	mov	1,r7
00000be6 23360400       2963 	movea	4,sp,r6
00000bea 0740           2964 	mov	r7,r8
                        2965 	jarl	_VERSION_GetPcbaId,lp
                        2965 <EXPANSION BEGIN>
                        2965 jarl22 _VERSION_GetPcbaId , lp 
00000bec 80ff0000*      2965 <EXPANSION END>
                        2966 --line1918

                                                                      Page 56
                                                              C:\Users\nhuliyap\AppData\Local\Temp\gh_000099c1.s
                        2967 ..lin.C.3A.5C_ECU2.5CECU_Rivian_A1.5CTarget.5Crepo_projects.5CpFOTA.5CcL_LATEST.5Cmake.5Cobj.5Cfbl_diag_oem.202::
                        2968 .LDWlin202:
00000bf0 23360400       2969 	movea	4,sp,r6
                        2970 	jarl	_PRODFLASH_PutPcbaId,lp
                        2970 <EXPANSION BEGIN>
                        2970 jarl22 _PRODFLASH_PutPcbaId , lp 
00000bf4 80ff0000*      2970 <EXPANSION END>
                        2971 --line1920
                        2972 ..lin.C.3A.5C_ECU2.5CECU_Rivian_A1.5CTarget.5Crepo_projects.5CpFOTA.5CcL_LATEST.5Cmake.5Cobj.5Cfbl_diag_oem.203::
                        2973 .LDWlin203:
                        2974 	jarl	_SUPPLIER1_CalcGenealogyBlockCrc32,lp
                        2974 <EXPANSION BEGIN>
                        2974 jarl22 _SUPPLIER1_CalcGenealogyBlockCrc32 , lp 
00000bf8 80ff0000*      2974 <EXPANSION END>
00000bfc 63570100       2975 	st.w	r10,0[sp]
                        2976 --line1921
                        2977 ..lin.C.3A.5C_ECU2.5CECU_Rivian_A1.5CTarget.5Crepo_projects.5CpFOTA.5CcL_LATEST.5Cmake.5Cobj.5Cfbl_diag_oem.204::
                        2978 .LDWlin204:
00000c00 0330           2979 	mov	sp,r6
                        2980 	jarl	_PRODFLASH_PutGenealogyCrc32,lp
                        2980 <EXPANSION BEGIN>
                        2980 jarl22 _PRODFLASH_PutGenealogyCrc32 , lp 
00000c02 80ff0000*      2980 <EXPANSION END>
                        2981 --line1923
                        2982 ..lin.C.3A.5C_ECU2.5CECU_Rivian_A1.5CTarget.5Crepo_projects.5CpFOTA.5CcL_LATEST.5Cmake.5Cobj.5Cfbl_diag_oem.205::
                        2983 .LDWlin205:
00000c06 0332           2984 	mov	3,r6
                        2985 	jarl	_DiagProcessingDone,lp
                        2985 <EXPANSION BEGIN>
                        2985 jarl22 _DiagProcessingDone , lp 
00000c08 80ff0000*      2985 <EXPANSION END>
                        2986 --line1924
                        2987 ..lin.C.3A.5C_ECU2.5CECU_Rivian_A1.5CTarget.5Crepo_projects.5CpFOTA.5CcL_LATEST.5Cmake.5Cobj.5Cfbl_diag_oem.206::
                        2988 .LDWlin206:
00000c0c 0052           2989 	mov	0,r10
                        2990 --	    .ef
                        2991 .LDW79:
00000c0e 56063f00       2992 	dispose	11,{r31},[lp]
                        2993 	.type	_FblDiagRCStartInitGenealogyBlockMainHandler,@function
                        2994 	.size	_FblDiagRCStartInitGenealogyBlockMainHandler,.-_FblDiagRCStartInitGenealogyBlockMainHandler
                        2995 	.type	_FblDiagRCStartInitGenealogyBlockMainHandler..C.3A.5C_ECU2.5CECU_Rivian_A1.5CTarget.5Crepo_projects.5CpFOTA.5CcL_LATEST.5Cmake.5Cobj.5Cfbl_diag_oem.,@function
                        2996 	.size	_FblDiagRCStartInitGenealogyBlockMainHandler..C.3A.5C_ECU2.5CECU_Rivian_A1.5CTarget.5Crepo_projects.5CpFOTA.5CcL_LATEST.5Cmake.5Cobj.5Cfbl_diag_oem.,.-_FblDiagRCStartInitGenealogyBlockMainHandler..C.3A.5C_ECU2.5CECU_Rivian_A1.5CTarget.5Crepo_projects.5CpFOTA.5CcL_LATEST.5Cmake.5Cobj.5Cfbl_diag_oem.
                        2997 	.align	2
                        2998 .LDW89:
                        2999 --_aucTempBuffer	4[sp]	local
                        3000 --_i	r18	local
                        3001 --_ulGenealogyCrc32	0[sp]	local
                        3002 
                        3003 --_pbDiagData	none	param
                        3004 --_diagReqDataLen	none	param
                        3005 
                        3006 	.section ".bss","awb"
                        3007 .L5275:
                        3008 	.type	.L5275,@object
                        3009 	.size	.L5275,0
                        3010 	.data
                        3011 	.text
                        3012 	.align	2
                        3013 	.align	2
                        3014 ..gh.f.f.1.e.29:
                        3015 	.type	..gh.f.f.1.e.29,@object

                                                                      Page 57
                                                              C:\Users\nhuliyap\AppData\Local\Temp\gh_000099c1.s
                        3016 	.size	..gh.f.f.1.e.29,0
                        3017 	.global	_FblDiagRCStartCheckValidModuleMainHandler..C.3A.5C_ECU2.5CECU_Rivian_A1.5CTarget.5Crepo_projects.5CpFOTA.5CcL_LATEST.5Cmake.5Cobj.5Cfbl_diag_oem.
                        3018 _FblDiagRCStartCheckValidModuleMainHandler..C.3A.5C_ECU2.5CECU_Rivian_A1.5CTarget.5Crepo_projects.5CpFOTA.5CcL_LATEST.5Cmake.5Cobj.5Cfbl_diag_oem.:
                        3019 _FblDiagRCStartCheckValidModuleMainHandler:
00000c12 80072100       3020 	prepare	{r31},0
                        3021 --	    .bf
                        3022 .LDW99:
00000c16 0432           3023 	mov	4,r6
                        3024 	jarl	_DiagProcessingDone,lp
                        3024 <EXPANSION BEGIN>
                        3024 jarl22 _DiagProcessingDone , lp 
00000c18 80ff0000*      3024 <EXPANSION END>
                        3025 --line1958
                        3026 ..lin.C.3A.5C_ECU2.5CECU_Rivian_A1.5CTarget.5Crepo_projects.5CpFOTA.5CcL_LATEST.5Cmake.5Cobj.5Cfbl_diag_oem.207::
                        3027 .LDWlin207:
00000c1c 0052           3028 	mov	0,r10
                        3029 --	    .ef
                        3030 .LDW001:
00000c1e 40063f00       3031 	dispose	0,{r31},[lp]
                        3032 	.type	_FblDiagRCStartCheckValidModuleMainHandler,@function
                        3033 	.size	_FblDiagRCStartCheckValidModuleMainHandler,.-_FblDiagRCStartCheckValidModuleMainHandler
                        3034 	.type	_FblDiagRCStartCheckValidModuleMainHandler..C.3A.5C_ECU2.5CECU_Rivian_A1.5CTarget.5Crepo_projects.5CpFOTA.5CcL_LATEST.5Cmake.5Cobj.5Cfbl_diag_oem.,@function
                        3035 	.size	_FblDiagRCStartCheckValidModuleMainHandler..C.3A.5C_ECU2.5CECU_Rivian_A1.5CTarget.5Crepo_projects.5CpFOTA.5CcL_LATEST.5Cmake.5Cobj.5Cfbl_diag_oem.,.-_FblDiagRCStartCheckValidModuleMainHandler..C.3A.5C_ECU2.5CECU_Rivian_A1.5CTarget.5Crepo_projects.5CpFOTA.5CcL_LATEST.5Cmake.5Cobj.5Cfbl_diag_oem.
                        3036 	.align	2
                        3037 .LDW101:
                        3038 
                        3039 --_pbDiagData	none	param
                        3040 --_diagReqDataLen	none	param
                        3041 
                        3042 	.section ".bss","awb"
                        3043 .L5329:
                        3044 	.type	.L5329,@object
                        3045 	.size	.L5329,0
                        3046 	.data
                        3047 	.text
                        3048 	.align	2
                        3049 	.align	2
                        3050 ..gh.f.f.1.e.30:
                        3051 	.type	..gh.f.f.1.e.30,@object
                        3052 	.size	..gh.f.f.1.e.30,0
                        3053 	.global	_FblDiagRequestDownloadLengthCheck..C.3A.5C_ECU2.5CECU_Rivian_A1.5CTarget.5Crepo_projects.5CpFOTA.5CcL_LATEST.5Cmake.5Cobj.5Cfbl_diag_oem.
                        3054 _FblDiagRequestDownloadLengthCheck..C.3A.5C_ECU2.5CECU_Rivian_A1.5CTarget.5Crepo_projects.5CpFOTA.5CcL_LATEST.5Cmake.5Cobj.5Cfbl_diag_oem.:
                        3055 _FblDiagRequestDownloadLengthCheck:
00000c22 06f0           3056 	mov	r6,ep
00000c24 c700           3057 	zxh	r7
                        3058 --	    .bf
                        3059 .LDW201:
00000c26 6180           3060 	sld.bu	1[ep],r16
00000c28 1088           3061 	mov	r16,r17
00000c2a 848a           3062 	shr	4,r17
00000c2c d0960f00       3063 	andi	15,r16,r18
00000c30 d191           3064 	add	r17,r18
00000c32 128e0200       3065 	addi	2,r18,r17
00000c36 f139           3066 	cmp	r17,r7
00000c38 ea570000       3067 	setfne	r10
                        3068 --	    .ef
                        3069 .LDW301:
00000c3c 7f00           3070 	jmp	[lp]
                        3071 	.type	_FblDiagRequestDownloadLengthCheck,@function
                        3072 	.size	_FblDiagRequestDownloadLengthCheck,.-_FblDiagRequestDownloadLengthCheck
                        3073 	.type	_FblDiagRequestDownloadLengthCheck..C.3A.5C_ECU2.5CECU_Rivian_A1.5CTarget.5Crepo_projects.5CpFOTA.5CcL_LATEST.5Cmake.5Cobj.5Cfbl_diag_oem.,@function

                                                                      Page 58
                                                              C:\Users\nhuliyap\AppData\Local\Temp\gh_000099c1.s
                        3074 	.size	_FblDiagRequestDownloadLengthCheck..C.3A.5C_ECU2.5CECU_Rivian_A1.5CTarget.5Crepo_projects.5CpFOTA.5CcL_LATEST.5Cmake.5Cobj.5Cfbl_diag_oem.,.-_FblDiagRequestDownloadLengthCheck..C.3A.5C_ECU2.5CECU_Rivian_A1.5CTarget.5Crepo_projects.5CpFOTA.5CcL_LATEST.5Cmake.5Cobj.5Cfbl_diag_oem.
                        3075 	.align	2
                        3076 .LDW401:
                        3077 --_result	r10	local
                        3078 
                        3079 --_pbDiagData	ep	param
                        3080 --_diagReqDataLen	r7	param
                        3081 
                        3082 	.section ".bss","awb"
                        3083 .L5394:
                        3084 	.type	.L5394,@object
                        3085 	.size	.L5394,0
                        3086 	.data
                        3087 	.text
                        3088 	.align	2
                        3089 	.align	2
                        3090 ..gh.f.f.1.e.31:
                        3091 	.type	..gh.f.f.1.e.31,@object
                        3092 	.size	..gh.f.f.1.e.31,0
                        3093 	.global	_FblDiagRequestDownloadMainHandler..C.3A.5C_ECU2.5CECU_Rivian_A1.5CTarget.5Crepo_projects.5CpFOTA.5CcL_LATEST.5Cmake.5Cobj.5Cfbl_diag_oem.
                        3094 _FblDiagRequestDownloadMainHandler..C.3A.5C_ECU2.5CECU_Rivian_A1.5CTarget.5Crepo_projects.5CpFOTA.5CcL_LATEST.5Cmake.5Cobj.5Cfbl_diag_oem.:
                        3095 _FblDiagRequestDownloadMainHandler:
00000c3e a807e300       3096 	prepare	{r28,r29,r31},20,sp
                        3097 --	    .bf
                        3098 .LDW501:
00000c42 0505           3099 	sst.w	zero,8[ep]
00000c44 0705           3100 	sst.w	zero,12[ep]
00000c46 0338           3101 	mov	sp,r7
                        3102 	jarl	_FblDiagCheckRequestDownloadPreconditions,lp
                        3102 <EXPANSION BEGIN>
                        3102 jarl22 _FblDiagCheckRequestDownloadPreconditions , lp 
00000c48 bfff6cf6*      3102 <EXPANSION END>
                        3103 --line2002
                        3104 ..lin.C.3A.5C_ECU2.5CECU_Rivian_A1.5CTarget.5Crepo_projects.5CpFOTA.5CcL_LATEST.5Cmake.5Cobj.5Cfbl_diag_oem.208::
                        3105 .LDWlin208:
00000c4c 2b0600000000*  3106 	mov	sdaoff23(_fblDiagStates+1),r11
00000c52 cb270000       3107 	set1	4,0[r11]
00000c56 0182           3108 	mov	1,r16
00000c58 0ae8           3109 	mov	r10,r29
00000c5a 43871000       3110 	st.b	r16,16[sp]
00000c5e e051           3111 	cmp	zero,r10
00000c60 9a5d*          3112 	bne	.L5424
                        3113 --line2007
                        3114 ..lin.C.3A.5C_ECU2.5CECU_Rivian_A1.5CTarget.5Crepo_projects.5CpFOTA.5CcL_LATEST.5Cmake.5Cobj.5Cfbl_diag_oem.209::
                        3115 .LDWlin209:
00000c62 03f0           3116 	mov	sp,ep
00000c64 067d           3117 	sld.w	12[ep],r15
00000c66 0475           3118 	sld.w	8[ep],r14
00000c68 84070d800000*  3119 	st.b	r16,sdaoff23(_expectedSequenceCnt)[gp]
00000c6e 84070d800000*  3120 	st.b	r16,sdaoff23(_currentSequenceCnt)[gp]
00000c74 84070f780000*  3121 	st.w	r15,sdaoff23(_transferRemainder)[gp]
00000c7a 84070f700000*  3122 	st.w	r14,sdaoff23(_errStatDescriptor+4)[gp]
00000c80 cbe70000       3123 	tst1	4,0[r11]
00000c84 f205*          3124 	be	.L5423
                        3125 --line2017
                        3126 ..lin.C.3A.5C_ECU2.5CECU_Rivian_A1.5CTarget.5Crepo_projects.5CpFOTA.5CcL_LATEST.5Cmake.5Cobj.5Cfbl_diag_oem.210::
                        3127 .LDWlin210:
00000c86 0330           3128 	mov	sp,r6
                        3129 	jarl	_FblDiagCheckFlashMemoryDownload,lp
                        3129 <EXPANSION BEGIN>
                        3129 jarl22 _FblDiagCheckFlashMemoryDownload , lp 

                                                                      Page 59
                                                              C:\Users\nhuliyap\AppData\Local\Temp\gh_000099c1.s
00000c88 bfffaef6*      3129 <EXPANSION END>
00000c8c 0ae8           3130 	mov	r10,r29
                        3131 --line2027
                        3132 ..lin.C.3A.5C_ECU2.5CECU_Rivian_A1.5CTarget.5Crepo_projects.5CpFOTA.5CcL_LATEST.5Cmake.5Cobj.5Cfbl_diag_oem.211::
                        3133 .LDWlin211:
00000c8e e051           3134 	cmp	zero,r10
00000c90 9a45*          3135 	bne	.L5424
                        3136 .L5423:
00000c92 a40705680000*  3137 	ld.bu	sdaoff23(_segmentCount)[gp],r13
00000c98 616a           3138 	cmp	1,r13
00000c9a eb0d*          3139 	bh	.L5425
                        3140 --line2028
                        3141 ..lin.C.3A.5C_ECU2.5CECU_Rivian_A1.5CTarget.5Crepo_projects.5CpFOTA.5CcL_LATEST.5Cmake.5Cobj.5Cfbl_diag_oem.212::
                        3142 .LDWlin212:
00000c9c a40705400000*  3143 	ld.bu	sdaoff23(_downloadBlockDescriptor)[gp],r8
00000ca2 23361400       3144 	movea	20,sp,r6
00000ca6 0338           3145 	mov	sp,r7
                        3146 	jarl	_FblDiagPrepareFirstDownloadSegment,lp
                        3146 <EXPANSION BEGIN>
                        3146 jarl22 _FblDiagPrepareFirstDownloadSegment , lp 
00000ca8 bfff4af7*      3146 <EXPANSION END>
00000cac 0ae8           3147 	mov	r10,r29
                        3148 --line2029
                        3149 ..lin.C.3A.5C_ECU2.5CECU_Rivian_A1.5CTarget.5Crepo_projects.5CpFOTA.5CcL_LATEST.5Cmake.5Cobj.5Cfbl_diag_oem.213::
                        3150 .LDWlin213:
                        3151 	jarl	_FblDiagMemGetActiveBuffer,lp
                        3151 <EXPANSION BEGIN>
                        3151 jarl22 _FblDiagMemGetActiveBuffer , lp 
00000cae 80ff0000*      3151 <EXPANSION END>
                        3152 --line2032
                        3153 ..lin.C.3A.5C_ECU2.5CECU_Rivian_A1.5CTarget.5Crepo_projects.5CpFOTA.5CcL_LATEST.5Cmake.5Cobj.5Cfbl_diag_oem.214::
                        3154 .LDWlin214:
00000cb2 e0e9           3155 	cmp	zero,r29
00000cb4 fa2d*          3156 	bne	.L5424
                        3157 .L5425:
                        3158 --line2033
                        3159 ..lin.C.3A.5C_ECU2.5CECU_Rivian_A1.5CTarget.5Crepo_projects.5CpFOTA.5CcL_LATEST.5Cmake.5Cobj.5Cfbl_diag_oem.215::
                        3160 .LDWlin215:
00000cb6 0330           3161 	mov	sp,r6
                        3162 	jarl	_FblMemSegmentStartIndication,lp
                        3162 <EXPANSION BEGIN>
                        3162 jarl22 _FblMemSegmentStartIndication , lp 
00000cb8 80ff0000*      3162 <EXPANSION END>
00000cbc 0ae0           3163 	mov	r10,r28
                        3164 --line2034
                        3165 ..lin.C.3A.5C_ECU2.5CECU_Rivian_A1.5CTarget.5Crepo_projects.5CpFOTA.5CcL_LATEST.5Cmake.5Cobj.5Cfbl_diag_oem.216::
                        3166 .LDWlin216:
                        3167 	jarl	_FblDiagMemGetActiveBuffer,lp
                        3167 <EXPANSION BEGIN>
                        3167 jarl22 _FblDiagMemGetActiveBuffer , lp 
00000cbe 80ff0000*      3167 <EXPANSION END>
                        3168 --line2035
                        3169 ..lin.C.3A.5C_ECU2.5CECU_Rivian_A1.5CTarget.5Crepo_projects.5CpFOTA.5CcL_LATEST.5Cmake.5Cobj.5Cfbl_diag_oem.217::
                        3170 .LDWlin217:
00000cc2 dce6ff00       3171 	andi	255,r28,r28
00000cc6 aa25*          3172 	bne	.L5426
                        3173 --line2037
                        3174 ..lin.C.3A.5C_ECU2.5CECU_Rivian_A1.5CTarget.5Crepo_projects.5CpFOTA.5CcL_LATEST.5Cmake.5Cobj.5Cfbl_diag_oem.218::
                        3175 .LDWlin218:
00000cc8 018a           3176 	mov	1,r17
00000cca 0af0           3177 	mov	r10,ep

                                                                      Page 60
                                                              C:\Users\nhuliyap\AppData\Local\Temp\gh_000099c1.s
00000ccc 84070d880000*  3178 	st.b	r17,sdaoff23(_expectedSequenceCnt)[gp]
00000cd2 84070d880000*  3179 	st.b	r17,sdaoff23(_currentSequenceCnt)[gp]
00000cd8 2b0600000000*  3180 	mov	sdaoff23(_fblDiagStates+2),r11
00000cde cb370000       3181 	set1	6,0[r11]
00000ce2 0b660100       3182 	addi	1,r11,r12
00000ce6 cc870000       3183 	clr1	0,0[r12]
00000cea cbbf0000       3184 	clr1	7,0[r11]
00000cee 20662000       3185 	movea	32,zero,r12
00000cf2 8063           3186 	sst.b	r12,0[ep]
00000cf4 0a460100       3187 	addi	1,r10,r8
00000cf8 0232           3188 	mov	2,r6
00000cfa 203eff0f       3189 	movea	4095,zero,r7
                        3190 	jarl	_FblMemSetInteger,lp
                        3190 <EXPANSION BEGIN>
                        3190 jarl22 _FblMemSetInteger , lp 
00000cfe 80ff0000*      3190 <EXPANSION END>
                        3191 --line2048
                        3192 ..lin.C.3A.5C_ECU2.5CECU_Rivian_A1.5CTarget.5Crepo_projects.5CpFOTA.5CcL_LATEST.5Cmake.5Cobj.5Cfbl_diag_oem.219::
                        3193 .LDWlin219:
00000d02 0332           3194 	mov	3,r6
                        3195 	jarl	_DiagProcessingDone,lp
                        3195 <EXPANSION BEGIN>
                        3195 jarl22 _DiagProcessingDone , lp 
00000d04 80ff0000*      3195 <EXPANSION END>
00000d08 d505*          3196 	br	.L5424
                        3197 .L5426:
                        3198 --line2052
                        3199 ..lin.C.3A.5C_ECU2.5CECU_Rivian_A1.5CTarget.5Crepo_projects.5CpFOTA.5CcL_LATEST.5Cmake.5Cobj.5Cfbl_diag_oem.220::
                        3200 .LDWlin220:
00000d0a 1c30           3201 	mov	r28,r6
                        3202 	jarl	_FblDiagSetError,lp
                        3202 <EXPANSION BEGIN>
                        3202 jarl22 _FblDiagSetError , lp 
00000d0c 80ff0000*      3202 <EXPANSION END>
                        3203 --line2053
                        3204 ..lin.C.3A.5C_ECU2.5CECU_Rivian_A1.5CTarget.5Crepo_projects.5CpFOTA.5CcL_LATEST.5Cmake.5Cobj.5Cfbl_diag_oem.221::
                        3205 .LDWlin221:
00000d10 01ea           3206 	mov	1,r29
                        3207 .L5424:
00000d12 1d50           3208 	mov	r29,r10
                        3209 --	    .ef
                        3210 .LDW601:
00000d14 6806ff00       3211 	dispose	20,{r28,r29,r31},[lp]
                        3212 	.type	_FblDiagRequestDownloadMainHandler,@function
                        3213 	.size	_FblDiagRequestDownloadMainHandler,.-_FblDiagRequestDownloadMainHandler
                        3214 	.type	_FblDiagRequestDownloadMainHandler..C.3A.5C_ECU2.5CECU_Rivian_A1.5CTarget.5Crepo_projects.5CpFOTA.5CcL_LATEST.5Cmake.5Cobj.5Cfbl_diag_oem.,@function
                        3215 	.size	_FblDiagRequestDownloadMainHandler..C.3A.5C_ECU2.5CECU_Rivian_A1.5CTarget.5Crepo_projects.5CpFOTA.5CcL_LATEST.5Cmake.5Cobj.5Cfbl_diag_oem.,.-_FblDiagRequestDownloadMainHandler..C.3A.5C_ECU2.5CECU_Rivian_A1.5CTarget.5Crepo_projects.5CpFOTA.5CcL_LATEST.5Cmake.5Cobj.5Cfbl_diag_oem.
                        3216 	.align	2
                        3217 .LDW701:
                        3218 --_blockInfo	20[sp]	local
                        3219 --_segmentInfoLocal	0[sp]	local
                        3220 --_result	r29	local
                        3221 --_libMemResult	r28	local
                        3222 
                        3223 --_pbDiagData	ep	param
                        3224 --_diagReqDataLen	none	param
                        3225 
                        3226 	.section ".bss","awb"
                        3227 .L5559:
                        3228 	.type	.L5559,@object
                        3229 	.size	.L5559,0

                                                                      Page 61
                                                              C:\Users\nhuliyap\AppData\Local\Temp\gh_000099c1.s
                        3230 	.data
                        3231 	.text
                        3232 	.align	2
                        3233 	.align	2
                        3234 ..gh.f.f.1.e.32:
                        3235 	.type	..gh.f.f.1.e.32,@object
                        3236 	.size	..gh.f.f.1.e.32,0
                        3237 	.global	_FblDiagTransferDataLengthCheck..C.3A.5C_ECU2.5CECU_Rivian_A1.5CTarget.5Crepo_projects.5CpFOTA.5CcL_LATEST.5Cmake.5Cobj.5Cfbl_diag_oem.
                        3238 _FblDiagTransferDataLengthCheck..C.3A.5C_ECU2.5CECU_Rivian_A1.5CTarget.5Crepo_projects.5CpFOTA.5CcL_LATEST.5Cmake.5Cobj.5Cfbl_diag_oem.:
                        3239 _FblDiagTransferDataLengthCheck:
00000d18 c700           3240 	zxh	r7
                        3241 --	    .bf
                        3242 .LDW801:
00000d1a 0736feff       3243 	addi	-2,r7,r6
00000d1e 060603f0       3244 	addi	-4093,r6,zero
00000d22 890d*          3245 	bnl	.L5657
                        3246 --line2069
                        3247 ..lin.C.3A.5C_ECU2.5CECU_Rivian_A1.5CTarget.5Crepo_projects.5CpFOTA.5CcL_LATEST.5Cmake.5Cobj.5Cfbl_diag_oem.222::
                        3248 .LDWlin222:
00000d24 2b0600000000*  3249 	mov	sdaoff23(_fblDiagStates+2),r11
00000d2a cbb70000       3250 	clr1	6,0[r11]
00000d2e 0152           3251 	mov	1,r10
00000d30 7f00           3252 	jmp	[lp]
                        3253 .L5657:
                        3254 --line2073
                        3255 ..lin.C.3A.5C_ECU2.5CECU_Rivian_A1.5CTarget.5Crepo_projects.5CpFOTA.5CcL_LATEST.5Cmake.5Cobj.5Cfbl_diag_oem.223::
                        3256 .LDWlin223:
00000d32 0052           3257 	mov	0,r10
                        3258 --	    .ef
                        3259 .LDW901:
00000d34 7f00           3260 	jmp	[lp]
                        3261 	.type	_FblDiagTransferDataLengthCheck,@function
                        3262 	.size	_FblDiagTransferDataLengthCheck,.-_FblDiagTransferDataLengthCheck
                        3263 	.type	_FblDiagTransferDataLengthCheck..C.3A.5C_ECU2.5CECU_Rivian_A1.5CTarget.5Crepo_projects.5CpFOTA.5CcL_LATEST.5Cmake.5Cobj.5Cfbl_diag_oem.,@function
                        3264 	.size	_FblDiagTransferDataLengthCheck..C.3A.5C_ECU2.5CECU_Rivian_A1.5CTarget.5Crepo_projects.5CpFOTA.5CcL_LATEST.5Cmake.5Cobj.5Cfbl_diag_oem.,.-_FblDiagTransferDataLengthCheck..C.3A.5C_ECU2.5CECU_Rivian_A1.5CTarget.5Crepo_projects.5CpFOTA.5CcL_LATEST.5Cmake.5Cobj.5Cfbl_diag_oem.
                        3265 	.align	2
                        3266 .LDW011:
                        3267 --_result	r10	local
                        3268 
                        3269 --_pbDiagData	none	param
                        3270 --_diagReqDataLen	r7	param
                        3271 
                        3272 	.section ".bss","awb"
                        3273 .L5710:
                        3274 	.type	.L5710,@object
                        3275 	.size	.L5710,0
                        3276 	.data
                        3277 	.text
                        3278 	.align	2
                        3279 	.align	2
                        3280 ..gh.f.f.1.e.33:
                        3281 	.type	..gh.f.f.1.e.33,@object
                        3282 	.size	..gh.f.f.1.e.33,0
                        3283 	.global	_FblDiagTransferDataMainHandler..C.3A.5C_ECU2.5CECU_Rivian_A1.5CTarget.5Crepo_projects.5CpFOTA.5CcL_LATEST.5Cmake.5Cobj.5Cfbl_diag_oem.
                        3284 _FblDiagTransferDataMainHandler..C.3A.5C_ECU2.5CECU_Rivian_A1.5CTarget.5Crepo_projects.5CpFOTA.5CcL_LATEST.5Cmake.5Cobj.5Cfbl_diag_oem.:
                        3285 _FblDiagTransferDataMainHandler:
00000d36 80076100       3286 	prepare	{r29,r31},0
                        3287 --	    .bf
                        3288 .LDW111:
00000d3a 2b0600000000*  3289 	mov	sdaoff23(_fblDiagStates+2),r11
00000d40 cbf70000       3290 	tst1	6,0[r11]

                                                                      Page 62
                                                              C:\Users\nhuliyap\AppData\Local\Temp\gh_000099c1.s
00000d44 fa05*          3291 	bne	.L5757
                        3292 --line2085
                        3293 ..lin.C.3A.5C_ECU2.5CECU_Rivian_A1.5CTarget.5Crepo_projects.5CpFOTA.5CcL_LATEST.5Cmake.5Cobj.5Cfbl_diag_oem.224::
                        3294 .LDWlin224:
00000d46 20362400       3295 	movea	36,zero,r6
                        3296 	jarl	_FblDiagSetError,lp
                        3296 <EXPANSION BEGIN>
                        3296 jarl22 _FblDiagSetError , lp 
00000d4a 80ff0000*      3296 <EXPANSION END>
                        3297 --line2086
                        3298 ..lin.C.3A.5C_ECU2.5CECU_Rivian_A1.5CTarget.5Crepo_projects.5CpFOTA.5CcL_LATEST.5Cmake.5Cobj.5Cfbl_diag_oem.225::
                        3299 .LDWlin225:
00000d4e 01ea           3300 	mov	1,r29
00000d50 8545*          3301 	br	.L5755
                        3302 .L5757:
00000d52 06f0           3303 	mov	r6,ep
                        3304 --line2089
                        3305 ..lin.C.3A.5C_ECU2.5CECU_Rivian_A1.5CTarget.5Crepo_projects.5CpFOTA.5CcL_LATEST.5Cmake.5Cobj.5Cfbl_diag_oem.226::
                        3306 .LDWlin226:
00000d54 6040           3307 	sld.bu	0[ep],r8
00000d56 a40705300000*  3308 	ld.bu	sdaoff23(_expectedSequenceCnt)[gp],r6
00000d5c c700           3309 	zxh	r7
00000d5e e641           3310 	cmp	r6,r8
00000d60 9215*          3311 	be	.L5760
                        3312 --line2090
                        3313 ..lin.C.3A.5C_ECU2.5CECU_Rivian_A1.5CTarget.5Crepo_projects.5CpFOTA.5CcL_LATEST.5Cmake.5Cobj.5Cfbl_diag_oem.227::
                        3314 .LDWlin227:
00000d62 a40705980000*  3315 	ld.bu	sdaoff23(_currentSequenceCnt)[gp],r19
00000d68 f341           3316 	cmp	r19,r8
00000d6a ea05*          3317 	bne	.L5762
                        3318 --line2092
                        3319 ..lin.C.3A.5C_ECU2.5CECU_Rivian_A1.5CTarget.5Crepo_projects.5CpFOTA.5CcL_LATEST.5Cmake.5Cobj.5Cfbl_diag_oem.228::
                        3320 .LDWlin228:
00000d6c 0132           3321 	mov	1,r6
                        3322 	jarl	_DiagProcessingDone,lp
                        3322 <EXPANSION BEGIN>
                        3322 jarl22 _DiagProcessingDone , lp 
00000d6e 80ff0000*      3322 <EXPANSION END>
                        3323 --line2093
                        3324 ..lin.C.3A.5C_ECU2.5CECU_Rivian_A1.5CTarget.5Crepo_projects.5CpFOTA.5CcL_LATEST.5Cmake.5Cobj.5Cfbl_diag_oem.229::
                        3325 .LDWlin229:
00000d72 00ea           3326 	mov	0,r29
00000d74 e52d*          3327 	br	.L5755
                        3328 .L5762:
                        3329 --line2097
                        3330 ..lin.C.3A.5C_ECU2.5CECU_Rivian_A1.5CTarget.5Crepo_projects.5CpFOTA.5CcL_LATEST.5Cmake.5Cobj.5Cfbl_diag_oem.230::
                        3331 .LDWlin230:
00000d76 20367300       3332 	movea	115,zero,r6
                        3333 	jarl	_FblDiagSetError,lp
                        3333 <EXPANSION BEGIN>
                        3333 jarl22 _FblDiagSetError , lp 
00000d7a 80ff0000*      3333 <EXPANSION END>
                        3334 --line2098
                        3335 ..lin.C.3A.5C_ECU2.5CECU_Rivian_A1.5CTarget.5Crepo_projects.5CpFOTA.5CcL_LATEST.5Cmake.5Cobj.5Cfbl_diag_oem.231::
                        3336 .LDWlin231:
00000d7e 01ea           3337 	mov	1,r29
00000d80 852d*          3338 	br	.L5755
                        3339 .L5760:
                        3340 --line2105
                        3341 ..lin.C.3A.5C_ECU2.5CECU_Rivian_A1.5CTarget.5Crepo_projects.5CpFOTA.5CcL_LATEST.5Cmake.5Cobj.5Cfbl_diag_oem.232::
                        3342 .LDWlin232:

                                                                      Page 63
                                                              C:\Users\nhuliyap\AppData\Local\Temp\gh_000099c1.s
00000d82 840709300000*  3343 	ld.w	sdaoff23(_DiagBuffer)[gp],r6
00000d88 0746ffff       3344 	addi	-1,r7,r8
00000d8c cbaf0000       3345 	clr1	5,0[r11]
00000d90 023a           3346 	mov	2,r7
                        3347 	jarl	_FblMemDataIndication,lp
                        3347 <EXPANSION BEGIN>
                        3347 jarl22 _FblMemDataIndication , lp 
00000d92 80ff0000*      3347 <EXPANSION END>
00000d96 0ae8           3348 	mov	r10,r29
                        3349 --line2107
                        3350 ..lin.C.3A.5C_ECU2.5CECU_Rivian_A1.5CTarget.5Crepo_projects.5CpFOTA.5CcL_LATEST.5Cmake.5Cobj.5Cfbl_diag_oem.233::
                        3351 .LDWlin233:
                        3352 	jarl	_FblDiagMemGetActiveBuffer,lp
                        3352 <EXPANSION BEGIN>
                        3352 jarl22 _FblDiagMemGetActiveBuffer , lp 
00000d98 80ff0000*      3352 <EXPANSION END>
                        3353 --line2108
                        3354 ..lin.C.3A.5C_ECU2.5CECU_Rivian_A1.5CTarget.5Crepo_projects.5CpFOTA.5CcL_LATEST.5Cmake.5Cobj.5Cfbl_diag_oem.234::
                        3355 .LDWlin234:
00000d9c ddeeff00       3356 	andi	255,r29,r29
00000da0 fa0d*          3357 	bne	.L5766
                        3358 --line2110
                        3359 ..lin.C.3A.5C_ECU2.5CECU_Rivian_A1.5CTarget.5Crepo_projects.5CpFOTA.5CcL_LATEST.5Cmake.5Cobj.5Cfbl_diag_oem.235::
                        3360 .LDWlin235:
00000da2 3e0600000000*  3361 	mov	sdaoff23(_expectedSequenceCnt),ep
00000da8 6048           3362 	sld.bu	0[ep],r9
00000daa 0132           3363 	mov	1,r6
00000dac 09960100       3364 	addi	1,r9,r18
00000db0 84070d480000*  3365 	st.b	r9,sdaoff23(_currentSequenceCnt)[gp]
00000db6 8093           3366 	sst.b	r18,0[ep]
                        3367 	jarl	_DiagProcessingDone,lp
                        3367 <EXPANSION BEGIN>
                        3367 jarl22 _DiagProcessingDone , lp 
00000db8 80ff0000*      3367 <EXPANSION END>
                        3368 --line2115
                        3369 ..lin.C.3A.5C_ECU2.5CECU_Rivian_A1.5CTarget.5Crepo_projects.5CpFOTA.5CcL_LATEST.5Cmake.5Cobj.5Cfbl_diag_oem.236::
                        3370 .LDWlin236:
00000dbc a50d*          3371 	br	.L5755
                        3372 .L5766:
                        3373 --line2119
                        3374 ..lin.C.3A.5C_ECU2.5CECU_Rivian_A1.5CTarget.5Crepo_projects.5CpFOTA.5CcL_LATEST.5Cmake.5Cobj.5Cfbl_diag_oem.237::
                        3375 .LDWlin237:
00000dbe 1d30           3376 	mov	r29,r6
                        3377 	jarl	_FblDiagSetError,lp
                        3377 <EXPANSION BEGIN>
                        3377 jarl22 _FblDiagSetError , lp 
00000dc0 80ff0000*      3377 <EXPANSION END>
                        3378 --line2120
                        3379 ..lin.C.3A.5C_ECU2.5CECU_Rivian_A1.5CTarget.5Crepo_projects.5CpFOTA.5CcL_LATEST.5Cmake.5Cobj.5Cfbl_diag_oem.238::
                        3380 .LDWlin238:
00000dc4 2b0600000000*  3381 	mov	sdaoff23(_fblDiagStates+2),r11
00000dca cbb70000       3382 	clr1	6,0[r11]
00000dce 01ea           3383 	mov	1,r29
                        3384 .L5755:
00000dd0 1d50           3385 	mov	r29,r10
                        3386 --	    .ef
                        3387 .LDW211:
00000dd2 40067f00       3388 	dispose	0,{r29,r31},[lp]
                        3389 	.type	_FblDiagTransferDataMainHandler,@function
                        3390 	.size	_FblDiagTransferDataMainHandler,.-_FblDiagTransferDataMainHandler
                        3391 	.type	_FblDiagTransferDataMainHandler..C.3A.5C_ECU2.5CECU_Rivian_A1.5CTarget.5Crepo_projects.5CpFOTA.5CcL_LATEST.5Cmake.5Cobj.5Cfbl_diag_oem.,@function

                                                                      Page 64
                                                              C:\Users\nhuliyap\AppData\Local\Temp\gh_000099c1.s
                        3392 	.size	_FblDiagTransferDataMainHandler..C.3A.5C_ECU2.5CECU_Rivian_A1.5CTarget.5Crepo_projects.5CpFOTA.5CcL_LATEST.5Cmake.5Cobj.5Cfbl_diag_oem.,.-_FblDiagTransferDataMainHandler..C.3A.5C_ECU2.5CECU_Rivian_A1.5CTarget.5Crepo_projects.5CpFOTA.5CcL_LATEST.5Cmake.5Cobj.5Cfbl_diag_oem.
                        3393 	.align	2
                        3394 .LDW311:
                        3395 --_result	r10	local
                        3396 --_libMemResult	r29	local
                        3397 
                        3398 --_pbDiagData	ep	param
                        3399 --_diagReqDataLen	r7	param
                        3400 
                        3401 	.section ".bss","awb"
                        3402 .L5850:
                        3403 	.type	.L5850,@object
                        3404 	.size	.L5850,0
                        3405 	.data
                        3406 	.text
                        3407 	.align	2
                        3408 	.align	2
                        3409 ..gh.f.f.1.e.34:
                        3410 	.type	..gh.f.f.1.e.34,@object
                        3411 	.size	..gh.f.f.1.e.34,0
                        3412 	.global	_FblDiagReqTransferExitMainHandler..C.3A.5C_ECU2.5CECU_Rivian_A1.5CTarget.5Crepo_projects.5CpFOTA.5CcL_LATEST.5Cmake.5Cobj.5Cfbl_diag_oem.
                        3413 _FblDiagReqTransferExitMainHandler..C.3A.5C_ECU2.5CECU_Rivian_A1.5CTarget.5Crepo_projects.5CpFOTA.5CcL_LATEST.5Cmake.5Cobj.5Cfbl_diag_oem.:
                        3414 _FblDiagReqTransferExitMainHandler:
00000dd6 82076100       3415 	prepare	{r29,r31},1
                        3416 --	    .bf
                        3417 .LDW411:
00000dda 2b0600000000*  3418 	mov	sdaoff23(_fblDiagStates+2),r11
00000de0 cbf70000       3419 	tst1	6,0[r11]
00000de4 fa05*          3420 	bne	.L5951
                        3421 --line2140
                        3422 ..lin.C.3A.5C_ECU2.5CECU_Rivian_A1.5CTarget.5Crepo_projects.5CpFOTA.5CcL_LATEST.5Cmake.5Cobj.5Cfbl_diag_oem.239::
                        3423 .LDWlin239:
00000de6 20362400       3424 	movea	36,zero,r6
                        3425 	jarl	_FblDiagSetError,lp
                        3425 <EXPANSION BEGIN>
                        3425 jarl22 _FblDiagSetError , lp 
00000dea 80ff0000*      3425 <EXPANSION END>
                        3426 --line2141
                        3427 ..lin.C.3A.5C_ECU2.5CECU_Rivian_A1.5CTarget.5Crepo_projects.5CpFOTA.5CcL_LATEST.5Cmake.5Cobj.5Cfbl_diag_oem.240::
                        3428 .LDWlin240:
00000dee 01ea           3429 	mov	1,r29
00000df0 c51d*          3430 	br	.L5949
                        3431 .L5951:
                        3432 --line2144
                        3433 ..lin.C.3A.5C_ECU2.5CECU_Rivian_A1.5CTarget.5Crepo_projects.5CpFOTA.5CcL_LATEST.5Cmake.5Cobj.5Cfbl_diag_oem.241::
                        3434 .LDWlin241:
00000df2 cbb70000       3435 	clr1	6,0[r11]
00000df6 0330           3436 	mov	sp,r6
                        3437 	jarl	_FblMemSegmentEndIndication,lp
                        3437 <EXPANSION BEGIN>
                        3437 jarl22 _FblMemSegmentEndIndication , lp 
00000df8 80ff0000*      3437 <EXPANSION END>
00000dfc 0ae8           3438 	mov	r10,r29
                        3439 --line2147
                        3440 ..lin.C.3A.5C_ECU2.5CECU_Rivian_A1.5CTarget.5Crepo_projects.5CpFOTA.5CcL_LATEST.5Cmake.5Cobj.5Cfbl_diag_oem.242::
                        3441 .LDWlin242:
                        3442 	jarl	_FblDiagMemGetActiveBuffer,lp
                        3442 <EXPANSION BEGIN>
                        3442 jarl22 _FblDiagMemGetActiveBuffer , lp 
00000dfe 80ff0000*      3442 <EXPANSION END>
                        3443 --line2149

                                                                      Page 65
                                                              C:\Users\nhuliyap\AppData\Local\Temp\gh_000099c1.s
                        3444 ..lin.C.3A.5C_ECU2.5CECU_Rivian_A1.5CTarget.5Crepo_projects.5CpFOTA.5CcL_LATEST.5Cmake.5Cobj.5Cfbl_diag_oem.243::
                        3445 .LDWlin243:
00000e02 ddeeff00       3446 	andi	255,r29,r29
00000e06 1d30           3447 	mov	r29,r6
00000e08 da0d*          3448 	bne	.L5954
                        3449 --line2151
                        3450 ..lin.C.3A.5C_ECU2.5CECU_Rivian_A1.5CTarget.5Crepo_projects.5CpFOTA.5CcL_LATEST.5Cmake.5Cobj.5Cfbl_diag_oem.244::
                        3451 .LDWlin244:
00000e0a 2b0600000000*  3452 	mov	sdaoff23(_fblDiagStates+3),r11
00000e10 0b66ffff       3453 	addi	-1,r11,r12
00000e14 cb070000       3454 	set1	0,0[r11]
00000e18 cc3f0000       3455 	set1	7,0[r12]
                        3456 	jarl	_DiagProcessingDone,lp
                        3456 <EXPANSION BEGIN>
                        3456 jarl22 _DiagProcessingDone , lp 
00000e1c 80ff0000*      3456 <EXPANSION END>
                        3457 --line2154
                        3458 ..lin.C.3A.5C_ECU2.5CECU_Rivian_A1.5CTarget.5Crepo_projects.5CpFOTA.5CcL_LATEST.5Cmake.5Cobj.5Cfbl_diag_oem.245::
                        3459 .LDWlin245:
00000e20 c505*          3460 	br	.L5949
                        3461 .L5954:
                        3462 --line2158
                        3463 ..lin.C.3A.5C_ECU2.5CECU_Rivian_A1.5CTarget.5Crepo_projects.5CpFOTA.5CcL_LATEST.5Cmake.5Cobj.5Cfbl_diag_oem.246::
                        3464 .LDWlin246:
                        3465 	jarl	_FblDiagSetError,lp
                        3465 <EXPANSION BEGIN>
                        3465 jarl22 _FblDiagSetError , lp 
00000e22 80ff0000*      3465 <EXPANSION END>
                        3466 --line2159
                        3467 ..lin.C.3A.5C_ECU2.5CECU_Rivian_A1.5CTarget.5Crepo_projects.5CpFOTA.5CcL_LATEST.5Cmake.5Cobj.5Cfbl_diag_oem.247::
                        3468 .LDWlin247:
00000e26 01ea           3469 	mov	1,r29
                        3470 .L5949:
00000e28 1d50           3471 	mov	r29,r10
                        3472 --	    .ef
                        3473 .LDW511:
00000e2a 42067f00       3474 	dispose	1,{r29,r31},[lp]
                        3475 	.type	_FblDiagReqTransferExitMainHandler,@function
                        3476 	.size	_FblDiagReqTransferExitMainHandler,.-_FblDiagReqTransferExitMainHandler
                        3477 	.type	_FblDiagReqTransferExitMainHandler..C.3A.5C_ECU2.5CECU_Rivian_A1.5CTarget.5Crepo_projects.5CpFOTA.5CcL_LATEST.5Cmake.5Cobj.5Cfbl_diag_oem.,@function
                        3478 	.size	_FblDiagReqTransferExitMainHandler..C.3A.5C_ECU2.5CECU_Rivian_A1.5CTarget.5Crepo_projects.5CpFOTA.5CcL_LATEST.5Cmake.5Cobj.5Cfbl_diag_oem.,.-_FblDiagReqTransferExitMainHandler..C.3A.5C_ECU2.5CECU_Rivian_A1.5CTarget.5Crepo_projects.5CpFOTA.5CcL_LATEST.5Cmake.5Cobj.5Cfbl_diag_oem.
                        3479 	.align	2
                        3480 .LDW611:
                        3481 --_result	r10	local
                        3482 --_libMemResult	r29	local
                        3483 --_totalProgramLength	0[sp]	local
                        3484 
                        3485 --_pbDiagData	none	param
                        3486 --_diagReqDataLen	none	param
                        3487 
                        3488 	.section ".bss","awb"
                        3489 .L6018:
                        3490 	.type	.L6018,@object
                        3491 	.size	.L6018,0
                        3492 	.data
                        3493 	.text
                        3494 	.align	2
                        3495 	.align	2
                        3496 ..gh.f.f.1.e.35:
                        3497 	.type	..gh.f.f.1.e.35,@object
                        3498 	.size	..gh.f.f.1.e.35,0

                                                                      Page 66
                                                              C:\Users\nhuliyap\AppData\Local\Temp\gh_000099c1.s
                        3499 	.global	_FblDiagTesterPresentMainHandler..C.3A.5C_ECU2.5CECU_Rivian_A1.5CTarget.5Crepo_projects.5CpFOTA.5CcL_LATEST.5Cmake.5Cobj.5Cfbl_diag_oem.
                        3500 _FblDiagTesterPresentMainHandler..C.3A.5C_ECU2.5CECU_Rivian_A1.5CTarget.5Crepo_projects.5CpFOTA.5CcL_LATEST.5Cmake.5Cobj.5Cfbl_diag_oem.:
                        3501 _FblDiagTesterPresentMainHandler:
00000e2e 80072100       3502 	prepare	{r31},0
                        3503 --	    .bf
                        3504 .LDW711:
00000e32 0132           3505 	mov	1,r6
                        3506 	jarl	_DiagProcessingDone,lp
                        3506 <EXPANSION BEGIN>
                        3506 jarl22 _DiagProcessingDone , lp 
00000e34 80ff0000*      3506 <EXPANSION END>
                        3507 --line2175
                        3508 ..lin.C.3A.5C_ECU2.5CECU_Rivian_A1.5CTarget.5Crepo_projects.5CpFOTA.5CcL_LATEST.5Cmake.5Cobj.5Cfbl_diag_oem.248::
                        3509 .LDWlin248:
00000e38 0052           3510 	mov	0,r10
                        3511 --	    .ef
                        3512 .LDW811:
00000e3a 40063f00       3513 	dispose	0,{r31},[lp]
                        3514 	.type	_FblDiagTesterPresentMainHandler,@function
                        3515 	.size	_FblDiagTesterPresentMainHandler,.-_FblDiagTesterPresentMainHandler
                        3516 	.type	_FblDiagTesterPresentMainHandler..C.3A.5C_ECU2.5CECU_Rivian_A1.5CTarget.5Crepo_projects.5CpFOTA.5CcL_LATEST.5Cmake.5Cobj.5Cfbl_diag_oem.,@function
                        3517 	.size	_FblDiagTesterPresentMainHandler..C.3A.5C_ECU2.5CECU_Rivian_A1.5CTarget.5Crepo_projects.5CpFOTA.5CcL_LATEST.5Cmake.5Cobj.5Cfbl_diag_oem.,.-_FblDiagTesterPresentMainHandler..C.3A.5C_ECU2.5CECU_Rivian_A1.5CTarget.5Crepo_projects.5CpFOTA.5CcL_LATEST.5Cmake.5Cobj.5Cfbl_diag_oem.
                        3518 	.align	2
                        3519 .LDW911:
                        3520 
                        3521 --_pbDiagData	none	param
                        3522 --_diagReqDataLen	none	param
                        3523 
                        3524 	.section ".bss","awb"
                        3525 .L6113:
                        3526 	.type	.L6113,@object
                        3527 	.size	.L6113,0
                        3528 	.data
                        3529 	.text
                        3530 	.align	2
                        3531 	.align	2
                        3532 ..gh.f.f.1.e.36:
                        3533 	.type	..gh.f.f.1.e.36,@object
                        3534 	.size	..gh.f.f.1.e.36,0
                        3535 	.global	_FblDiagControlDTCMainHandler..C.3A.5C_ECU2.5CECU_Rivian_A1.5CTarget.5Crepo_projects.5CpFOTA.5CcL_LATEST.5Cmake.5Cobj.5Cfbl_diag_oem.
                        3536 _FblDiagControlDTCMainHandler..C.3A.5C_ECU2.5CECU_Rivian_A1.5CTarget.5Crepo_projects.5CpFOTA.5CcL_LATEST.5Cmake.5Cobj.5Cfbl_diag_oem.:
                        3537 _FblDiagControlDTCMainHandler:
00000e3e 80072100       3538 	prepare	{r31},0
                        3539 --	    .bf
                        3540 .LDW021:
00000e42 0132           3541 	mov	1,r6
                        3542 	jarl	_DiagProcessingDone,lp
                        3542 <EXPANSION BEGIN>
                        3542 jarl22 _DiagProcessingDone , lp 
00000e44 80ff0000*      3542 <EXPANSION END>
                        3543 --line2206
                        3544 ..lin.C.3A.5C_ECU2.5CECU_Rivian_A1.5CTarget.5Crepo_projects.5CpFOTA.5CcL_LATEST.5Cmake.5Cobj.5Cfbl_diag_oem.249::
                        3545 .LDWlin249:
00000e48 0052           3546 	mov	0,r10
                        3547 --	    .ef
                        3548 .LDW121:
00000e4a 40063f00       3549 	dispose	0,{r31},[lp]
                        3550 	.type	_FblDiagControlDTCMainHandler,@function
                        3551 	.size	_FblDiagControlDTCMainHandler,.-_FblDiagControlDTCMainHandler
                        3552 	.type	_FblDiagControlDTCMainHandler..C.3A.5C_ECU2.5CECU_Rivian_A1.5CTarget.5Crepo_projects.5CpFOTA.5CcL_LATEST.5Cmake.5Cobj.5Cfbl_diag_oem.,@function
                        3553 	.size	_FblDiagControlDTCMainHandler..C.3A.5C_ECU2.5CECU_Rivian_A1.5CTarget.5Crepo_projects.5CpFOTA.5CcL_LATEST.5Cmake.5Cobj.5Cfbl_diag_oem.,.-_FblDiagControlDTCMainHandler..C.3A.5C_ECU2.5CECU_Rivian_A1.5CTarget.5Crepo_projects.5CpFOTA.5CcL_LATEST.5Cmake.5Cobj.5Cfbl_diag_oem.

                                                                      Page 67
                                                              C:\Users\nhuliyap\AppData\Local\Temp\gh_000099c1.s
                        3554 	.align	2
                        3555 .LDW221:
                        3556 
                        3557 --_pbDiagData	none	param
                        3558 --_diagReqDataLen	none	param
                        3559 
                        3560 	.section ".bss","awb"
                        3561 .L6161:
                        3562 	.type	.L6161,@object
                        3563 	.size	.L6161,0
                        3564 	.data
                        3565 	.text
                        3566 	.align	2
                        3567 	.align	2
                        3568 ..gh.f.f.1.e.37:
                        3569 	.type	..gh.f.f.1.e.37,@object
                        3570 	.size	..gh.f.f.1.e.37,0
                        3571 	.global	_FblDiagReadDataByIdMainHandler..C.3A.5C_ECU2.5CECU_Rivian_A1.5CTarget.5Crepo_projects.5CpFOTA.5CcL_LATEST.5Cmake.5Cobj.5Cfbl_diag_oem.
                        3572 _FblDiagReadDataByIdMainHandler..C.3A.5C_ECU2.5CECU_Rivian_A1.5CTarget.5Crepo_projects.5CpFOTA.5CcL_LATEST.5Cmake.5Cobj.5Cfbl_diag_oem.:
                        3573 _FblDiagReadDataByIdMainHandler:
00000e4e 80072100       3574 	prepare	{r31},0
00000e52 c700           3575 	zxh	r7
                        3576 --	    .bf
                        3577 .LDW321:
                        3578 	jarl	_ApplFblReadDataByIdentifier,lp
                        3578 <EXPANSION BEGIN>
                        3578 jarl22 _ApplFblReadDataByIdentifier , lp 
00000e54 80ff0000*      3578 <EXPANSION END>
                        3579 --line2212
                        3580 ..lin.C.3A.5C_ECU2.5CECU_Rivian_A1.5CTarget.5Crepo_projects.5CpFOTA.5CcL_LATEST.5Cmake.5Cobj.5Cfbl_diag_oem.250::
                        3581 .LDWlin250:
00000e58 0052           3582 	mov	0,r10
                        3583 --	    .ef
                        3584 .LDW421:
00000e5a 40063f00       3585 	dispose	0,{r31},[lp]
                        3586 	.type	_FblDiagReadDataByIdMainHandler,@function
                        3587 	.size	_FblDiagReadDataByIdMainHandler,.-_FblDiagReadDataByIdMainHandler
                        3588 	.type	_FblDiagReadDataByIdMainHandler..C.3A.5C_ECU2.5CECU_Rivian_A1.5CTarget.5Crepo_projects.5CpFOTA.5CcL_LATEST.5Cmake.5Cobj.5Cfbl_diag_oem.,@function
                        3589 	.size	_FblDiagReadDataByIdMainHandler..C.3A.5C_ECU2.5CECU_Rivian_A1.5CTarget.5Crepo_projects.5CpFOTA.5CcL_LATEST.5Cmake.5Cobj.5Cfbl_diag_oem.,.-_FblDiagReadDataByIdMainHandler..C.3A.5C_ECU2.5CECU_Rivian_A1.5CTarget.5Crepo_projects.5CpFOTA.5CcL_LATEST.5Cmake.5Cobj.5Cfbl_diag_oem.
                        3590 	.align	2
                        3591 .LDW521:
                        3592 
                        3593 --_pbDiagData	r6	param
                        3594 --_diagReqDataLen	r7	param
                        3595 
                        3596 	.section ".bss","awb"
                        3597 .L6209:
                        3598 	.type	.L6209,@object
                        3599 	.size	.L6209,0
                        3600 	.data
                        3601 	.text
                        3602 	.align	2
                        3603 	.align	2
                        3604 ..gh.f.f.1.e.38:
                        3605 	.type	..gh.f.f.1.e.38,@object
                        3606 	.size	..gh.f.f.1.e.38,0
                        3607 	.global	_FblDiagWdbiModuleToProgramMainHandler..C.3A.5C_ECU2.5CECU_Rivian_A1.5CTarget.5Crepo_projects.5CpFOTA.5CcL_LATEST.5Cmake.5Cobj.5Cfbl_diag_oem.
                        3608 _FblDiagWdbiModuleToProgramMainHandler..C.3A.5C_ECU2.5CECU_Rivian_A1.5CTarget.5Crepo_projects.5CpFOTA.5CcL_LATEST.5Cmake.5Cobj.5Cfbl_diag_oem.:
                        3609 _FblDiagWdbiModuleToProgramMainHandler:
00000e5e 80076100       3610 	prepare	{r29,r31},0
00000e62 c700           3611 	zxh	r7

                                                                      Page 68
                                                              C:\Users\nhuliyap\AppData\Local\Temp\gh_000099c1.s
                        3612 --	    .bf
                        3613 .LDW621:
00000e64 633a           3614 	cmp	3,r7
00000e66 f205*          3615 	be	.L6229
                        3616 --line2219
                        3617 ..lin.C.3A.5C_ECU2.5CECU_Rivian_A1.5CTarget.5Crepo_projects.5CpFOTA.5CcL_LATEST.5Cmake.5Cobj.5Cfbl_diag_oem.251::
                        3618 .LDWlin251:
00000e68 20361300       3619 	movea	19,zero,r6
                        3620 	jarl	_FblDiagSetError,lp
                        3620 <EXPANSION BEGIN>
                        3620 jarl22 _FblDiagSetError , lp 
00000e6c 80ff0000*      3620 <EXPANSION END>
                        3621 --line2220
                        3622 ..lin.C.3A.5C_ECU2.5CECU_Rivian_A1.5CTarget.5Crepo_projects.5CpFOTA.5CcL_LATEST.5Cmake.5Cobj.5Cfbl_diag_oem.252::
                        3623 .LDWlin252:
00000e70 01ea           3624 	mov	1,r29
00000e72 f535*          3625 	br	.L6241
                        3626 .L6229:
                        3627 --line2223
                        3628 ..lin.C.3A.5C_ECU2.5CECU_Rivian_A1.5CTarget.5Crepo_projects.5CpFOTA.5CcL_LATEST.5Cmake.5Cobj.5Cfbl_diag_oem.253::
                        3629 .LDWlin253:
00000e74 2b0600000000*  3630 	mov	sdaoff23(_fblDiagStates),r11
00000e7a 06f0           3631 	mov	r6,ep
00000e7c 00ea           3632 	mov	0,r29
00000e7e cbd70000       3633 	tst1	2,0[r11]
00000e82 fa05*          3634 	bne	.L6232
                        3635 --line2224
                        3636 ..lin.C.3A.5C_ECU2.5CECU_Rivian_A1.5CTarget.5Crepo_projects.5CpFOTA.5CcL_LATEST.5Cmake.5Cobj.5Cfbl_diag_oem.254::
                        3637 .LDWlin254:
00000e84 20363100       3638 	movea	49,zero,r6
                        3639 	jarl	_FblDiagSetError,lp
                        3639 <EXPANSION BEGIN>
                        3639 jarl22 _FblDiagSetError , lp 
00000e88 80ff0000*      3639 <EXPANSION END>
                        3640 --line2225
                        3641 ..lin.C.3A.5C_ECU2.5CECU_Rivian_A1.5CTarget.5Crepo_projects.5CpFOTA.5CcL_LATEST.5Cmake.5Cobj.5Cfbl_diag_oem.255::
                        3642 .LDWlin255:
00000e8c 01ea           3643 	mov	1,r29
00000e8e 952d*          3644 	br	.L6241
                        3645 .L6232:
                        3646 --line2228
                        3647 ..lin.C.3A.5C_ECU2.5CECU_Rivian_A1.5CTarget.5Crepo_projects.5CpFOTA.5CcL_LATEST.5Cmake.5Cobj.5Cfbl_diag_oem.256::
                        3648 .LDWlin256:
00000e90 2b0600000000*  3649 	mov	sdaoff23(_fblDiagStates+2),r11
00000e96 cbdf0000       3650 	tst1	3,0[r11]
00000e9a fa05*          3651 	bne	.L6235
                        3652 --line2229
                        3653 ..lin.C.3A.5C_ECU2.5CECU_Rivian_A1.5CTarget.5Crepo_projects.5CpFOTA.5CcL_LATEST.5Cmake.5Cobj.5Cfbl_diag_oem.257::
                        3654 .LDWlin257:
00000e9c 20363300       3655 	movea	51,zero,r6
                        3656 	jarl	_FblDiagSetError,lp
                        3656 <EXPANSION BEGIN>
                        3656 jarl22 _FblDiagSetError , lp 
00000ea0 80ff0000*      3656 <EXPANSION END>
                        3657 --line2230
                        3658 ..lin.C.3A.5C_ECU2.5CECU_Rivian_A1.5CTarget.5Crepo_projects.5CpFOTA.5CcL_LATEST.5Cmake.5Cobj.5Cfbl_diag_oem.258::
                        3659 .LDWlin258:
00000ea4 01ea           3660 	mov	1,r29
00000ea6 d51d*          3661 	br	.L6241
                        3662 .L6235:
                        3663 --line2234

                                                                      Page 69
                                                              C:\Users\nhuliyap\AppData\Local\Temp\gh_000099c1.s
                        3664 ..lin.C.3A.5C_ECU2.5CECU_Rivian_A1.5CTarget.5Crepo_projects.5CpFOTA.5CcL_LATEST.5Cmake.5Cobj.5Cfbl_diag_oem.259::
                        3665 .LDWlin259:
00000ea8 6230           3666 	sld.bu	2[ep],r6
00000eaa 6532           3667 	cmp	5,r6
00000eac da15*          3668 	bne	.L6238
                        3669 --line2235
                        3670 ..lin.C.3A.5C_ECU2.5CECU_Rivian_A1.5CTarget.5Crepo_projects.5CpFOTA.5CcL_LATEST.5Cmake.5Cobj.5Cfbl_diag_oem.260::
                        3671 .LDWlin260:
00000eae 3e0600000000*  3672 	mov	rosdaoff23(_FblLogicalBlockTable),ep
00000eb4 069d           3673 	sld.w	12[ep],r19
00000eb6 0895           3674 	sld.w	16[ep],r18
00000eb8 2b0600000000*  3675 	mov	sdaoff23(_fblDiagStates+3),r11
00000ebe cb170000       3676 	set1	2,0[r11]
00000ec2 84070f980000*  3677 	st.w	r19,sdaoff23(_ulMemEraseStartAddress)[gp]
00000ec8 84070f900000*  3678 	st.w	r18,sdaoff23(_ulMemEraseLength)[gp]
00000ece 0232           3679 	mov	2,r6
                        3680 	jarl	_DiagProcessingDone,lp
                        3680 <EXPANSION BEGIN>
                        3680 jarl22 _DiagProcessingDone , lp 
00000ed0 80ff0000*      3680 <EXPANSION END>
00000ed4 e505*          3681 	br	.L6241
                        3682 .L6238:
                        3683 --line2240
                        3684 ..lin.C.3A.5C_ECU2.5CECU_Rivian_A1.5CTarget.5Crepo_projects.5CpFOTA.5CcL_LATEST.5Cmake.5Cobj.5Cfbl_diag_oem.261::
                        3685 .LDWlin261:
00000ed6 01ea           3686 	mov	1,r29
00000ed8 20363100       3687 	movea	49,zero,r6
                        3688 	jarl	_FblDiagSetError,lp
                        3688 <EXPANSION BEGIN>
                        3688 jarl22 _FblDiagSetError , lp 
00000edc 80ff0000*      3688 <EXPANSION END>
                        3689 .L6241:
                        3690 --line2250
                        3691 ..lin.C.3A.5C_ECU2.5CECU_Rivian_A1.5CTarget.5Crepo_projects.5CpFOTA.5CcL_LATEST.5Cmake.5Cobj.5Cfbl_diag_oem.262::
                        3692 .LDWlin262:
00000ee0 1d50           3693 	mov	r29,r10
                        3694 --	    .ef
                        3695 .LDW721:
00000ee2 40067f00       3696 	dispose	0,{r29,r31},[lp]
                        3697 	.type	_FblDiagWdbiModuleToProgramMainHandler,@function
                        3698 	.size	_FblDiagWdbiModuleToProgramMainHandler,.-_FblDiagWdbiModuleToProgramMainHandler
                        3699 	.type	_FblDiagWdbiModuleToProgramMainHandler..C.3A.5C_ECU2.5CECU_Rivian_A1.5CTarget.5Crepo_projects.5CpFOTA.5CcL_LATEST.5Cmake.5Cobj.5Cfbl_diag_oem.,@function
                        3700 	.size	_FblDiagWdbiModuleToProgramMainHandler..C.3A.5C_ECU2.5CECU_Rivian_A1.5CTarget.5Crepo_projects.5CpFOTA.5CcL_LATEST.5Cmake.5Cobj.5Cfbl_diag_oem.,.-_FblDiagWdbiModuleToProgramMainHandler..C.3A.5C_ECU2.5CECU_Rivian_A1.5CTarget.5Crepo_projects.5CpFOTA.5CcL_LATEST.5Cmake.5Cobj.5Cfbl_diag_oem.
                        3701 	.align	2
                        3702 .LDW821:
                        3703 --_result	r29	local
                        3704 
                        3705 --_pbDiagData	ep	param
                        3706 --_diagReqDataLen	r7	param
                        3707 
                        3708 	.section ".bss","awb"
                        3709 .L6351:
                        3710 	.type	.L6351,@object
                        3711 	.size	.L6351,0
                        3712 	.data
                        3713 	.text
                        3714 	.align	2
                        3715 	.align	2
                        3716 ..gh.f.f.1.e.39:
                        3717 	.type	..gh.f.f.1.e.39,@object
                        3718 	.size	..gh.f.f.1.e.39,0

                                                                      Page 70
                                                              C:\Users\nhuliyap\AppData\Local\Temp\gh_000099c1.s
                        3719 	.global	_FblDiagWdbiBoardPartnumberMainHandler..C.3A.5C_ECU2.5CECU_Rivian_A1.5CTarget.5Crepo_projects.5CpFOTA.5CcL_LATEST.5Cmake.5Cobj.5Cfbl_diag_oem.
                        3720 _FblDiagWdbiBoardPartnumberMainHandler..C.3A.5C_ECU2.5CECU_Rivian_A1.5CTarget.5Crepo_projects.5CpFOTA.5CcL_LATEST.5Cmake.5Cobj.5Cfbl_diag_oem.:
                        3721 _FblDiagWdbiBoardPartnumberMainHandler:
00000ee6 98076100       3722 	prepare	{r29,r31},12
00000eea 06e8           3723 	mov	r6,r29
00000eec 633f0600       3724 	st.h	r7,6[sp]
                        3725 --	    .bf
                        3726 .LDW921:
00000ef0 23360800       3727 	movea	8,sp,r6
                        3728 	jarl	_PRODFLASH_GetRivianBoardPartNumber,lp
                        3728 <EXPANSION BEGIN>
                        3728 jarl22 _PRODFLASH_GetRivianBoardPartNumber , lp 
00000ef4 80ff0000*      3728 <EXPANSION END>
                        3729 --line2260
                        3730 ..lin.C.3A.5C_ECU2.5CECU_Rivian_A1.5CTarget.5Crepo_projects.5CpFOTA.5CcL_LATEST.5Cmake.5Cobj.5Cfbl_diag_oem.263::
                        3731 .LDWlin263:
00000ef8 0a38           3732 	mov	r10,r7
00000efa 23360800       3733 	movea	8,sp,r6
                        3734 	jarl	_SUPPLIER1_IsMemoryInitialized,lp
                        3734 <EXPANSION BEGIN>
                        3734 jarl22 _SUPPLIER1_IsMemoryInitialized , lp 
00000efe 80ff0000*      3734 <EXPANSION END>
00000f02 e051           3735 	cmp	zero,r10
00000f04 fa05*          3736 	bne	.L6458
                        3737 --line2261
                        3738 ..lin.C.3A.5C_ECU2.5CECU_Rivian_A1.5CTarget.5Crepo_projects.5CpFOTA.5CcL_LATEST.5Cmake.5Cobj.5Cfbl_diag_oem.264::
                        3739 .LDWlin264:
00000f06 01ea           3740 	mov	1,r29
00000f08 20362200       3741 	movea	34,zero,r6
                        3742 	jarl	_FblDiagSetError,lp
                        3742 <EXPANSION BEGIN>
                        3742 jarl22 _FblDiagSetError , lp 
00000f0c 80ff0000*      3742 <EXPANSION END>
00000f10 b515*          3743 	br	.L6459
                        3744 .L6458:
                        3745 --line2266
                        3746 ..lin.C.3A.5C_ECU2.5CECU_Rivian_A1.5CTarget.5Crepo_projects.5CpFOTA.5CcL_LATEST.5Cmake.5Cobj.5Cfbl_diag_oem.265::
                        3747 .LDWlin265:
00000f12 1d30           3748 	mov	r29,r6
00000f14 233e0600       3749 	movea	6,sp,r7
                        3750 	jarl	_SUPPLIER1_CustomDid_WriteBoardPartnumber,lp
                        3750 <EXPANSION BEGIN>
                        3750 jarl22 _SUPPLIER1_CustomDid_WriteBoardPartnumber , lp 
00000f18 80ff0000*      3750 <EXPANSION END>
00000f1c 0ae8           3751 	mov	r10,r29
                        3752 --line2267
                        3753 ..lin.C.3A.5C_ECU2.5CECU_Rivian_A1.5CTarget.5Crepo_projects.5CpFOTA.5CcL_LATEST.5Cmake.5Cobj.5Cfbl_diag_oem.266::
                        3754 .LDWlin266:
                        3755 	jarl	_SUPPLIER1_CalcGenealogyBlockCrc32,lp
                        3755 <EXPANSION BEGIN>
                        3755 jarl22 _SUPPLIER1_CalcGenealogyBlockCrc32 , lp 
00000f1e 80ff0000*      3755 <EXPANSION END>
00000f22 63570100       3756 	st.w	r10,0[sp]
                        3757 --line2268
                        3758 ..lin.C.3A.5C_ECU2.5CECU_Rivian_A1.5CTarget.5Crepo_projects.5CpFOTA.5CcL_LATEST.5Cmake.5Cobj.5Cfbl_diag_oem.267::
                        3759 .LDWlin267:
00000f26 0330           3760 	mov	sp,r6
                        3761 	jarl	_PRODFLASH_PutGenealogyCrc32,lp
                        3761 <EXPANSION BEGIN>
                        3761 jarl22 _PRODFLASH_PutGenealogyCrc32 , lp 
00000f28 80ff0000*      3761 <EXPANSION END>

                                                                      Page 71
                                                              C:\Users\nhuliyap\AppData\Local\Temp\gh_000099c1.s
                        3762 --line2271
                        3763 ..lin.C.3A.5C_ECU2.5CECU_Rivian_A1.5CTarget.5Crepo_projects.5CpFOTA.5CcL_LATEST.5Cmake.5Cobj.5Cfbl_diag_oem.268::
                        3764 .LDWlin268:
00000f2c e0e9           3765 	cmp	zero,r29
00000f2e ca05*          3766 	bne	.L6459
                        3767 --line2272
                        3768 ..lin.C.3A.5C_ECU2.5CECU_Rivian_A1.5CTarget.5Crepo_projects.5CpFOTA.5CcL_LATEST.5Cmake.5Cobj.5Cfbl_diag_oem.269::
                        3769 .LDWlin269:
00000f30 0232           3770 	mov	2,r6
                        3771 	jarl	_DiagProcessingDone,lp
                        3771 <EXPANSION BEGIN>
                        3771 jarl22 _DiagProcessingDone , lp 
00000f32 80ff0000*      3771 <EXPANSION END>
                        3772 .L6459:
                        3773 --line2274
                        3774 ..lin.C.3A.5C_ECU2.5CECU_Rivian_A1.5CTarget.5Crepo_projects.5CpFOTA.5CcL_LATEST.5Cmake.5Cobj.5Cfbl_diag_oem.270::
                        3775 .LDWlin270:
00000f36 1d50           3776 	mov	r29,r10
                        3777 --	    .ef
                        3778 .LDW031:
00000f38 58067f00       3779 	dispose	12,{r29,r31},[lp]
                        3780 	.type	_FblDiagWdbiBoardPartnumberMainHandler,@function
                        3781 	.size	_FblDiagWdbiBoardPartnumberMainHandler,.-_FblDiagWdbiBoardPartnumberMainHandler
                        3782 	.type	_FblDiagWdbiBoardPartnumberMainHandler..C.3A.5C_ECU2.5CECU_Rivian_A1.5CTarget.5Crepo_projects.5CpFOTA.5CcL_LATEST.5Cmake.5Cobj.5Cfbl_diag_oem.,@function
                        3783 	.size	_FblDiagWdbiBoardPartnumberMainHandler..C.3A.5C_ECU2.5CECU_Rivian_A1.5CTarget.5Crepo_projects.5CpFOTA.5CcL_LATEST.5Cmake.5Cobj.5Cfbl_diag_oem.,.-_FblDiagWdbiBoardPartnumberMainHandler..C.3A.5C_ECU2.5CECU_Rivian_A1.5CTarget.5Crepo_projects.5CpFOTA.5CcL_LATEST.5Cmake.5Cobj.5Cfbl_diag_oem.
                        3784 	.align	2
                        3785 .LDW131:
                        3786 --_result	r29	local
                        3787 --_ulGenealogyCrc32	0[sp]	local
                        3788 --_ucBuffer	8[sp]	local
                        3789 
                        3790 --_pbDiagData	r29	param
                        3791 --_diagReqDataLen	6[sp]	param
                        3792 
                        3793 	.section ".bss","awb"
                        3794 .L6524:
                        3795 	.type	.L6524,@object
                        3796 	.size	.L6524,0
                        3797 	.data
                        3798 	.text
                        3799 	.align	2
                        3800 	.align	2
                        3801 ..gh.f.f.1.e.40:
                        3802 	.type	..gh.f.f.1.e.40,@object
                        3803 	.size	..gh.f.f.1.e.40,0
                        3804 	.global	_FblDiagWdbiEcuPartnumberMainHandler..C.3A.5C_ECU2.5CECU_Rivian_A1.5CTarget.5Crepo_projects.5CpFOTA.5CcL_LATEST.5Cmake.5Cobj.5Cfbl_diag_oem.
                        3805 _FblDiagWdbiEcuPartnumberMainHandler..C.3A.5C_ECU2.5CECU_Rivian_A1.5CTarget.5Crepo_projects.5CpFOTA.5CcL_LATEST.5Cmake.5Cobj.5Cfbl_diag_oem.:
                        3806 _FblDiagWdbiEcuPartnumberMainHandler:
00000f3c 98076100       3807 	prepare	{r29,r31},12
00000f40 06e8           3808 	mov	r6,r29
00000f42 633f0600       3809 	st.h	r7,6[sp]
                        3810 --	    .bf
                        3811 .LDW231:
00000f46 23360800       3812 	movea	8,sp,r6
                        3813 	jarl	_PRODFLASH_GetRivianEcuPartNumber,lp
                        3813 <EXPANSION BEGIN>
                        3813 jarl22 _PRODFLASH_GetRivianEcuPartNumber , lp 
00000f4a 80ff0000*      3813 <EXPANSION END>
                        3814 --line2284
                        3815 ..lin.C.3A.5C_ECU2.5CECU_Rivian_A1.5CTarget.5Crepo_projects.5CpFOTA.5CcL_LATEST.5Cmake.5Cobj.5Cfbl_diag_oem.271::
                        3816 .LDWlin271:

                                                                      Page 72
                                                              C:\Users\nhuliyap\AppData\Local\Temp\gh_000099c1.s
00000f4e 0a38           3817 	mov	r10,r7
00000f50 23360800       3818 	movea	8,sp,r6
                        3819 	jarl	_SUPPLIER1_IsMemoryInitialized,lp
                        3819 <EXPANSION BEGIN>
                        3819 jarl22 _SUPPLIER1_IsMemoryInitialized , lp 
00000f54 80ff0000*      3819 <EXPANSION END>
00000f58 e051           3820 	cmp	zero,r10
00000f5a fa05*          3821 	bne	.L6586
                        3822 --line2285
                        3823 ..lin.C.3A.5C_ECU2.5CECU_Rivian_A1.5CTarget.5Crepo_projects.5CpFOTA.5CcL_LATEST.5Cmake.5Cobj.5Cfbl_diag_oem.272::
                        3824 .LDWlin272:
00000f5c 01ea           3825 	mov	1,r29
00000f5e 20362200       3826 	movea	34,zero,r6
                        3827 	jarl	_FblDiagSetError,lp
                        3827 <EXPANSION BEGIN>
                        3827 jarl22 _FblDiagSetError , lp 
00000f62 80ff0000*      3827 <EXPANSION END>
00000f66 b515*          3828 	br	.L6587
                        3829 .L6586:
                        3830 --line2290
                        3831 ..lin.C.3A.5C_ECU2.5CECU_Rivian_A1.5CTarget.5Crepo_projects.5CpFOTA.5CcL_LATEST.5Cmake.5Cobj.5Cfbl_diag_oem.273::
                        3832 .LDWlin273:
00000f68 1d30           3833 	mov	r29,r6
00000f6a 233e0600       3834 	movea	6,sp,r7
                        3835 	jarl	_SUPPLIER1_CustomDid_WriteEcuPartnumber,lp
                        3835 <EXPANSION BEGIN>
                        3835 jarl22 _SUPPLIER1_CustomDid_WriteEcuPartnumber , lp 
00000f6e 80ff0000*      3835 <EXPANSION END>
00000f72 0ae8           3836 	mov	r10,r29
                        3837 --line2292
                        3838 ..lin.C.3A.5C_ECU2.5CECU_Rivian_A1.5CTarget.5Crepo_projects.5CpFOTA.5CcL_LATEST.5Cmake.5Cobj.5Cfbl_diag_oem.274::
                        3839 .LDWlin274:
                        3840 	jarl	_SUPPLIER1_CalcGenealogyBlockCrc32,lp
                        3840 <EXPANSION BEGIN>
                        3840 jarl22 _SUPPLIER1_CalcGenealogyBlockCrc32 , lp 
00000f74 80ff0000*      3840 <EXPANSION END>
00000f78 63570100       3841 	st.w	r10,0[sp]
                        3842 --line2293
                        3843 ..lin.C.3A.5C_ECU2.5CECU_Rivian_A1.5CTarget.5Crepo_projects.5CpFOTA.5CcL_LATEST.5Cmake.5Cobj.5Cfbl_diag_oem.275::
                        3844 .LDWlin275:
00000f7c 0330           3845 	mov	sp,r6
                        3846 	jarl	_PRODFLASH_PutGenealogyCrc32,lp
                        3846 <EXPANSION BEGIN>
                        3846 jarl22 _PRODFLASH_PutGenealogyCrc32 , lp 
00000f7e 80ff0000*      3846 <EXPANSION END>
                        3847 --line2296
                        3848 ..lin.C.3A.5C_ECU2.5CECU_Rivian_A1.5CTarget.5Crepo_projects.5CpFOTA.5CcL_LATEST.5Cmake.5Cobj.5Cfbl_diag_oem.276::
                        3849 .LDWlin276:
00000f82 e0e9           3850 	cmp	zero,r29
00000f84 ca05*          3851 	bne	.L6587
                        3852 --line2297
                        3853 ..lin.C.3A.5C_ECU2.5CECU_Rivian_A1.5CTarget.5Crepo_projects.5CpFOTA.5CcL_LATEST.5Cmake.5Cobj.5Cfbl_diag_oem.277::
                        3854 .LDWlin277:
00000f86 0232           3855 	mov	2,r6
                        3856 	jarl	_DiagProcessingDone,lp
                        3856 <EXPANSION BEGIN>
                        3856 jarl22 _DiagProcessingDone , lp 
00000f88 80ff0000*      3856 <EXPANSION END>
                        3857 .L6587:
                        3858 --line2299
                        3859 ..lin.C.3A.5C_ECU2.5CECU_Rivian_A1.5CTarget.5Crepo_projects.5CpFOTA.5CcL_LATEST.5Cmake.5Cobj.5Cfbl_diag_oem.278::

                                                                      Page 73
                                                              C:\Users\nhuliyap\AppData\Local\Temp\gh_000099c1.s
                        3860 .LDWlin278:
00000f8c 1d50           3861 	mov	r29,r10
                        3862 --	    .ef
                        3863 .LDW331:
00000f8e 58067f00       3864 	dispose	12,{r29,r31},[lp]
                        3865 	.type	_FblDiagWdbiEcuPartnumberMainHandler,@function
                        3866 	.size	_FblDiagWdbiEcuPartnumberMainHandler,.-_FblDiagWdbiEcuPartnumberMainHandler
                        3867 	.type	_FblDiagWdbiEcuPartnumberMainHandler..C.3A.5C_ECU2.5CECU_Rivian_A1.5CTarget.5Crepo_projects.5CpFOTA.5CcL_LATEST.5Cmake.5Cobj.5Cfbl_diag_oem.,@function
                        3868 	.size	_FblDiagWdbiEcuPartnumberMainHandler..C.3A.5C_ECU2.5CECU_Rivian_A1.5CTarget.5Crepo_projects.5CpFOTA.5CcL_LATEST.5Cmake.5Cobj.5Cfbl_diag_oem.,.-_FblDiagWdbiEcuPartnumberMainHandler..C.3A.5C_ECU2.5CECU_Rivian_A1.5CTarget.5Crepo_projects.5CpFOTA.5CcL_LATEST.5Cmake.5Cobj.5Cfbl_diag_oem.
                        3869 	.align	2
                        3870 .LDW431:
                        3871 --_result	r29	local
                        3872 --_ulGenealogyCrc32	0[sp]	local
                        3873 --_ucBuffer	8[sp]	local
                        3874 
                        3875 --_pbDiagData	r29	param
                        3876 --_diagReqDataLen	6[sp]	param
                        3877 
                        3878 	.section ".bss","awb"
                        3879 .L6652:
                        3880 	.type	.L6652,@object
                        3881 	.size	.L6652,0
                        3882 	.data
                        3883 	.text
                        3884 	.align	2
                        3885 	.align	2
                        3886 ..gh.f.f.1.e.41:
                        3887 	.type	..gh.f.f.1.e.41,@object
                        3888 	.size	..gh.f.f.1.e.41,0
                        3889 	.global	_FblDiagWdbiBoardSerialnumberMainHandler..C.3A.5C_ECU2.5CECU_Rivian_A1.5CTarget.5Crepo_projects.5CpFOTA.5CcL_LATEST.5Cmake.5Cobj.5Cfbl_diag_oem.
                        3890 _FblDiagWdbiBoardSerialnumberMainHandler..C.3A.5C_ECU2.5CECU_Rivian_A1.5CTarget.5Crepo_projects.5CpFOTA.5CcL_LATEST.5Cmake.5Cobj.5Cfbl_diag_oem.:
                        3891 _FblDiagWdbiBoardSerialnumberMainHandler:
00000f92 98076100       3892 	prepare	{r29,r31},12
00000f96 06e8           3893 	mov	r6,r29
00000f98 633f0600       3894 	st.h	r7,6[sp]
                        3895 --	    .bf
                        3896 .LDW531:
00000f9c 23360800       3897 	movea	8,sp,r6
                        3898 	jarl	_PRODFLASH_GetRivianBoardSerialNumber,lp
                        3898 <EXPANSION BEGIN>
                        3898 jarl22 _PRODFLASH_GetRivianBoardSerialNumber , lp 
00000fa0 80ff0000*      3898 <EXPANSION END>
                        3899 --line2309
                        3900 ..lin.C.3A.5C_ECU2.5CECU_Rivian_A1.5CTarget.5Crepo_projects.5CpFOTA.5CcL_LATEST.5Cmake.5Cobj.5Cfbl_diag_oem.279::
                        3901 .LDWlin279:
00000fa4 0a38           3902 	mov	r10,r7
00000fa6 23360800       3903 	movea	8,sp,r6
                        3904 	jarl	_SUPPLIER1_IsMemoryInitialized,lp
                        3904 <EXPANSION BEGIN>
                        3904 jarl22 _SUPPLIER1_IsMemoryInitialized , lp 
00000faa 80ff0000*      3904 <EXPANSION END>
00000fae e051           3905 	cmp	zero,r10
00000fb0 fa05*          3906 	bne	.L6714
                        3907 --line2310
                        3908 ..lin.C.3A.5C_ECU2.5CECU_Rivian_A1.5CTarget.5Crepo_projects.5CpFOTA.5CcL_LATEST.5Cmake.5Cobj.5Cfbl_diag_oem.280::
                        3909 .LDWlin280:
00000fb2 01ea           3910 	mov	1,r29
00000fb4 20362200       3911 	movea	34,zero,r6
                        3912 	jarl	_FblDiagSetError,lp
                        3912 <EXPANSION BEGIN>
                        3912 jarl22 _FblDiagSetError , lp 

                                                                      Page 74
                                                              C:\Users\nhuliyap\AppData\Local\Temp\gh_000099c1.s
00000fb8 80ff0000*      3912 <EXPANSION END>
00000fbc b515*          3913 	br	.L6715
                        3914 .L6714:
                        3915 --line2315
                        3916 ..lin.C.3A.5C_ECU2.5CECU_Rivian_A1.5CTarget.5Crepo_projects.5CpFOTA.5CcL_LATEST.5Cmake.5Cobj.5Cfbl_diag_oem.281::
                        3917 .LDWlin281:
00000fbe 1d30           3918 	mov	r29,r6
00000fc0 233e0600       3919 	movea	6,sp,r7
                        3920 	jarl	_SUPPLIER1_CustomDid_WriteBoardSerialnumber,lp
                        3920 <EXPANSION BEGIN>
                        3920 jarl22 _SUPPLIER1_CustomDid_WriteBoardSerialnumber , lp 
00000fc4 80ff0000*      3920 <EXPANSION END>
00000fc8 0ae8           3921 	mov	r10,r29
                        3922 --line2317
                        3923 ..lin.C.3A.5C_ECU2.5CECU_Rivian_A1.5CTarget.5Crepo_projects.5CpFOTA.5CcL_LATEST.5Cmake.5Cobj.5Cfbl_diag_oem.282::
                        3924 .LDWlin282:
                        3925 	jarl	_SUPPLIER1_CalcGenealogyBlockCrc32,lp
                        3925 <EXPANSION BEGIN>
                        3925 jarl22 _SUPPLIER1_CalcGenealogyBlockCrc32 , lp 
00000fca 80ff0000*      3925 <EXPANSION END>
00000fce 63570100       3926 	st.w	r10,0[sp]
                        3927 --line2318
                        3928 ..lin.C.3A.5C_ECU2.5CECU_Rivian_A1.5CTarget.5Crepo_projects.5CpFOTA.5CcL_LATEST.5Cmake.5Cobj.5Cfbl_diag_oem.283::
                        3929 .LDWlin283:
00000fd2 0330           3930 	mov	sp,r6
                        3931 	jarl	_PRODFLASH_PutGenealogyCrc32,lp
                        3931 <EXPANSION BEGIN>
                        3931 jarl22 _PRODFLASH_PutGenealogyCrc32 , lp 
00000fd4 80ff0000*      3931 <EXPANSION END>
                        3932 --line2320
                        3933 ..lin.C.3A.5C_ECU2.5CECU_Rivian_A1.5CTarget.5Crepo_projects.5CpFOTA.5CcL_LATEST.5Cmake.5Cobj.5Cfbl_diag_oem.284::
                        3934 .LDWlin284:
00000fd8 e0e9           3935 	cmp	zero,r29
00000fda ca05*          3936 	bne	.L6715
                        3937 --line2321
                        3938 ..lin.C.3A.5C_ECU2.5CECU_Rivian_A1.5CTarget.5Crepo_projects.5CpFOTA.5CcL_LATEST.5Cmake.5Cobj.5Cfbl_diag_oem.285::
                        3939 .LDWlin285:
00000fdc 0232           3940 	mov	2,r6
                        3941 	jarl	_DiagProcessingDone,lp
                        3941 <EXPANSION BEGIN>
                        3941 jarl22 _DiagProcessingDone , lp 
00000fde 80ff0000*      3941 <EXPANSION END>
                        3942 .L6715:
                        3943 --line2323
                        3944 ..lin.C.3A.5C_ECU2.5CECU_Rivian_A1.5CTarget.5Crepo_projects.5CpFOTA.5CcL_LATEST.5Cmake.5Cobj.5Cfbl_diag_oem.286::
                        3945 .LDWlin286:
00000fe2 1d50           3946 	mov	r29,r10
                        3947 --	    .ef
                        3948 .LDW631:
00000fe4 58067f00       3949 	dispose	12,{r29,r31},[lp]
                        3950 	.type	_FblDiagWdbiBoardSerialnumberMainHandler,@function
                        3951 	.size	_FblDiagWdbiBoardSerialnumberMainHandler,.-_FblDiagWdbiBoardSerialnumberMainHandler
                        3952 	.type	_FblDiagWdbiBoardSerialnumberMainHandler..C.3A.5C_ECU2.5CECU_Rivian_A1.5CTarget.5Crepo_projects.5CpFOTA.5CcL_LATEST.5Cmake.5Cobj.5Cfbl_diag_oem.,@function
                        3953 	.size	_FblDiagWdbiBoardSerialnumberMainHandler..C.3A.5C_ECU2.5CECU_Rivian_A1.5CTarget.5Crepo_projects.5CpFOTA.5CcL_LATEST.5Cmake.5Cobj.5Cfbl_diag_oem.,.-_FblDiagWdbiBoardSerialnumberMainHandler..C.3A.5C_ECU2.5CECU_Rivian_A1.5CTarget.5Crepo_projects.5CpFOTA.5CcL_LATEST.5Cmake.5Cobj.5Cfbl_diag_oem.
                        3954 	.align	2
                        3955 .LDW731:
                        3956 --_result	r29	local
                        3957 --_ulGenealogyCrc32	0[sp]	local
                        3958 --_ucBuffer	8[sp]	local
                        3959 
                        3960 --_pbDiagData	r29	param

                                                                      Page 75
                                                              C:\Users\nhuliyap\AppData\Local\Temp\gh_000099c1.s
                        3961 --_diagReqDataLen	6[sp]	param
                        3962 
                        3963 	.section ".bss","awb"
                        3964 .L6780:
                        3965 	.type	.L6780,@object
                        3966 	.size	.L6780,0
                        3967 	.data
                        3968 	.text
                        3969 	.align	2
                        3970 	.align	2
                        3971 ..gh.f.f.1.e.42:
                        3972 	.type	..gh.f.f.1.e.42,@object
                        3973 	.size	..gh.f.f.1.e.42,0
                        3974 	.global	_FblDiagWdbiEcuSerialnumberMainHandler..C.3A.5C_ECU2.5CECU_Rivian_A1.5CTarget.5Crepo_projects.5CpFOTA.5CcL_LATEST.5Cmake.5Cobj.5Cfbl_diag_oem.
                        3975 _FblDiagWdbiEcuSerialnumberMainHandler..C.3A.5C_ECU2.5CECU_Rivian_A1.5CTarget.5Crepo_projects.5CpFOTA.5CcL_LATEST.5Cmake.5Cobj.5Cfbl_diag_oem.:
                        3976 _FblDiagWdbiEcuSerialnumberMainHandler:
00000fe8 98076100       3977 	prepare	{r29,r31},12
00000fec 06e8           3978 	mov	r6,r29
00000fee 633f0600       3979 	st.h	r7,6[sp]
                        3980 --	    .bf
                        3981 .LDW831:
00000ff2 23360800       3982 	movea	8,sp,r6
                        3983 	jarl	_PRODFLASH_GetRivianEcuSerialNumber,lp
                        3983 <EXPANSION BEGIN>
                        3983 jarl22 _PRODFLASH_GetRivianEcuSerialNumber , lp 
00000ff6 80ff0000*      3983 <EXPANSION END>
                        3984 --line2333
                        3985 ..lin.C.3A.5C_ECU2.5CECU_Rivian_A1.5CTarget.5Crepo_projects.5CpFOTA.5CcL_LATEST.5Cmake.5Cobj.5Cfbl_diag_oem.287::
                        3986 .LDWlin287:
00000ffa 0a38           3987 	mov	r10,r7
00000ffc 23360800       3988 	movea	8,sp,r6
                        3989 	jarl	_SUPPLIER1_IsMemoryInitialized,lp
                        3989 <EXPANSION BEGIN>
                        3989 jarl22 _SUPPLIER1_IsMemoryInitialized , lp 
00001000 80ff0000*      3989 <EXPANSION END>
00001004 e051           3990 	cmp	zero,r10
00001006 fa05*          3991 	bne	.L6842
                        3992 --line2334
                        3993 ..lin.C.3A.5C_ECU2.5CECU_Rivian_A1.5CTarget.5Crepo_projects.5CpFOTA.5CcL_LATEST.5Cmake.5Cobj.5Cfbl_diag_oem.288::
                        3994 .LDWlin288:
00001008 01ea           3995 	mov	1,r29
0000100a 20362200       3996 	movea	34,zero,r6
                        3997 	jarl	_FblDiagSetError,lp
                        3997 <EXPANSION BEGIN>
                        3997 jarl22 _FblDiagSetError , lp 
0000100e 80ff0000*      3997 <EXPANSION END>
00001012 b515*          3998 	br	.L6843
                        3999 .L6842:
                        4000 --line2339
                        4001 ..lin.C.3A.5C_ECU2.5CECU_Rivian_A1.5CTarget.5Crepo_projects.5CpFOTA.5CcL_LATEST.5Cmake.5Cobj.5Cfbl_diag_oem.289::
                        4002 .LDWlin289:
00001014 1d30           4003 	mov	r29,r6
00001016 233e0600       4004 	movea	6,sp,r7
                        4005 	jarl	_SUPPLIER1_CustomDid_WriteEcuSerialnumber,lp
                        4005 <EXPANSION BEGIN>
                        4005 jarl22 _SUPPLIER1_CustomDid_WriteEcuSerialnumber , lp 
0000101a 80ff0000*      4005 <EXPANSION END>
0000101e 0ae8           4006 	mov	r10,r29
                        4007 --line2341
                        4008 ..lin.C.3A.5C_ECU2.5CECU_Rivian_A1.5CTarget.5Crepo_projects.5CpFOTA.5CcL_LATEST.5Cmake.5Cobj.5Cfbl_diag_oem.290::
                        4009 .LDWlin290:

                                                                      Page 76
                                                              C:\Users\nhuliyap\AppData\Local\Temp\gh_000099c1.s
                        4010 	jarl	_SUPPLIER1_CalcGenealogyBlockCrc32,lp
                        4010 <EXPANSION BEGIN>
                        4010 jarl22 _SUPPLIER1_CalcGenealogyBlockCrc32 , lp 
00001020 80ff0000*      4010 <EXPANSION END>
00001024 63570100       4011 	st.w	r10,0[sp]
                        4012 --line2342
                        4013 ..lin.C.3A.5C_ECU2.5CECU_Rivian_A1.5CTarget.5Crepo_projects.5CpFOTA.5CcL_LATEST.5Cmake.5Cobj.5Cfbl_diag_oem.291::
                        4014 .LDWlin291:
00001028 0330           4015 	mov	sp,r6
                        4016 	jarl	_PRODFLASH_PutGenealogyCrc32,lp
                        4016 <EXPANSION BEGIN>
                        4016 jarl22 _PRODFLASH_PutGenealogyCrc32 , lp 
0000102a 80ff0000*      4016 <EXPANSION END>
                        4017 --line2345
                        4018 ..lin.C.3A.5C_ECU2.5CECU_Rivian_A1.5CTarget.5Crepo_projects.5CpFOTA.5CcL_LATEST.5Cmake.5Cobj.5Cfbl_diag_oem.292::
                        4019 .LDWlin292:
0000102e e0e9           4020 	cmp	zero,r29
00001030 ca05*          4021 	bne	.L6843
                        4022 --line2346
                        4023 ..lin.C.3A.5C_ECU2.5CECU_Rivian_A1.5CTarget.5Crepo_projects.5CpFOTA.5CcL_LATEST.5Cmake.5Cobj.5Cfbl_diag_oem.293::
                        4024 .LDWlin293:
00001032 0232           4025 	mov	2,r6
                        4026 	jarl	_DiagProcessingDone,lp
                        4026 <EXPANSION BEGIN>
                        4026 jarl22 _DiagProcessingDone , lp 
00001034 80ff0000*      4026 <EXPANSION END>
                        4027 .L6843:
                        4028 --line2348
                        4029 ..lin.C.3A.5C_ECU2.5CECU_Rivian_A1.5CTarget.5Crepo_projects.5CpFOTA.5CcL_LATEST.5Cmake.5Cobj.5Cfbl_diag_oem.294::
                        4030 .LDWlin294:
00001038 1d50           4031 	mov	r29,r10
                        4032 --	    .ef
                        4033 .LDW931:
0000103a 58067f00       4034 	dispose	12,{r29,r31},[lp]
                        4035 	.type	_FblDiagWdbiEcuSerialnumberMainHandler,@function
                        4036 	.size	_FblDiagWdbiEcuSerialnumberMainHandler,.-_FblDiagWdbiEcuSerialnumberMainHandler
                        4037 	.type	_FblDiagWdbiEcuSerialnumberMainHandler..C.3A.5C_ECU2.5CECU_Rivian_A1.5CTarget.5Crepo_projects.5CpFOTA.5CcL_LATEST.5Cmake.5Cobj.5Cfbl_diag_oem.,@function
                        4038 	.size	_FblDiagWdbiEcuSerialnumberMainHandler..C.3A.5C_ECU2.5CECU_Rivian_A1.5CTarget.5Crepo_projects.5CpFOTA.5CcL_LATEST.5Cmake.5Cobj.5Cfbl_diag_oem.,.-_FblDiagWdbiEcuSerialnumberMainHandler..C.3A.5C_ECU2.5CECU_Rivian_A1.5CTarget.5Crepo_projects.5CpFOTA.5CcL_LATEST.5Cmake.5Cobj.5Cfbl_diag_oem.
                        4039 	.align	2
                        4040 .LDW041:
                        4041 --_result	r29	local
                        4042 --_ulGenealogyCrc32	0[sp]	local
                        4043 --_ucBuffer	8[sp]	local
                        4044 
                        4045 --_pbDiagData	r29	param
                        4046 --_diagReqDataLen	6[sp]	param
                        4047 
                        4048 	.section ".bss","awb"
                        4049 .L6908:
                        4050 	.type	.L6908,@object
                        4051 	.size	.L6908,0
                        4052 	.data
                        4053 	.text
                        4054 	.align	2
                        4055 	.align	2
                        4056 ..gh.f.f.1.e.43:
                        4057 	.type	..gh.f.f.1.e.43,@object
                        4058 	.size	..gh.f.f.1.e.43,0
                        4059 	.global	_FblDiagWdbiVinMainHandler..C.3A.5C_ECU2.5CECU_Rivian_A1.5CTarget.5Crepo_projects.5CpFOTA.5CcL_LATEST.5Cmake.5Cobj.5Cfbl_diag_oem.
                        4060 _FblDiagWdbiVinMainHandler..C.3A.5C_ECU2.5CECU_Rivian_A1.5CTarget.5Crepo_projects.5CpFOTA.5CcL_LATEST.5Cmake.5Cobj.5Cfbl_diag_oem.:
                        4061 _FblDiagWdbiVinMainHandler:

                                                                      Page 77
                                                              C:\Users\nhuliyap\AppData\Local\Temp\gh_000099c1.s
0000103e 96076100       4062 	prepare	{r29,r31},11
00001042 06e8           4063 	mov	r6,r29
00001044 633f0200       4064 	st.h	r7,2[sp]
                        4065 --	    .bf
                        4066 .LDW141:
00001048 23360400       4067 	movea	4,sp,r6
                        4068 	jarl	_PRODFLASH_GetVin,lp
                        4068 <EXPANSION BEGIN>
                        4068 jarl22 _PRODFLASH_GetVin , lp 
0000104c 80ff0000*      4068 <EXPANSION END>
                        4069 --line2357
                        4070 ..lin.C.3A.5C_ECU2.5CECU_Rivian_A1.5CTarget.5Crepo_projects.5CpFOTA.5CcL_LATEST.5Cmake.5Cobj.5Cfbl_diag_oem.295::
                        4071 .LDWlin295:
00001050 0a38           4072 	mov	r10,r7
00001052 23360400       4073 	movea	4,sp,r6
                        4074 	jarl	_SUPPLIER1_IsMemoryInitialized,lp
                        4074 <EXPANSION BEGIN>
                        4074 jarl22 _SUPPLIER1_IsMemoryInitialized , lp 
00001056 80ff0000*      4074 <EXPANSION END>
0000105a e051           4075 	cmp	zero,r10
0000105c fa05*          4076 	bne	.L6970
                        4077 --line2358
                        4078 ..lin.C.3A.5C_ECU2.5CECU_Rivian_A1.5CTarget.5Crepo_projects.5CpFOTA.5CcL_LATEST.5Cmake.5Cobj.5Cfbl_diag_oem.296::
                        4079 .LDWlin296:
0000105e 01ea           4080 	mov	1,r29
00001060 20362200       4081 	movea	34,zero,r6
                        4082 	jarl	_FblDiagSetError,lp
                        4082 <EXPANSION BEGIN>
                        4082 jarl22 _FblDiagSetError , lp 
00001064 80ff0000*      4082 <EXPANSION END>
00001068 c50d*          4083 	br	.L6971
                        4084 .L6970:
                        4085 --line2363
                        4086 ..lin.C.3A.5C_ECU2.5CECU_Rivian_A1.5CTarget.5Crepo_projects.5CpFOTA.5CcL_LATEST.5Cmake.5Cobj.5Cfbl_diag_oem.297::
                        4087 .LDWlin297:
0000106a 1d30           4088 	mov	r29,r6
0000106c 233e0200       4089 	movea	2,sp,r7
                        4090 	jarl	_SUPPLIER1_CustomDid_WriteVin,lp
                        4090 <EXPANSION BEGIN>
                        4090 jarl22 _SUPPLIER1_CustomDid_WriteVin , lp 
00001070 80ff0000*      4090 <EXPANSION END>
00001074 0ae8           4091 	mov	r10,r29
                        4092 --line2366
                        4093 ..lin.C.3A.5C_ECU2.5CECU_Rivian_A1.5CTarget.5Crepo_projects.5CpFOTA.5CcL_LATEST.5Cmake.5Cobj.5Cfbl_diag_oem.298::
                        4094 .LDWlin298:
00001076 e051           4095 	cmp	zero,r10
00001078 ca05*          4096 	bne	.L6971
                        4097 --line2367
                        4098 ..lin.C.3A.5C_ECU2.5CECU_Rivian_A1.5CTarget.5Crepo_projects.5CpFOTA.5CcL_LATEST.5Cmake.5Cobj.5Cfbl_diag_oem.299::
                        4099 .LDWlin299:
0000107a 0232           4100 	mov	2,r6
                        4101 	jarl	_DiagProcessingDone,lp
                        4101 <EXPANSION BEGIN>
                        4101 jarl22 _DiagProcessingDone , lp 
0000107c 80ff0000*      4101 <EXPANSION END>
                        4102 .L6971:
                        4103 --line2369
                        4104 ..lin.C.3A.5C_ECU2.5CECU_Rivian_A1.5CTarget.5Crepo_projects.5CpFOTA.5CcL_LATEST.5Cmake.5Cobj.5Cfbl_diag_oem.300::
                        4105 .LDWlin300:
00001080 1d50           4106 	mov	r29,r10
                        4107 --	    .ef

                                                                      Page 78
                                                              C:\Users\nhuliyap\AppData\Local\Temp\gh_000099c1.s
                        4108 .LDW241:
00001082 56067f00       4109 	dispose	11,{r29,r31},[lp]
                        4110 	.type	_FblDiagWdbiVinMainHandler,@function
                        4111 	.size	_FblDiagWdbiVinMainHandler,.-_FblDiagWdbiVinMainHandler
                        4112 	.type	_FblDiagWdbiVinMainHandler..C.3A.5C_ECU2.5CECU_Rivian_A1.5CTarget.5Crepo_projects.5CpFOTA.5CcL_LATEST.5Cmake.5Cobj.5Cfbl_diag_oem.,@function
                        4113 	.size	_FblDiagWdbiVinMainHandler..C.3A.5C_ECU2.5CECU_Rivian_A1.5CTarget.5Crepo_projects.5CpFOTA.5CcL_LATEST.5Cmake.5Cobj.5Cfbl_diag_oem.,.-_FblDiagWdbiVinMainHandler..C.3A.5C_ECU2.5CECU_Rivian_A1.5CTarget.5Crepo_projects.5CpFOTA.5CcL_LATEST.5Cmake.5Cobj.5Cfbl_diag_oem.
                        4114 	.align	2
                        4115 .LDW341:
                        4116 --_result	r29	local
                        4117 --_ucBuffer	4[sp]	local
                        4118 
                        4119 --_pbDiagData	r29	param
                        4120 --_diagReqDataLen	2[sp]	param
                        4121 
                        4122 	.section ".bss","awb"
                        4123 .L7036:
                        4124 	.type	.L7036,@object
                        4125 	.size	.L7036,0
                        4126 	.data
                        4127 	.text
                        4128 	.align	2
                        4129 	.align	2
                        4130 ..gh.f.f.1.e.44:
                        4131 	.type	..gh.f.f.1.e.44,@object
                        4132 	.size	..gh.f.f.1.e.44,0
                        4133 	.global	_FblDiagWdbiManufSupportMainHandler..C.3A.5C_ECU2.5CECU_Rivian_A1.5CTarget.5Crepo_projects.5CpFOTA.5CcL_LATEST.5Cmake.5Cobj.5Cfbl_diag_oem.
                        4134 _FblDiagWdbiManufSupportMainHandler..C.3A.5C_ECU2.5CECU_Rivian_A1.5CTarget.5Crepo_projects.5CpFOTA.5CcL_LATEST.5Cmake.5Cobj.5Cfbl_diag_oem.:
                        4135 _FblDiagWdbiManufSupportMainHandler:
00001086 9607e100       4136 	prepare	{r28,r29,r31},11
0000108a 06e0           4137 	mov	r6,r28
0000108c 633f0200       4138 	st.h	r7,2[sp]
                        4139 --	    .bf
                        4140 .LDW441:
00001090 23360400       4141 	movea	4,sp,r6
                        4142 	jarl	_PRODFLASH_GetManufacturingSupportMode,lp
                        4142 <EXPANSION BEGIN>
                        4142 jarl22 _PRODFLASH_GetManufacturingSupportMode , lp 
00001094 80ff0000*      4142 <EXPANSION END>
                        4143 --line2377
                        4144 ..lin.C.3A.5C_ECU2.5CECU_Rivian_A1.5CTarget.5Crepo_projects.5CpFOTA.5CcL_LATEST.5Cmake.5Cobj.5Cfbl_diag_oem.301::
                        4145 .LDWlin301:
00001098 83ef0500       4146 	ld.bu	4[sp],r29
0000109c 61ea           4147 	cmp	1,r29
0000109e ea05*          4148 	bne	.L7098
                        4149 --line2379
                        4150 ..lin.C.3A.5C_ECU2.5CECU_Rivian_A1.5CTarget.5Crepo_projects.5CpFOTA.5CcL_LATEST.5Cmake.5Cobj.5Cfbl_diag_oem.302::
                        4151 .LDWlin302:
000010a0 20362200       4152 	movea	34,zero,r6
                        4153 	jarl	_FblDiagSetError,lp
                        4153 <EXPANSION BEGIN>
                        4153 jarl22 _FblDiagSetError , lp 
000010a4 80ff0000*      4153 <EXPANSION END>
000010a8 c50d*          4154 	br	.L7099
                        4155 .L7098:
                        4156 --line2383
                        4157 ..lin.C.3A.5C_ECU2.5CECU_Rivian_A1.5CTarget.5Crepo_projects.5CpFOTA.5CcL_LATEST.5Cmake.5Cobj.5Cfbl_diag_oem.303::
                        4158 .LDWlin303:
000010aa 1c30           4159 	mov	r28,r6
000010ac 233e0200       4160 	movea	2,sp,r7
                        4161 	jarl	_SUPPLIER1_CustomDid_WriteManufSupport,lp
                        4161 <EXPANSION BEGIN>

                                                                      Page 79
                                                              C:\Users\nhuliyap\AppData\Local\Temp\gh_000099c1.s
                        4161 jarl22 _SUPPLIER1_CustomDid_WriteManufSupport , lp 
000010b0 80ff0000*      4161 <EXPANSION END>
000010b4 0ae8           4162 	mov	r10,r29
                        4163 --line2386
                        4164 ..lin.C.3A.5C_ECU2.5CECU_Rivian_A1.5CTarget.5Crepo_projects.5CpFOTA.5CcL_LATEST.5Cmake.5Cobj.5Cfbl_diag_oem.304::
                        4165 .LDWlin304:
000010b6 e051           4166 	cmp	zero,r10
000010b8 ca05*          4167 	bne	.L7099
                        4168 --line2387
                        4169 ..lin.C.3A.5C_ECU2.5CECU_Rivian_A1.5CTarget.5Crepo_projects.5CpFOTA.5CcL_LATEST.5Cmake.5Cobj.5Cfbl_diag_oem.305::
                        4170 .LDWlin305:
000010ba 0232           4171 	mov	2,r6
                        4172 	jarl	_DiagProcessingDone,lp
                        4172 <EXPANSION BEGIN>
                        4172 jarl22 _DiagProcessingDone , lp 
000010bc 80ff0000*      4172 <EXPANSION END>
                        4173 .L7099:
                        4174 --line2389
                        4175 ..lin.C.3A.5C_ECU2.5CECU_Rivian_A1.5CTarget.5Crepo_projects.5CpFOTA.5CcL_LATEST.5Cmake.5Cobj.5Cfbl_diag_oem.306::
                        4176 .LDWlin306:
000010c0 1d50           4177 	mov	r29,r10
                        4178 --	    .ef
                        4179 .LDW541:
000010c2 5606ff00       4180 	dispose	11,{r28,r29,r31},[lp]
                        4181 	.type	_FblDiagWdbiManufSupportMainHandler,@function
                        4182 	.size	_FblDiagWdbiManufSupportMainHandler,.-_FblDiagWdbiManufSupportMainHandler
                        4183 	.type	_FblDiagWdbiManufSupportMainHandler..C.3A.5C_ECU2.5CECU_Rivian_A1.5CTarget.5Crepo_projects.5CpFOTA.5CcL_LATEST.5Cmake.5Cobj.5Cfbl_diag_oem.,@function
                        4184 	.size	_FblDiagWdbiManufSupportMainHandler..C.3A.5C_ECU2.5CECU_Rivian_A1.5CTarget.5Crepo_projects.5CpFOTA.5CcL_LATEST.5Cmake.5Cobj.5Cfbl_diag_oem.,.-_FblDiagWdbiManufSupportMainHandler..C.3A.5C_ECU2.5CECU_Rivian_A1.5CTarget.5Crepo_projects.5CpFOTA.5CcL_LATEST.5Cmake.5Cobj.5Cfbl_diag_oem.
                        4185 	.align	2
                        4186 .LDW641:
                        4187 --_result	r29	local
                        4188 --_ucBuffer	4[sp]	local
                        4189 
                        4190 --_pbDiagData	r28	param
                        4191 --_diagReqDataLen	2[sp]	param
                        4192 
                        4193 	.section ".bss","awb"
                        4194 .L7172:
                        4195 	.type	.L7172,@object
                        4196 	.size	.L7172,0
                        4197 	.data
                        4198 	.text
                        4199 	.align	2
                        4200 	.align	2
                        4201 ..gh.f.f.1.e.45:
                        4202 	.type	..gh.f.f.1.e.45,@object
                        4203 	.size	..gh.f.f.1.e.45,0
                        4204 	.global	_FblDiagWdbiFingerprintAppMainHandler..C.3A.5C_ECU2.5CECU_Rivian_A1.5CTarget.5Crepo_projects.5CpFOTA.5CcL_LATEST.5Cmake.5Cobj.5Cfbl_diag_oem.
                        4205 _FblDiagWdbiFingerprintAppMainHandler..C.3A.5C_ECU2.5CECU_Rivian_A1.5CTarget.5Crepo_projects.5CpFOTA.5CcL_LATEST.5Cmake.5Cobj.5Cfbl_diag_oem.:
                        4206 _FblDiagWdbiFingerprintAppMainHandler:
000010c6 82076100       4207 	prepare	{r29,r31},1
000010ca 633f0200       4208 	st.h	r7,2[sp]
                        4209 --	    .bf
                        4210 .LDW741:
000010ce 233e0200       4211 	movea	2,sp,r7
                        4212 	jarl	_SUPPLIER1_CustomDid_WriteFingerprint,lp
                        4212 <EXPANSION BEGIN>
                        4212 jarl22 _SUPPLIER1_CustomDid_WriteFingerprint , lp 
000010d2 80ff0000*      4212 <EXPANSION END>
000010d6 0ae8           4213 	mov	r10,r29
                        4214 --line2396

                                                                      Page 80
                                                              C:\Users\nhuliyap\AppData\Local\Temp\gh_000099c1.s
                        4215 ..lin.C.3A.5C_ECU2.5CECU_Rivian_A1.5CTarget.5Crepo_projects.5CpFOTA.5CcL_LATEST.5Cmake.5Cobj.5Cfbl_diag_oem.307::
                        4216 .LDWlin307:
000010d8 e051           4217 	cmp	zero,r10
000010da 9a0d*          4218 	bne	.L7231
                        4219 --line2397
                        4220 ..lin.C.3A.5C_ECU2.5CECU_Rivian_A1.5CTarget.5Crepo_projects.5CpFOTA.5CcL_LATEST.5Cmake.5Cobj.5Cfbl_diag_oem.308::
                        4221 .LDWlin308:
000010dc 2b0600000000*  4222 	mov	sdaoff23(_fblDiagStates+2),r11
000010e2 cb270000       4223 	set1	4,0[r11]
000010e6 0232           4224 	mov	2,r6
                        4225 	jarl	_DiagProcessingDone,lp
                        4225 <EXPANSION BEGIN>
                        4225 jarl22 _DiagProcessingDone , lp 
000010e8 80ff0000*      4225 <EXPANSION END>
                        4226 .L7231:
                        4227 --line2401
                        4228 ..lin.C.3A.5C_ECU2.5CECU_Rivian_A1.5CTarget.5Crepo_projects.5CpFOTA.5CcL_LATEST.5Cmake.5Cobj.5Cfbl_diag_oem.309::
                        4229 .LDWlin309:
000010ec 1d50           4230 	mov	r29,r10
                        4231 --	    .ef
                        4232 .LDW841:
000010ee 42067f00       4233 	dispose	1,{r29,r31},[lp]
                        4234 	.type	_FblDiagWdbiFingerprintAppMainHandler,@function
                        4235 	.size	_FblDiagWdbiFingerprintAppMainHandler,.-_FblDiagWdbiFingerprintAppMainHandler
                        4236 	.type	_FblDiagWdbiFingerprintAppMainHandler..C.3A.5C_ECU2.5CECU_Rivian_A1.5CTarget.5Crepo_projects.5CpFOTA.5CcL_LATEST.5Cmake.5Cobj.5Cfbl_diag_oem.,@function
                        4237 	.size	_FblDiagWdbiFingerprintAppMainHandler..C.3A.5C_ECU2.5CECU_Rivian_A1.5CTarget.5Crepo_projects.5CpFOTA.5CcL_LATEST.5Cmake.5Cobj.5Cfbl_diag_oem.,.-_FblDiagWdbiFingerprintAppMainHandler..C.3A.5C_ECU2.5CECU_Rivian_A1.5CTarget.5Crepo_projects.5CpFOTA.5CcL_LATEST.5Cmake.5Cobj.5Cfbl_diag_oem.
                        4238 	.align	2
                        4239 .LDW941:
                        4240 --_result	r29	local
                        4241 
                        4242 --_pbDiagData	r6	param
                        4243 --_diagReqDataLen	2[sp]	param
                        4244 
                        4245 	.section ".bss","awb"
                        4246 .L7264:
                        4247 	.type	.L7264,@object
                        4248 	.size	.L7264,0
                        4249 	.data
                        4250 	.text
                        4251 	.align	2
                        4252 	.align	2
                        4253 ..gh.f.f.1.e.46:
                        4254 	.type	..gh.f.f.1.e.46,@object
                        4255 	.size	..gh.f.f.1.e.46,0
                        4256 	.global	_FblDiagWdbiAuxIdMainHandler..C.3A.5C_ECU2.5CECU_Rivian_A1.5CTarget.5Crepo_projects.5CpFOTA.5CcL_LATEST.5Cmake.5Cobj.5Cfbl_diag_oem.
                        4257 _FblDiagWdbiAuxIdMainHandler..C.3A.5C_ECU2.5CECU_Rivian_A1.5CTarget.5Crepo_projects.5CpFOTA.5CcL_LATEST.5Cmake.5Cobj.5Cfbl_diag_oem.:
                        4258 _FblDiagWdbiAuxIdMainHandler:
000010f2 98076100       4259 	prepare	{r29,r31},12
000010f6 06e8           4260 	mov	r6,r29
000010f8 633f0600       4261 	st.h	r7,6[sp]
                        4262 --	    .bf
                        4263 .LDW051:
000010fc 23360800       4264 	movea	8,sp,r6
                        4265 	jarl	_PRODFLASH_GetAuxId,lp
                        4265 <EXPANSION BEGIN>
                        4265 jarl22 _PRODFLASH_GetAuxId , lp 
00001100 80ff0000*      4265 <EXPANSION END>
                        4266 --line2411
                        4267 ..lin.C.3A.5C_ECU2.5CECU_Rivian_A1.5CTarget.5Crepo_projects.5CpFOTA.5CcL_LATEST.5Cmake.5Cobj.5Cfbl_diag_oem.310::
                        4268 .LDWlin310:
00001104 0a38           4269 	mov	r10,r7

                                                                      Page 81
                                                              C:\Users\nhuliyap\AppData\Local\Temp\gh_000099c1.s
00001106 23360800       4270 	movea	8,sp,r6
                        4271 	jarl	_SUPPLIER1_IsMemoryInitialized,lp
                        4271 <EXPANSION BEGIN>
                        4271 jarl22 _SUPPLIER1_IsMemoryInitialized , lp 
0000110a 80ff0000*      4271 <EXPANSION END>
0000110e e051           4272 	cmp	zero,r10
00001110 fa05*          4273 	bne	.L7305
                        4274 --line2412
                        4275 ..lin.C.3A.5C_ECU2.5CECU_Rivian_A1.5CTarget.5Crepo_projects.5CpFOTA.5CcL_LATEST.5Cmake.5Cobj.5Cfbl_diag_oem.311::
                        4276 .LDWlin311:
00001112 01ea           4277 	mov	1,r29
00001114 20362200       4278 	movea	34,zero,r6
                        4279 	jarl	_FblDiagSetError,lp
                        4279 <EXPANSION BEGIN>
                        4279 jarl22 _FblDiagSetError , lp 
00001118 80ff0000*      4279 <EXPANSION END>
0000111c b515*          4280 	br	.L7306
                        4281 .L7305:
                        4282 --line2417
                        4283 ..lin.C.3A.5C_ECU2.5CECU_Rivian_A1.5CTarget.5Crepo_projects.5CpFOTA.5CcL_LATEST.5Cmake.5Cobj.5Cfbl_diag_oem.312::
                        4284 .LDWlin312:
0000111e 1d30           4285 	mov	r29,r6
00001120 233e0600       4286 	movea	6,sp,r7
                        4287 	jarl	_SUPPLIER1_CustomDid_WriteAuxId,lp
                        4287 <EXPANSION BEGIN>
                        4287 jarl22 _SUPPLIER1_CustomDid_WriteAuxId , lp 
00001124 80ff0000*      4287 <EXPANSION END>
00001128 0ae8           4288 	mov	r10,r29
                        4289 --line2419
                        4290 ..lin.C.3A.5C_ECU2.5CECU_Rivian_A1.5CTarget.5Crepo_projects.5CpFOTA.5CcL_LATEST.5Cmake.5Cobj.5Cfbl_diag_oem.313::
                        4291 .LDWlin313:
                        4292 	jarl	_SUPPLIER1_CalcGenealogyBlockCrc32,lp
                        4292 <EXPANSION BEGIN>
                        4292 jarl22 _SUPPLIER1_CalcGenealogyBlockCrc32 , lp 
0000112a 80ff0000*      4292 <EXPANSION END>
0000112e 63570100       4293 	st.w	r10,0[sp]
                        4294 --line2420
                        4295 ..lin.C.3A.5C_ECU2.5CECU_Rivian_A1.5CTarget.5Crepo_projects.5CpFOTA.5CcL_LATEST.5Cmake.5Cobj.5Cfbl_diag_oem.314::
                        4296 .LDWlin314:
00001132 0330           4297 	mov	sp,r6
                        4298 	jarl	_PRODFLASH_PutGenealogyCrc32,lp
                        4298 <EXPANSION BEGIN>
                        4298 jarl22 _PRODFLASH_PutGenealogyCrc32 , lp 
00001134 80ff0000*      4298 <EXPANSION END>
                        4299 --line2423
                        4300 ..lin.C.3A.5C_ECU2.5CECU_Rivian_A1.5CTarget.5Crepo_projects.5CpFOTA.5CcL_LATEST.5Cmake.5Cobj.5Cfbl_diag_oem.315::
                        4301 .LDWlin315:
00001138 e0e9           4302 	cmp	zero,r29
0000113a ca05*          4303 	bne	.L7306
                        4304 --line2424
                        4305 ..lin.C.3A.5C_ECU2.5CECU_Rivian_A1.5CTarget.5Crepo_projects.5CpFOTA.5CcL_LATEST.5Cmake.5Cobj.5Cfbl_diag_oem.316::
                        4306 .LDWlin316:
0000113c 0232           4307 	mov	2,r6
                        4308 	jarl	_DiagProcessingDone,lp
                        4308 <EXPANSION BEGIN>
                        4308 jarl22 _DiagProcessingDone , lp 
0000113e 80ff0000*      4308 <EXPANSION END>
                        4309 .L7306:
                        4310 --line2426
                        4311 ..lin.C.3A.5C_ECU2.5CECU_Rivian_A1.5CTarget.5Crepo_projects.5CpFOTA.5CcL_LATEST.5Cmake.5Cobj.5Cfbl_diag_oem.317::
                        4312 .LDWlin317:

                                                                      Page 82
                                                              C:\Users\nhuliyap\AppData\Local\Temp\gh_000099c1.s
00001142 1d50           4313 	mov	r29,r10
                        4314 --	    .ef
                        4315 .LDW151:
00001144 58067f00       4316 	dispose	12,{r29,r31},[lp]
                        4317 	.type	_FblDiagWdbiAuxIdMainHandler,@function
                        4318 	.size	_FblDiagWdbiAuxIdMainHandler,.-_FblDiagWdbiAuxIdMainHandler
                        4319 	.type	_FblDiagWdbiAuxIdMainHandler..C.3A.5C_ECU2.5CECU_Rivian_A1.5CTarget.5Crepo_projects.5CpFOTA.5CcL_LATEST.5Cmake.5Cobj.5Cfbl_diag_oem.,@function
                        4320 	.size	_FblDiagWdbiAuxIdMainHandler..C.3A.5C_ECU2.5CECU_Rivian_A1.5CTarget.5Crepo_projects.5CpFOTA.5CcL_LATEST.5Cmake.5Cobj.5Cfbl_diag_oem.,.-_FblDiagWdbiAuxIdMainHandler..C.3A.5C_ECU2.5CECU_Rivian_A1.5CTarget.5Crepo_projects.5CpFOTA.5CcL_LATEST.5Cmake.5Cobj.5Cfbl_diag_oem.
                        4321 	.align	2
                        4322 .LDW251:
                        4323 --_result	r29	local
                        4324 --_ulGenealogyCrc32	0[sp]	local
                        4325 --_ucBuffer	8[sp]	local
                        4326 
                        4327 --_pbDiagData	r29	param
                        4328 --_diagReqDataLen	6[sp]	param
                        4329 
                        4330 	.section ".bss","awb"
                        4331 .L7381:
                        4332 	.type	.L7381,@object
                        4333 	.size	.L7381,0
                        4334 	.data
                        4335 	.text
                        4336 	.align	2
                        4337 	.align	2
                        4338 ..gh.f.f.1.e.47:
                        4339 	.type	..gh.f.f.1.e.47,@object
                        4340 	.size	..gh.f.f.1.e.47,0
                        4341 	.global	_FblDiagWdbiModeIdMainHandler..C.3A.5C_ECU2.5CECU_Rivian_A1.5CTarget.5Crepo_projects.5CpFOTA.5CcL_LATEST.5Cmake.5Cobj.5Cfbl_diag_oem.
                        4342 _FblDiagWdbiModeIdMainHandler..C.3A.5C_ECU2.5CECU_Rivian_A1.5CTarget.5Crepo_projects.5CpFOTA.5CcL_LATEST.5Cmake.5Cobj.5Cfbl_diag_oem.:
                        4343 _FblDiagWdbiModeIdMainHandler:
00001148 98076100       4344 	prepare	{r29,r31},12
0000114c 06e8           4345 	mov	r6,r29
0000114e 633f0600       4346 	st.h	r7,6[sp]
                        4347 --	    .bf
                        4348 .LDW351:
00001152 23360800       4349 	movea	8,sp,r6
                        4350 	jarl	_PRODFLASH_GetModeId,lp
                        4350 <EXPANSION BEGIN>
                        4350 jarl22 _PRODFLASH_GetModeId , lp 
00001156 80ff0000*      4350 <EXPANSION END>
                        4351 --line2436
                        4352 ..lin.C.3A.5C_ECU2.5CECU_Rivian_A1.5CTarget.5Crepo_projects.5CpFOTA.5CcL_LATEST.5Cmake.5Cobj.5Cfbl_diag_oem.318::
                        4353 .LDWlin318:
0000115a 0a38           4354 	mov	r10,r7
0000115c 23360800       4355 	movea	8,sp,r6
                        4356 	jarl	_SUPPLIER1_IsMemoryInitialized,lp
                        4356 <EXPANSION BEGIN>
                        4356 jarl22 _SUPPLIER1_IsMemoryInitialized , lp 
00001160 80ff0000*      4356 <EXPANSION END>
00001164 e051           4357 	cmp	zero,r10
00001166 fa05*          4358 	bne	.L7443
                        4359 --line2437
                        4360 ..lin.C.3A.5C_ECU2.5CECU_Rivian_A1.5CTarget.5Crepo_projects.5CpFOTA.5CcL_LATEST.5Cmake.5Cobj.5Cfbl_diag_oem.319::
                        4361 .LDWlin319:
00001168 01ea           4362 	mov	1,r29
0000116a 20362200       4363 	movea	34,zero,r6
                        4364 	jarl	_FblDiagSetError,lp
                        4364 <EXPANSION BEGIN>
                        4364 jarl22 _FblDiagSetError , lp 
0000116e 80ff0000*      4364 <EXPANSION END>

                                                                      Page 83
                                                              C:\Users\nhuliyap\AppData\Local\Temp\gh_000099c1.s
00001172 b515*          4365 	br	.L7444
                        4366 .L7443:
                        4367 --line2442
                        4368 ..lin.C.3A.5C_ECU2.5CECU_Rivian_A1.5CTarget.5Crepo_projects.5CpFOTA.5CcL_LATEST.5Cmake.5Cobj.5Cfbl_diag_oem.320::
                        4369 .LDWlin320:
00001174 1d30           4370 	mov	r29,r6
00001176 233e0600       4371 	movea	6,sp,r7
                        4372 	jarl	_SUPPLIER1_CustomDid_WriteModeId,lp
                        4372 <EXPANSION BEGIN>
                        4372 jarl22 _SUPPLIER1_CustomDid_WriteModeId , lp 
0000117a 80ff0000*      4372 <EXPANSION END>
0000117e 0ae8           4373 	mov	r10,r29
                        4374 --line2444
                        4375 ..lin.C.3A.5C_ECU2.5CECU_Rivian_A1.5CTarget.5Crepo_projects.5CpFOTA.5CcL_LATEST.5Cmake.5Cobj.5Cfbl_diag_oem.321::
                        4376 .LDWlin321:
                        4377 	jarl	_SUPPLIER1_CalcGenealogyBlockCrc32,lp
                        4377 <EXPANSION BEGIN>
                        4377 jarl22 _SUPPLIER1_CalcGenealogyBlockCrc32 , lp 
00001180 80ff0000*      4377 <EXPANSION END>
00001184 63570100       4378 	st.w	r10,0[sp]
                        4379 --line2445
                        4380 ..lin.C.3A.5C_ECU2.5CECU_Rivian_A1.5CTarget.5Crepo_projects.5CpFOTA.5CcL_LATEST.5Cmake.5Cobj.5Cfbl_diag_oem.322::
                        4381 .LDWlin322:
00001188 0330           4382 	mov	sp,r6
                        4383 	jarl	_PRODFLASH_PutGenealogyCrc32,lp
                        4383 <EXPANSION BEGIN>
                        4383 jarl22 _PRODFLASH_PutGenealogyCrc32 , lp 
0000118a 80ff0000*      4383 <EXPANSION END>
                        4384 --line2448
                        4385 ..lin.C.3A.5C_ECU2.5CECU_Rivian_A1.5CTarget.5Crepo_projects.5CpFOTA.5CcL_LATEST.5Cmake.5Cobj.5Cfbl_diag_oem.323::
                        4386 .LDWlin323:
0000118e e0e9           4387 	cmp	zero,r29
00001190 ca05*          4388 	bne	.L7444
                        4389 --line2449
                        4390 ..lin.C.3A.5C_ECU2.5CECU_Rivian_A1.5CTarget.5Crepo_projects.5CpFOTA.5CcL_LATEST.5Cmake.5Cobj.5Cfbl_diag_oem.324::
                        4391 .LDWlin324:
00001192 0232           4392 	mov	2,r6
                        4393 	jarl	_DiagProcessingDone,lp
                        4393 <EXPANSION BEGIN>
                        4393 jarl22 _DiagProcessingDone , lp 
00001194 80ff0000*      4393 <EXPANSION END>
                        4394 .L7444:
                        4395 --line2451
                        4396 ..lin.C.3A.5C_ECU2.5CECU_Rivian_A1.5CTarget.5Crepo_projects.5CpFOTA.5CcL_LATEST.5Cmake.5Cobj.5Cfbl_diag_oem.325::
                        4397 .LDWlin325:
00001198 1d50           4398 	mov	r29,r10
                        4399 --	    .ef
                        4400 .LDW451:
0000119a 58067f00       4401 	dispose	12,{r29,r31},[lp]
                        4402 	.type	_FblDiagWdbiModeIdMainHandler,@function
                        4403 	.size	_FblDiagWdbiModeIdMainHandler,.-_FblDiagWdbiModeIdMainHandler
                        4404 	.type	_FblDiagWdbiModeIdMainHandler..C.3A.5C_ECU2.5CECU_Rivian_A1.5CTarget.5Crepo_projects.5CpFOTA.5CcL_LATEST.5Cmake.5Cobj.5Cfbl_diag_oem.,@function
                        4405 	.size	_FblDiagWdbiModeIdMainHandler..C.3A.5C_ECU2.5CECU_Rivian_A1.5CTarget.5Crepo_projects.5CpFOTA.5CcL_LATEST.5Cmake.5Cobj.5Cfbl_diag_oem.,.-_FblDiagWdbiModeIdMainHandler..C.3A.5C_ECU2.5CECU_Rivian_A1.5CTarget.5Crepo_projects.5CpFOTA.5CcL_LATEST.5Cmake.5Cobj.5Cfbl_diag_oem.
                        4406 	.align	2
                        4407 .LDW551:
                        4408 --_result	r29	local
                        4409 --_ulGenealogyCrc32	0[sp]	local
                        4410 --_ucBuffer	8[sp]	local
                        4411 
                        4412 --_pbDiagData	r29	param
                        4413 --_diagReqDataLen	6[sp]	param

                                                                      Page 84
                                                              C:\Users\nhuliyap\AppData\Local\Temp\gh_000099c1.s
                        4414 
                        4415 	.section ".bss","awb"
                        4416 .L7525:
                        4417 	.type	.L7525,@object
                        4418 	.size	.L7525,0
                        4419 	.data
                        4420 	.text
                        4421 	.align	2
                        4422 	.align	2
                        4423 ..gh.f.f.1.e.48:
                        4424 	.type	..gh.f.f.1.e.48,@object
                        4425 	.size	..gh.f.f.1.e.48,0
                        4426 	.global	_FblDiagDefaultPreHandler..C.3A.5C_ECU2.5CECU_Rivian_A1.5CTarget.5Crepo_projects.5CpFOTA.5CcL_LATEST.5Cmake.5Cobj.5Cfbl_diag_oem.
                        4427 _FblDiagDefaultPreHandler..C.3A.5C_ECU2.5CECU_Rivian_A1.5CTarget.5Crepo_projects.5CpFOTA.5CcL_LATEST.5Cmake.5Cobj.5Cfbl_diag_oem.:
                        4428 _FblDiagDefaultPreHandler:
0000119e c700           4429 	zxh	r7
                        4430 --	    .bf
                        4431 .LDW651:
000011a0 80070000*      4432 	jr	_ApplFblCheckConditions
                        4433 --	    .ef
                        4434 .LDW751:
                        4435 	.type	_FblDiagDefaultPreHandler,@function
                        4436 	.size	_FblDiagDefaultPreHandler,.-_FblDiagDefaultPreHandler
                        4437 	.type	_FblDiagDefaultPreHandler..C.3A.5C_ECU2.5CECU_Rivian_A1.5CTarget.5Crepo_projects.5CpFOTA.5CcL_LATEST.5Cmake.5Cobj.5Cfbl_diag_oem.,@function
                        4438 	.size	_FblDiagDefaultPreHandler..C.3A.5C_ECU2.5CECU_Rivian_A1.5CTarget.5Crepo_projects.5CpFOTA.5CcL_LATEST.5Cmake.5Cobj.5Cfbl_diag_oem.,.-_FblDiagDefaultPreHandler..C.3A.5C_ECU2.5CECU_Rivian_A1.5CTarget.5Crepo_projects.5CpFOTA.5CcL_LATEST.5Cmake.5Cobj.5Cfbl_diag_oem.
                        4439 	.align	2
                        4440 .LDW851:
                        4441 
                        4442 --_pbDiagData	r6	param
                        4443 --_diagReqDataLen	r7	param
                        4444 
                        4445 	.section ".bss","awb"
                        4446 .L7604:
                        4447 	.type	.L7604,@object
                        4448 	.size	.L7604,0
                        4449 	.data
                        4450 	.text
                        4451 	.section ".RAMCODE","ax"
                        4452 	.align	2
                        4453 ..bof.C.3A.5C_ECU2.5CECU_Rivian_A1.5CTarget.5Crepo_projects.5CpFOTA.5CcL_LATEST.5Cmake.5Cobj.5Cfbl_diag_oem...43.3A.5C_ECU2.5CECU_Rivian_A1.5CTarget.5Crepo_projects.5CpFOTA.5CcL_LATEST.5Cmake..64F86BF0..1::
                        4454 	.align	2
                        4455 ..gh.f.f.1.e.49:
                        4456 	.type	..gh.f.f.1.e.49,@object
                        4457 	.size	..gh.f.f.1.e.49,0
                        4458 	.global	_FblDiagDefaultPostHandler
                        4459 _FblDiagDefaultPostHandler:
                        4460 --	    .bf
                        4461 .LDW951:
00000000 2b0600000000*  4462 	mov	sdaoff23(_fblDiagStates),r11
00000006 cbc70000       4463 	tst1	0,0[r11]
0000000a b205*          4464 	be	.L7623
0000000c 80070000*      4465 	jr	_FblCwResetResponseAddress
                        4466 .L7623:
                        4467 --	    .ef
                        4468 .LDW061:
                        4469 --line2469
                        4470 ..lin.C.3A.5C_ECU2.5CECU_Rivian_A1.5CTarget.5Crepo_projects.5CpFOTA.5CcL_LATEST.5Cmake.5Cobj.5Cfbl_diag_oem.326::
                        4471 .LDWlin326:
00000010 7f00           4472 	jmp	[lp]
                        4473 	.type	_FblDiagDefaultPostHandler,@function
                        4474 	.size	_FblDiagDefaultPostHandler,.-_FblDiagDefaultPostHandler

                                                                      Page 85
                                                              C:\Users\nhuliyap\AppData\Local\Temp\gh_000099c1.s
                        4475 	.align	2
                        4476 .LDW161:
                        4477 
                        4478 --_postParam	none	param
                        4479 
                        4480 	.section ".bss","awb"
                        4481 .L7654:
                        4482 	.type	.L7654,@object
                        4483 	.size	.L7654,0
                        4484 	.data
                        4485 	.section ".RAMCODE","ax"
                        4486 	.text
                        4487 	.align	2
                        4488 	.align	2
                        4489 ..gh.f.f.1.e.50:
                        4490 	.type	..gh.f.f.1.e.50,@object
                        4491 	.size	..gh.f.f.1.e.50,0
                        4492 	.global	_FblDiagOemTimerTask
                        4493 _FblDiagOemTimerTask:
000011a4 8a076100       4494 	prepare	{r29,r31},5
                        4495 --	    .bf
                        4496 .LDW261:
000011a8 2b0600000000*  4497 	mov	sdaoff23(_fblDiagStates+3),r11
000011ae cbd70000       4498 	tst1	2,0[r11]
000011b2 da3d*          4499 	bne	.L7689
                        4500 --line2482
                        4501 ..lin.C.3A.5C_ECU2.5CECU_Rivian_A1.5CTarget.5Crepo_projects.5CpFOTA.5CcL_LATEST.5Cmake.5Cobj.5Cfbl_diag_oem.327::
                        4502 .LDWlin327:
000011b4 3e0600000000*  4503 	mov	sdaoff23(.L7746),ep
000011ba 7090           4504 	sld.hu	0[ep],r18
000011bc 5f92           4505 	add	-1,r18
000011be d200           4506 	zxh	r18
000011c0 8094           4507 	sst.h	r18,0[ep]
000011c2 e091           4508 	cmp	zero,r18
000011c4 ca35*          4509 	bne	.L7689
                        4510 --line2483
                        4511 ..lin.C.3A.5C_ECU2.5CECU_Rivian_A1.5CTarget.5Crepo_projects.5CpFOTA.5CcL_LATEST.5Cmake.5Cobj.5Cfbl_diag_oem.328::
                        4512 .LDWlin328:
000011c6 208ef401       4513 	movea	500,zero,r17
000011ca a4070d880000*  4514 	st.h	r17,sdaoff23(.L7746)[gp]
                        4515 	jarl	_SUPPLIER1_GetFaultFlag,lp
                        4515 <EXPANSION BEGIN>
                        4515 jarl22 _SUPPLIER1_GetFaultFlag , lp 
000011d0 80ff0000*      4515 <EXPANSION END>
                        4516 --line2486
                        4517 ..lin.C.3A.5C_ECU2.5CECU_Rivian_A1.5CTarget.5Crepo_projects.5CpFOTA.5CcL_LATEST.5Cmake.5Cobj.5Cfbl_diag_oem.329::
                        4518 .LDWlin329:
000011d4 ca860f00       4519 	andi	15,r10,r16
000011d8 907e1000       4520 	ori	16,r16,r15
000011dc 437f0400       4521 	st.b	r15,4[sp]
000011e0 23360200       4522 	movea	2,sp,r6
                        4523 	jarl	_PRODFLASH_GetComponentId,lp
                        4523 <EXPANSION BEGIN>
                        4523 jarl22 _PRODFLASH_GetComponentId , lp 
000011e4 80ff0000*      4523 <EXPANSION END>
                        4524 --line2489
                        4525 ..lin.C.3A.5C_ECU2.5CECU_Rivian_A1.5CTarget.5Crepo_projects.5CpFOTA.5CcL_LATEST.5Cmake.5Cobj.5Cfbl_diag_oem.330::
                        4526 .LDWlin330:
000011e8 03f0           4527 	mov	sp,ep
000011ea 6370           4528 	sld.bu	3[ep],r14
000011ec 23ee0400       4529 	movea	4,sp,r29

                                                                      Page 86
                                                              C:\Users\nhuliyap\AppData\Local\Temp\gh_000099c1.s
000011f0 03360600       4530 	addi	6,sp,r6
000011f4 8573           4531 	sst.b	r14,5[ep]
                        4532 	jarl	_PRODFLASH_GetPcbaId,lp
                        4532 <EXPANSION BEGIN>
                        4532 jarl22 _PRODFLASH_GetPcbaId , lp 
000011f6 80ff0000*      4532 <EXPANSION END>
                        4533 --line2491
                        4534 ..lin.C.3A.5C_ECU2.5CECU_Rivian_A1.5CTarget.5Crepo_projects.5CpFOTA.5CcL_LATEST.5Cmake.5Cobj.5Cfbl_diag_oem.331::
                        4535 .LDWlin331:
000011fa 03360700       4536 	addi	7,sp,r6
                        4537 	jarl	_PRODFLASH_GetAuxId,lp
                        4537 <EXPANSION BEGIN>
                        4537 jarl22 _PRODFLASH_GetAuxId , lp 
000011fe 80ff0000*      4537 <EXPANSION END>
                        4538 --line2492
                        4539 ..lin.C.3A.5C_ECU2.5CECU_Rivian_A1.5CTarget.5Crepo_projects.5CpFOTA.5CcL_LATEST.5Cmake.5Cobj.5Cfbl_diag_oem.332::
                        4540 .LDWlin332:
00001202 03360800       4541 	addi	8,sp,r6
                        4542 	jarl	_PRODFLASH_GetModeId,lp
                        4542 <EXPANSION BEGIN>
                        4542 jarl22 _PRODFLASH_GetModeId , lp 
00001206 80ff0000*      4542 <EXPANSION END>
                        4543 --line2493
                        4544 ..lin.C.3A.5C_ECU2.5CECU_Rivian_A1.5CTarget.5Crepo_projects.5CpFOTA.5CcL_LATEST.5Cmake.5Cobj.5Cfbl_diag_oem.333::
                        4545 .LDWlin333:
0000120a 033e0a00       4546 	addi	10,sp,r7
0000120e 0332           4547 	mov	3,r6
00001210 0142           4548 	mov	1,r8
                        4549 	jarl	_ApplFblNvReadProcessData,lp
                        4549 <EXPANSION BEGIN>
                        4549 jarl22 _ApplFblNvReadProcessData , lp 
00001212 80ff0000*      4549 <EXPANSION END>
                        4550 --line2494
                        4551 ..lin.C.3A.5C_ECU2.5CECU_Rivian_A1.5CTarget.5Crepo_projects.5CpFOTA.5CcL_LATEST.5Cmake.5Cobj.5Cfbl_diag_oem.334::
                        4552 .LDWlin334:
00001216 026a           4553 	mov	2,r13
00001218 03f0           4554 	mov	sp,ep
0000121a 085a           4555 	mov	8,r11
0000121c 8b6b           4556 	sst.b	r13,11[ep]
0000121e 07ed           4557 	sst.w	r29,12[ep]
00001220 885c           4558 	sst.h	r11,16[ep]
00001222 0032           4559 	mov	0,r6
00001224 233e0c00       4560 	movea	12,sp,r7
                        4561 	jarl	_PduR_MyCom_Bl_Status_MsgTransmit,lp
                        4561 <EXPANSION BEGIN>
                        4561 jarl22 _PduR_MyCom_Bl_Status_MsgTransmit , lp 
00001228 80ff0000*      4561 <EXPANSION END>
                        4562 .L7689:
                        4563 --	    .ef
                        4564 .LDW361:
                        4565 --line2503
                        4566 ..lin.C.3A.5C_ECU2.5CECU_Rivian_A1.5CTarget.5Crepo_projects.5CpFOTA.5CcL_LATEST.5Cmake.5Cobj.5Cfbl_diag_oem.335::
                        4567 .LDWlin335:
0000122c 4a067f00       4568 	dispose	5,{r29,r31},[lp]
                        4569 	.type	_FblDiagOemTimerTask,@function
                        4570 	.size	_FblDiagOemTimerTask,.-_FblDiagOemTimerTask
                        4571 	.align	2
                        4572 .LDW461:
                        4573 --_ush500msTimer	sdaoff23(.L7746)	static
                        4574 --_pdu	12[sp]	local
                        4575 --_tMessageContent	4[sp]	local

                                                                      Page 87
                                                              C:\Users\nhuliyap\AppData\Local\Temp\gh_000099c1.s
                        4576 --_ucCompId	2[sp]	local
                        4577 
                        4578 	.section ".bss","awb"
                        4579 .L7728:
                        4580 	.type	.L7728,@object
                        4581 	.size	.L7728,0
                        4582 	.section ".sdata","aw"
                        4583 	.align	2
                        4584 .L7746:
                        4585 	.global	_ush500msTimer.FblDiagOemTimerTask.C.3A.5C_ECU2.5CECU_Rivian_A1.5CTarget.5Crepo_projects.5CpFOTA.5CcL_LATEST.5Cmake.5Cobj.5Cfbl_diag_oem..46
                        4586 _ush500msTimer.FblDiagOemTimerTask.C.3A.5C_ECU2.5CECU_Rivian_A1.5CTarget.5Crepo_projects.5CpFOTA.5CcL_LATEST.5Cmake.5Cobj.5Cfbl_diag_oem..46:
00000000 0100           4587 	.byte	1,0
                        4588 	.type	_ush500msTimer.FblDiagOemTimerTask.C.3A.5C_ECU2.5CECU_Rivian_A1.5CTarget.5Crepo_projects.5CpFOTA.5CcL_LATEST.5Cmake.5Cobj.5Cfbl_diag_oem..46,@object
                        4589 	.size	_ush500msTimer.FblDiagOemTimerTask.C.3A.5C_ECU2.5CECU_Rivian_A1.5CTarget.5Crepo_projects.5CpFOTA.5CcL_LATEST.5Cmake.5Cobj.5Cfbl_diag_oem..46,2
                        4590 	.type	.L7746,@object
                        4591 	.size	.L7746,2
                        4592 	.data
                        4593 	.text
                        4594 	.align	2
                        4595 	.align	2
                        4596 ..gh.f.f.1.e.51:
                        4597 	.type	..gh.f.f.1.e.51,@object
                        4598 	.size	..gh.f.f.1.e.51,0
                        4599 	.global	_FblDiagCheckStartMsg
                        4600 _FblDiagCheckStartMsg:
                        4601 --	    .bf
                        4602 .LDW561:
00001230 840709900000*  4603 	ld.w	sdaoff23(_fblDiagStates)[gp],r18
00001236 d2560800       4604 	andi	8,r18,r10
0000123a 8352           4605 	shr	3,r10
                        4606 --	    .ef
                        4607 .LDW661:
0000123c 7f00           4608 	jmp	[lp]
                        4609 	.type	_FblDiagCheckStartMsg,@function
                        4610 	.size	_FblDiagCheckStartMsg,.-_FblDiagCheckStartMsg
                        4611 	.align	2
                        4612 .LDW761:
                        4613 --_result	r10	local
                        4614 
                        4615 --_pData	none	param
                        4616 --_length	none	param
                        4617 
                        4618 	.section ".bss","awb"
                        4619 .L7810:
                        4620 	.type	.L7810,@object
                        4621 	.size	.L7810,0
                        4622 	.data
                        4623 	.text
                        4624 	.align	2
                        4625 	.align	2
                        4626 ..gh.f.f.1.e.52:
                        4627 	.type	..gh.f.f.1.e.52,@object
                        4628 	.size	..gh.f.f.1.e.52,0
                        4629 	.global	_FblDiagGetLengthOfDataForWdbi
                        4630 _FblDiagGetLengthOfDataForWdbi:
0000123e c600           4631 	zxh	r6
                        4632 --	    .bf
                        4633 .LDW861:
00001240 0092           4634 	mov	0,r18
00001242 1250           4635 	mov	r18,r10
                        4636 .L7835:

                                                                      Page 88
                                                              C:\Users\nhuliyap\AppData\Local\Temp\gh_000099c1.s
00001244 f2f61400       4637 	mulhi	20,r18,ep
00001248 330600000000*  4638 	mov	rosdaoff23(_kFblDiagSubtableWdbi),r19
0000124e d3f1           4639 	add	r19,ep
00001250 004d           4640 	sld.w	0[ep],r9
00001252 898f0100       4641 	ld.bu	0[r9],r17
00001256 a9870100       4642 	ld.bu	1[r9],r16
0000125a c88a           4643 	shl	8,r17
0000125c d181           4644 	add	r17,r16
0000125e e681           4645 	cmp	r6,r16
00001260 ba05*          4646 	bne	.L7836
                        4647 --line2527
                        4648 ..lin.C.3A.5C_ECU2.5CECU_Rivian_A1.5CTarget.5Crepo_projects.5CpFOTA.5CcL_LATEST.5Cmake.5Cobj.5Cfbl_diag_oem.336::
                        4649 .LDWlin336:
00001262 7450           4650 	sld.hu	8[ep],r10
00001264 7f00           4651 	jmp	[lp]
                        4652 .L7836:
                        4653 --line2531
                        4654 ..lin.C.3A.5C_ECU2.5CECU_Rivian_A1.5CTarget.5Crepo_projects.5CpFOTA.5CcL_LATEST.5Cmake.5Cobj.5Cfbl_diag_oem.337::
                        4655 .LDWlin337:
00001266 4192           4656 	add	1,r18
00001268 6a92           4657 	cmp	10,r18
0000126a d1ed*          4658 	bl	.L7835
                        4659 --	    .ef
                        4660 .LDW961:
                        4661 --line2531
                        4662 ..lin.C.3A.5C_ECU2.5CECU_Rivian_A1.5CTarget.5Crepo_projects.5CpFOTA.5CcL_LATEST.5Cmake.5Cobj.5Cfbl_diag_oem.338::
                        4663 .LDWlin338:
0000126c 7f00           4664 	jmp	[lp]
                        4665 	.type	_FblDiagGetLengthOfDataForWdbi,@function
                        4666 	.size	_FblDiagGetLengthOfDataForWdbi,.-_FblDiagGetLengthOfDataForWdbi
                        4667 	.align	2
                        4668 .LDW071:
                        4669 --_i	r18	local
                        4670 --_ushLength	r10	local
                        4671 
                        4672 --_ushDid	r6	param
                        4673 
                        4674 	.section ".bss","awb"
                        4675 .L7898:
                        4676 	.type	.L7898,@object
                        4677 	.size	.L7898,0
                        4678 	.data
                        4679 	.text
                        4680 	.align	2
                        4681 	.align	2
                        4682 ..gh.f.f.1.e.53:
                        4683 	.type	..gh.f.f.1.e.53,@object
                        4684 	.size	..gh.f.f.1.e.53,0
                        4685 	.global	_FblDiagGetLengthOfDataForRoutineControl
                        4686 _FblDiagGetLengthOfDataForRoutineControl:
0000126e c600           4687 	zxh	r6
                        4688 --	    .bf
                        4689 .LDW171:
00001270 0092           4690 	mov	0,r18
00001272 1250           4691 	mov	r18,r10
                        4692 .L7961:
00001274 f2f61400       4693 	mulhi	20,r18,ep
00001278 330600000000*  4694 	mov	rosdaoff23(_kFblDiagSubtableRoutine),r19
0000127e d3f1           4695 	add	r19,ep
00001280 004d           4696 	sld.w	0[ep],r9
00001282 a98f0100       4697 	ld.bu	1[r9],r17

                                                                      Page 89
                                                              C:\Users\nhuliyap\AppData\Local\Temp\gh_000099c1.s
00001286 89870300       4698 	ld.bu	2[r9],r16
0000128a c88a           4699 	shl	8,r17
0000128c d181           4700 	add	r17,r16
0000128e e681           4701 	cmp	r6,r16
00001290 ba05*          4702 	bne	.L7962
                        4703 --line2547
                        4704 ..lin.C.3A.5C_ECU2.5CECU_Rivian_A1.5CTarget.5Crepo_projects.5CpFOTA.5CcL_LATEST.5Cmake.5Cobj.5Cfbl_diag_oem.339::
                        4705 .LDWlin339:
00001292 7450           4706 	sld.hu	8[ep],r10
00001294 7f00           4707 	jmp	[lp]
                        4708 .L7962:
                        4709 --line2551
                        4710 ..lin.C.3A.5C_ECU2.5CECU_Rivian_A1.5CTarget.5Crepo_projects.5CpFOTA.5CcL_LATEST.5Cmake.5Cobj.5Cfbl_diag_oem.340::
                        4711 .LDWlin340:
00001296 4192           4712 	add	1,r18
00001298 6792           4713 	cmp	7,r18
0000129a d1ed*          4714 	bl	.L7961
                        4715 --	    .ef
                        4716 .LDW271:
                        4717 --line2551
                        4718 ..lin.C.3A.5C_ECU2.5CECU_Rivian_A1.5CTarget.5Crepo_projects.5CpFOTA.5CcL_LATEST.5Cmake.5Cobj.5Cfbl_diag_oem.341::
                        4719 .LDWlin341:
0000129c 7f00           4720 	jmp	[lp]
                        4721 	.type	_FblDiagGetLengthOfDataForRoutineControl,@function
                        4722 	.size	_FblDiagGetLengthOfDataForRoutineControl,.-_FblDiagGetLengthOfDataForRoutineControl
                        4723 	.align	2
                        4724 .LDW371:
                        4725 --_i	r18	local
                        4726 --_ushLength	r10	local
                        4727 
                        4728 --_ushRid	r6	param
                        4729 
                        4730 	.section ".bss","awb"
                        4731 .L8026:
                        4732 	.type	.L8026,@object
                        4733 	.size	.L8026,0
                        4734 	.data
                        4735 	.text
                        4736 	.align	2
                        4737 	.align	2
                        4738 ..gh.f.f.1.e.54:
                        4739 	.type	..gh.f.f.1.e.54,@object
                        4740 	.size	..gh.f.f.1.e.54,0
                        4741 	.global	_FblDiagOemPrepareRrResponse
                        4742 _FblDiagOemPrepareRrResponse:
0000129e 06f0           4743 	mov	r6,ep
                        4744 --	    .bf
                        4745 .LDW471:
000012a0 20364c00       4746 	movea	76,zero,r6
000012a4 8133           4747 	sst.b	r6,1[ep]
000012a6 019a           4748 	mov	1,r19
000012a8 679f0000       4749 	st.h	r19,0[r7]
                        4750 --	    .ef
                        4751 .LDW571:
000012ac 7f00           4752 	jmp	[lp]
                        4753 	.type	_FblDiagOemPrepareRrResponse,@function
                        4754 	.size	_FblDiagOemPrepareRrResponse,.-_FblDiagOemPrepareRrResponse
                        4755 	.align	2
                        4756 .LDW671:
                        4757 
                        4758 --_pDiagBuffer	ep	param

                                                                      Page 90
                                                              C:\Users\nhuliyap\AppData\Local\Temp\gh_000099c1.s
                        4759 --_pDiagDataLength	r7	param
                        4760 
                        4761 	.section ".bss","awb"
                        4762 .L8113:
                        4763 	.type	.L8113,@object
                        4764 	.size	.L8113,0
                        4765 	.data
                        4766 	.text
                        4767 	.align	2
                        4768 --_FblLogicalBlockTable	rosdaoff23(_FblLogicalBlockTable)	import
                        4769 --_flashDrvBlk0	_flashDrvBlk0	import
                        4770 --_flashCode	_flashCode	import
                        4771 --_errStatErrorCode	sdaoff23(_errStatErrorCode)	import
                        4772 --_errStatFlashDrvVersion	sdaoff23(_errStatFlashDrvVersion)	import
                        4773 --_errStatFlashDrvErrorCode	sdaoff23(_errStatFlashDrvErrorCode)	import
                        4774 --_errStatDescriptor	sdaoff23(_errStatDescriptor)	import
                        4775 --_DiagBuffer	sdaoff23(_DiagBuffer)	import
                        4776 --_DiagDataLength	sdaoff23(_DiagDataLength)	import
                        4777 --_fblDiagStates	sdaoff23(_fblDiagStates)	import
                        4778 --_diagResponseFlag	sdaoff23(_diagResponseFlag)	import
                        4779 --_ecuResetTimeout	sdaoff23(_ecuResetTimeout)	import
                        4780 --_secSecurityAccessDelay	sdaoff23(_secSecurityAccessDelay)	import
                        4781 --_diagErrorCode	sdaoff23(_diagErrorCode)	import
                        4782 --_segmentCount	sdaoff23(_segmentCount)	import
                        4783 --_kFlashDriverInitData	rosdaoff23(_kFlashDriverInitData)	static
                        4784 --_currentSequenceCnt	sdaoff23(_currentSequenceCnt)	static
                        4785 --_secSendKeyInvalid	sdaoff23(_secSendKeyInvalid)	static
                        4786 --_verifyParam	sdaoff23(_verifyParam)	static
                        4787 --_downloadSegments	sdaoff23(_downloadSegments)	static
                        4788 --_downloadBlockDescriptor	sdaoff23(_downloadBlockDescriptor)	static
                        4789 --_transferRemainder	sdaoff23(_transferRemainder)	static
                        4790 --_expectedSequenceCnt	sdaoff23(_expectedSequenceCnt)	static
                        4791 --_ulMemEraseStartAddress	sdaoff23(_ulMemEraseStartAddress)	static
                        4792 --_ulMemEraseLength	sdaoff23(_ulMemEraseLength)	static
                        4793 --_kFblDiagSubtableDsc_DefaultSession	rosdaoff23(_kFblDiagSubtableDsc_DefaultSession)	static
                        4794 --_kFblDiagSubtableDsc_ProgSession	rosdaoff23(_kFblDiagSubtableDsc_ProgSession)	static
                        4795 --_kFblDiagSubtableDsc_ExtendedSession	rosdaoff23(_kFblDiagSubtableDsc_ExtendedSession)	static
                        4796 --_kFblDiagSubtableSessionControl	rosdaoff23(_kFblDiagSubtableSessionControl)	static
                        4797 --_kFblDiagSubtableEcuReset_HardReset	rosdaoff23(_kFblDiagSubtableEcuReset_HardReset)	static
                        4798 --_kFblDiagSubtableEcuReset	rosdaoff23(_kFblDiagSubtableEcuReset)	static
                        4799 --_kFblDiagSubtableSecAccess_Seed	rosdaoff23(_kFblDiagSubtableSecAccess_Seed)	static
                        4800 --_kFblDiagSubtableSecAccess_Key	rosdaoff23(_kFblDiagSubtableSecAccess_Key)	static
                        4801 --_kFblDiagSubtableSecAccess	rosdaoff23(_kFblDiagSubtableSecAccess)	static
                        4802 --_kFblDiagSubtableCommControl_EnRxEnTx	rosdaoff23(_kFblDiagSubtableCommControl_EnRxEnTx)	static
                        4803 --_kFblDiagSubtableCommControl_Disable	rosdaoff23(_kFblDiagSubtableCommControl_Disable)	static
                        4804 --_kFblDiagSubtableCommControl	rosdaoff23(_kFblDiagSubtableCommControl)	static
                        4805 --_kFblDiagSubtableRC_StartErase	rosdaoff23(_kFblDiagSubtableRC_StartErase)	static
                        4806 --_kFblDiagSubtableRC_ApplicationHwidCheck	rosdaoff23(_kFblDiagSubtableRC_ApplicationHwidCheck)	static
                        4807 --_kFblDiagSubtableRC_CompareAndStoreSignature	rosdaoff23(_kFblDiagSubtableRC_CompareAndStoreSignature)	static
                        4808 --_kFblDiagSubtableRC_CheckValidModule	rosdaoff23(_kFblDiagSubtableRC_CheckValidModule)	static
                        4809 --_kFblDiagSubtableRC_InitGenealogyBlock	rosdaoff23(_kFblDiagSubtableRC_InitGenealogyBlock)	static
                        4810 --_kFblDiagSubtableRC_LoadSecurityKey	rosdaoff23(_kFblDiagSubtableRC_LoadSecurityKey)	static
                        4811 --_kFblDiagSubtableRC_SecretService	rosdaoff23(_kFblDiagSubtableRC_SecretService)	static
                        4812 --_kFblDiagSubtableRoutine	rosdaoff23(_kFblDiagSubtableRoutine)	static
                        4813 --_kFblDiagSubtableTesterPresent_ZeroSubfunction	rosdaoff23(_kFblDiagSubtableTesterPresent_ZeroSubfunction)	static
                        4814 --_kFblDiagSubtableTesterPresent	rosdaoff23(_kFblDiagSubtableTesterPresent)	static
                        4815 --_kFblDiagSubtableControlDtc_OnSubfunction	rosdaoff23(_kFblDiagSubtableControlDtc_OnSubfunction)	static
                        4816 --_kFblDiagSubtableControlDtc_OffSubfunction	rosdaoff23(_kFblDiagSubtableControlDtc_OffSubfunction)	static
                        4817 --_kFblDiagSubtableControlDtc	rosdaoff23(_kFblDiagSubtableControlDtc)	static
                        4818 --_kFblDiagSubtableWdbi_ModuleToProgram	rosdaoff23(_kFblDiagSubtableWdbi_ModuleToProgram)	static
                        4819 --_kFblDiagSubtableWdbi_BoardPartnumber	rosdaoff23(_kFblDiagSubtableWdbi_BoardPartnumber)	static

                                                                      Page 91
                                                              C:\Users\nhuliyap\AppData\Local\Temp\gh_000099c1.s
                        4820 --_kFblDiagSubtableWdbi_BoardSerialnumber	rosdaoff23(_kFblDiagSubtableWdbi_BoardSerialnumber)	static
                        4821 --_kFblDiagSubtableWdbi_EcuPartnumber	rosdaoff23(_kFblDiagSubtableWdbi_EcuPartnumber)	static
                        4822 --_kFblDiagSubtableWdbi_EcuSerialnumber	rosdaoff23(_kFblDiagSubtableWdbi_EcuSerialnumber)	static
                        4823 --_kFblDiagSubtableWdbi_ManufSupport	rosdaoff23(_kFblDiagSubtableWdbi_ManufSupport)	static
                        4824 --_kFblDiagSubtableWdbi_Vin	rosdaoff23(_kFblDiagSubtableWdbi_Vin)	static
                        4825 --_kFblDiagSubtableWdbi_FingerprintApp	rosdaoff23(_kFblDiagSubtableWdbi_FingerprintApp)	static
                        4826 --_kFblDiagSubtableWdbi_ModeId	rosdaoff23(_kFblDiagSubtableWdbi_ModeId)	static
                        4827 --_kFblDiagSubtableWdbi_AuxId	rosdaoff23(_kFblDiagSubtableWdbi_AuxId)	static
                        4828 --_kFblDiagSubtableWdbi	rosdaoff23(_kFblDiagSubtableWdbi)	static
                        4829 
                        4830 	.section ".rosdata","a"
                        4831 	.global	_kSizeOfServiceTable
00000280 0c000000       4832 _kSizeOfServiceTable:	.byte	12,0,0,0
                        4833 	.type	_kSizeOfServiceTable,@object
                        4834 	.size	_kSizeOfServiceTable,4
                        4835 	.global	_kFblDiagServiceTable
00000284 10             4836 _kFblDiagServiceTable:	.byte	16
00000285 000000         4837 	.space	3
00000288 37000000       4838 	.byte	55,0,0,0
0000028c 0100           4839 	.byte	1,0
0000028e 0000           4840 	.space	2
00000290 00000000       4841 	.space	4
00000294 03000000       4842 	.byte	3,0,0,0
00000298 01000000       4843 	.byte	1,0,0,0
0000029c 00000000*      4844 	.word	rosdaoff23(_kFblDiagSubtableSessionControl)
000002a0 00000000*      4845 	.word	_FblDiagDefaultPreHandler
000002a4 00000000       4846 	.space	4
000002a8 00000000*      4847 	.word	_FblDiagProcessSubfunctionNrc
000002ac 00000000*      4848 	.word	_FblDiagDefaultPostHandler
000002b0 11             4849 	.byte	17
000002b1 000000         4850 	.space	3
000002b4 37000000       4851 	.byte	55,0,0,0
000002b8 0100           4852 	.byte	1,0
000002ba 0000           4853 	.space	2
000002bc 00000000       4854 	.space	4
000002c0 01000000       4855 	.byte	1,0,0,0
000002c4 01000000       4856 	.byte	1,0,0,0
000002c8 00000000*      4857 	.word	rosdaoff23(_kFblDiagSubtableEcuReset)
000002cc 00000000*      4858 	.word	_FblDiagDefaultPreHandler
000002d0 00000000       4859 	.space	4
000002d4 00000000*      4860 	.word	_FblDiagProcessSubfunctionNrc
000002d8 00000000*      4861 	.word	_FblDiagDefaultPostHandler
000002dc 22             4862 	.byte	34
000002dd 000000         4863 	.space	3
000002e0 27000000       4864 	.byte	39,0,0,0
000002e4 0200           4865 	.byte	2,0
000002e6 0000           4866 	.space	2
000002e8 00000000*      4867 	.word	_FblDiagDataByIdLengthCheck
000002ec 00000000       4868 	.space	4
000002f0 00000000       4869 	.space	4
000002f4 00000000       4870 	.space	4
000002f8 00000000*      4871 	.word	_FblDiagDefaultPreHandler
000002fc 00000000*      4872 	.word	_FblDiagReadDataByIdMainHandler
00000300 00000000*      4873 	.word	_FblDiagProcessServiceNrc
00000304 00000000*      4874 	.word	_FblDiagDefaultPostHandler
00000308 27             4875 	.byte	39
00000309 000000         4876 	.space	3
0000030c 14000000       4877 	.byte	20,0,0,0
00000310 0100           4878 	.byte	1,0
00000312 0000           4879 	.space	2
00000314 00000000       4880 	.space	4

                                                                      Page 92
                                                              C:\Users\nhuliyap\AppData\Local\Temp\gh_000099c1.s
00000318 02000000       4881 	.byte	2,0,0,0
0000031c 01000000       4882 	.byte	1,0,0,0
00000320 00000000*      4883 	.word	rosdaoff23(_kFblDiagSubtableSecAccess)
00000324 00000000*      4884 	.word	_FblDiagDefaultPreHandler
00000328 00000000       4885 	.space	4
0000032c 00000000*      4886 	.word	_FblDiagProcessSubfunctionNrc
00000330 00000000*      4887 	.word	_FblDiagDefaultPostHandler
00000334 28             4888 	.byte	40
00000335 000000         4889 	.space	3
00000338 32000000       4890 	.byte	50,0,0,0
0000033c 0100           4891 	.byte	1,0
0000033e 0000           4892 	.space	2
00000340 00000000       4893 	.space	4
00000344 02000000       4894 	.byte	2,0,0,0
00000348 01000000       4895 	.byte	1,0,0,0
0000034c 00000000*      4896 	.word	rosdaoff23(_kFblDiagSubtableCommControl)
00000350 00000000*      4897 	.word	_FblDiagDefaultPreHandler
00000354 00000000       4898 	.space	4
00000358 00000000*      4899 	.word	_FblDiagProcessSubfunctionNrc
0000035c 00000000*      4900 	.word	_FblDiagDefaultPostHandler
00000360 2e             4901 	.byte	46
00000361 000000         4902 	.space	3
00000364 04000000       4903 	.byte	4,0,0,0
00000368 0200           4904 	.byte	2,0
0000036a 0000           4905 	.space	2
0000036c 00000000*      4906 	.word	_FblDiagDataByIdLengthCheck
00000370 0a000000       4907 	.byte	10,0,0,0
00000374 02000000       4908 	.byte	2,0,0,0
00000378 00000000*      4909 	.word	rosdaoff23(_kFblDiagSubtableWdbi)
0000037c 00000000*      4910 	.word	_FblDiagDefaultPreHandler
00000380 00000000*      4911 	.word	_FblDiagWriteDataByIdMainHandler
00000384 00000000*      4912 	.word	_FblDiagProcessServiceNrc
00000388 00000000*      4913 	.word	_FblDiagDefaultPostHandler
0000038c 31             4914 	.byte	49
0000038d 000000         4915 	.space	3
00000390 37000000       4916 	.byte	55,0,0,0
00000394 0300           4917 	.byte	3,0
00000396 0000           4918 	.space	2
00000398 00000000       4919 	.space	4
0000039c 07000000       4920 	.byte	7,0,0,0
000003a0 03000000       4921 	.byte	3,0,0,0
000003a4 00000000*      4922 	.word	rosdaoff23(_kFblDiagSubtableRoutine)
000003a8 00000000*      4923 	.word	_FblDiagDefaultPreHandler
000003ac 00000000       4924 	.space	4
000003b0 00000000*      4925 	.word	_FblDiagProcessRoutineNrc
000003b4 00000000*      4926 	.word	_FblDiagDefaultPostHandler
000003b8 34             4927 	.byte	52
000003b9 000000         4928 	.space	3
000003bc 0c000000       4929 	.byte	12,0,0,0
000003c0 0200           4930 	.byte	2,0
000003c2 0000           4931 	.space	2
000003c4 00000000*      4932 	.word	_FblDiagRequestDownloadLengthCheck
000003c8 00000000       4933 	.space	4
000003cc 00000000       4934 	.space	4
000003d0 00000000       4935 	.space	4
000003d4 00000000*      4936 	.word	_FblDiagDefaultPreHandler
000003d8 00000000*      4937 	.word	_FblDiagRequestDownloadMainHandler
000003dc 00000000*      4938 	.word	_FblDiagProcessServiceNrc
000003e0 00000000*      4939 	.word	_FblDiagDefaultPostHandler
000003e4 36             4940 	.byte	54
000003e5 000000         4941 	.space	3

                                                                      Page 93
                                                              C:\Users\nhuliyap\AppData\Local\Temp\gh_000099c1.s
000003e8 0c000000       4942 	.byte	12,0,0,0
000003ec 0100           4943 	.byte	1,0
000003ee 0000           4944 	.space	2
000003f0 00000000*      4945 	.word	_FblDiagTransferDataLengthCheck
000003f4 00000000       4946 	.space	4
000003f8 00000000       4947 	.space	4
000003fc 00000000       4948 	.space	4
00000400 00000000*      4949 	.word	_FblDiagDefaultPreHandler
00000404 00000000*      4950 	.word	_FblDiagTransferDataMainHandler
00000408 00000000*      4951 	.word	_FblDiagProcessServiceNrc
0000040c 00000000*      4952 	.word	_FblDiagDefaultPostHandler
00000410 37             4953 	.byte	55
00000411 000000         4954 	.space	3
00000414 0c000000       4955 	.byte	12,0,0,0
00000418 0000           4956 	.space	2
0000041a 0000           4957 	.space	2
0000041c 00000000       4958 	.space	4
00000420 00000000       4959 	.space	4
00000424 00000000       4960 	.space	4
00000428 00000000       4961 	.space	4
0000042c 00000000*      4962 	.word	_FblDiagDefaultPreHandler
00000430 00000000*      4963 	.word	_FblDiagReqTransferExitMainHandler
00000434 00000000*      4964 	.word	_FblDiagProcessServiceNrc
00000438 00000000*      4965 	.word	_FblDiagDefaultPostHandler
0000043c 3e             4966 	.byte	62
0000043d 000000         4967 	.space	3
00000440 37000000       4968 	.byte	55,0,0,0
00000444 0100           4969 	.byte	1,0
00000446 0000           4970 	.space	2
00000448 00000000       4971 	.space	4
0000044c 01000000       4972 	.byte	1,0,0,0
00000450 01000000       4973 	.byte	1,0,0,0
00000454 00000000*      4974 	.word	rosdaoff23(_kFblDiagSubtableTesterPresent)
00000458 00000000*      4975 	.word	_FblDiagDefaultPreHandler
0000045c 00000000       4976 	.space	4
00000460 00000000*      4977 	.word	_FblDiagProcessSubfunctionNrc
00000464 00000000*      4978 	.word	_FblDiagDefaultPostHandler
00000468 85             4979 	.byte	133
00000469 000000         4980 	.space	3
0000046c 32000000       4981 	.byte	50,0,0,0
00000470 0100           4982 	.byte	1,0
00000472 0000           4983 	.space	2
00000474 00000000       4984 	.space	4
00000478 02000000       4985 	.byte	2,0,0,0
0000047c 01000000       4986 	.byte	1,0,0,0
00000480 00000000*      4987 	.word	rosdaoff23(_kFblDiagSubtableControlDtc)
00000484 00000000*      4988 	.word	_FblDiagDefaultPreHandler
00000488 00000000       4989 	.space	4
0000048c 00000000*      4990 	.word	_FblDiagProcessSubfunctionNrc
00000490 00000000*      4991 	.word	_FblDiagDefaultPostHandler
                        4992 	.type	_kFblDiagServiceTable,@object
                        4993 	.size	_kFblDiagServiceTable,528
                        4994 	.data
                        4995 	.ghsnote version,17
                        4996 	.ghsnote tools,3
                        4997 	.ghsnote options,144
                        4998 	.text
                        4999 	.align	2
                        5000 	.section ".RAMCODE","ax"
                        5001 	.align	2
                        5002 	.text

                                                                      Page 94
                                                              C:\Users\nhuliyap\AppData\Local\Temp\gh_000099c1.s
                        5003 ..eof.C.3A.5C_ECU2.5CECU_Rivian_A1.5CTarget.5Crepo_projects.5CpFOTA.5CcL_LATEST.5Cmake.5Cobj.5Cfbl_diag_oem...43.3A.5C_ECU2.5CECU_Rivian_A1.5CTarget.5Crepo_projects.5CpFOTA.5CcL_LATEST.5Cmake..64F86BF0..0::
                        5004 	.section ".RAMCODE","ax"
                        5005 ..eof.C.3A.5C_ECU2.5CECU_Rivian_A1.5CTarget.5Crepo_projects.5CpFOTA.5CcL_LATEST.5Cmake.5Cobj.5Cfbl_diag_oem...43.3A.5C_ECU2.5CECU_Rivian_A1.5CTarget.5Crepo_projects.5CpFOTA.5CcL_LATEST.5Cmake..64F86BF0..1::
                        5006 .rh850_flags REGMODE32,DATA_ALIGN8,GP_FIX,EP_NONFIX,TP_FIX,REG2_RESERVE,G3K,SDA_EXTRA_REGS_0
