                                                                      Page 1
                                                              C:\Users\nhuliyap\AppData\Local\Temp\gh_0000ch01.s
Command Line: C:\GHS\comp_201517\ease850.exe -w -stderr=err/fbl_ap.err -elf -b0 -I../source/_common -I../source/common -I../source/ecuabcanif -I../source/ecuabcantrcv -I../source/ecuabcryif -I../source/ecuabfee -I../source/ecuabmemif -I../source/libautosar -I../source/mcalcan -I../source/mcalcry -I../source/mcaldio -I../source/mcaleep -I../source/mcalfls -I../source/mcalmcu -I../source/projectara -I../source/projectcfg -I../source/projectcompiler -I../source/swcservicebswm -I../source/swcservicecantp -I../source/swcservicecomm -I../source/swcservicecsm -I../source/swcservicedcm -I../source/swcservicedem -I../source/swcservicedet -I../source/swcserviceecum -I../source/swcservicenvm -I../source/swcserviceos -I../source/swcservicepdur -I../source/swcserviceschm -I../source/swcservicestartup -I../source/wrappers/swcservicesecm -I../source/wrappers/vsecprim -I../source/wrappers/vstdlib -Ic:/ghs/comp_201517/ansi -Ic:/ghs/comp_201517/include/v800 -Igendata -IC:\GHS\comp_201517\lib\rh850 -cg_underscore -cpu=rh850g3k -nofpu -no_v850_simd -rh850_fpsimd=none -nomacro -patch_dbo=C:\_ECU2\ECU_Rivian_A1\Target\repo_projects\pFOTA\cL_LATEST\make\obj\fbl_ap.dbo -source=fbl_ap.c -o obj\gh_0000ch01.o -list=lst/fbl_ap.lst C:\Users\nhuliyap\AppData\Local\Temp\gh_0000ch01.s 
Original File: C:\Users\nhuliyap\AppData\Local\Temp\gh_0000ch01.s
Source File: fbl_ap.c
Directory: C:\_ECU2\ECU_Rivian_A1\Target\repo_projects\pFOTA\cL_LATEST\make
Host OS: Windows
EASE: Copyright (C) 1983-2015 Green Hills Software.  All Rights Reserved.
Release: Compiler v2015.1.7
Build Directory: [Directory] BTOWORKER6:c:/build_2015_1_bto/2015-10-21.2100-2015_1_bto/win32-comp-ecom
Revision: [VCInfo] http://toolsvc/branches/release-branch-70-bto/src@544153 (built by build)
Revision Date: Thu Oct 22 07:50:13 2015

Release Date: Thu Oct 22 09:32:32 2015

                           1 --Driver Command: ccrh850 -DBRS_DERIVATIVE_701018 -DBRS_OSC_CLK=16
                           2 --		-DBRS_TIMEBASE_CLOCK=80 -DBRS_EVA_BOARD_
                           3 --		-DBRS_DERIVATIVE_GROUP_F1L -DBRS_OS_USECASE_BRS
                           4 --		-DBRS_PLATFORM_RH850 -DBRS_COMP_GHS
                           5 --		-DBRS_CPU_LOCAL_RAM_SIZE_CORE0=32
                           6 --		-DBRS_CPU_RAM_START_CORE0=0xFEDF8000 -list=lst/fbl_ap.lst
                           7 --		-object_dir=obj -stderr=err/fbl_ap.err -c -cpu=rh850 -sda=all
                           8 --		-large_sda -prepare_dispose -pragma_asm_inline -no_callt
                           9 --		-inline_prologue -notda -reserve_r2 -fsoft
                          10 --		--unknown_pragma_warnings -list -g -Ogeneral -shortenum
                          11 --		-registermode=32 -I../source/_common -I../source/common
                          12 --		-I../source/ecuabcanif -I../source/ecuabcantrcv
                          13 --		-I../source/ecuabcryif -I../source/ecuabfee
                          14 --		-I../source/ecuabmemif -I../source/libautosar -I../source/mcalcan
                          15 --		-I../source/mcalcry -I../source/mcaldio -I../source/mcaleep
                          16 --		-I../source/mcalfls -I../source/mcalmcu -I../source/projectara
                          17 --		-I../source/projectcfg -I../source/projectcompiler
                          18 --		-I../source/swcservicebswm -I../source/swcservicecantp
                          19 --		-I../source/swcservicecomm -I../source/swcservicecsm
                          20 --		-I../source/swcservicedcm -I../source/swcservicedem
                          21 --		-I../source/swcservicedet -I../source/swcserviceecum
                          22 --		-I../source/swcservicenvm -I../source/swcserviceos
                          23 --		-I../source/swcservicepdur -I../source/swcserviceschm
                          24 --		-I../source/swcservicestartup -I../source/wrappers/swcservicesecm
                          25 --		-I../source/wrappers/vsecprim -I../source/wrappers/vstdlib
                          26 --		-Ic:/ghs/comp_201517/ansi -Ic:/ghs/comp_201517/include/v800
                          27 --		-Igendata ../source/SwcServiceStartUp/fbl_ap.c
                          28 --Source File:   ../source/SwcServiceStartUp/fbl_ap.c
                          29 --Directory:     
                          30 --		C:\_ECU2\ECU_Rivian_A1\Target\repo_projects\pFOTA\cL_LATEST\make
                          31 --Compile Date:  Wed Sep 06 14:09:10 2023
                          32 --Host OS:       Win32
                          33 --Version:       C-RH850 2015.1.7 RELEASE VERSION
                          34 --Release:       Compiler v2015.1.7
                          35 --Revision Date: Thu Oct 22 08:06:12 2015
                          36 --Release Date:  Thu Oct 22 09:34:32 2015
                          37 -- ecom  -g -w -OM
                          38 	.text
                          39 ..bof.C.3A.5C_ECU2.5CECU_Rivian_A1.5CTarget.5Crepo_projects.5CpFOTA.5CcL_LATEST.5Cmake.5Cobj.5Cfbl_ap...43.3A.5C_ECU2.5CECU_Rivian_A1.5CTarget.5Crepo_projects.5CpFOTA.5CcL_LATEST.5Cmake..64F86BE6..0::
                          40 ..gh.beginasm.0:
                          41 	.type	..gh.beginasm.0,@object
                          42 	.size	..gh.beginasm.0,0
                          43  .globl __FBLENTRY
                          44 ..gh.endasm.1:
                          45 	.type	..gh.endasm.1,@object
                          46 	.size	..gh.endasm.1,0
                          47 ..gh.beginasm.2:
                          48 	.type	..gh.beginasm.2,@object
                          49 	.size	..gh.beginasm.2,0
                          50  __FBLENTRY:

                                                                      Page 2
                                                              C:\Users\nhuliyap\AppData\Local\Temp\gh_0000ch01.s
                          51 ..gh.endasm.3:
                          52 	.type	..gh.endasm.3,@object
                          53 	.size	..gh.endasm.3,0
                          54 ..gh.beginasm.4:
                          55 	.type	..gh.beginasm.4,@object
                          56 	.size	..gh.beginasm.4,0
00000000 80070000*        57  jr _fblmain
                          58 ..gh.endasm.5:
                          59 	.type	..gh.endasm.5,@object
                          60 	.size	..gh.endasm.5,0
                          61 	.text
                          62 	.align	2
                          63 ..gh.f.f.1.e.6:
                          64 	.type	..gh.f.f.1.e.6,@object
                          65 	.size	..gh.f.f.1.e.6,0
                          66 	.global	_InitClocks..C.3A.5C_ECU2.5CECU_Rivian_A1.5CTarget.5Crepo_projects.5CpFOTA.5CcL_LATEST.5Cmake.5Cobj.5Cfbl_ap.
                          67 _InitClocks..C.3A.5C_ECU2.5CECU_Rivian_A1.5CTarget.5Crepo_projects.5CpFOTA.5CcL_LATEST.5Cmake.5Cobj.5Cfbl_ap.:
                          68 _InitClocks:
                          69 --	    .bf
                          70 .LDW01:
00000004 0552             71 	mov	5,r10
00000006 3e060811f8ff     72 	mov	-519928,ep
0000000c 0155             73 	sst.w	r10,0[ep]
0000000e 804effff         74 	ori	65535,zero,r9
00000012 034d             75 	sst.w	r9,4[ep]
                          76 .L6:
00000014 2046a500         77 	movea	165,zero,r8
00000018 40f6f8ff         78 	movhi	65528,zero,ep
0000001c 0145             79 	sst.w	r8,0[ep]
0000001e 0172             80 	mov	1,r14
00000020 80070f7022f0     81 	st.w	r14,4294447360[zero]
00000026 1e3a             82 	mov	-2,r7
00000028 80070f3822f0     83 	st.w	r7,4294447360[zero]
0000002e 80070f7022f0     84 	st.w	r14,4294447360[zero]
00000034 0295             85 	sld.w	4[ep],r18
00000036 df92             86 	shl	31,r18
00000038 eaed*            87 	bne	.L6
                          88 .L7:
                          89 --line782
                          90 ..lin.C.3A.5C_ECU2.5CECU_Rivian_A1.5CTarget.5Crepo_projects.5CpFOTA.5CcL_LATEST.5Cmake.5Cobj.5Cfbl_ap.1::
                          91 .LDWlin1:
0000003a 8007493022f0     92 	ld.w	4294447364[zero],r6
00000040 6732             93 	cmp	7,r6
00000042 cafd*            94 	bne	.L7
                          95 --line784
                          96 ..lin.C.3A.5C_ECU2.5CECU_Rivian_A1.5CTarget.5Crepo_projects.5CpFOTA.5CcL_LATEST.5Cmake.5Cobj.5Cfbl_ap.2::
                          97 .LDWlin2:
00000044 209e270a         98 	movea	2599,zero,r19
00000048 80078f9820f1     99 	st.w	r19,4294479880[zero]
                         100 .L12:
0000004e 3e060080f8ff    101 	mov	-491520,ep
00000054 0145            102 	sst.w	r8,0[ep]
00000056 0e68            103 	mov	r14,r13
00000058 80070f6820f1    104 	st.w	r13,4294479872[zero]
0000005e 80070f3820f1    105 	st.w	r7,4294479872[zero]
00000064 80070f6820f1    106 	st.w	r13,4294479872[zero]
0000006a 028d            107 	sld.w	4[ep],r17
0000006c df8a            108 	shl	31,r17
0000006e 8af5*           109 	bne	.L12
                         110 .L13:
                         111 --line786

                                                                      Page 3
                                                              C:\Users\nhuliyap\AppData\Local\Temp\gh_0000ch01.s
                         112 ..lin.C.3A.5C_ECU2.5CECU_Rivian_A1.5CTarget.5Crepo_projects.5CpFOTA.5CcL_LATEST.5Cmake.5Cobj.5Cfbl_ap.3::
                         113 .LDWlin3:
00000070 8007498020f1    114 	ld.w	4294479876[zero],r16
00000076 6782            115 	cmp	7,r16
00000078 cafd*           116 	bne	.L13
                         117 .L18:
                         118 --line788
                         119 ..lin.C.3A.5C_ECU2.5CECU_Rivian_A1.5CTarget.5Crepo_projects.5CpFOTA.5CcL_LATEST.5Cmake.5Cobj.5Cfbl_ap.4::
                         120 .LDWlin4:
0000007a 0145            121 	sst.w	r8,0[ep]
0000007c 80070f6842f1    122 	st.w	r13,4294484224[zero]
00000082 80070f3842f1    123 	st.w	r7,4294484224[zero]
00000088 80070f6842f1    124 	st.w	r13,4294484224[zero]
0000008e 0285            125 	sld.w	4[ep],r16
00000090 df82            126 	shl	31,r16
00000092 caf5*           127 	bne	.L18
                         128 .L19:
                         129 --line789
                         130 ..lin.C.3A.5C_ECU2.5CECU_Rivian_A1.5CTarget.5Crepo_projects.5CpFOTA.5CcL_LATEST.5Cmake.5Cobj.5Cfbl_ap.5::
                         131 .LDWlin5:
00000094 8007896842f1    132 	ld.w	4294484232[zero],r13
0000009a 616a            133 	cmp	1,r13
0000009c cafd*           134 	bne	.L19
                         135 .L24:
                         136 --line791
                         137 ..lin.C.3A.5C_ECU2.5CECU_Rivian_A1.5CTarget.5Crepo_projects.5CpFOTA.5CcL_LATEST.5Cmake.5Cobj.5Cfbl_ap.6::
                         138 .LDWlin6:
0000009e 0145            139 	sst.w	r8,0[ep]
000000a0 035a            140 	mov	3,r11
000000a2 80070f5840f1    141 	st.w	r11,4294483968[zero]
000000a8 1c52            142 	mov	-4,r10
000000aa 80070f5040f1    143 	st.w	r10,4294483968[zero]
000000b0 80070f5840f1    144 	st.w	r11,4294483968[zero]
000000b6 027d            145 	sld.w	4[ep],r15
000000b8 df7a            146 	shl	31,r15
000000ba aaf5*           147 	bne	.L24
                         148 .L25:
                         149 --line792
                         150 ..lin.C.3A.5C_ECU2.5CECU_Rivian_A1.5CTarget.5Crepo_projects.5CpFOTA.5CcL_LATEST.5Cmake.5Cobj.5Cfbl_ap.7::
                         151 .LDWlin7:
000000bc 8007894840f1    152 	ld.w	4294483976[zero],r9
000000c2 634a            153 	cmp	3,r9
000000c4 cafd*           154 	bne	.L25
                         155 --	    .ef
                         156 .LDW11:
                         157 --line794
                         158 ..lin.C.3A.5C_ECU2.5CECU_Rivian_A1.5CTarget.5Crepo_projects.5CpFOTA.5CcL_LATEST.5Cmake.5Cobj.5Cfbl_ap.8::
                         159 .LDWlin8:
000000c6 7f00            160 	jmp	[lp]
                         161 	.type	_InitClocks,@function
                         162 	.size	_InitClocks,.-_InitClocks
                         163 	.type	_InitClocks..C.3A.5C_ECU2.5CECU_Rivian_A1.5CTarget.5Crepo_projects.5CpFOTA.5CcL_LATEST.5Cmake.5Cobj.5Cfbl_ap.,@function
                         164 	.size	_InitClocks..C.3A.5C_ECU2.5CECU_Rivian_A1.5CTarget.5Crepo_projects.5CpFOTA.5CcL_LATEST.5Cmake.5Cobj.5Cfbl_ap.,.-_InitClocks..C.3A.5C_ECU2.5CECU_Rivian_A1.5CTarget.5Crepo_projects.5CpFOTA.5CcL_LATEST.5Cmake.5Cobj.5Cfbl_ap.
                         165 	.align	2
                         166 .LDW21:
                         167 
                         168 	.section ".bss","awb"
                         169 .L178:
                         170 	.type	.L178,@object
                         171 	.size	.L178,0
                         172 	.data

                                                                      Page 4
                                                              C:\Users\nhuliyap\AppData\Local\Temp\gh_0000ch01.s
                         173 	.text
                         174 	.align	2
                         175 	.align	2
                         176 ..gh.f.f.1.e.7:
                         177 	.type	..gh.f.f.1.e.7,@object
                         178 	.size	..gh.f.f.1.e.7,0
                         179 	.global	_InitCanPorts..C.3A.5C_ECU2.5CECU_Rivian_A1.5CTarget.5Crepo_projects.5CpFOTA.5CcL_LATEST.5Cmake.5Cobj.5Cfbl_ap.
                         180 _InitCanPorts..C.3A.5C_ECU2.5CECU_Rivian_A1.5CTarget.5Crepo_projects.5CpFOTA.5CcL_LATEST.5Cmake.5Cobj.5Cfbl_ap.:
                         181 _InitCanPorts:
                         182 --	    .bf
                         183 .LDW31:
000000c8 40f6c1ff        184 	movhi	65473,zero,ep
000000cc 7090            185 	sld.hu	0[ep],r18
000000ce d296fdff        186 	andi	65533,r18,r18
000000d2 8094            187 	sst.h	r18,0[ep]
000000d4 a00707880682    188 	ld.hu	4290839296[zero],r17
000000da d18efdff        189 	andi	65533,r17,r17
000000de a0070d880682    190 	st.h	r17,4290839296[zero]
000000e4 a00707800882    191 	ld.hu	4290839552[zero],r16
000000ea d086fdff        192 	andi	65533,r16,r16
000000ee a0070d800882    193 	st.h	r16,4290839552[zero]
000000f4 a007877a0082    194 	ld.hu	4290838568[zero],r15
000000fa cf7ef7ff        195 	andi	65527,r15,r15
000000fe 947c            196 	sst.h	r15,40[ep]
00000100 a00787720682    197 	ld.hu	4290839336[zero],r14
00000106 ce76f7ff        198 	andi	65527,r14,r14
0000010a a0078d720682    199 	st.h	r14,4290839336[zero]
00000110 a007876a0882    200 	ld.hu	4290839592[zero],r13
00000116 cd6ef7ff        201 	andi	65527,r13,r13
0000011a a0078d6a0882    202 	st.h	r13,4290839592[zero]
00000120 a00787621482    203 	ld.hu	4290841128[zero],r12
00000126 cc66feff        204 	andi	65534,r12,r12
0000012a a0078d621482    205 	st.h	r12,4290841128[zero]
00000130 a007875a0c82    206 	ld.hu	4290840104[zero],r11
00000136 cb5efeff        207 	andi	65534,r11,r11
0000013a a0078d5a0c82    208 	st.h	r11,4290840104[zero]
00000140 a00787520a82    209 	ld.hu	4290839848[zero],r10
00000146 8a560100        210 	ori	1,r10,r10
0000014a a0078d520a82    211 	st.h	r10,4290839848[zero]
00000150 a007874a0682    212 	ld.hu	4290839336[zero],r9
00000156 894e0100        213 	ori	1,r9,r9
0000015a a0078d4a0682    214 	st.h	r9,4290839336[zero]
00000160 a00787420882    215 	ld.hu	4290839592[zero],r8
00000166 88460100        216 	ori	1,r8,r8
0000016a a0078d420882    217 	st.h	r8,4290839592[zero]
00000170 a007873a1482    218 	ld.hu	4290841128[zero],r7
00000176 c73efdff        219 	andi	65533,r7,r7
0000017a a0078d3a1482    220 	st.h	r7,4290841128[zero]
00000180 a00787320c82    221 	ld.hu	4290840104[zero],r6
00000186 c636fdff        222 	andi	65533,r6,r6
0000018a a0078d320c82    223 	st.h	r6,4290840104[zero]
00000190 a007879a0a82    224 	ld.hu	4290839848[zero],r19
00000196 939e0200        225 	ori	2,r19,r19
0000019a a0078d9a0a82    226 	st.h	r19,4290839848[zero]
000001a0 a00787920082    227 	ld.hu	4290838568[zero],r18
000001a6 92960200        228 	ori	2,r18,r18
000001aa 9494            229 	sst.h	r18,40[ep]
000001ac 1ef62803        230 	addi	808,ep,ep
000001b0 7088            231 	sld.hu	0[ep],r17
000001b2 d18efdff        232 	andi	65533,r17,r17
000001b6 808c            233 	sst.h	r17,0[ep]

                                                                      Page 5
                                                              C:\Users\nhuliyap\AppData\Local\Temp\gh_0000ch01.s
000001b8 1ef60001        234 	addi	256,ep,ep
000001bc 7080            235 	sld.hu	0[ep],r16
000001be 90860200        236 	ori	2,r16,r16
000001c2 8084            237 	sst.h	r16,0[ep]
                         238 --	    .ef
                         239 .LDW41:
000001c4 7f00            240 	jmp	[lp]
                         241 	.type	_InitCanPorts,@function
                         242 	.size	_InitCanPorts,.-_InitCanPorts
                         243 	.type	_InitCanPorts..C.3A.5C_ECU2.5CECU_Rivian_A1.5CTarget.5Crepo_projects.5CpFOTA.5CcL_LATEST.5Cmake.5Cobj.5Cfbl_ap.,@function
                         244 	.size	_InitCanPorts..C.3A.5C_ECU2.5CECU_Rivian_A1.5CTarget.5Crepo_projects.5CpFOTA.5CcL_LATEST.5Cmake.5Cobj.5Cfbl_ap.,.-_InitCanPorts..C.3A.5C_ECU2.5CECU_Rivian_A1.5CTarget.5Crepo_projects.5CpFOTA.5CcL_LATEST.5Cmake.5Cobj.5Cfbl_ap.
                         245 	.align	2
                         246 .LDW51:
                         247 
                         248 	.section ".bss","awb"
                         249 .L337:
                         250 	.type	.L337,@object
                         251 	.size	.L337,0
                         252 	.data
                         253 	.text
                         254 	.align	2
                         255 	.align	2
                         256 	.align	2
                         257 ..gh.f.f.1.e.8:
                         258 	.type	..gh.f.f.1.e.8,@object
                         259 	.size	..gh.f.f.1.e.8,0
                         260 	.global	_ApplFblInit
                         261 _ApplFblInit:
000001c6 8e072100        262 	prepare	{r31},7
                         263 --	    .bf
                         264 .LDW61:
                         265 	jarl	_InitClocks,lp
                         265 <EXPANSION BEGIN>
                         265 jarl22 _InitClocks , lp 
000001ca bfff3afe*       265 <EXPANSION END>
                         266 --line123
                         267 ..lin.C.3A.5C_ECU2.5CECU_Rivian_A1.5CTarget.5Crepo_projects.5CpFOTA.5CcL_LATEST.5Cmake.5Cobj.5Cfbl_ap.9::
                         268 .LDWlin9:
                         269 	jarl	_InitCanPorts,lp
                         269 <EXPANSION BEGIN>
                         269 jarl22 _InitCanPorts , lp 
000001ce bffffafe*       269 <EXPANSION END>
                         270 --line124
                         271 ..lin.C.3A.5C_ECU2.5CECU_Rivian_A1.5CTarget.5Crepo_projects.5CpFOTA.5CcL_LATEST.5Cmake.5Cobj.5Cfbl_ap.10::
                         272 .LDWlin10:
                         273 	jarl	_McalDio_InitFunction,lp
                         273 <EXPANSION BEGIN>
                         273 jarl22 _McalDio_InitFunction , lp 
000001d2 80ff0000*       273 <EXPANSION END>
                         274 --line127
                         275 ..lin.C.3A.5C_ECU2.5CECU_Rivian_A1.5CTarget.5Crepo_projects.5CpFOTA.5CcL_LATEST.5Cmake.5Cobj.5Cfbl_ap.11::
                         276 .LDWlin11:
                         277 	jarl	_ApplFblNvInit,lp
                         277 <EXPANSION BEGIN>
                         277 jarl22 _ApplFblNvInit , lp 
000001d6 80ff0000*       277 <EXPANSION END>
                         278 --line132
                         279 ..lin.C.3A.5C_ECU2.5CECU_Rivian_A1.5CTarget.5Crepo_projects.5CpFOTA.5CcL_LATEST.5Cmake.5Cobj.5Cfbl_ap.12::
                         280 .LDWlin12:
                         281 	jarl	_VERSION_SyncPartnumber_315_433_from_Flash_to_Flash,lp
                         281 <EXPANSION BEGIN>

                                                                      Page 6
                                                              C:\Users\nhuliyap\AppData\Local\Temp\gh_0000ch01.s
                         281 jarl22 _VERSION_SyncPartnumber_315_433_from_Flash_to_Flash , lp 
000001da 80ff0000*       281 <EXPANSION END>
                         282 --line134
                         283 ..lin.C.3A.5C_ECU2.5CECU_Rivian_A1.5CTarget.5Crepo_projects.5CpFOTA.5CcL_LATEST.5Cmake.5Cobj.5Cfbl_ap.13::
                         284 .LDWlin13:
000001de 0092            285 	mov	0,r18
                         286 .L359:
000001e0 03f0            287 	mov	sp,ep
000001e2 d2f1            288 	add	r18,ep
000001e4 4192            289 	add	1,r18
000001e6 8003            290 	sst.b	zero,0[ep]
000001e8 1206e6ff        291 	addi	-26,r18,zero
000001ec a9fd*           292 	bnl	.L359
                         293 --line137
                         294 ..lin.C.3A.5C_ECU2.5CECU_Rivian_A1.5CTarget.5Crepo_projects.5CpFOTA.5CcL_LATEST.5Cmake.5Cobj.5Cfbl_ap.14::
                         295 .LDWlin14:
000001ee 0330            296 	mov	sp,r6
                         297 	jarl	_ApplFblStoreFingerprint,lp
                         297 <EXPANSION BEGIN>
                         297 jarl22 _ApplFblStoreFingerprint , lp 
000001f0 80ff0000*       297 <EXPANSION END>
                         298 --line139
                         299 ..lin.C.3A.5C_ECU2.5CECU_Rivian_A1.5CTarget.5Crepo_projects.5CpFOTA.5CcL_LATEST.5Cmake.5Cobj.5Cfbl_ap.15::
                         300 .LDWlin15:
000001f4 018a            301 	mov	1,r17
000001f6 84070d880000*   302 	st.b	r17,sdaoff23(_securitySeedResponse)[gp]
                         303 --	    .ef
                         304 .LDW71:
000001fc 4e063f00        305 	dispose	7,{r31},[lp]
                         306 	.type	_ApplFblInit,@function
                         307 	.size	_ApplFblInit,.-_ApplFblInit
                         308 	.align	2
                         309 .LDW81:
                         310 --_dummyNull	0[sp]	local
                         311 --_index	r18	local
                         312 
                         313 	.section ".bss","awb"
                         314 .L395:
                         315 	.type	.L395,@object
                         316 	.size	.L395,0
                         317 	.section ".sbss","awb"
                         318 	.align	4
                         319 	.global	_secSeedInput..C.3A.5C_ECU2.5CECU_Rivian_A1.5CTarget.5Crepo_projects.5CpFOTA.5CcL_LATEST.5Cmake.5Cobj.5Cfbl_ap.
                         320 _secSeedInput..C.3A.5C_ECU2.5CECU_Rivian_A1.5CTarget.5Crepo_projects.5CpFOTA.5CcL_LATEST.5Cmake.5Cobj.5Cfbl_ap.:
00000000 000000000000    321 _secSeedInput:	.space	8
00000006 0000 
                         322 	.type	_secSeedInput..C.3A.5C_ECU2.5CECU_Rivian_A1.5CTarget.5Crepo_projects.5CpFOTA.5CcL_LATEST.5Cmake.5Cobj.5Cfbl_ap.,@object
                         323 	.size	_secSeedInput..C.3A.5C_ECU2.5CECU_Rivian_A1.5CTarget.5Crepo_projects.5CpFOTA.5CcL_LATEST.5Cmake.5Cobj.5Cfbl_ap.,8
                         324 	.type	_secSeedInput,@object
                         325 	.size	_secSeedInput,8
                         326 	.global	_securitySeedResponse..C.3A.5C_ECU2.5CECU_Rivian_A1.5CTarget.5Crepo_projects.5CpFOTA.5CcL_LATEST.5Cmake.5Cobj.5Cfbl_ap.
                         327 _securitySeedResponse..C.3A.5C_ECU2.5CECU_Rivian_A1.5CTarget.5Crepo_projects.5CpFOTA.5CcL_LATEST.5Cmake.5Cobj.5Cfbl_ap.:
00000008 00              328 _securitySeedResponse:	.space	1
                         329 	.type	_securitySeedResponse..C.3A.5C_ECU2.5CECU_Rivian_A1.5CTarget.5Crepo_projects.5CpFOTA.5CcL_LATEST.5Cmake.5Cobj.5Cfbl_ap.,@object
                         330 	.size	_securitySeedResponse..C.3A.5C_ECU2.5CECU_Rivian_A1.5CTarget.5Crepo_projects.5CpFOTA.5CcL_LATEST.5Cmake.5Cobj.5Cfbl_ap.,1
                         331 	.type	_securitySeedResponse,@object
                         332 	.size	_securitySeedResponse,1
00000009 000000          333 	.space	3
                         334 	.global	_seed..C.3A.5C_ECU2.5CECU_Rivian_A1.5CTarget.5Crepo_projects.5CpFOTA.5CcL_LATEST.5Cmake.5Cobj.5Cfbl_ap.
                         335 _seed..C.3A.5C_ECU2.5CECU_Rivian_A1.5CTarget.5Crepo_projects.5CpFOTA.5CcL_LATEST.5Cmake.5Cobj.5Cfbl_ap.:
0000000c 000000000000    336 _seed:	.space	16

                                                                      Page 7
                                                              C:\Users\nhuliyap\AppData\Local\Temp\gh_0000ch01.s
00000012 000000000000 
00000018 00000000 
                         337 	.type	_seed..C.3A.5C_ECU2.5CECU_Rivian_A1.5CTarget.5Crepo_projects.5CpFOTA.5CcL_LATEST.5Cmake.5Cobj.5Cfbl_ap.,@object
                         338 	.size	_seed..C.3A.5C_ECU2.5CECU_Rivian_A1.5CTarget.5Crepo_projects.5CpFOTA.5CcL_LATEST.5Cmake.5Cobj.5Cfbl_ap.,16
                         339 	.type	_seed,@object
                         340 	.size	_seed,16
                         341 	.data
                         342 	.text
                         343 	.align	2
                         344 	.align	2
                         345 ..gh.f.f.1.e.9:
                         346 	.type	..gh.f.f.1.e.9,@object
                         347 	.size	..gh.f.f.1.e.9,0
                         348 	.global	_ApplFblFatalError
                         349 _ApplFblFatalError:
                         350 --	    .bf
                         351 .LDW91:
                         352 --	    .ef
                         353 .LDW02:
00000200 7f00            354 	jmp	[lp]
                         355 	.type	_ApplFblFatalError,@function
                         356 	.size	_ApplFblFatalError,.-_ApplFblFatalError
                         357 	.align	2
                         358 .LDW12:
                         359 
                         360 --_errorCode	none	param
                         361 
                         362 	.section ".bss","awb"
                         363 .L448:
                         364 	.type	.L448,@object
                         365 	.size	.L448,0
                         366 	.data
                         367 	.text
                         368 	.align	2
                         369 	.align	2
                         370 ..gh.f.f.1.e.10:
                         371 	.type	..gh.f.f.1.e.10,@object
                         372 	.size	..gh.f.f.1.e.10,0
                         373 	.global	_ApplFblStartup
                         374 _ApplFblStartup:
00000202 8600            375 	zxb	r6
                         376 --	    .bf
                         377 .LDW22:
00000204 06067fff        378 	addi	-129,r6,zero
00000208 ba05*           379 	bne	.L463
0000020a bf07bcff*       380 	jr	_ApplFblInit
                         381 .L463:
                         382 --	    .ef
                         383 .LDW32:
                         384 --line176
                         385 ..lin.C.3A.5C_ECU2.5CECU_Rivian_A1.5CTarget.5Crepo_projects.5CpFOTA.5CcL_LATEST.5Cmake.5Cobj.5Cfbl_ap.16::
                         386 .LDWlin16:
0000020e 7f00            387 	jmp	[lp]
                         388 	.type	_ApplFblStartup,@function
                         389 	.size	_ApplFblStartup,.-_ApplFblStartup
                         390 	.align	2
                         391 .LDW42:
                         392 
                         393 --_initposition	r6	param
                         394 
                         395 	.section ".bss","awb"

                                                                      Page 8
                                                              C:\Users\nhuliyap\AppData\Local\Temp\gh_0000ch01.s
                         396 .L528:
                         397 	.type	.L528,@object
                         398 	.size	.L528,0
                         399 	.data
                         400 	.text
                         401 	.align	2
                         402 	.align	2
                         403 ..gh.f.f.1.e.11:
                         404 	.type	..gh.f.f.1.e.11,@object
                         405 	.size	..gh.f.f.1.e.11,0
                         406 	.global	_ApplFblCheckProgConditions
                         407 _ApplFblCheckProgConditions:
                         408 --	    .bf
                         409 .LDW52:
00000210 0052            410 	mov	0,r10
                         411 --	    .ef
                         412 .LDW62:
00000212 7f00            413 	jmp	[lp]
                         414 	.type	_ApplFblCheckProgConditions,@function
                         415 	.size	_ApplFblCheckProgConditions,.-_ApplFblCheckProgConditions
                         416 	.align	2
                         417 .LDW72:
                         418 
                         419 	.section ".bss","awb"
                         420 .L593:
                         421 	.type	.L593,@object
                         422 	.size	.L593,0
                         423 	.data
                         424 	.text
                         425 	.align	2
                         426 	.align	2
                         427 ..gh.f.f.1.e.12:
                         428 	.type	..gh.f.f.1.e.12,@object
                         429 	.size	..gh.f.f.1.e.12,0
                         430 	.global	_ApplFblCheckConditions
                         431 _ApplFblCheckConditions:
                         432 --	    .bf
                         433 .LDW82:
00000214 0052            434 	mov	0,r10
                         435 --	    .ef
                         436 .LDW92:
00000216 7f00            437 	jmp	[lp]
                         438 	.type	_ApplFblCheckConditions,@function
                         439 	.size	_ApplFblCheckConditions,.-_ApplFblCheckConditions
                         440 	.align	2
                         441 .LDW03:
                         442 
                         443 --_pbDiagData	none	param
                         444 --_diagReqDataLen	none	param
                         445 
                         446 	.section ".bss","awb"
                         447 .L641:
                         448 	.type	.L641,@object
                         449 	.size	.L641,0
                         450 	.data
                         451 	.text
                         452 	.align	2
                         453 	.align	2
                         454 ..gh.f.f.1.e.13:
                         455 	.type	..gh.f.f.1.e.13,@object
                         456 	.size	..gh.f.f.1.e.13,0

                                                                      Page 9
                                                              C:\Users\nhuliyap\AppData\Local\Temp\gh_0000ch01.s
                         457 	.global	_ApplFblCheckProgDependencies
                         458 _ApplFblCheckProgDependencies:
00000218 94076100        459 	prepare	{r29,r31},10
                         460 --	    .bf
                         461 .LDW13:
0000021c 850709800000*   462 	ld.w	rosdaoff23(_FblLogicalBlockTable)[r5],r16
00000222 31061e1907a4    463 	mov	-1543038690,r17
00000228 00ea            464 	mov	0,r29
0000022a f181            465 	cmp	r17,r16
0000022c 9a3d*           466 	bne	.L677
                         467 --line242
                         468 ..lin.C.3A.5C_ECU2.5CECU_Rivian_A1.5CTarget.5Crepo_projects.5CpFOTA.5CcL_LATEST.5Cmake.5Cobj.5Cfbl_ap.17::
                         469 .LDWlin17:
0000022e 0332            470 	mov	3,r6
00000230 233e0100        471 	movea	1,sp,r7
00000234 0142            472 	mov	1,r8
                         473 	jarl	_ApplFblNvReadProcessData,lp
                         473 <EXPANSION BEGIN>
                         473 jarl22 _ApplFblNvReadProcessData , lp 
00000236 80ff0000*       473 <EXPANSION END>
0000023a e051            474 	cmp	zero,r10
0000023c 9a35*           475 	bne	.L677
                         476 --line249
                         477 ..lin.C.3A.5C_ECU2.5CECU_Rivian_A1.5CTarget.5Crepo_projects.5CpFOTA.5CcL_LATEST.5Cmake.5Cobj.5Cfbl_ap.18::
                         478 .LDWlin18:
0000023e 23360200        479 	movea	2,sp,r6
                         480 	jarl	_FblLbtBlockFilterInit,lp
                         480 <EXPANSION BEGIN>
                         480 jarl22 _FblLbtBlockFilterInit , lp 
00000242 80ff0000*       480 <EXPANSION END>
                         481 --line250
                         482 ..lin.C.3A.5C_ECU2.5CECU_Rivian_A1.5CTarget.5Crepo_projects.5CpFOTA.5CcL_LATEST.5Cmake.5Cobj.5Cfbl_ap.19::
                         483 .LDWlin19:
00000246 23360200        484 	movea	2,sp,r6
0000024a 013a            485 	mov	1,r7
                         486 	jarl	_FblLbtBlockFilterSetMandatoryType,lp
                         486 <EXPANSION BEGIN>
                         486 jarl22 _FblLbtBlockFilterSetMandatoryType , lp 
0000024c 80ff0000*       486 <EXPANSION END>
                         487 --line251
                         488 ..lin.C.3A.5C_ECU2.5CECU_Rivian_A1.5CTarget.5Crepo_projects.5CpFOTA.5CcL_LATEST.5Cmake.5Cobj.5Cfbl_ap.20::
                         489 .LDWlin20:
00000250 23360400        490 	movea	4,sp,r6
00000254 233e0200        491 	movea	2,sp,r7
                         492 	jarl	_FblLbtBlockFirst,lp
                         492 <EXPANSION BEGIN>
                         492 jarl22 _FblLbtBlockFirst , lp 
00000258 80ff0000*       492 <EXPANSION END>
                         493 --line252
                         494 ..lin.C.3A.5C_ECU2.5CECU_Rivian_A1.5CTarget.5Crepo_projects.5CpFOTA.5CcL_LATEST.5Cmake.5Cobj.5Cfbl_ap.21::
                         495 .LDWlin21:
0000025c 8515*           496 	br	.L668
                         497 .L670:
                         498 --line254
                         499 ..lin.C.3A.5C_ECU2.5CECU_Rivian_A1.5CTarget.5Crepo_projects.5CpFOTA.5CcL_LATEST.5Cmake.5Cobj.5Cfbl_ap.22::
                         500 .LDWlin22:
0000025e 03f0            501 	mov	sp,ep
00000260 6440            502 	sld.bu	4[ep],r8
00000262 6130            503 	sld.bu	1[ep],r6
00000264 013a            504 	mov	1,r7
00000266 c84e0700        505 	andi	7,r8,r9

                                                                      Page 10
                                                              C:\Users\nhuliyap\AppData\Local\Temp\gh_0000ch01.s
0000026a e93fc290        506 	shl	r9,r7,r18
0000026e 4691            507 	and	r6,r18
00000270 e40714eb        508 	cmovne	4,zero,r29
00000274 23360400        509 	movea	4,sp,r6
                         510 	jarl	_FblLbtBlockNext,lp
                         510 <EXPANSION BEGIN>
                         510 jarl22 _FblLbtBlockNext , lp 
00000278 80ff0000*       510 <EXPANSION END>
                         511 .L668:
                         512 --line252
                         513 ..lin.C.3A.5C_ECU2.5CECU_Rivian_A1.5CTarget.5Crepo_projects.5CpFOTA.5CcL_LATEST.5Cmake.5Cobj.5Cfbl_ap.23::
                         514 .LDWlin23:
                         515 	jarl	_FblLbtBlockDone,lp
                         515 <EXPANSION BEGIN>
                         515 jarl22 _FblLbtBlockDone , lp 
0000027c 80ff0000*       515 <EXPANSION END>
00000280 e051            516 	cmp	zero,r10
00000282 ea05*           517 	bne	.L663
00000284 e0e9            518 	cmp	zero,r29
00000286 c2ed*           519 	be	.L670
                         520 .L674:
                         521 --line275
                         522 ..lin.C.3A.5C_ECU2.5CECU_Rivian_A1.5CTarget.5Crepo_projects.5CpFOTA.5CcL_LATEST.5Cmake.5Cobj.5Cfbl_ap.24::
                         523 .LDWlin24:
00000288 1d50            524 	mov	r29,r10
                         525 --	    .ef
                         526 .LDW23:
0000028a 54067f00        527 	dispose	10,{r29,r31},[lp]
                         528 .L663:
                         529 --line267
                         530 ..lin.C.3A.5C_ECU2.5CECU_Rivian_A1.5CTarget.5Crepo_projects.5CpFOTA.5CcL_LATEST.5Cmake.5Cobj.5Cfbl_ap.25::
                         531 .LDWlin25:
0000028e e0e9            532 	cmp	zero,r29
00000290 cafd*           533 	bne	.L674
                         534 --line268
                         535 ..lin.C.3A.5C_ECU2.5CECU_Rivian_A1.5CTarget.5Crepo_projects.5CpFOTA.5CcL_LATEST.5Cmake.5Cobj.5Cfbl_ap.26::
                         536 .LDWlin26:
                         537 	jarl	_ApplFblValidateApp,lp
                         537 <EXPANSION BEGIN>
                         537 jarl22 _ApplFblValidateApp , lp 
00000292 80ff0000*       537 <EXPANSION END>
00000296 e051            538 	cmp	zero,r10
00000298 eaef0000        539 	setfne	r29
0000029c e5f5*           540 	br	.L674
                         541 .L677:
                         542 --line270
                         543 ..lin.C.3A.5C_ECU2.5CECU_Rivian_A1.5CTarget.5Crepo_projects.5CpFOTA.5CcL_LATEST.5Cmake.5Cobj.5Cfbl_ap.27::
                         544 .LDWlin27:
0000029e 01ea            545 	mov	1,r29
000002a0 c5f5*           546 	br	.L674
                         547 	.type	_ApplFblCheckProgDependencies,@function
                         548 	.size	_ApplFblCheckProgDependencies,.-_ApplFblCheckProgDependencies
                         549 	.align	2
                         550 .LDW33:
                         551 --_result	r29	local
                         552 --_iterBlock	4[sp]	local
                         553 --_blockFilter	2[sp]	local
                         554 --_validityFlags	1[sp]	local
                         555 
                         556 	.section ".bss","awb"
                         557 .L807:

                                                                      Page 11
                                                              C:\Users\nhuliyap\AppData\Local\Temp\gh_0000ch01.s
                         558 	.type	.L807,@object
                         559 	.size	.L807,0
                         560 	.data
                         561 	.text
                         562 	.align	2
                         563 	.align	2
                         564 ..gh.f.f.1.e.14:
                         565 	.type	..gh.f.f.1.e.14,@object
                         566 	.size	..gh.f.f.1.e.14,0
                         567 	.global	_ApplTrcvrNormalMode
                         568 _ApplTrcvrNormalMode:
                         569 --	    .bf
                         570 .LDW43:
000002a2 8007099008f0    571 	ld.w	4294444032[zero],r18
000002a8 e091            572 	cmp	zero,r18
000002aa ba05*           573 	bne	.L910
000002ac 80070000*       574 	jr	_EcuabTrcv_Normal
                         575 .L910:
                         576 --	    .ef
                         577 .LDW53:
                         578 --line285
                         579 ..lin.C.3A.5C_ECU2.5CECU_Rivian_A1.5CTarget.5Crepo_projects.5CpFOTA.5CcL_LATEST.5Cmake.5Cobj.5Cfbl_ap.28::
                         580 .LDWlin28:
000002b0 7f00            581 	jmp	[lp]
                         582 	.type	_ApplTrcvrNormalMode,@function
                         583 	.size	_ApplTrcvrNormalMode,.-_ApplTrcvrNormalMode
                         584 	.align	2
                         585 .LDW63:
                         586 
                         587 	.section ".bss","awb"
                         588 .L950:
                         589 	.type	.L950,@object
                         590 	.size	.L950,0
                         591 	.data
                         592 	.text
                         593 	.align	2
                         594 	.align	2
                         595 ..gh.f.f.1.e.15:
                         596 	.type	..gh.f.f.1.e.15,@object
                         597 	.size	..gh.f.f.1.e.15,0
                         598 	.global	_ApplTrcvrSleepMode
                         599 _ApplTrcvrSleepMode:
                         600 --	    .bf
                         601 .LDW73:
000002b2 80070000*       602 	jr	_EcuabTrcv_Standby
                         603 --	    .ef
                         604 .LDW83:
                         605 	.type	_ApplTrcvrSleepMode,@function
                         606 	.size	_ApplTrcvrSleepMode,.-_ApplTrcvrSleepMode
                         607 	.align	2
                         608 .LDW93:
                         609 
                         610 	.section ".bss","awb"
                         611 .L1009:
                         612 	.type	.L1009,@object
                         613 	.size	.L1009,0
                         614 	.data
                         615 	.text
                         616 	.align	2
                         617 	.align	2
                         618 ..gh.f.f.1.e.16:

                                                                      Page 12
                                                              C:\Users\nhuliyap\AppData\Local\Temp\gh_0000ch01.s
                         619 	.type	..gh.f.f.1.e.16,@object
                         620 	.size	..gh.f.f.1.e.16,0
                         621 	.global	_ApplFblSetVfp
                         622 _ApplFblSetVfp:
                         623 --	    .bf
                         624 .LDW04:
000002b6 80070000*       625 	jr	_BrsHwSetVfp
                         626 --	    .ef
                         627 .LDW14:
                         628 	.type	_ApplFblSetVfp,@function
                         629 	.size	_ApplFblSetVfp,.-_ApplFblSetVfp
                         630 	.align	2
                         631 .LDW24:
                         632 
                         633 	.section ".bss","awb"
                         634 .L1057:
                         635 	.type	.L1057,@object
                         636 	.size	.L1057,0
                         637 	.data
                         638 	.text
                         639 	.align	2
                         640 	.align	2
                         641 ..gh.f.f.1.e.17:
                         642 	.type	..gh.f.f.1.e.17,@object
                         643 	.size	..gh.f.f.1.e.17,0
                         644 	.global	_ApplFblResetVfp
                         645 _ApplFblResetVfp:
                         646 --	    .bf
                         647 .LDW34:
000002ba 80070000*       648 	jr	_BrsHwResetVfp
                         649 --	    .ef
                         650 .LDW44:
                         651 	.type	_ApplFblResetVfp,@function
                         652 	.size	_ApplFblResetVfp,.-_ApplFblResetVfp
                         653 	.align	2
                         654 .LDW54:
                         655 
                         656 	.section ".bss","awb"
                         657 .L1105:
                         658 	.type	.L1105,@object
                         659 	.size	.L1105,0
                         660 	.data
                         661 	.text
                         662 	.align	2
                         663 	.align	2
                         664 ..gh.f.f.1.e.18:
                         665 	.type	..gh.f.f.1.e.18,@object
                         666 	.size	..gh.f.f.1.e.18,0
                         667 	.global	_ApplFblReset
                         668 _ApplFblReset:
                         669 --	    .bf
                         670 .LDW64:
000002be 80070000*       671 	jr	_BrsHwSoftwareResetECU
                         672 --	    .ef
                         673 .LDW74:
                         674 	.type	_ApplFblReset,@function
                         675 	.size	_ApplFblReset,.-_ApplFblReset
                         676 	.align	2
                         677 .LDW84:
                         678 
                         679 	.section ".bss","awb"

                                                                      Page 13
                                                              C:\Users\nhuliyap\AppData\Local\Temp\gh_0000ch01.s
                         680 .L1153:
                         681 	.type	.L1153,@object
                         682 	.size	.L1153,0
                         683 	.data
                         684 	.text
                         685 	.align	2
                         686 	.align	2
                         687 ..gh.f.f.1.e.19:
                         688 	.type	..gh.f.f.1.e.19,@object
                         689 	.size	..gh.f.f.1.e.19,0
                         690 	.global	_ApplFblSecuritySeedInit
                         691 _ApplFblSecuritySeedInit:
000002c2 80073b000000*   692 	prepare	{r31},0,sdaoff23(_secSeedInput)
000002c8 0000*
                         693 --	    .bf
                         694 .LDW94:
000002ca 0295            695 	sld.w	4[ep],r18
000002cc 008d            696 	sld.w	0[ep],r17
000002ce d191            697 	add	r17,r18
000002d0 0395            698 	sst.w	r18,4[ep]
                         699 	jarl	_FblGetTimerValue,lp
                         699 <EXPANSION BEGIN>
                         699 jarl22 _FblGetTimerValue , lp 
000002d2 80ff0000*       699 <EXPANSION END>
000002d6 84070f500000*   700 	st.w	r10,sdaoff23(_secSeedInput)[gp]
                         701 --line320
                         702 ..lin.C.3A.5C_ECU2.5CECU_Rivian_A1.5CTarget.5Crepo_projects.5CpFOTA.5CcL_LATEST.5Cmake.5Cobj.5Cfbl_ap.29::
                         703 .LDWlin29:
000002dc 0052            704 	mov	0,r10
                         705 --	    .ef
                         706 .LDW05:
000002de 40063f00        707 	dispose	0,{r31},[lp]
                         708 	.type	_ApplFblSecuritySeedInit,@function
                         709 	.size	_ApplFblSecuritySeedInit,.-_ApplFblSecuritySeedInit
                         710 	.align	2
                         711 .LDW15:
                         712 
                         713 	.section ".bss","awb"
                         714 .L1201:
                         715 	.type	.L1201,@object
                         716 	.size	.L1201,0
                         717 	.data
                         718 	.text
                         719 	.align	2
                         720 	.align	2
                         721 ..gh.f.f.1.e.20:
                         722 	.type	..gh.f.f.1.e.20,@object
                         723 	.size	..gh.f.f.1.e.20,0
                         724 	.global	_ApplFblSecuritySeed
                         725 _ApplFblSecuritySeed:
000002e2 8007e100        726 	prepare	{r28,r29,r31},0
                         727 --	    .bf
                         728 .LDW25:
000002e6 a40705980000*   729 	ld.bu	sdaoff23(_securitySeedResponse)[gp],r19
000002ec 00e2            730 	mov	0,r28
000002ee e099            731 	cmp	zero,r19
000002f0 aa15*           732 	bne	.L1223
                         733 .L1230:
                         734 --line388
                         735 ..lin.C.3A.5C_ECU2.5CECU_Rivian_A1.5CTarget.5Crepo_projects.5CpFOTA.5CcL_LATEST.5Cmake.5Cobj.5Cfbl_ap.30::
                         736 .LDWlin30:

                                                                      Page 14
                                                              C:\Users\nhuliyap\AppData\Local\Temp\gh_0000ch01.s
000002f2 840709300000*   737 	ld.w	sdaoff23(_DiagBuffer)[gp],r6
000002f8 270600000000*   738 	mov	sdaoff23(_seed),r7
000002fe 20461000        739 	movea	16,zero,r8
00000302 4232            740 	add	2,r6
                         741 	jarl	_ownmemcpy,lp
                         741 <EXPANSION BEGIN>
                         741 jarl22 _ownmemcpy , lp 
00000304 80ff0000*       741 <EXPANSION END>
                         742 --line398
                         743 ..lin.C.3A.5C_ECU2.5CECU_Rivian_A1.5CTarget.5Crepo_projects.5CpFOTA.5CcL_LATEST.5Cmake.5Cobj.5Cfbl_ap.31::
                         744 .LDWlin31:
00000308 84070d000000*   745 	st.b	zero,sdaoff23(_securitySeedResponse)[gp]
0000030e 8525*           746 	br	.L1229
                         747 .L1225:
                         748 --line339
                         749 ..lin.C.3A.5C_ECU2.5CECU_Rivian_A1.5CTarget.5Crepo_projects.5CpFOTA.5CcL_LATEST.5Cmake.5Cobj.5Cfbl_ap.32::
                         750 .LDWlin32:
                         751 	jarl	_ApplFblSecuritySeedInit,lp
                         751 <EXPANSION BEGIN>
                         751 jarl22 _ApplFblSecuritySeedInit , lp 
00000310 bfffb2ff*       751 <EXPANSION END>
                         752 .L1223:
                         753 --line337
                         754 ..lin.C.3A.5C_ECU2.5CECU_Rivian_A1.5CTarget.5Crepo_projects.5CpFOTA.5CcL_LATEST.5Cmake.5Cobj.5Cfbl_ap.33::
                         755 .LDWlin33:
00000314 840709380000*   756 	ld.w	sdaoff23(_secSeedInput+4)[gp],r7
0000031a e039            757 	cmp	zero,r7
0000031c a2fd*           758 	be	.L1225
                         759 --line346
                         760 ..lin.C.3A.5C_ECU2.5CECU_Rivian_A1.5CTarget.5Crepo_projects.5CpFOTA.5CcL_LATEST.5Cmake.5Cobj.5Cfbl_ap.34::
                         761 .LDWlin34:
0000031e 3d0600000000*   762 	mov	sdaoff23(_seed),r29
00000324 1d40            763 	mov	r29,r8
00000326 0432            764 	mov	4,r6
                         765 	jarl	_FblMemSetInteger,lp
                         765 <EXPANSION BEGIN>
                         765 jarl22 _FblMemSetInteger , lp 
00000328 80ff0000*       765 <EXPANSION END>
                         766 --line352
                         767 ..lin.C.3A.5C_ECU2.5CECU_Rivian_A1.5CTarget.5Crepo_projects.5CpFOTA.5CcL_LATEST.5Cmake.5Cobj.5Cfbl_ap.35::
                         768 .LDWlin35:
0000032c 1d30            769 	mov	r29,r6
                         770 	jarl	_SecM_GenerateSeed,lp
                         770 <EXPANSION BEGIN>
                         770 jarl22 _SecM_GenerateSeed , lp 
0000032e 80ff0000*       770 <EXPANSION END>
00000332 e051            771 	cmp	zero,r10
00000334 ca0d*           772 	bne	.L1226
                         773 --line358
                         774 ..lin.C.3A.5C_ECU2.5CECU_Rivian_A1.5CTarget.5Crepo_projects.5CpFOTA.5CcL_LATEST.5Cmake.5Cobj.5Cfbl_ap.36::
                         775 .LDWlin36:
00000336 1d38            776 	mov	r29,r7
00000338 0432            777 	mov	4,r6
                         778 	jarl	_FblMemGetInteger,lp
                         778 <EXPANSION BEGIN>
                         778 jarl22 _FblMemGetInteger , lp 
0000033a 80ff0000*       778 <EXPANSION END>
0000033e 3e0600000000*   779 	mov	sdaoff23(_secSeedInput),ep
00000344 0095            780 	sld.w	0[ep],r18
00000346 ca91            781 	add	r10,r18
00000348 0195            782 	sst.w	r18,0[ep]

                                                                      Page 15
                                                              C:\Users\nhuliyap\AppData\Local\Temp\gh_0000ch01.s
0000034a c5d5*           783 	br	.L1230
                         784 .L1226:
                         785 --line366
                         786 ..lin.C.3A.5C_ECU2.5CECU_Rivian_A1.5CTarget.5Crepo_projects.5CpFOTA.5CcL_LATEST.5Cmake.5Cobj.5Cfbl_ap.37::
                         787 .LDWlin37:
0000034c 01e2            788 	mov	1,r28
                         789 .L1229:
0000034e 1c50            790 	mov	r28,r10
                         791 --	    .ef
                         792 .LDW35:
00000350 4006ff00        793 	dispose	0,{r28,r29,r31},[lp]
                         794 	.type	_ApplFblSecuritySeed,@function
                         795 	.size	_ApplFblSecuritySeed,.-_ApplFblSecuritySeed
                         796 	.align	2
                         797 .LDW45:
                         798 --_result	r28	local
                         799 
                         800 	.section ".bss","awb"
                         801 .L1348:
                         802 	.type	.L1348,@object
                         803 	.size	.L1348,0
                         804 	.data
                         805 	.text
                         806 	.align	2
                         807 	.align	2
                         808 ..gh.f.f.1.e.21:
                         809 	.type	..gh.f.f.1.e.21,@object
                         810 	.size	..gh.f.f.1.e.21,0
                         811 	.global	_ApplFblSecurityKey
                         812 _ApplFblSecurityKey:
00000354 80072100        813 	prepare	{r31},0
                         814 --	    .bf
                         815 .LDW55:
00000358 840709900000*   816 	ld.w	sdaoff23(_DiagBuffer)[gp],r18
0000035e 014a            817 	mov	1,r9
00000360 84070d480000*   818 	st.b	r9,sdaoff23(_securitySeedResponse)[gp]
00000366 270600000000*   819 	mov	sdaoff23(_seed),r7
0000036c 12360200        820 	addi	2,r18,r6
                         821 	jarl	_SecM_CompareKey,lp
                         821 <EXPANSION BEGIN>
                         821 jarl22 _SecM_CompareKey , lp 
00000370 80ff0000*       821 <EXPANSION END>
00000374 e051            822 	cmp	zero,r10
00000376 e1571453        823 	cmovne	1,r10,r10
                         824 --	    .ef
                         825 .LDW65:
                         826 --line426
                         827 ..lin.C.3A.5C_ECU2.5CECU_Rivian_A1.5CTarget.5Crepo_projects.5CpFOTA.5CcL_LATEST.5Cmake.5Cobj.5Cfbl_ap.38::
                         828 .LDWlin38:
0000037a 40063f00        829 	dispose	0,{r31},[lp]
                         830 	.type	_ApplFblSecurityKey,@function
                         831 	.size	_ApplFblSecurityKey,.-_ApplFblSecurityKey
                         832 	.align	2
                         833 .LDW75:
                         834 --_result	r10	local
                         835 
                         836 	.section ".bss","awb"
                         837 .L1479:
                         838 	.type	.L1479,@object
                         839 	.size	.L1479,0
                         840 	.data

                                                                      Page 16
                                                              C:\Users\nhuliyap\AppData\Local\Temp\gh_0000ch01.s
                         841 	.text
                         842 	.align	2
                         843 	.align	2
                         844 ..gh.f.f.1.e.22:
                         845 	.type	..gh.f.f.1.e.22,@object
                         846 	.size	..gh.f.f.1.e.22,0
                         847 	.global	_ApplFblSecurityInit
                         848 _ApplFblSecurityInit:
                         849 --	    .bf
                         850 .LDW85:
0000037e 3e0600000000*   851 	mov	sdaoff23(_secSeedInput),ep
00000384 0105            852 	sst.w	zero,0[ep]
00000386 0305            853 	sst.w	zero,4[ep]
00000388 0052            854 	mov	0,r10
                         855 --	    .ef
                         856 .LDW95:
0000038a 7f00            857 	jmp	[lp]
                         858 	.type	_ApplFblSecurityInit,@function
                         859 	.size	_ApplFblSecurityInit,.-_ApplFblSecurityInit
                         860 	.align	2
                         861 .LDW06:
                         862 
                         863 	.section ".bss","awb"
                         864 .L1521:
                         865 	.type	.L1521,@object
                         866 	.size	.L1521,0
                         867 	.data
                         868 	.text
                         869 	.align	2
                         870 	.align	2
                         871 ..gh.f.f.1.e.23:
                         872 	.type	..gh.f.f.1.e.23,@object
                         873 	.size	..gh.f.f.1.e.23,0
                         874 	.global	_ApplFblTask
                         875 _ApplFblTask:
                         876 --	    .bf
                         877 .LDW16:
0000038c 8007498201a0    878 	ld.w	4291821732[zero],r16
00000392 8007897801a0    879 	ld.w	4291821704[zero],r15
00000398 8007097107a0    880 	ld.w	4291822480[zero],r14
0000039e 3e0600000000*   881 	mov	sdaoff23(_regs),ep
000003a4 8007c96801a0    882 	ld.w	4291821708[zero],r13
000003aa 0185            883 	sst.w	r16,0[ep]
000003ac 8007896000a0    884 	ld.w	4291821576[zero],r12
000003b2 037d            885 	sst.w	r15,4[ep]
000003b4 8007495801a0    886 	ld.w	4291821700[zero],r11
000003ba 0575            887 	sst.w	r14,8[ep]
000003bc 8007095000a0    888 	ld.w	4291821568[zero],r10
000003c2 076d            889 	sst.w	r13,12[ep]
000003c4 8007494800a0    890 	ld.w	4291821572[zero],r9
000003ca 0965            891 	sst.w	r12,16[ep]
000003cc 8007894301a0    892 	ld.w	4291821752[zero],r8
000003d2 0b5d            893 	sst.w	r11,20[ep]
000003d4 8007893d01a0    894 	ld.w	4291821784[zero],r7
000003da 0d55            895 	sst.w	r10,24[ep]
000003dc 8007c93101a0    896 	ld.w	4291821724[zero],r6
000003e2 0f4d            897 	sst.w	r9,28[ep]
000003e4 800709980aa0    898 	ld.w	4291822848[zero],r19
000003ea 1145            899 	sst.w	r8,32[ep]
000003ec 800749900aa0    900 	ld.w	4291822852[zero],r18
000003f2 133d            901 	sst.w	r7,36[ep]

                                                                      Page 17
                                                              C:\Users\nhuliyap\AppData\Local\Temp\gh_0000ch01.s
000003f4 800789880aa0    902 	ld.w	4291822856[zero],r17
000003fa 1535            903 	sst.w	r6,40[ep]
000003fc 8007c9800aa0    904 	ld.w	4291822860[zero],r16
00000402 179d            905 	sst.w	r19,44[ep]
00000404 1995            906 	sst.w	r18,48[ep]
00000406 8007097840f1    907 	ld.w	4294483968[zero],r15
0000040c 1b8d            908 	sst.w	r17,52[ep]
0000040e 8007897040f1    909 	ld.w	4294483976[zero],r14
00000414 1d85            910 	sst.w	r16,56[ep]
00000416 8007096842f1    911 	ld.w	4294484224[zero],r13
0000041c 3e0600000000*   912 	mov	sdaoff23(_creg),ep
00000422 8007896042f1    913 	ld.w	4294484232[zero],r12
00000428 017d            914 	sst.w	r15,0[ep]
0000042a 8007095852f1    915 	ld.w	4294486272[zero],r11
00000430 0375            916 	sst.w	r14,4[ep]
00000432 8007895052f1    917 	ld.w	4294486280[zero],r10
00000438 056d            918 	sst.w	r13,8[ep]
0000043a 8007894952f1    919 	ld.w	4294486296[zero],r9
00000440 0765            920 	sst.w	r12,12[ep]
00000442 8007094054f1    921 	ld.w	4294486528[zero],r8
00000448 095d            922 	sst.w	r11,16[ep]
0000044a 8007893854f1    923 	ld.w	4294486536[zero],r7
00000450 0b55            924 	sst.w	r10,20[ep]
00000452 8007893154f1    925 	ld.w	4294486552[zero],r6
00000458 0d4d            926 	sst.w	r9,24[ep]
0000045a 0f45            927 	sst.w	r8,28[ep]
0000045c 113d            928 	sst.w	r7,32[ep]
0000045e 1335            929 	sst.w	r6,36[ep]
00000460 3e0600000000*   930 	mov	sdaoff23(.L1593),ep
00000466 7090            931 	sld.hu	0[ep],r18
00000468 4192            932 	add	1,r18
0000046a 8094            933 	sst.h	r18,0[ep]
0000046c d200            934 	zxh	r18
0000046e 12060cfe        935 	addi	-500,r18,zero
00000472 c905*           936 	bnl	.L1539
                         937 --line590
                         938 ..lin.C.3A.5C_ECU2.5CECU_Rivian_A1.5CTarget.5Crepo_projects.5CpFOTA.5CcL_LATEST.5Cmake.5Cobj.5Cfbl_ap.39::
                         939 .LDWlin39:
00000474 a4070d000000*   940 	st.h	zero,sdaoff23(.L1593)[gp]
                         941 .L1539:
                         942 --	    .ef
                         943 .LDW26:
0000047a 7f00            944 	jmp	[lp]
                         945 	.type	_ApplFblTask,@function
                         946 	.size	_ApplFblTask,.-_ApplFblTask
                         947 	.align	2
                         948 .LDW36:
                         949 --_flashlight	sdaoff23(.L1593)	static
                         950 
                         951 	.section ".bss","awb"
                         952 .L1578:
                         953 	.type	.L1578,@object
                         954 	.size	.L1578,0
                         955 	.section ".sbss","awb"
                         956 	.global	_flashlight.ApplFblTask.C.3A.5C_ECU2.5CECU_Rivian_A1.5CTarget.5Crepo_projects.5CpFOTA.5CcL_LATEST.5Cmake.5Cobj.5Cfbl_ap..3
                         957 _flashlight.ApplFblTask.C.3A.5C_ECU2.5CECU_Rivian_A1.5CTarget.5Crepo_projects.5CpFOTA.5CcL_LATEST.5Cmake.5Cobj.5Cfbl_ap..3:
0000001c 0000            958 .L1593:	.space	2
                         959 	.type	_flashlight.ApplFblTask.C.3A.5C_ECU2.5CECU_Rivian_A1.5CTarget.5Crepo_projects.5CpFOTA.5CcL_LATEST.5Cmake.5Cobj.5Cfbl_ap..3,@object
                         960 	.size	_flashlight.ApplFblTask.C.3A.5C_ECU2.5CECU_Rivian_A1.5CTarget.5Crepo_projects.5CpFOTA.5CcL_LATEST.5Cmake.5Cobj.5Cfbl_ap..3,2
                         961 	.type	.L1593,@object
                         962 	.size	.L1593,2

                                                                      Page 18
                                                              C:\Users\nhuliyap\AppData\Local\Temp\gh_0000ch01.s
                         963 	.data
                         964 	.text
                         965 	.align	2
                         966 	.align	2
                         967 ..gh.f.f.1.e.24:
                         968 	.type	..gh.f.f.1.e.24,@object
                         969 	.size	..gh.f.f.1.e.24,0
                         970 	.global	_ApplFblStateTask
                         971 _ApplFblStateTask:
                         972 --	    .bf
                         973 .LDW46:
                         974 --	    .ef
                         975 .LDW56:
0000047c 7f00            976 	jmp	[lp]
                         977 	.type	_ApplFblStateTask,@function
                         978 	.size	_ApplFblStateTask,.-_ApplFblStateTask
                         979 	.align	2
                         980 .LDW66:
                         981 
                         982 	.section ".bss","awb"
                         983 .L1632:
                         984 	.type	.L1632,@object
                         985 	.size	.L1632,0
                         986 	.data
                         987 	.text
                         988 	.align	2
                         989 	.align	2
                         990 ..gh.f.f.1.e.25:
                         991 	.type	..gh.f.f.1.e.25,@object
                         992 	.size	..gh.f.f.1.e.25,0
                         993 	.global	_ApplFbl_DetEntryHandler
                         994 _ApplFbl_DetEntryHandler:
0000047e c600            995 	zxh	r6
00000480 8900            996 	zxb	r9
                         997 --	    .bf
                         998 .LDW76:
00000482 0052            999 	mov	0,r10
00000484 0606ddff       1000 	addi	-35,r6,zero
00000488 820d*          1001 	be	.L1651
0000048a 0606b0ff       1002 	addi	-80,r6,zero
0000048e ea1d*          1003 	bne	.L1647
                        1004 --line664
                        1005 ..lin.C.3A.5C_ECU2.5CECU_Rivian_A1.5CTarget.5Crepo_projects.5CpFOTA.5CcL_LATEST.5Cmake.5Cobj.5Cfbl_ap.40::
                        1006 .LDWlin40:
00000490 674a           1007 	cmp	7,r9
00000492 e2570000       1008 	setfe	r10
00000496 7f00           1009 	jmp	[lp]
                        1010 .L1651:
                        1011 --line638
                        1012 ..lin.C.3A.5C_ECU2.5CECU_Rivian_A1.5CTarget.5Crepo_projects.5CpFOTA.5CcL_LATEST.5Cmake.5Cobj.5Cfbl_ap.41::
                        1013 .LDWlin41:
00000498 09064dff       1014 	addi	-179,r9,zero
0000049c c10d*          1015 	bl	.L1737
0000049e 0906a0ff       1016 	addi	-96,r9,zero
000004a2 f205*          1017 	be	.L1664
000004a4 090680ff       1018 	addi	-128,r9,zero
000004a8 c205*          1019 	be	.L1664
000004aa 090670ff       1020 	addi	-144,r9,zero
000004ae ea0d*          1021 	bne	.L1647
                        1022 .L1664:
                        1023 --line668

                                                                      Page 19
                                                              C:\Users\nhuliyap\AppData\Local\Temp\gh_0000ch01.s
                        1024 ..lin.C.3A.5C_ECU2.5CECU_Rivian_A1.5CTarget.5Crepo_projects.5CpFOTA.5CcL_LATEST.5Cmake.5Cobj.5Cfbl_ap.42::
                        1025 .LDWlin42:
000004b0 0152           1026 	mov	1,r10
000004b2 7f00           1027 	jmp	[lp]
                        1028 .L1737:
000004b4 09064dff       1029 	addi	-179,r9,zero
000004b8 c2fd*          1030 	be	.L1664
000004ba 094e3fff       1031 	addi	-193,r9,r9
000004be 654a           1032 	cmp	5,r9
000004c0 83fd*          1033 	bnh	.L1664
000004c2 0906c2ff       1034 	addi	-62,r9,zero
000004c6 d2f5*          1035 	be	.L1664
000004c8 7f00           1036 	jmp	[lp]
                        1037 .L1647:
                        1038 --	    .ef
                        1039 .LDW86:
                        1040 --line668
                        1041 ..lin.C.3A.5C_ECU2.5CECU_Rivian_A1.5CTarget.5Crepo_projects.5CpFOTA.5CcL_LATEST.5Cmake.5Cobj.5Cfbl_ap.43::
                        1042 .LDWlin43:
000004ca 7f00           1043 	jmp	[lp]
                        1044 	.type	_ApplFbl_DetEntryHandler,@function
                        1045 	.size	_ApplFbl_DetEntryHandler,.-_ApplFbl_DetEntryHandler
                        1046 	.align	2
                        1047 .LDW96:
                        1048 --_result	r10	local
                        1049 
                        1050 --_ModuleId	r6	param
                        1051 --_InstanceId	none	param
                        1052 --_ApiId	none	param
                        1053 --_ErrorId	r9	param
                        1054 
                        1055 	.section ".bss","awb"
                        1056 .L1733:
                        1057 	.type	.L1733,@object
                        1058 	.size	.L1733,0
                        1059 	.data
                        1060 	.text
                        1061 	.align	2
                        1062 	.align	2
                        1063 ..gh.f.f.1.e.26:
                        1064 	.type	..gh.f.f.1.e.26,@object
                        1065 	.size	..gh.f.f.1.e.26,0
                        1066 	.global	_ApplFblCanBusOff
                        1067 _ApplFblCanBusOff:
                        1068 --	    .bf
                        1069 .LDW07:
000004cc bf07f2fd*      1070 	jr	_ApplFblReset
                        1071 --	    .ef
                        1072 .LDW17:
                        1073 	.type	_ApplFblCanBusOff,@function
                        1074 	.size	_ApplFblCanBusOff,.-_ApplFblCanBusOff
                        1075 	.align	2
                        1076 .LDW27:
                        1077 
                        1078 	.section ".bss","awb"
                        1079 .L1921:
                        1080 	.type	.L1921,@object
                        1081 	.size	.L1921,0
                        1082 	.data
                        1083 	.text
                        1084 	.align	2

                                                                      Page 20
                                                              C:\Users\nhuliyap\AppData\Local\Temp\gh_0000ch01.s
                        1085 	.align	2
                        1086 ..gh.f.f.1.e.27:
                        1087 	.type	..gh.f.f.1.e.27,@object
                        1088 	.size	..gh.f.f.1.e.27,0
                        1089 	.global	_ApplFblStartApplication
                        1090 _ApplFblStartApplication:
000004d0 80076100       1091 	prepare	{r29,r31},0
                        1092 --	    .bf
                        1093 .LDW37:
000004d4 40ee0000*      1094 	movhi	hi(_ApplIntJmpTable+4),zero,r29
000004d8 3def0100*      1095 	ld.w	lo(_ApplIntJmpTable+4)[r29],r29
000004dc fdc760f9       1096 	jarl	[r29],lp
                        1097 .L1944:
                        1098 --line750
                        1099 ..lin.C.3A.5C_ECU2.5CECU_Rivian_A1.5CTarget.5Crepo_projects.5CpFOTA.5CcL_LATEST.5Cmake.5Cobj.5Cfbl_ap.44::
                        1100 .LDWlin44:
000004e0 8505*          1101 	br	.L1944
                        1102 --	    .ef
                        1103 .LDW47:
                        1104 ..lin.C.3A.5C_ECU2.5CECU_Rivian_A1.5CTarget.5Crepo_projects.5CpFOTA.5CcL_LATEST.5Cmake.5Cobj.5Cfbl_ap.45::
                        1105 .LDWlin45:
                        1106 	.type	_ApplFblStartApplication,@function
                        1107 	.size	_ApplFblStartApplication,.-_ApplFblStartApplication
                        1108 	.align	2
                        1109 .LDW57:
                        1110 
                        1111 	.section ".bss","awb"
                        1112 .L1969:
                        1113 	.type	.L1969,@object
                        1114 	.size	.L1969,0
                        1115 	.data
                        1116 	.text
                        1117 	.align	2
                        1118 --_FblLogicalBlockTable	rosdaoff23(_FblLogicalBlockTable)	import
                        1119 --_ApplIntJmpTable	_ApplIntJmpTable	import
                        1120 --_DiagBuffer	sdaoff23(_DiagBuffer)	import
                        1121 --_WUF0	4294444032	import
                        1122 --_secSeedInput	sdaoff23(_secSeedInput)	static
                        1123 --_seed	sdaoff23(_seed)	static
                        1124 --_securitySeedResponse	sdaoff23(_securitySeedResponse)	static
                        1125 
                        1126 	.data
                        1127 	.sbss	_creg,40,4
                        1128 	.type	_creg,@object
                        1129 	.size	_creg,40
                        1130 	.sbss	_regs,60,4
                        1131 	.type	_regs,@object
                        1132 	.size	_regs,60
                        1133 	.ghsnote version,17
                        1134 	.ghsnote tools,8195
                        1135 	.ghsnote options,144
                        1136 	.text
                        1137 	.align	2
                        1138 ..eof.C.3A.5C_ECU2.5CECU_Rivian_A1.5CTarget.5Crepo_projects.5CpFOTA.5CcL_LATEST.5Cmake.5Cobj.5Cfbl_ap...43.3A.5C_ECU2.5CECU_Rivian_A1.5CTarget.5Crepo_projects.5CpFOTA.5CcL_LATEST.5Cmake..64F86BE6..0::
                        1139 .rh850_flags REGMODE32,DATA_ALIGN8,GP_FIX,EP_NONFIX,TP_FIX,REG2_RESERVE,G3K,SDA_EXTRA_REGS_0
