                                                                      Page 1
                                                              C:\Users\nhuliyap\AppData\Local\Temp\gh_00000r41.s
Command Line: C:\GHS\comp_201517\ease850.exe -w -stderr=err/Fls.err -elf -b0 -I../source/_common -I../source/common -I../source/ecuabcanif -I../source/ecuabcantrcv -I../source/ecuabcryif -I../source/ecuabfee -I../source/ecuabmemif -I../source/libautosar -I../source/mcalcan -I../source/mcalcry -I../source/mcaldio -I../source/mcaleep -I../source/mcalfls -I../source/mcalmcu -I../source/projectara -I../source/projectcfg -I../source/projectcompiler -I../source/swcservicebswm -I../source/swcservicecantp -I../source/swcservicecomm -I../source/swcservicecsm -I../source/swcservicedcm -I../source/swcservicedem -I../source/swcservicedet -I../source/swcserviceecum -I../source/swcservicenvm -I../source/swcserviceos -I../source/swcservicepdur -I../source/swcserviceschm -I../source/swcservicestartup -I../source/wrappers/swcservicesecm -I../source/wrappers/vsecprim -I../source/wrappers/vstdlib -Ic:/ghs/comp_201517/ansi -Ic:/ghs/comp_201517/include/v800 -Igendata -IC:\GHS\comp_201517\lib\rh850 -cg_underscore -cpu=rh850g3k -nofpu -no_v850_simd -rh850_fpsimd=none -nomacro -patch_dbo=C:\_ECU2\ECU_Rivian_A1\Target\repo_projects\pFOTA\cL_LATEST\make\obj\Fls.dbo -source=Fls.c -o obj\gh_00000r41.o -list=lst/Fls.lst C:\Users\nhuliyap\AppData\Local\Temp\gh_00000r41.s 
Original File: C:\Users\nhuliyap\AppData\Local\Temp\gh_00000r41.s
Source File: Fls.c
Directory: C:\_ECU2\ECU_Rivian_A1\Target\repo_projects\pFOTA\cL_LATEST\make
Host OS: Windows
EASE: Copyright (C) 1983-2015 Green Hills Software.  All Rights Reserved.
Release: Compiler v2015.1.7
Build Directory: [Directory] BTOWORKER6:c:/build_2015_1_bto/2015-10-21.2100-2015_1_bto/win32-comp-ecom
Revision: [VCInfo] http://toolsvc/branches/release-branch-70-bto/src@544153 (built by build)
Revision Date: Thu Oct 22 07:50:13 2015

Release Date: Thu Oct 22 09:32:32 2015

                           1 --Driver Command: ccrh850 -DBRS_DERIVATIVE_701018 -DBRS_OSC_CLK=16
                           2 --		-DBRS_TIMEBASE_CLOCK=80 -DBRS_EVA_BOARD_
                           3 --		-DBRS_DERIVATIVE_GROUP_F1L -DBRS_OS_USECASE_BRS
                           4 --		-DBRS_PLATFORM_RH850 -DBRS_COMP_GHS
                           5 --		-DBRS_CPU_LOCAL_RAM_SIZE_CORE0=32
                           6 --		-DBRS_CPU_RAM_START_CORE0=0xFEDF8000 -list=lst/Fls.lst
                           7 --		-object_dir=obj -stderr=err/Fls.err -c -cpu=rh850 -sda=all
                           8 --		-large_sda -prepare_dispose -pragma_asm_inline -no_callt
                           9 --		-inline_prologue -notda -reserve_r2 -fsoft
                          10 --		--unknown_pragma_warnings -list -g -Ogeneral -shortenum
                          11 --		-registermode=32 -I../source/_common -I../source/common
                          12 --		-I../source/ecuabcanif -I../source/ecuabcantrcv
                          13 --		-I../source/ecuabcryif -I../source/ecuabfee
                          14 --		-I../source/ecuabmemif -I../source/libautosar -I../source/mcalcan
                          15 --		-I../source/mcalcry -I../source/mcaldio -I../source/mcaleep
                          16 --		-I../source/mcalfls -I../source/mcalmcu -I../source/projectara
                          17 --		-I../source/projectcfg -I../source/projectcompiler
                          18 --		-I../source/swcservicebswm -I../source/swcservicecantp
                          19 --		-I../source/swcservicecomm -I../source/swcservicecsm
                          20 --		-I../source/swcservicedcm -I../source/swcservicedem
                          21 --		-I../source/swcservicedet -I../source/swcserviceecum
                          22 --		-I../source/swcservicenvm -I../source/swcserviceos
                          23 --		-I../source/swcservicepdur -I../source/swcserviceschm
                          24 --		-I../source/swcservicestartup -I../source/wrappers/swcservicesecm
                          25 --		-I../source/wrappers/vsecprim -I../source/wrappers/vstdlib
                          26 --		-Ic:/ghs/comp_201517/ansi -Ic:/ghs/comp_201517/include/v800
                          27 --		-Igendata ../source/McalFls/Fls.c
                          28 --Source File:   ../source/McalFls/Fls.c
                          29 --Directory:     
                          30 --		C:\_ECU2\ECU_Rivian_A1\Target\repo_projects\pFOTA\cL_LATEST\make
                          31 --Compile Date:  Wed Sep 06 14:06:26 2023
                          32 --Host OS:       Win32
                          33 --Version:       C-RH850 2015.1.7 RELEASE VERSION
                          34 --Release:       Compiler v2015.1.7
                          35 --Revision Date: Thu Oct 22 08:06:12 2015
                          36 --Release Date:  Thu Oct 22 09:34:32 2015
                          37 -- ecom  -g -w -OM
                          38 	.text
                          39 ..bof.C.3A.5C_ECU2.5CECU_Rivian_A1.5CTarget.5Crepo_projects.5CpFOTA.5CcL_LATEST.5Cmake.5Cobj.5CFls...43.3A.5C_ECU2.5CECU_Rivian_A1.5CTarget.5Crepo_projects.5CpFOTA.5CcL_LATEST.5Cmake..64F86B42..0::
                          40 	.align	2
                          41 ..gh.f.f.1.e.0:
                          42 	.type	..gh.f.f.1.e.0,@object
                          43 	.size	..gh.f.f.1.e.0,0
                          44 	.global	_Fls_Init
                          45 _Fls_Init:
00000000 80072100         46 	prepare	{r31},0
00000004 06f0             47 	mov	r6,ep
                          48 --	    .bf
                          49 .LDW01:
00000006 0085             50 	sld.w	0[ep],r16

                                                                      Page 2
                                                              C:\Users\nhuliyap\AppData\Local\Temp\gh_00000r41.s
00000008 31061801d70e     51 	mov	248971544,r17
0000000e f181             52 	cmp	r17,r16
00000010 ba3d*            53 	bne	.L37
                          54 --line246
                          55 ..lin.C.3A.5C_ECU2.5CECU_Rivian_A1.5CTarget.5Crepo_projects.5CpFOTA.5CcL_LATEST.5Cmake.5Cobj.5CFls.1::
                          56 .LDWlin1:
00000012 3e060080a0ff     57 	mov	-6258688,ep
00000018 1f92             58 	mov	-1,r18
0000001a 0195             59 	sst.w	r18,0[ep]
0000001c 0395             60 	sst.w	r18,4[ep]
0000001e 84070f300000*    61 	st.w	r6,sdaoff23(_Fls_GpConfigPtr)[gp]
00000024 0595             62 	sst.w	r18,8[ep]
00000026 0795             63 	sst.w	r18,12[ep]
00000028 260600000000*    64 	mov	rosdaoff23(_sampleApp_fdlConfig_enu),r6
                          65 	jarl	_R_FDL_Init,lp
                          65 <EXPANSION BEGIN>
                          65 jarl22 _R_FDL_Init , lp 
0000002e 80ff0000*        65 <EXPANSION END>
                          66 --line249
                          67 ..lin.C.3A.5C_ECU2.5CECU_Rivian_A1.5CTarget.5Crepo_projects.5CpFOTA.5CcL_LATEST.5Cmake.5Cobj.5CFls.2::
                          68 .LDWlin2:
00000032 e051             69 	cmp	zero,r10
00000034 9a2d*            70 	bne	.L37
                          71 --line252
                          72 ..lin.C.3A.5C_ECU2.5CECU_Rivian_A1.5CTarget.5Crepo_projects.5CpFOTA.5CcL_LATEST.5Cmake.5Cobj.5CFls.3::
                          73 .LDWlin3:
00000036 057a             74 	mov	5,r15
00000038 3e0600000000*    75 	mov	sdaoff23(_Fls_GstVar),ep
0000003e 807b             76 	sst.b	r15,0[ep]
00000040 0505             77 	sst.w	zero,8[ep]
00000042 8604             78 	sst.h	zero,12[ep]
00000044 8e03             79 	sst.b	zero,14[ep]
00000046 1e30             80 	mov	ep,r6
                          81 	jarl	_R_FDL_Execute,lp
                          81 <EXPANSION BEGIN>
                          81 jarl22 _R_FDL_Execute , lp 
00000048 80ff0000*        81 <EXPANSION END>
                          82 --line257
                          83 ..lin.C.3A.5C_ECU2.5CECU_Rivian_A1.5CTarget.5Crepo_projects.5CpFOTA.5CcL_LATEST.5Cmake.5Cobj.5CFls.4::
                          84 .LDWlin4:
0000004c b505*            85 	br	.L43
                          86 .L45:
                          87 --line259
                          88 ..lin.C.3A.5C_ECU2.5CECU_Rivian_A1.5CTarget.5Crepo_projects.5CpFOTA.5CcL_LATEST.5Cmake.5Cobj.5CFls.5::
                          89 .LDWlin5:
                          90 	jarl	_R_FDL_Handler,lp
                          90 <EXPANSION BEGIN>
                          90 jarl22 _R_FDL_Handler , lp 
0000004e 80ff0000*        90 <EXPANSION END>
                          91 .L43:
                          92 --line257
                          93 ..lin.C.3A.5C_ECU2.5CECU_Rivian_A1.5CTarget.5Crepo_projects.5CpFOTA.5CcL_LATEST.5Cmake.5Cobj.5CFls.6::
                          94 .LDWlin6:
00000052 840705700000*    95 	ld.b	sdaoff23(_Fls_GstVar+15)[gp],r14
00000058 6172             96 	cmp	1,r14
0000005a a2fd*            97 	be	.L45
                          98 --line261
                          99 ..lin.C.3A.5C_ECU2.5CECU_Rivian_A1.5CTarget.5Crepo_projects.5CpFOTA.5CcL_LATEST.5Cmake.5Cobj.5CFls.7::
                         100 .LDWlin7:
0000005c 840705680000*   101 	ld.b	sdaoff23(_Fls_GstVar+15)[gp],r13
00000062 e069            102 	cmp	zero,r13

                                                                      Page 3
                                                              C:\Users\nhuliyap\AppData\Local\Temp\gh_00000r41.s
00000064 9a15*           103 	bne	.L37
                         104 --line263
                         105 ..lin.C.3A.5C_ECU2.5CECU_Rivian_A1.5CTarget.5Crepo_projects.5CpFOTA.5CcL_LATEST.5Cmake.5Cobj.5CFls.8::
                         106 .LDWlin8:
00000066 3e0600000000*   107 	mov	sdaoff23(_Fls_GVar),ep
0000006c 0162            108 	mov	1,r12
0000006e a003            109 	sst.b	zero,32[ep]
00000070 a103            110 	sst.b	zero,33[ep]
00000072 a203            111 	sst.b	zero,34[ep]
00000074 a303            112 	sst.b	zero,35[ep]
00000076 a763            113 	sst.b	r12,39[ep]
00000078 a603            114 	sst.b	zero,38[ep]
0000007a a403            115 	sst.b	zero,36[ep]
0000007c 0f05            116 	sst.w	zero,28[ep]
0000007e 0d05            117 	sst.w	zero,24[ep]
00000080 a803            118 	sst.b	zero,40[ep]
00000082 a903            119 	sst.b	zero,41[ep]
00000084 a503            120 	sst.b	zero,37[ep]
                         121 .L37:
                         122 --	    .ef
                         123 .LDW11:
00000086 40063f00        124 	dispose	0,{r31},[lp]
                         125 	.type	_Fls_Init,@function
                         126 	.size	_Fls_Init,.-_Fls_Init
                         127 	.align	2
                         128 .LDW21:
                         129 
                         130 --_ConfigPtr	ep	param
                         131 
                         132 	.section ".bss","awb"
                         133 .L139:
                         134 	.type	.L139,@object
                         135 	.size	.L139,0
                         136 	.data
                         137 	.text
                         138 	.align	2
                         139 	.align	2
                         140 ..gh.f.f.1.e.1:
                         141 	.type	..gh.f.f.1.e.1,@object
                         142 	.size	..gh.f.f.1.e.1,0
                         143 	.global	_Fls_Erase
                         144 _Fls_Erase:
0000008a 8007e100        145 	prepare	{r28,r29,r31},0
0000008e 07e8            146 	mov	r7,r29
                         147 --	    .bf
                         148 .LDW31:
00000090 00e2            149 	mov	0,r28
00000092 e0076001        150 	di
00000096 840705780000*   151 	ld.b	sdaoff23(_Fls_GVar+39)[gp],r15
0000009c 617a            152 	cmp	1,r15
0000009e ba3d*           153 	bne	.L240
                         154 --line397
                         155 ..lin.C.3A.5C_ECU2.5CECU_Rivian_A1.5CTarget.5Crepo_projects.5CpFOTA.5CcL_LATEST.5Cmake.5Cobj.5CFls.9::
                         156 .LDWlin9:
000000a0 e039            157 	cmp	zero,r7
000000a2 e2e70000        158 	setfe	r28
000000a6 f235*           159 	be	.L240
                         160 --line426
                         161 ..lin.C.3A.5C_ECU2.5CECU_Rivian_A1.5CTarget.5Crepo_projects.5CpFOTA.5CcL_LATEST.5Cmake.5Cobj.5CFls.10::
                         162 .LDWlin10:
000000a8 463620ff        163 	movhi	65312,r6,r6

                                                                      Page 4
                                                              C:\Users\nhuliyap\AppData\Local\Temp\gh_00000r41.s
000000ac 0798            164 	mov	r7,r19
000000ae c699            165 	add	r6,r19
000000b0 3e0600000000*   166 	mov	sdaoff23(_Fls_GVar),ep
000000b6 1376ffff        167 	addi	-1,r19,r14
000000ba a503            168 	sst.b	zero,37[ep]
000000bc 0935            169 	sst.w	r6,16[ep]
000000be 0b75            170 	sst.w	r14,20[ep]
000000c0 c7063f00        171 	andi	63,r7,zero
000000c4 d20d*           172 	be	.L236
                         173 --line520
                         174 ..lin.C.3A.5C_ECU2.5CECU_Rivian_A1.5CTarget.5Crepo_projects.5CpFOTA.5CcL_LATEST.5Cmake.5Cobj.5CFls.11::
                         175 .LDWlin11:
000000c6 07ee3f00        176 	addi	63,r7,r29
000000ca 2066c0ff        177 	movea	-64,zero,r12
000000ce 4ce9            178 	and	r12,r29
000000d0 1d90            179 	mov	r29,r18
000000d2 c691            180 	add	r6,r18
000000d4 125effff        181 	addi	-1,r18,r11
000000d8 84070f580000*   182 	st.w	r11,sdaoff23(_Fls_GVar+20)[gp]
                         183 .L236:
000000de 405620ff        184 	movhi	hi(-14680064),zero,r10
000000e2 3e0600000000*   185 	mov	sdaoff23(_Fls_GstVar),ep
000000e8 aa31            186 	sub	r10,r6
000000ea 8003            187 	sst.b	zero,0[ep]
000000ec 8632            188 	shr	6,r6
000000ee 1d88            189 	mov	r29,r17
000000f0 0535            190 	sst.w	r6,8[ep]
000000f2 868a            191 	shr	6,r17
000000f4 868c            192 	sst.h	r17,12[ep]
000000f6 8e7b            193 	sst.b	r15,14[ep]
000000f8 1e30            194 	mov	ep,r6
                         195 	jarl	_R_FDL_Execute,lp
                         195 <EXPANSION BEGIN>
                         195 jarl22 _R_FDL_Execute , lp 
000000fa 80ff0000*       195 <EXPANSION END>
                         196 --line563
                         197 ..lin.C.3A.5C_ECU2.5CECU_Rivian_A1.5CTarget.5Crepo_projects.5CpFOTA.5CcL_LATEST.5Cmake.5Cobj.5CFls.12::
                         198 .LDWlin12:
000000fe 3e0600000000*   199 	mov	sdaoff23(_Fls_GVar),ep
00000104 0282            200 	mov	2,r16
00000106 0142            201 	mov	1,r8
00000108 0ded            202 	sst.w	r29,24[ep]
0000010a a803            203 	sst.b	zero,40[ep]
0000010c a903            204 	sst.b	zero,41[ep]
0000010e a683            205 	sst.b	r16,38[ep]
00000110 a783            206 	sst.b	r16,39[ep]
00000112 a443            207 	sst.b	r8,36[ep]
                         208 .L240:
00000114 e0876001        209 	ei
00000118 1c50            210 	mov	r28,r10
                         211 --	    .ef
                         212 .LDW41:
0000011a 4006ff00        213 	dispose	0,{r28,r29,r31},[lp]
                         214 	.type	_Fls_Erase,@function
                         215 	.size	_Fls_Erase,.-_Fls_Erase
                         216 	.align	2
                         217 .LDW51:
                         218 --_LenReturnValue	r28	local
                         219 
                         220 --_TargetAddress	r6	param
                         221 --_Length	r29	param

                                                                      Page 5
                                                              C:\Users\nhuliyap\AppData\Local\Temp\gh_00000r41.s
                         222 
                         223 	.section ".bss","awb"
                         224 .L330:
                         225 	.type	.L330,@object
                         226 	.size	.L330,0
                         227 	.data
                         228 	.text
                         229 	.align	2
                         230 	.align	2
                         231 ..gh.f.f.1.e.2:
                         232 	.type	..gh.f.f.1.e.2,@object
                         233 	.size	..gh.f.f.1.e.2,0
                         234 	.global	_Fls_Write
                         235 _Fls_Write:
0000011e 80076100        236 	prepare	{r29,r31},0
                         237 --	    .bf
                         238 .LDW61:
00000122 00ea            239 	mov	0,r29
00000124 e0076001        240 	di
00000128 840705880000*   241 	ld.b	sdaoff23(_Fls_GVar+39)[gp],r17
0000012e 618a            242 	cmp	1,r17
00000130 ea2d*           243 	bne	.L421
                         244 --line646
                         245 ..lin.C.3A.5C_ECU2.5CECU_Rivian_A1.5CTarget.5Crepo_projects.5CpFOTA.5CcL_LATEST.5Cmake.5Cobj.5CFls.13::
                         246 .LDWlin13:
00000132 e041            247 	cmp	zero,r8
00000134 e2ef0000        248 	setfe	r29
00000138 a22d*           249 	be	.L421
                         250 --line775
                         251 ..lin.C.3A.5C_ECU2.5CECU_Rivian_A1.5CTarget.5Crepo_projects.5CpFOTA.5CcL_LATEST.5Cmake.5Cobj.5CFls.14::
                         252 .LDWlin14:
0000013a 840705800000*   253 	ld.b	sdaoff23(_Fls_GstVar+15)[gp],r16
00000140 469e20ff        254 	movhi	65312,r6,r19
00000144 3e0600000000*   255 	mov	sdaoff23(_Fls_GVar),ep
0000014a a503            256 	sst.b	zero,37[ep]
0000014c 059d            257 	sst.w	r19,8[ep]
0000014e 0f45            258 	sst.w	r8,28[ep]
00000150 0d45            259 	sst.w	r8,24[ep]
00000152 013d            260 	sst.w	r7,0[ep]
00000154 260600000000*   261 	mov	sdaoff23(_Fls_GstVar),r6
0000015a 6282            262 	cmp	2,r16
0000015c ca05*           263 	bne	.L417
                         264 --line777
                         265 ..lin.C.3A.5C_ECU2.5CECU_Rivian_A1.5CTarget.5Crepo_projects.5CpFOTA.5CcL_LATEST.5Cmake.5Cobj.5CFls.15::
                         266 .LDWlin15:
0000015e 260600000000*   267 	mov	sdaoff23(_Fls_GstVar+16),r6
                         268 .L417:
00000164 06f0            269 	mov	r6,ep
00000166 808b            270 	sst.b	r17,0[ep]
00000168 407e20ff        271 	movhi	hi(-14680064),zero,r15
0000016c 033d            272 	sst.w	r7,4[ep]
0000016e af99            273 	sub	r15,r19
00000170 059d            274 	sst.w	r19,8[ep]
00000172 8242            275 	shr	2,r8
00000174 8644            276 	sst.h	r8,12[ep]
00000176 8e8b            277 	sst.b	r17,14[ep]
                         278 	jarl	_R_FDL_Execute,lp
                         278 <EXPANSION BEGIN>
                         278 jarl22 _R_FDL_Execute , lp 
00000178 80ff0000*       278 <EXPANSION END>
                         279 --line812

                                                                      Page 6
                                                              C:\Users\nhuliyap\AppData\Local\Temp\gh_00000r41.s
                         280 ..lin.C.3A.5C_ECU2.5CECU_Rivian_A1.5CTarget.5Crepo_projects.5CpFOTA.5CcL_LATEST.5Cmake.5Cobj.5CFls.16::
                         281 .LDWlin16:
0000017c 3e0600000000*   282 	mov	sdaoff23(_Fls_GVar),ep
00000182 023a            283 	mov	2,r7
00000184 a803            284 	sst.b	zero,40[ep]
00000186 a63b            285 	sst.b	r7,38[ep]
00000188 a73b            286 	sst.b	r7,39[ep]
0000018a a43b            287 	sst.b	r7,36[ep]
                         288 .L421:
0000018c e0876001        289 	ei
00000190 1d50            290 	mov	r29,r10
                         291 --	    .ef
                         292 .LDW71:
00000192 40067f00        293 	dispose	0,{r29,r31},[lp]
                         294 	.type	_Fls_Write,@function
                         295 	.size	_Fls_Write,.-_Fls_Write
                         296 	.align	2
                         297 .LDW81:
                         298 --_LpFdlReqCmd	r6	local
                         299 --_LenReturnValue	r29	local
                         300 
                         301 --_TargetAddress	r19	param
                         302 --_SourceAddressPtr	r7	param
                         303 --_Length	r8	param
                         304 
                         305 	.section ".bss","awb"
                         306 .L529:
                         307 	.type	.L529,@object
                         308 	.size	.L529,0
                         309 	.data
                         310 	.text
                         311 	.align	2
                         312 	.align	2
                         313 ..gh.f.f.1.e.3:
                         314 	.type	..gh.f.f.1.e.3,@object
                         315 	.size	..gh.f.f.1.e.3,0
                         316 	.global	_Fls_Cancel
                         317 _Fls_Cancel:
00000196 80072100        318 	prepare	{r31},0
                         319 --	    .bf
                         320 .LDW91:
0000019a e0076001        321 	di
0000019e 840705480000*   322 	ld.b	sdaoff23(_Fls_GVar+38)[gp],r9
000001a4 624a            323 	cmp	2,r9
000001a6 fa2d*           324 	bne	.L631
                         325 --line893
                         326 ..lin.C.3A.5C_ECU2.5CECU_Rivian_A1.5CTarget.5Crepo_projects.5CpFOTA.5CcL_LATEST.5Cmake.5Cobj.5CFls.17::
                         327 .LDWlin17:
000001a8 840705400000*   328 	ld.b	sdaoff23(_Fls_GVar+37)[gp],r8
000001ae e041            329 	cmp	zero,r8
000001b0 aa2d*           330 	bne	.L631
                         331 --line903
                         332 ..lin.C.3A.5C_ECU2.5CECU_Rivian_A1.5CTarget.5Crepo_projects.5CpFOTA.5CcL_LATEST.5Cmake.5Cobj.5CFls.18::
                         333 .LDWlin18:
000001b2 840705900000*   334 	ld.b	sdaoff23(_Fls_GVar+36)[gp],r18
000001b8 5f92            335 	add	-1,r18
000001ba 6192            336 	cmp	1,r18
000001bc f305*           337 	bnh	.L615
000001be 6492            338 	cmp	4,r18
000001c0 d115*           339 	bl	.L625
000001c2 c205*           340 	be	.L615

                                                                      Page 7
                                                              C:\Users\nhuliyap\AppData\Local\Temp\gh_00000r41.s
000001c4 6592            341 	cmp	5,r18
000001c6 a215*           342 	be	.L625
000001c8 e51d*           343 	br	.L631
                         344 .L615:
                         345 --line908
                         346 ..lin.C.3A.5C_ECU2.5CECU_Rivian_A1.5CTarget.5Crepo_projects.5CpFOTA.5CcL_LATEST.5Cmake.5Cobj.5CFls.19::
                         347 .LDWlin19:
                         348 	jarl	_R_FDL_CancelRequest,lp
                         348 <EXPANSION BEGIN>
                         348 jarl22 _R_FDL_CancelRequest , lp 
000001ca 80ff0000*       348 <EXPANSION END>
                         349 --line909
                         350 ..lin.C.3A.5C_ECU2.5CECU_Rivian_A1.5CTarget.5Crepo_projects.5CpFOTA.5CcL_LATEST.5Cmake.5Cobj.5CFls.20::
                         351 .LDWlin20:
000001ce e051            352 	cmp	zero,r10
000001d0 aa1d*           353 	bne	.L631
                         354 .L620:
                         355 --line918
                         356 ..lin.C.3A.5C_ECU2.5CECU_Rivian_A1.5CTarget.5Crepo_projects.5CpFOTA.5CcL_LATEST.5Cmake.5Cobj.5CFls.21::
                         357 .LDWlin21:
                         358 	jarl	_R_FDL_Handler,lp
                         358 <EXPANSION BEGIN>
                         358 jarl22 _R_FDL_Handler , lp 
000001d2 80ff0000*       358 <EXPANSION END>
                         359 --line929
                         360 ..lin.C.3A.5C_ECU2.5CECU_Rivian_A1.5CTarget.5Crepo_projects.5CpFOTA.5CcL_LATEST.5Cmake.5Cobj.5CFls.22::
                         361 .LDWlin22:
000001d6 840705380000*   362 	ld.b	sdaoff23(_Fls_GstVar+15)[gp],r7
000001dc 6e3a            363 	cmp	14,r7
000001de aafd*           364 	bne	.L620
                         365 --line942
                         366 ..lin.C.3A.5C_ECU2.5CECU_Rivian_A1.5CTarget.5Crepo_projects.5CpFOTA.5CcL_LATEST.5Cmake.5Cobj.5CFls.23::
                         367 .LDWlin23:
000001e0 840705300000*   368 	ld.b	sdaoff23(_Fls_GstVar+15)[gp],r6
000001e6 6e32            369 	cmp	14,r6
000001e8 ea0d*           370 	bne	.L631
                         371 .L625:
                         372 --line968
                         373 ..lin.C.3A.5C_ECU2.5CECU_Rivian_A1.5CTarget.5Crepo_projects.5CpFOTA.5CcL_LATEST.5Cmake.5Cobj.5CFls.24::
                         374 .LDWlin24:
000001ea 039a            375 	mov	3,r19
000001ec 3e0600000000*   376 	mov	sdaoff23(_Fls_GVar),ep
000001f2 0192            377 	mov	1,r18
000001f4 0e8a            378 	mov	14,r17
000001f6 a69b            379 	sst.b	r19,38[ep]
000001f8 a793            380 	sst.b	r18,39[ep]
000001fa a403            381 	sst.b	zero,36[ep]
000001fc 84070d880000*   382 	st.b	r17,sdaoff23(_Fls_GstVar+32)[gp]
00000202 a803            383 	sst.b	zero,40[ep]
                         384 .L631:
00000204 e0876001        385 	ei
                         386 --	    .ef
                         387 .LDW02:
00000208 40063f00        388 	dispose	0,{r31},[lp]
                         389 	.type	_Fls_Cancel,@function
                         390 	.size	_Fls_Cancel,.-_Fls_Cancel
                         391 	.align	2
                         392 .LDW12:
                         393 --_LenFDLStatus	r10	local
                         394 
                         395 	.section ".bss","awb"

                                                                      Page 8
                                                              C:\Users\nhuliyap\AppData\Local\Temp\gh_00000r41.s
                         396 .L744:
                         397 	.type	.L744,@object
                         398 	.size	.L744,0
                         399 	.data
                         400 	.text
                         401 	.align	2
                         402 	.align	2
                         403 ..gh.f.f.1.e.4:
                         404 	.type	..gh.f.f.1.e.4,@object
                         405 	.size	..gh.f.f.1.e.4,0
                         406 	.global	_Fls_GetStatus
                         407 _Fls_GetStatus:
                         408 --	    .bf
                         409 .LDW22:
0000020c 840705500000*   410 	ld.b	sdaoff23(_Fls_GVar+39)[gp],r10
                         411 --	    .ef
                         412 .LDW32:
00000212 7f00            413 	jmp	[lp]
                         414 	.type	_Fls_GetStatus,@function
                         415 	.size	_Fls_GetStatus,.-_Fls_GetStatus
                         416 	.align	2
                         417 .LDW42:
                         418 
                         419 	.section ".bss","awb"
                         420 .L881:
                         421 	.type	.L881,@object
                         422 	.size	.L881,0
                         423 	.data
                         424 	.text
                         425 	.align	2
                         426 	.align	2
                         427 ..gh.f.f.1.e.5:
                         428 	.type	..gh.f.f.1.e.5,@object
                         429 	.size	..gh.f.f.1.e.5,0
                         430 	.global	_Fls_GetJobResult
                         431 _Fls_GetJobResult:
                         432 --	    .bf
                         433 .LDW52:
00000214 840705500000*   434 	ld.b	sdaoff23(_Fls_GVar+38)[gp],r10
                         435 --	    .ef
                         436 .LDW62:
0000021a 7f00            437 	jmp	[lp]
                         438 	.type	_Fls_GetJobResult,@function
                         439 	.size	_Fls_GetJobResult,.-_Fls_GetJobResult
                         440 	.align	2
                         441 .LDW72:
                         442 
                         443 	.section ".bss","awb"
                         444 .L929:
                         445 	.type	.L929,@object
                         446 	.size	.L929,0
                         447 	.data
                         448 	.text
                         449 	.align	2
                         450 	.align	2
                         451 ..gh.f.f.1.e.6:
                         452 	.type	..gh.f.f.1.e.6,@object
                         453 	.size	..gh.f.f.1.e.6,0
                         454 	.global	_Fls_MainFunction
                         455 _Fls_MainFunction:
0000021c 80072100        456 	prepare	{r31},0

                                                                      Page 9
                                                              C:\Users\nhuliyap\AppData\Local\Temp\gh_00000r41.s
                         457 --	    .bf
                         458 .LDW82:
00000220 840705300000*   459 	ld.b	sdaoff23(_Fls_GVar+39)[gp],r6
00000226 0652            460 	mov	6,r10
00000228 84070d500000*   461 	st.b	r10,sdaoff23(_Fls_GstVar+32)[gp]
0000022e 6232            462 	cmp	2,r6
00000230 fa55*           463 	bne	.L981
                         464 --line1216
                         465 ..lin.C.3A.5C_ECU2.5CECU_Rivian_A1.5CTarget.5Crepo_projects.5CpFOTA.5CcL_LATEST.5Cmake.5Cobj.5CFls.25::
                         466 .LDWlin25:
00000232 840705480000*   467 	ld.b	sdaoff23(_Fls_GVar+36)[gp],r9
00000238 614a            468 	cmp	1,r9
0000023a fa05*           469 	bne	.L951
                         470 --line1218
                         471 ..lin.C.3A.5C_ECU2.5CECU_Rivian_A1.5CTarget.5Crepo_projects.5CpFOTA.5CcL_LATEST.5Cmake.5Cobj.5CFls.26::
                         472 .LDWlin26:
0000023c 840705980000*   473 	ld.b	sdaoff23(_Fls_GVar+37)[gp],r19
00000242 e099            474 	cmp	zero,r19
00000244 9a65*           475 	bne	.L947
00000246 a53d*           476 	br	.L972
                         477 .L951:
                         478 --line1240
                         479 ..lin.C.3A.5C_ECU2.5CECU_Rivian_A1.5CTarget.5Crepo_projects.5CpFOTA.5CcL_LATEST.5Cmake.5Cobj.5CFls.27::
                         480 .LDWlin27:
00000248 624a            481 	cmp	2,r9
0000024a da15*           482 	bne	.L957
                         483 --line1242
                         484 ..lin.C.3A.5C_ECU2.5CECU_Rivian_A1.5CTarget.5Crepo_projects.5CpFOTA.5CcL_LATEST.5Cmake.5Cobj.5CFls.28::
                         485 .LDWlin28:
0000024c 840705900000*   486 	ld.b	sdaoff23(_Fls_GVar+37)[gp],r18
00000252 e091            487 	cmp	zero,r18
00000254 9a5d*           488 	bne	.L947
                         489 --line1248
                         490 ..lin.C.3A.5C_ECU2.5CECU_Rivian_A1.5CTarget.5Crepo_projects.5CpFOTA.5CcL_LATEST.5Cmake.5Cobj.5CFls.29::
                         491 .LDWlin29:
                         492 	jarl	_R_FDL_Handler,lp
                         492 <EXPANSION BEGIN>
                         492 jarl22 _R_FDL_Handler , lp 
00000256 80ff0000*       492 <EXPANSION END>
                         493 --line1249
                         494 ..lin.C.3A.5C_ECU2.5CECU_Rivian_A1.5CTarget.5Crepo_projects.5CpFOTA.5CcL_LATEST.5Cmake.5Cobj.5CFls.30::
                         495 .LDWlin30:
0000025a 840705880000*   496 	ld.b	sdaoff23(_Fls_GstVar+15)[gp],r17
00000260 628a            497 	cmp	2,r17
00000262 da05*           498 	bne	.L961
                         499 --line1251
                         500 ..lin.C.3A.5C_ECU2.5CECU_Rivian_A1.5CTarget.5Crepo_projects.5CpFOTA.5CcL_LATEST.5Cmake.5Cobj.5CFls.31::
                         501 .LDWlin31:
00000264 840705500000*   502 	ld.b	sdaoff23(_Fls_GstVar+31)[gp],r10
0000026a f535*           503 	br	.L1044
                         504 .L961:
                         505 --line1255
                         506 ..lin.C.3A.5C_ECU2.5CECU_Rivian_A1.5CTarget.5Crepo_projects.5CpFOTA.5CcL_LATEST.5Cmake.5Cobj.5CFls.32::
                         507 .LDWlin32:
0000026c 840705500000*   508 	ld.b	sdaoff23(_Fls_GstVar+15)[gp],r10
00000272 b535*           509 	br	.L1044
                         510 .L957:
                         511 --line1273
                         512 ..lin.C.3A.5C_ECU2.5CECU_Rivian_A1.5CTarget.5Crepo_projects.5CpFOTA.5CcL_LATEST.5Cmake.5Cobj.5CFls.33::
                         513 .LDWlin33:
00000274 654a            514 	cmp	5,r9

                                                                      Page 10
                                                              C:\Users\nhuliyap\AppData\Local\Temp\gh_00000r41.s
00000276 8a2d*           515 	bne	.L966
                         516 --line1278
                         517 ..lin.C.3A.5C_ECU2.5CECU_Rivian_A1.5CTarget.5Crepo_projects.5CpFOTA.5CcL_LATEST.5Cmake.5Cobj.5CFls.34::
                         518 .LDWlin34:
00000278 840705800000*   519 	ld.b	sdaoff23(_Fls_GVar+37)[gp],r16
0000027e e081            520 	cmp	zero,r16
00000280 ba45*           521 	bne	.L947
                         522 --line1280
                         523 ..lin.C.3A.5C_ECU2.5CECU_Rivian_A1.5CTarget.5Crepo_projects.5CpFOTA.5CcL_LATEST.5Cmake.5Cobj.5CFls.35::
                         524 .LDWlin35:
00000282 a40705780000*   525 	ld.bu	sdaoff23(_Fls_GVar+41)[gp],r15
00000288 617a            526 	cmp	1,r15
0000028a 8a1d*           527 	bne	.L972
                         528 --line1284
                         529 ..lin.C.3A.5C_ECU2.5CECU_Rivian_A1.5CTarget.5Crepo_projects.5CpFOTA.5CcL_LATEST.5Cmake.5Cobj.5CFls.36::
                         530 .LDWlin36:
0000028c 840709480000*   531 	ld.w	sdaoff23(_Fls_GVar+16)[gp],r9
00000292 840709400000*   532 	ld.w	sdaoff23(_Fls_GVar+24)[gp],r8
00000298 3e0600000000*   533 	mov	sdaoff23(_Fls_GstVar),ep
0000029e 406e20ff        534 	movhi	hi(-14680064),zero,r13
000002a2 8033            535 	sst.b	r6,0[ep]
000002a4 ad49            536 	sub	r13,r9
000002a6 054d            537 	sst.w	r9,8[ep]
000002a8 8242            538 	shr	2,r8
000002aa 8644            539 	sst.h	r8,12[ep]
000002ac 8e7b            540 	sst.b	r15,14[ep]
000002ae 1e30            541 	mov	ep,r6
                         542 	jarl	_R_FDL_Execute,lp
                         542 <EXPANSION BEGIN>
                         542 jarl22 _R_FDL_Execute , lp 
000002b0 80ff0000*       542 <EXPANSION END>
                         543 --line1292
                         544 ..lin.C.3A.5C_ECU2.5CECU_Rivian_A1.5CTarget.5Crepo_projects.5CpFOTA.5CcL_LATEST.5Cmake.5Cobj.5CFls.37::
                         545 .LDWlin37:
000002b4 84070d000000*   546 	st.b	zero,sdaoff23(_Fls_GVar+41)[gp]
                         547 .L972:
                         548 	jarl	_R_FDL_Handler,lp
                         548 <EXPANSION BEGIN>
                         548 jarl22 _R_FDL_Handler , lp 
000002ba 80ff0000*       548 <EXPANSION END>
                         549 --line1299
                         550 ..lin.C.3A.5C_ECU2.5CECU_Rivian_A1.5CTarget.5Crepo_projects.5CpFOTA.5CcL_LATEST.5Cmake.5Cobj.5CFls.38::
                         551 .LDWlin38:
000002be 840705500000*   552 	ld.b	sdaoff23(_Fls_GstVar+15)[gp],r10
000002c4 a50d*           553 	br	.L1044
                         554 .L966:
                         555 --line1308
                         556 ..lin.C.3A.5C_ECU2.5CECU_Rivian_A1.5CTarget.5Crepo_projects.5CpFOTA.5CcL_LATEST.5Cmake.5Cobj.5CFls.39::
                         557 .LDWlin39:
000002c6 634a            558 	cmp	3,r9
000002c8 ca05*           559 	bne	.L975
                         560 --line1312
                         561 ..lin.C.3A.5C_ECU2.5CECU_Rivian_A1.5CTarget.5Crepo_projects.5CpFOTA.5CcL_LATEST.5Cmake.5Cobj.5CFls.40::
                         562 .LDWlin40:
                         563 	jarl	_Fls_DFProcessReadCommand,lp
                         563 <EXPANSION BEGIN>
                         563 jarl22 _Fls_DFProcessReadCommand , lp 
000002ca 80ff0000*       563 <EXPANSION END>
000002ce d505*           564 	br	.L1044
                         565 .L975:
                         566 --line1329

                                                                      Page 11
                                                              C:\Users\nhuliyap\AppData\Local\Temp\gh_00000r41.s
                         567 ..lin.C.3A.5C_ECU2.5CECU_Rivian_A1.5CTarget.5Crepo_projects.5CpFOTA.5CcL_LATEST.5Cmake.5Cobj.5CFls.41::
                         568 .LDWlin41:
000002d0 644a            569 	cmp	4,r9
000002d2 ea05*           570 	bne	.L981
                         571 --line1333
                         572 ..lin.C.3A.5C_ECU2.5CECU_Rivian_A1.5CTarget.5Crepo_projects.5CpFOTA.5CcL_LATEST.5Cmake.5Cobj.5CFls.42::
                         573 .LDWlin42:
                         574 	jarl	_Fls_DFProcessCompareCommand,lp
                         574 <EXPANSION BEGIN>
                         574 jarl22 _Fls_DFProcessCompareCommand , lp 
000002d4 80ff0000*       574 <EXPANSION END>
                         575 .L1044:
000002d8 84070d500000*   576 	st.b	r10,sdaoff23(_Fls_GstVar+32)[gp]
                         577 .L981:
                         578 --line1389
                         579 ..lin.C.3A.5C_ECU2.5CECU_Rivian_A1.5CTarget.5Crepo_projects.5CpFOTA.5CcL_LATEST.5Cmake.5Cobj.5CFls.43::
                         580 .LDWlin43:
000002de 840705580000*   581 	ld.b	sdaoff23(_Fls_GVar+37)[gp],r11
000002e4 e059            582 	cmp	zero,r11
000002e6 8a15*           583 	bne	.L947
                         584 --line1392
                         585 ..lin.C.3A.5C_ECU2.5CECU_Rivian_A1.5CTarget.5Crepo_projects.5CpFOTA.5CcL_LATEST.5Cmake.5Cobj.5CFls.44::
                         586 .LDWlin44:
000002e8 840705380000*   587 	ld.b	sdaoff23(_Fls_GVar+36)[gp],r7
000002ee 5f3a            588 	add	-1,r7
000002f0 653a            589 	cmp	5,r7
000002f2 ab0d*           590 	bh	.L947
                         591 --line1403
                         592 ..lin.C.3A.5C_ECU2.5CECU_Rivian_A1.5CTarget.5Crepo_projects.5CpFOTA.5CcL_LATEST.5Cmake.5Cobj.5CFls.45::
                         593 .LDWlin45:
000002f4 6152            594 	cmp	1,r10
000002f6 820d*           595 	be	.L947
000002f8 840705500000*   596 	ld.b	sdaoff23(_Fls_GVar+39)[gp],r10
000002fe 6152            597 	cmp	1,r10
00000300 b205*           598 	be	.L947
                         599 --line1406
                         600 ..lin.C.3A.5C_ECU2.5CECU_Rivian_A1.5CTarget.5Crepo_projects.5CpFOTA.5CcL_LATEST.5Cmake.5Cobj.5CFls.46::
                         601 .LDWlin46:
                         602 	jarl	_Fls_EndJobProcess,lp
                         602 <EXPANSION BEGIN>
                         602 jarl22 _Fls_EndJobProcess , lp 
00000302 80ff0000*       602 <EXPANSION END>
                         603 .L947:
                         604 --	    .ef
                         605 .LDW92:
                         606 --line1442
                         607 ..lin.C.3A.5C_ECU2.5CECU_Rivian_A1.5CTarget.5Crepo_projects.5CpFOTA.5CcL_LATEST.5Cmake.5Cobj.5CFls.47::
                         608 .LDWlin47:
00000306 40063f00        609 	dispose	0,{r31},[lp]
                         610 	.type	_Fls_MainFunction,@function
                         611 	.size	_Fls_MainFunction,.-_Fls_MainFunction
                         612 	.align	2
                         613 .LDW03:
                         614 
                         615 	.section ".bss","awb"
                         616 .L1195:
                         617 	.type	.L1195,@object
                         618 	.size	.L1195,0
                         619 	.data
                         620 	.text
                         621 	.align	2

                                                                      Page 12
                                                              C:\Users\nhuliyap\AppData\Local\Temp\gh_00000r41.s
                         622 	.align	2
                         623 ..gh.f.f.1.e.7:
                         624 	.type	..gh.f.f.1.e.7,@object
                         625 	.size	..gh.f.f.1.e.7,0
                         626 	.global	_Fls_Read
                         627 _Fls_Read:
                         628 --	    .bf
                         629 .LDW13:
0000030a 0052            630 	mov	0,r10
0000030c e0076001        631 	di
00000310 840705980000*   632 	ld.b	sdaoff23(_Fls_GVar+39)[gp],r19
00000316 619a            633 	cmp	1,r19
00000318 8a2d*           634 	bne	.L1447
                         635 --line1492
                         636 ..lin.C.3A.5C_ECU2.5CECU_Rivian_A1.5CTarget.5Crepo_projects.5CpFOTA.5CcL_LATEST.5Cmake.5Cobj.5CFls.48::
                         637 .LDWlin48:
0000031a e041            638 	cmp	zero,r8
0000031c e2570000        639 	setfe	r10
00000320 c225*           640 	be	.L1447
                         641 --line1509
                         642 ..lin.C.3A.5C_ECU2.5CECU_Rivian_A1.5CTarget.5Crepo_projects.5CpFOTA.5CcL_LATEST.5Cmake.5Cobj.5CFls.49::
                         643 .LDWlin49:
00000322 463620ff        644 	movhi	65312,r6,r6
00000326 3e0600000000*   645 	mov	sdaoff23(_Fls_GVar),ep
0000032c c69e0300        646 	andi	3,r6,r19
00000330 a503            647 	sst.b	zero,37[ep]
00000332 0735            648 	sst.w	r6,12[ep]
00000334 0f45            649 	sst.w	r8,28[ep]
00000336 a09b            650 	sst.b	r19,32[ep]
00000338 e205*           651 	be	.L1440
                         652 --line1592
                         653 ..lin.C.3A.5C_ECU2.5CECU_Rivian_A1.5CTarget.5Crepo_projects.5CpFOTA.5CcL_LATEST.5Cmake.5Cobj.5CFls.50::
                         654 .LDWlin50:
0000033a b331            655 	sub	r19,r6
0000033c 84070f300000*   656 	st.w	r6,sdaoff23(_Fls_GVar+12)[gp]
00000342 d341            657 	add	r19,r8
                         658 .L1440:
00000344 c84e0300        659 	andi	3,r8,r9
00000348 c205*           660 	be	.L1443
                         661 --line1602
                         662 ..lin.C.3A.5C_ECU2.5CECU_Rivian_A1.5CTarget.5Crepo_projects.5CpFOTA.5CcL_LATEST.5Cmake.5Cobj.5CFls.51::
                         663 .LDWlin51:
0000034a 0492            664 	mov	4,r18
0000034c a991            665 	sub	r9,r18
0000034e d241            666 	add	r18,r8
                         667 .L1443:
00000350 0d45            668 	sst.w	r8,24[ep]
00000352 320600000000*   669 	mov	sdaoff23(_Fls_GulTempBuffer),r18
00000358 038a            670 	mov	3,r17
0000035a 0242            671 	mov	2,r8
0000035c 0395            672 	sst.w	r18,4[ep]
0000035e 013d            673 	sst.w	r7,0[ep]
00000360 a48b            674 	sst.b	r17,36[ep]
00000362 a743            675 	sst.b	r8,39[ep]
00000364 a643            676 	sst.b	r8,38[ep]
00000366 a803            677 	sst.b	zero,40[ep]
                         678 .L1447:
00000368 e0876001        679 	ei
                         680 --	    .ef
                         681 .LDW23:
0000036c 7f00            682 	jmp	[lp]

                                                                      Page 13
                                                              C:\Users\nhuliyap\AppData\Local\Temp\gh_00000r41.s
                         683 	.type	_Fls_Read,@function
                         684 	.size	_Fls_Read,.-_Fls_Read
                         685 	.align	2
                         686 .LDW33:
                         687 --_LenReturnValue	r10	local
                         688 
                         689 --_SourceAddress	r6	param
                         690 --_TargetAddressPtr	r7	param
                         691 --_Length	r8	param
                         692 
                         693 	.section ".bss","awb"
                         694 .L1549:
                         695 	.type	.L1549,@object
                         696 	.size	.L1549,0
                         697 	.data
                         698 	.text
                         699 	.align	2
                         700 	.align	2
                         701 ..gh.f.f.1.e.8:
                         702 	.type	..gh.f.f.1.e.8,@object
                         703 	.size	..gh.f.f.1.e.8,0
                         704 	.global	_Fls_Compare
                         705 _Fls_Compare:
                         706 --	    .bf
                         707 .LDW43:
0000036e 0052            708 	mov	0,r10
00000370 e0076001        709 	di
00000374 840705980000*   710 	ld.b	sdaoff23(_Fls_GVar+39)[gp],r19
0000037a 619a            711 	cmp	1,r19
0000037c 8a2d*           712 	bne	.L1664
                         713 --line1690
                         714 ..lin.C.3A.5C_ECU2.5CECU_Rivian_A1.5CTarget.5Crepo_projects.5CpFOTA.5CcL_LATEST.5Cmake.5Cobj.5CFls.52::
                         715 .LDWlin52:
0000037e e041            716 	cmp	zero,r8
00000380 e2570000        717 	setfe	r10
00000384 c225*           718 	be	.L1664
                         719 --line1712
                         720 ..lin.C.3A.5C_ECU2.5CECU_Rivian_A1.5CTarget.5Crepo_projects.5CpFOTA.5CcL_LATEST.5Cmake.5Cobj.5CFls.53::
                         721 .LDWlin53:
00000386 463620ff        722 	movhi	65312,r6,r6
0000038a 3e0600000000*   723 	mov	sdaoff23(_Fls_GVar),ep
00000390 c69e0300        724 	andi	3,r6,r19
00000394 a503            725 	sst.b	zero,37[ep]
00000396 0535            726 	sst.w	r6,8[ep]
00000398 0f45            727 	sst.w	r8,28[ep]
0000039a a09b            728 	sst.b	r19,32[ep]
0000039c e205*           729 	be	.L1657
                         730 --line1789
                         731 ..lin.C.3A.5C_ECU2.5CECU_Rivian_A1.5CTarget.5Crepo_projects.5CpFOTA.5CcL_LATEST.5Cmake.5Cobj.5CFls.54::
                         732 .LDWlin54:
0000039e b331            733 	sub	r19,r6
000003a0 84070f300000*   734 	st.w	r6,sdaoff23(_Fls_GVar+8)[gp]
000003a6 d341            735 	add	r19,r8
                         736 .L1657:
000003a8 c84e0300        737 	andi	3,r8,r9
000003ac c205*           738 	be	.L1661
                         739 --line1800
                         740 ..lin.C.3A.5C_ECU2.5CECU_Rivian_A1.5CTarget.5Crepo_projects.5CpFOTA.5CcL_LATEST.5Cmake.5Cobj.5CFls.55::
                         741 .LDWlin55:
000003ae 0492            742 	mov	4,r18
000003b0 a991            743 	sub	r9,r18

                                                                      Page 14
                                                              C:\Users\nhuliyap\AppData\Local\Temp\gh_00000r41.s
000003b2 d241            744 	add	r18,r8
                         745 .L1661:
000003b4 0d45            746 	sst.w	r8,24[ep]
000003b6 320600000000*   747 	mov	sdaoff23(_Fls_GulTempBuffer),r18
000003bc 048a            748 	mov	4,r17
000003be 0242            749 	mov	2,r8
000003c0 0395            750 	sst.w	r18,4[ep]
000003c2 013d            751 	sst.w	r7,0[ep]
000003c4 a48b            752 	sst.b	r17,36[ep]
000003c6 a743            753 	sst.b	r8,39[ep]
000003c8 a643            754 	sst.b	r8,38[ep]
000003ca a803            755 	sst.b	zero,40[ep]
                         756 .L1664:
000003cc e0876001        757 	ei
                         758 --	    .ef
                         759 .LDW53:
000003d0 7f00            760 	jmp	[lp]
                         761 	.type	_Fls_Compare,@function
                         762 	.size	_Fls_Compare,.-_Fls_Compare
                         763 	.align	2
                         764 .LDW63:
                         765 --_LenReturnValue	r10	local
                         766 
                         767 --_SourceAddress	r6	param
                         768 --_TargetAddressPtr	r7	param
                         769 --_Length	r8	param
                         770 
                         771 	.section ".bss","awb"
                         772 .L1766:
                         773 	.type	.L1766,@object
                         774 	.size	.L1766,0
                         775 	.data
                         776 	.text
                         777 	.align	2
                         778 	.align	2
                         779 ..gh.f.f.1.e.9:
                         780 	.type	..gh.f.f.1.e.9,@object
                         781 	.size	..gh.f.f.1.e.9,0
                         782 	.global	_Fls_BlankCheck
                         783 _Fls_BlankCheck:
000003d2 80076100        784 	prepare	{r29,r31},0
                         785 --	    .bf
                         786 .LDW73:
000003d6 e0076001        787 	di
000003da 840705980000*   788 	ld.b	sdaoff23(_Fls_GVar+39)[gp],r19
000003e0 619a            789 	cmp	1,r19
000003e2 9a25*           790 	bne	.L1866
                         791 --line2089
                         792 ..lin.C.3A.5C_ECU2.5CECU_Rivian_A1.5CTarget.5Crepo_projects.5CpFOTA.5CcL_LATEST.5Cmake.5Cobj.5CFls.56::
                         793 .LDWlin56:
000003e4 3e0600000000*   794 	mov	sdaoff23(_Fls_GVar),ep
000003ea 463620ff        795 	movhi	65312,r6,r6
000003ee a503            796 	sst.b	zero,37[ep]
000003f0 0535            797 	sst.w	r6,8[ep]
000003f2 0d3d            798 	sst.w	r7,24[ep]
000003f4 02ea            799 	mov	2,r29
000003f6 3e0600000000*   800 	mov	sdaoff23(_Fls_GstVar),ep
000003fc 409620ff        801 	movhi	hi(-14680064),zero,r18
00000400 80eb            802 	sst.b	r29,0[ep]
00000402 b231            803 	sub	r18,r6
00000404 0535            804 	sst.w	r6,8[ep]

                                                                      Page 15
                                                              C:\Users\nhuliyap\AppData\Local\Temp\gh_00000r41.s
00000406 823a            805 	shr	2,r7
00000408 863c            806 	sst.h	r7,12[ep]
0000040a 8e9b            807 	sst.b	r19,14[ep]
0000040c 1e30            808 	mov	ep,r6
                         809 	jarl	_R_FDL_Execute,lp
                         809 <EXPANSION BEGIN>
                         809 jarl22 _R_FDL_Execute , lp 
0000040e 80ff0000*       809 <EXPANSION END>
                         810 --line2148
                         811 ..lin.C.3A.5C_ECU2.5CECU_Rivian_A1.5CTarget.5Crepo_projects.5CpFOTA.5CcL_LATEST.5Cmake.5Cobj.5CFls.57::
                         812 .LDWlin57:
00000412 0582            813 	mov	5,r16
00000414 3e0600000000*   814 	mov	sdaoff23(_Fls_GVar),ep
0000041a a483            815 	sst.b	r16,36[ep]
0000041c a7eb            816 	sst.b	r29,39[ep]
0000041e a6eb            817 	sst.b	r29,38[ep]
00000420 a803            818 	sst.b	zero,40[ep]
00000422 a903            819 	sst.b	zero,41[ep]
                         820 .L1866:
00000424 e0876001        821 	ei
00000428 0052            822 	mov	0,r10
                         823 --	    .ef
                         824 .LDW83:
0000042a 40067f00        825 	dispose	0,{r29,r31},[lp]
                         826 	.type	_Fls_BlankCheck,@function
                         827 	.size	_Fls_BlankCheck,.-_Fls_BlankCheck
                         828 	.align	2
                         829 .LDW93:
                         830 
                         831 --_TargetAddress	r6	param
                         832 --_Length	r7	param
                         833 
                         834 	.section ".bss","awb"
                         835 .L1899:
                         836 	.type	.L1899,@object
                         837 	.size	.L1899,0
                         838 	.data
                         839 	.text
                         840 	.align	2
                         841 --_Fls_GulTempBuffer	sdaoff23(_Fls_GulTempBuffer)	import
                         842 --_sampleApp_fdlConfig_enu	rosdaoff23(_sampleApp_fdlConfig_enu)	import
                         843 --_Fls_GpConfigPtr	sdaoff23(_Fls_GpConfigPtr)	import
                         844 --_Fls_GstVar	sdaoff23(_Fls_GstVar)	import
                         845 --_Fls_GVar	sdaoff23(_Fls_GVar)	import
                         846 
                         847 	.data
                         848 	.ghsnote version,17
                         849 	.ghsnote tools,3
                         850 	.ghsnote options,144
                         851 	.text
                         852 	.align	2
                         853 ..eof.C.3A.5C_ECU2.5CECU_Rivian_A1.5CTarget.5Crepo_projects.5CpFOTA.5CcL_LATEST.5Cmake.5Cobj.5CFls...43.3A.5C_ECU2.5CECU_Rivian_A1.5CTarget.5Crepo_projects.5CpFOTA.5CcL_LATEST.5Cmake..64F86B42..0::
                         854 .rh850_flags REGMODE32,DATA_ALIGN8,GP_FIX,EP_NONFIX,TP_FIX,REG2_RESERVE,G3K,SDA_EXTRA_REGS_0
