                                                                      Page 1
                                                              C:\Users\nhuliyap\AppData\Local\Temp\gh_00002r81.s
Command Line: C:\GHS\comp_201517\ease850.exe -w -stderr=err/McalCry_KeyManagement.err -elf -b0 -I../source/_common -I../source/common -I../source/ecuabcanif -I../source/ecuabcantrcv -I../source/ecuabcryif -I../source/ecuabfee -I../source/ecuabmemif -I../source/libautosar -I../source/mcalcan -I../source/mcalcry -I../source/mcaldio -I../source/mcaleep -I../source/mcalfls -I../source/mcalmcu -I../source/projectara -I../source/projectcfg -I../source/projectcompiler -I../source/swcservicebswm -I../source/swcservicecantp -I../source/swcservicecomm -I../source/swcservicecsm -I../source/swcservicedcm -I../source/swcservicedem -I../source/swcservicedet -I../source/swcserviceecum -I../source/swcservicenvm -I../source/swcserviceos -I../source/swcservicepdur -I../source/swcserviceschm -I../source/swcservicestartup -I../source/wrappers/swcservicesecm -I../source/wrappers/vsecprim -I../source/wrappers/vstdlib -Ic:/ghs/comp_201517/ansi -Ic:/ghs/comp_201517/include/v800 -Igendata -IC:\GHS\comp_201517\lib\rh850 -cg_underscore -cpu=rh850g3k -nofpu -no_v850_simd -rh850_fpsimd=none -nomacro -patch_dbo=C:\_ECU2\ECU_Rivian_A1\Target\repo_projects\pFOTA\cL_LATEST\make\obj\McalCry_KeyManagement.dbo -source=McalCry_KeyManagement.c -o obj\gh_00002r81.o -list=lst/McalCry_KeyManagement.lst C:\Users\nhuliyap\AppData\Local\Temp\gh_00002r81.s 
Original File: C:\Users\nhuliyap\AppData\Local\Temp\gh_00002r81.s
Source File: McalCry_KeyManagement.c
Directory: C:\_ECU2\ECU_Rivian_A1\Target\repo_projects\pFOTA\cL_LATEST\make
Host OS: Windows
EASE: Copyright (C) 1983-2015 Green Hills Software.  All Rights Reserved.
Release: Compiler v2015.1.7
Build Directory: [Directory] BTOWORKER6:c:/build_2015_1_bto/2015-10-21.2100-2015_1_bto/win32-comp-ecom
Revision: [VCInfo] http://toolsvc/branches/release-branch-70-bto/src@544153 (built by build)
Revision Date: Thu Oct 22 07:50:13 2015

Release Date: Thu Oct 22 09:32:32 2015

                           1 --Driver Command: ccrh850 -DBRS_DERIVATIVE_701018 -DBRS_OSC_CLK=16
                           2 --		-DBRS_TIMEBASE_CLOCK=80 -DBRS_EVA_BOARD_
                           3 --		-DBRS_DERIVATIVE_GROUP_F1L -DBRS_OS_USECASE_BRS
                           4 --		-DBRS_PLATFORM_RH850 -DBRS_COMP_GHS
                           5 --		-DBRS_CPU_LOCAL_RAM_SIZE_CORE0=32
                           6 --		-DBRS_CPU_RAM_START_CORE0=0xFEDF8000
                           7 --		-list=lst/McalCry_KeyManagement.lst -object_dir=obj
                           8 --		-stderr=err/McalCry_KeyManagement.err -c -cpu=rh850 -sda=all
                           9 --		-large_sda -prepare_dispose -pragma_asm_inline -no_callt
                          10 --		-inline_prologue -notda -reserve_r2 -fsoft
                          11 --		--unknown_pragma_warnings -list -g -Ogeneral -shortenum
                          12 --		-registermode=32 -I../source/_common -I../source/common
                          13 --		-I../source/ecuabcanif -I../source/ecuabcantrcv
                          14 --		-I../source/ecuabcryif -I../source/ecuabfee
                          15 --		-I../source/ecuabmemif -I../source/libautosar -I../source/mcalcan
                          16 --		-I../source/mcalcry -I../source/mcaldio -I../source/mcaleep
                          17 --		-I../source/mcalfls -I../source/mcalmcu -I../source/projectara
                          18 --		-I../source/projectcfg -I../source/projectcompiler
                          19 --		-I../source/swcservicebswm -I../source/swcservicecantp
                          20 --		-I../source/swcservicecomm -I../source/swcservicecsm
                          21 --		-I../source/swcservicedcm -I../source/swcservicedem
                          22 --		-I../source/swcservicedet -I../source/swcserviceecum
                          23 --		-I../source/swcservicenvm -I../source/swcserviceos
                          24 --		-I../source/swcservicepdur -I../source/swcserviceschm
                          25 --		-I../source/swcservicestartup -I../source/wrappers/swcservicesecm
                          26 --		-I../source/wrappers/vsecprim -I../source/wrappers/vstdlib
                          27 --		-Ic:/ghs/comp_201517/ansi -Ic:/ghs/comp_201517/include/v800
                          28 --		-Igendata ../source/McalCry/McalCry_KeyManagement.c
                          29 --Source File:   ../source/McalCry/McalCry_KeyManagement.c
                          30 --Directory:     
                          31 --		C:\_ECU2\ECU_Rivian_A1\Target\repo_projects\pFOTA\cL_LATEST\make
                          32 --Compile Date:  Wed Sep 06 14:06:43 2023
                          33 --Host OS:       Win32
                          34 --Version:       C-RH850 2015.1.7 RELEASE VERSION
                          35 --Release:       Compiler v2015.1.7
                          36 --Revision Date: Thu Oct 22 08:06:12 2015
                          37 --Release Date:  Thu Oct 22 09:34:32 2015
                          38 -- ecom  -g -w -OM
                          39 	.section ".MSR_CODE","ax"
                          40 	.align	2
                          41 	.align	2
                          42 ..bof.C.3A.5C_ECU2.5CECU_Rivian_A1.5CTarget.5Crepo_projects.5CpFOTA.5CcL_LATEST.5Cmake.5Cobj.5CMcalCry_KeyManagement...43.3A.5C_ECU2.5CECU_Rivian_A1.5CTarget.5Crepo_projects.5CpFOTA.5CcL_LATEST.5Cmake..64F86B54..0::
                          43 	.align	2
                          44 ..gh.f.f.1.e.0:
                          45 	.type	..gh.f.f.1.e.0,@object
                          46 	.size	..gh.f.f.1.e.0,0
                          47 	.global	_McalCry_SetKeyElementWrittenLength
                          48 _McalCry_SetKeyElementWrittenLength:
00000000 8600             49 	zxb	r6
                          50 --	    .bf

                                                                      Page 2
                                                              C:\Users\nhuliyap\AppData\Local\Temp\gh_00002r81.s
                          51 .LDW01:
00000002 e6f60600         52 	mulhi	6,r6,ep
00000006 c5f1             53 	add	r5,ep
00000008 be0707300000*    54 	ld.hu	rosdaoff23(_McalCry_KeyElements+2)[ep],r6
0000000e 3e0600000000*    55 	mov	sdaoff23(_McalCry_KeyStorage),ep
00000014 0696fcff         56 	addi	-4,r6,r18
00000018 d200             57 	zxh	r18
0000001a d2f1             58 	add	r18,ep
0000001c 0790             59 	mov	r7,r18
0000001e 8892             60 	shr	8,r18
00000020 8093             61 	sst.b	r18,0[ep]
00000022 813b             62 	sst.b	r7,1[ep]
                          63 --	    .ef
                          64 .LDW11:
00000024 7f00             65 	jmp	[lp]
                          66 	.type	_McalCry_SetKeyElementWrittenLength,@function
                          67 	.size	_McalCry_SetKeyElementWrittenLength,.-_McalCry_SetKeyElementWrittenLength
                          68 	.align	2
                          69 .LDW21:
                          70 
                          71 --_keyElementIndex	r6	param
                          72 --_keyElementLength	r7	param
                          73 
                          74 	.section ".bss","awb"
                          75 .L129:
                          76 	.type	.L129,@object
                          77 	.size	.L129,0
                          78 	.data
                          79 	.section ".MSR_CODE","ax"
                          80 	.align	2
                          81 	.align	2
                          82 ..gh.f.f.1.e.1:
                          83 	.type	..gh.f.f.1.e.1,@object
                          84 	.size	..gh.f.f.1.e.1,0
                          85 	.global	_McalCry_SetKeyElementWrittenLengthWithCryptoKeyId
                          86 _McalCry_SetKeyElementWrittenLengthWithCryptoKeyId:
00000026 0730             87 	mov	r7,r6
00000028 8600             88 	zxb	r6
                          89 --	    .bf
                          90 .LDW31:
0000002a 0838             91 	mov	r8,r7
0000002c bf07d4ff*        92 	jr	_McalCry_SetKeyElementWrittenLength
                          93 --	    .ef
                          94 .LDW41:
                          95 	.type	_McalCry_SetKeyElementWrittenLengthWithCryptoKeyId,@function
                          96 	.size	_McalCry_SetKeyElementWrittenLengthWithCryptoKeyId,.-_McalCry_SetKeyElementWrittenLengthWithCryptoKeyId
                          97 	.align	2
                          98 .LDW51:
                          99 
                         100 --_cryptoKeyId	none	param
                         101 --_keyElementIndex	r7	param
                         102 --_keyElementLength	r8	param
                         103 
                         104 	.section ".bss","awb"
                         105 .L177:
                         106 	.type	.L177,@object
                         107 	.size	.L177,0
                         108 	.data
                         109 	.section ".MSR_CODE","ax"
                         110 	.align	2
                         111 	.align	2

                                                                      Page 3
                                                              C:\Users\nhuliyap\AppData\Local\Temp\gh_00002r81.s
                         112 ..gh.f.f.1.e.2:
                         113 	.type	..gh.f.f.1.e.2,@object
                         114 	.size	..gh.f.f.1.e.2,0
                         115 	.global	_McalCry_SetKeyElementWrittenLengthWithCryptoKeyIdSearch
                         116 _McalCry_SetKeyElementWrittenLengthWithCryptoKeyIdSearch:
00000030 0670            117 	mov	r6,r14
00000032 8e00            118 	zxb	r14
00000034 0740            119 	mov	r7,r8
                         120 --	    .bf
                         121 .LDW61:
00000036 6b72            122 	cmp	11,r14
00000038 009a            123 	mov	0,r19
0000003a 0692            124 	mov	6,r18
0000003c b91d*           125 	bnl	.L196
                         126 .L204:
0000003e 1230            127 	mov	r18,r6
00000040 d331            128 	add	r19,r6
00000042 8132            129 	shr	1,r6
00000044 06f0            130 	mov	r6,ep
00000046 c1f2            131 	shl	1,ep
00000048 270600000000*   132 	mov	rosdaoff23(_McalCry_Key),r7
0000004e c7f1            133 	add	r7,ep
00000050 6180            134 	sld.bu	1[ep],r16
00000052 f071            135 	cmp	r16,r14
00000054 d905*           136 	bnl	.L206
00000056 0696ffff        137 	addi	-1,r6,r18
0000005a 9200            138 	zxb	r18
0000005c 95f5*           139 	br	.L204
                         140 .L206:
0000005e 6078            141 	sld.bu	0[ep],r15
00000060 ef71            142 	cmp	r15,r14
00000062 d105*           143 	bl	.L208
00000064 069e0100        144 	addi	1,r6,r19
00000068 9300            145 	zxb	r19
0000006a a5ed*           146 	br	.L204
                         147 .L208:
                         148 --line546
                         149 ..lin.C.3A.5C_ECU2.5CECU_Rivian_A1.5CTarget.5Crepo_projects.5CpFOTA.5CcL_LATEST.5Cmake.5Cobj.5CMcalCry_KeyManagement.1::
                         150 .LDWlin1:
0000006c 0e38            151 	mov	r14,r7
0000006e bf07b8ff*       152 	jr	_McalCry_SetKeyElementWrittenLengthWithCryptoKeyId
                         153 .L196:
                         154 --	    .ef
                         155 .LDW71:
                         156 --line548
                         157 ..lin.C.3A.5C_ECU2.5CECU_Rivian_A1.5CTarget.5Crepo_projects.5CpFOTA.5CcL_LATEST.5Cmake.5Cobj.5CMcalCry_KeyManagement.2::
                         158 .LDWlin2:
00000072 7f00            159 	jmp	[lp]
                         160 	.type	_McalCry_SetKeyElementWrittenLengthWithCryptoKeyIdSearch,@function
                         161 	.size	_McalCry_SetKeyElementWrittenLengthWithCryptoKeyIdSearch,.-_McalCry_SetKeyElementWrittenLengthWithCryptoKeyIdSearch
                         162 	.align	2
                         163 .LDW81:
                         164 --_cryptoKeyId	r6	local
                         165 --_minKey	r19	local
                         166 --_maxKey	r18	local
                         167 --_middleKey	r6	local
                         168 
                         169 --_keyElementIndex	r14	param
                         170 --_keyElementLength	r8	param
                         171 
                         172 	.section ".bss","awb"

                                                                      Page 4
                                                              C:\Users\nhuliyap\AppData\Local\Temp\gh_00002r81.s
                         173 .L304:
                         174 	.type	.L304,@object
                         175 	.size	.L304,0
                         176 	.data
                         177 	.section ".MSR_CODE","ax"
                         178 	.align	2
                         179 	.align	2
                         180 ..gh.f.f.1.e.3:
                         181 	.type	..gh.f.f.1.e.3,@object
                         182 	.size	..gh.f.f.1.e.3,0
                         183 	.global	_McalCry_Local_SetKeyElementStateWritten
                         184 _McalCry_Local_SetKeyElementStateWritten:
00000074 8600            185 	zxb	r6
                         186 --	    .bf
                         187 .LDW91:
00000076 e6960600        188 	mulhi	6,r6,r18
0000007a 05f0            189 	mov	r5,ep
0000007c d2f1            190 	add	r18,ep
0000007e be0707880000*   191 	ld.hu	rosdaoff23(_McalCry_KeyElements+2)[ep],r17
00000084 3e0600000000*   192 	mov	sdaoff23(_McalCry_KeyStorage),ep
0000008a c591            193 	add	r5,r18
0000008c 119efeff        194 	addi	-2,r17,r19
00000090 d300            195 	zxh	r19
00000092 d3f1            196 	add	r19,ep
00000094 8003            197 	sst.b	zero,0[ep]
00000096 b20705780000*   198 	ld.bu	rosdaoff23(_McalCry_KeyElementInfo+3)[r18],r15
0000009c 837a            199 	shr	3,r15
0000009e c905*           200 	bnl	.L388
                         201 --line568
                         202 ..lin.C.3A.5C_ECU2.5CECU_Rivian_A1.5CTarget.5Crepo_projects.5CpFOTA.5CcL_LATEST.5Cmake.5Cobj.5CMcalCry_KeyManagement.3::
                         203 .LDWlin3:
000000a0 20768000        204 	movea	128,zero,r14
000000a4 8073            205 	sst.b	r14,0[ep]
                         206 .L388:
                         207 --	    .ef
                         208 .LDW02:
000000a6 7f00            209 	jmp	[lp]
                         210 	.type	_McalCry_Local_SetKeyElementStateWritten,@function
                         211 	.size	_McalCry_Local_SetKeyElementStateWritten,.-_McalCry_Local_SetKeyElementStateWritten
                         212 	.align	2
                         213 .LDW12:
                         214 
                         215 --_elementIndex	r6	param
                         216 
                         217 	.section ".bss","awb"
                         218 .L422:
                         219 	.type	.L422,@object
                         220 	.size	.L422,0
                         221 	.data
                         222 	.section ".MSR_CODE","ax"
                         223 	.align	2
                         224 	.align	2
                         225 ..gh.f.f.1.e.4:
                         226 	.type	..gh.f.f.1.e.4,@object
                         227 	.size	..gh.f.f.1.e.4,0
                         228 	.global	_McalCry_SetKeyState
                         229 _McalCry_SetKeyState:
                         230 --	    .bf
                         231 .LDW22:
000000a8 c132            232 	shl	1,r6
000000aa 330600000000*   233 	mov	rosdaoff23(_McalCry_Key),r19

                                                                      Page 5
                                                              C:\Users\nhuliyap\AppData\Local\Temp\gh_00002r81.s
000000b0 d331            234 	add	r19,r6
000000b2 a69f0100        235 	ld.bu	1[r6],r19
000000b6 a515*           236 	br	.L460
                         237 .L459:
                         238 --line584
                         239 ..lin.C.3A.5C_ECU2.5CECU_Rivian_A1.5CTarget.5Crepo_projects.5CpFOTA.5CcL_LATEST.5Cmake.5Cobj.5CMcalCry_KeyManagement.4::
                         240 .LDWlin4:
000000b8 f3f60600        241 	mulhi	6,r19,ep
000000bc 419a            242 	add	1,r19
000000be c5f1            243 	add	r5,ep
000000c0 be0707880000*   244 	ld.hu	rosdaoff23(_McalCry_KeyElements+2)[ep],r17
000000c6 3e0600000000*   245 	mov	sdaoff23(_McalCry_KeyStorage),ep
000000cc 1186feff        246 	addi	-2,r17,r16
000000d0 d000            247 	zxh	r16
000000d2 d0f1            248 	add	r16,ep
000000d4 6090            249 	sld.bu	0[ep],r18
000000d6 0791            250 	or	r7,r18
000000d8 8093            251 	sst.b	r18,0[ep]
                         252 .L460:
000000da 867f0100        253 	ld.bu	0[r6],r15
000000de ef99            254 	cmp	r15,r19
000000e0 c1ed*           255 	bl	.L459
                         256 --line596
                         257 ..lin.C.3A.5C_ECU2.5CECU_Rivian_A1.5CTarget.5Crepo_projects.5CpFOTA.5CcL_LATEST.5Cmake.5Cobj.5CMcalCry_KeyManagement.5::
                         258 .LDWlin5:
000000e2 0052            259 	mov	0,r10
                         260 --	    .ef
                         261 .LDW32:
000000e4 7f00            262 	jmp	[lp]
                         263 	.type	_McalCry_SetKeyState,@function
                         264 	.size	_McalCry_SetKeyState,.-_McalCry_SetKeyState
                         265 	.align	2
                         266 .LDW42:
                         267 --_elementIndex	r19	local
                         268 
                         269 --_cryptoKeyId	r6	param
                         270 --_mask	r7	param
                         271 
                         272 	.section ".bss","awb"
                         273 .L496:
                         274 	.type	.L496,@object
                         275 	.size	.L496,0
                         276 	.data
                         277 	.section ".MSR_CODE","ax"
                         278 	.align	2
                         279 	.align	2
                         280 ..gh.f.f.1.e.5:
                         281 	.type	..gh.f.f.1.e.5,@object
                         282 	.size	..gh.f.f.1.e.5,0
                         283 	.global	_McalCry_Local_KeyElementCopy_RightsCheck..C.3A.5C_ECU2.5CECU_Rivian_A1.5CTarget.5Crepo_projects.5CpFOTA.5CcL_LATEST.5Cmake.5Cobj.5CMcalCry_KeyManagement.
                         284 _McalCry_Local_KeyElementCopy_RightsCheck..C.3A.5C_ECU2.5CECU_Rivian_A1.5CTarget.5Crepo_projects.5CpFOTA.5CcL_LATEST.5Cmake.5Cobj.5CMcalCry_KeyManagement.:
                         285 _McalCry_Local_KeyElementCopy_RightsCheck:
000000e6 8600            286 	zxb	r6
                         287 --	    .bf
                         288 .LDW52:
000000e8 e6f60600        289 	mulhi	6,r6,ep
000000ec 330600000000*   290 	mov	rosdaoff23(_McalCry_KeyElementInfo),r19
000000f2 d3f1            291 	add	r19,ep
000000f4 6440            292 	sld.bu	4[ep],r8
000000f6 6342            293 	cmp	3,r8
000000f8 f21d*           294 	be	.L544

                                                                      Page 6
                                                              C:\Users\nhuliyap\AppData\Local\Temp\gh_00002r81.s
000000fa 8700            295 	zxb	r7
000000fc e74e0600        296 	mulhi	6,r7,r9
00000100 13f0            297 	mov	r19,ep
00000102 c9f1            298 	add	r9,ep
00000104 6490            299 	sld.bu	4[ep],r18
00000106 f241            300 	cmp	r18,r8
00000108 e6071653        301 	cmovh	6,zero,r10
0000010c 8b1d*           302 	bh	.L541
                         303 --line609
                         304 ..lin.C.3A.5C_ECU2.5CECU_Rivian_A1.5CTarget.5Crepo_projects.5CpFOTA.5CcL_LATEST.5Cmake.5Cobj.5CMcalCry_KeyManagement.6::
                         305 .LDWlin6:
0000010e 6588            306 	sld.bu	5[ep],r17
00000110 638a            307 	cmp	3,r17
00000112 c215*           308 	be	.L551
                         309 --line613
                         310 ..lin.C.3A.5C_ECU2.5CECU_Rivian_A1.5CTarget.5Crepo_projects.5CpFOTA.5CcL_LATEST.5Cmake.5Cobj.5CMcalCry_KeyManagement.7::
                         311 .LDWlin7:
00000114 05f0            312 	mov	r5,ep
00000116 c9f1            313 	add	r9,ep
00000118 be0707380000*   314 	ld.hu	rosdaoff23(_McalCry_KeyElements+2)[ep],r7
0000011e 3e0600000000*   315 	mov	sdaoff23(_McalCry_KeyStorage),ep
00000124 0786feff        316 	addi	-2,r7,r16
00000128 d000            317 	zxh	r16
0000012a d0f1            318 	add	r16,ep
0000012c deff0000        319 	tst1	7,0[ep]
00000130 e7571453        320 	cmovne	7,r10,r10
00000134 7f00            321 	jmp	[lp]
                         322 .L544:
                         323 --line606
                         324 ..lin.C.3A.5C_ECU2.5CECU_Rivian_A1.5CTarget.5Crepo_projects.5CpFOTA.5CcL_LATEST.5Cmake.5Cobj.5CMcalCry_KeyManagement.8::
                         325 .LDWlin8:
00000136 0652            326 	mov	6,r10
00000138 7f00            327 	jmp	[lp]
                         328 .L551:
                         329 --line614
                         330 ..lin.C.3A.5C_ECU2.5CECU_Rivian_A1.5CTarget.5Crepo_projects.5CpFOTA.5CcL_LATEST.5Cmake.5Cobj.5CMcalCry_KeyManagement.9::
                         331 .LDWlin9:
0000013a 0752            332 	mov	7,r10
                         333 .L541:
                         334 --	    .ef
                         335 .LDW62:
0000013c 7f00            336 	jmp	[lp]
                         337 	.type	_McalCry_Local_KeyElementCopy_RightsCheck,@function
                         338 	.size	_McalCry_Local_KeyElementCopy_RightsCheck,.-_McalCry_Local_KeyElementCopy_RightsCheck
                         339 	.type	_McalCry_Local_KeyElementCopy_RightsCheck..C.3A.5C_ECU2.5CECU_Rivian_A1.5CTarget.5Crepo_projects.5CpFOTA.5CcL_LATEST.5Cmake.5Cobj.5CMcalCry_KeyManagement.,@function
                         340 	.size	_McalCry_Local_KeyElementCopy_RightsCheck..C.3A.5C_ECU2.5CECU_Rivian_A1.5CTarget.5Crepo_projects.5CpFOTA.5CcL_LATEST.5Cmake.5Cobj.5CMcalCry_KeyManagement.,.-_McalCry_Local_KeyElementCopy_RightsCheck..C.3A.5C_ECU2.5CECU_Rivian_A1.5CTarget.5Crepo_projects.5CpFOTA.5CcL_LATEST.5Cmake.5Cobj.5CMcalCry_KeyManagement.
                         341 	.align	2
                         342 .LDW72:
                         343 --_retVal	r10	local
                         344 
                         345 --_elementIndexSrc	r6	param
                         346 --_elementIndexDst	r7	param
                         347 
                         348 	.section ".bss","awb"
                         349 .L627:
                         350 	.type	.L627,@object
                         351 	.size	.L627,0
                         352 	.data
                         353 	.section ".MSR_CODE","ax"
                         354 	.align	2
                         355 	.align	2

                                                                      Page 7
                                                              C:\Users\nhuliyap\AppData\Local\Temp\gh_00002r81.s
                         356 ..gh.f.f.1.e.6:
                         357 	.type	..gh.f.f.1.e.6,@object
                         358 	.size	..gh.f.f.1.e.6,0
                         359 	.global	_McalCry_Local_KeyElementCopy..C.3A.5C_ECU2.5CECU_Rivian_A1.5CTarget.5Crepo_projects.5CpFOTA.5CcL_LATEST.5Cmake.5Cobj.5CMcalCry_KeyManagement.
                         360 _McalCry_Local_KeyElementCopy..C.3A.5C_ECU2.5CECU_Rivian_A1.5CTarget.5Crepo_projects.5CpFOTA.5CcL_LATEST.5Cmake.5Cobj.5CMcalCry_KeyManagement.:
                         361 _McalCry_Local_KeyElementCopy:
0000013e 8007e130        362 	prepare	{r26,r27,r28,r29,r31},0
00000142 8600            363 	zxb	r6
00000144 8700            364 	zxb	r7
00000146 08d0            365 	mov	r8,r26
                         366 --	    .bf
                         367 .LDW82:
00000148 06e8            368 	mov	r6,r29
0000014a 07e0            369 	mov	r7,r28
                         370 	jarl	_McalCry_Local_KeyElementCopy_RightsCheck,lp
                         370 <EXPANSION BEGIN>
                         370 jarl22 _McalCry_Local_KeyElementCopy_RightsCheck , lp 
0000014c bfff9aff*       370 <EXPANSION END>
                         371 --line641
                         372 ..lin.C.3A.5C_ECU2.5CECU_Rivian_A1.5CTarget.5Crepo_projects.5CpFOTA.5CcL_LATEST.5Cmake.5Cobj.5CMcalCry_KeyManagement.10::
                         373 .LDWlin10:
00000150 e051            374 	cmp	zero,r10
00000152 aa45*           375 	bne	.L704
                         376 --line645
                         377 ..lin.C.3A.5C_ECU2.5CECU_Rivian_A1.5CTarget.5Crepo_projects.5CpFOTA.5CcL_LATEST.5Cmake.5Cobj.5CMcalCry_KeyManagement.11::
                         378 .LDWlin11:
00000154 fdf60600        379 	mulhi	6,r29,ep
00000158 2e0600000000*   380 	mov	rosdaoff23(_McalCry_KeyElements),r14
0000015e 3d0600000000*   381 	mov	sdaoff23(_McalCry_KeyStorage),r29
00000164 fc8e0600        382 	mulhi	6,r28,r17
00000168 cef1            383 	add	r14,ep
0000016a 7138            384 	sld.hu	2[ep],r7
0000016c 076efcff        385 	addi	-4,r7,r13
00000170 cd00            386 	zxh	r13
00000172 cde9            387 	add	r13,r29
00000174 1df0            388 	mov	r29,ep
00000176 6030            389 	sld.bu	0[ep],r6
00000178 6140            390 	sld.bu	1[ep],r8
0000017a 3e0600000000*   391 	mov	rosdaoff23(_McalCry_KeyElementInfo),ep
00000180 d1f1            392 	add	r17,ep
00000182 7080            393 	sld.hu	0[ep],r16
00000184 c832            394 	shl	8,r6
00000186 1dde0100        395 	addi	1,r29,r27
0000018a 0641            396 	or	r6,r8
0000018c f041            397 	cmp	r16,r8
0000018e f205*           398 	be	.L709
00000190 6398            399 	sld.bu	3[ep],r19
00000192 819a            400 	shr	1,r19
00000194 819a            401 	shr	1,r19
00000196 d91d*           402 	bnl	.L708
00000198 f041            403 	cmp	r16,r8
0000019a bb1d*           404 	bh	.L708
                         405 .L709:
                         406 --line652
                         407 ..lin.C.3A.5C_ECU2.5CECU_Rivian_A1.5CTarget.5Crepo_projects.5CpFOTA.5CcL_LATEST.5Cmake.5Cobj.5CMcalCry_KeyManagement.12::
                         408 .LDWlin12:
0000019c 0ef0            409 	mov	r14,ep
0000019e d1f1            410 	add	r17,ep
000001a0 7130            411 	sld.hu	2[ep],r6
000001a2 2f0600000000*   412 	mov	sdaoff23(_McalCry_KeyStorage),r15
000001a8 cf39            413 	add	r15,r7

                                                                      Page 8
                                                              C:\Users\nhuliyap\AppData\Local\Temp\gh_00002r81.s
000001aa cf31            414 	add	r15,r6
                         415 	jarl	_VStdLib_MemCpy,lp
                         415 <EXPANSION BEGIN>
                         415 jarl22 _VStdLib_MemCpy , lp 
000001ac 80ff0000*       415 <EXPANSION END>
                         416 --line654
                         417 ..lin.C.3A.5C_ECU2.5CECU_Rivian_A1.5CTarget.5Crepo_projects.5CpFOTA.5CcL_LATEST.5Cmake.5Cobj.5CMcalCry_KeyManagement.13::
                         418 .LDWlin13:
000001b0 9d970100        419 	ld.bu	0[r29],r18
000001b4 9b470100        420 	ld.bu	0[r27],r8
000001b8 1a30            421 	mov	r26,r6
000001ba 1c38            422 	mov	r28,r7
000001bc c892            423 	shl	8,r18
000001be 1241            424 	or	r18,r8
                         425 	jarl	_McalCry_SetKeyElementWrittenLengthWithCryptoKeyId,lp
                         425 <EXPANSION BEGIN>
                         425 jarl22 _McalCry_SetKeyElementWrittenLengthWithCryptoKeyId , lp 
000001c0 bfff66fe*       425 <EXPANSION END>
                         426 --line655
                         427 ..lin.C.3A.5C_ECU2.5CECU_Rivian_A1.5CTarget.5Crepo_projects.5CpFOTA.5CcL_LATEST.5Cmake.5Cobj.5CMcalCry_KeyManagement.14::
                         428 .LDWlin14:
000001c4 1c30            429 	mov	r28,r6
                         430 	jarl	_McalCry_Local_SetKeyElementStateWritten,lp
                         430 <EXPANSION BEGIN>
                         430 jarl22 _McalCry_Local_SetKeyElementStateWritten , lp 
000001c6 bfffaefe*       430 <EXPANSION END>
                         431 --line657
                         432 ..lin.C.3A.5C_ECU2.5CECU_Rivian_A1.5CTarget.5Crepo_projects.5CpFOTA.5CcL_LATEST.5Cmake.5Cobj.5CMcalCry_KeyManagement.15::
                         433 .LDWlin15:
000001ca 0052            434 	mov	0,r10
000001cc 4006ff30        435 	dispose	0,{r26,r27,r28,r29,r31},[lp]
                         436 .L708:
                         437 --line661
                         438 ..lin.C.3A.5C_ECU2.5CECU_Rivian_A1.5CTarget.5Crepo_projects.5CpFOTA.5CcL_LATEST.5Cmake.5Cobj.5CMcalCry_KeyManagement.16::
                         439 .LDWlin16:
000001d0 0a52            440 	mov	10,r10
000001d2 4006ff30        441 	dispose	0,{r26,r27,r28,r29,r31},[lp]
                         442 .L704:
                         443 --	    .ef
                         444 .LDW92:
                         445 --line666
                         446 ..lin.C.3A.5C_ECU2.5CECU_Rivian_A1.5CTarget.5Crepo_projects.5CpFOTA.5CcL_LATEST.5Cmake.5Cobj.5CMcalCry_KeyManagement.17::
                         447 .LDWlin17:
000001d6 4006ff30        448 	dispose	0,{r26,r27,r28,r29,r31},[lp]
                         449 	.type	_McalCry_Local_KeyElementCopy,@function
                         450 	.size	_McalCry_Local_KeyElementCopy,.-_McalCry_Local_KeyElementCopy
                         451 	.type	_McalCry_Local_KeyElementCopy..C.3A.5C_ECU2.5CECU_Rivian_A1.5CTarget.5Crepo_projects.5CpFOTA.5CcL_LATEST.5Cmake.5Cobj.5CMcalCry_KeyManagement.,@function
                         452 	.size	_McalCry_Local_KeyElementCopy..C.3A.5C_ECU2.5CECU_Rivian_A1.5CTarget.5Crepo_projects.5CpFOTA.5CcL_LATEST.5Cmake.5Cobj.5CMcalCry_KeyManagement.,.-_McalCry_Local_KeyElementCopy..C.3A.5C_ECU2.5CECU_Rivian_A1.5CTarget.5Crepo_projects.5CpFOTA.5CcL_LATEST.5Cmake.5Cobj.5CMcalCry_KeyManagement.
                         453 	.align	2
                         454 .LDW03:
                         455 --_retVal	r10	local
                         456 
                         457 --_elementIndexSrc	r29	param
                         458 --_elementIndexDst	r28	param
                         459 --_dstCryptoKeyId	r26	param
                         460 
                         461 	.section ".bss","awb"
                         462 .L776:
                         463 	.type	.L776,@object
                         464 	.size	.L776,0
                         465 	.data

                                                                      Page 9
                                                              C:\Users\nhuliyap\AppData\Local\Temp\gh_00002r81.s
                         466 	.section ".MSR_CODE","ax"
                         467 	.align	2
                         468 	.align	2
                         469 ..gh.f.f.1.e.7:
                         470 	.type	..gh.f.f.1.e.7,@object
                         471 	.size	..gh.f.f.1.e.7,0
                         472 	.global	_McalCry_Local_KeyElementCopyPartial..C.3A.5C_ECU2.5CECU_Rivian_A1.5CTarget.5Crepo_projects.5CpFOTA.5CcL_LATEST.5Cmake.5Cobj.5CMcalCry_KeyManagement.
                         473 _McalCry_Local_KeyElementCopyPartial..C.3A.5C_ECU2.5CECU_Rivian_A1.5CTarget.5Crepo_projects.5CpFOTA.5CcL_LATEST.5Cmake.5Cobj.5CMcalCry_KeyManagement.:
                         474 _McalCry_Local_KeyElementCopyPartial:
000001da 8007e3f7        475 	prepare	{r21,r22,r23,r24,r25,r26,r27,r28,r29,r31},0,sp
000001de 8600            476 	zxb	r6
000001e0 8700            477 	zxb	r7
000001e2 08a8            478 	mov	r8,r21
000001e4 09c0            479 	mov	r9,r24
000001e6 14dd            480 	sld.w	40[ep],r27
000001e8 16d5            481 	sld.w	44[ep],r26
                         482 --	    .bf
                         483 .LDW13:
000001ea 06e8            484 	mov	r6,r29
000001ec 07c8            485 	mov	r7,r25
                         486 	jarl	_McalCry_Local_KeyElementCopy_RightsCheck,lp
                         486 <EXPANSION BEGIN>
                         486 jarl22 _McalCry_Local_KeyElementCopy_RightsCheck , lp 
000001ee bffff8fe*       486 <EXPANSION END>
                         487 --line681
                         488 ..lin.C.3A.5C_ECU2.5CECU_Rivian_A1.5CTarget.5Crepo_projects.5CpFOTA.5CcL_LATEST.5Cmake.5Cobj.5CMcalCry_KeyManagement.18::
                         489 .LDWlin18:
000001f2 e051            490 	cmp	zero,r10
000001f4 ba6d*           491 	bne	.L853
                         492 --line684
                         493 ..lin.C.3A.5C_ECU2.5CECU_Rivian_A1.5CTarget.5Crepo_projects.5CpFOTA.5CcL_LATEST.5Cmake.5Cobj.5CMcalCry_KeyManagement.19::
                         494 .LDWlin19:
000001f6 fdf60600        495 	mulhi	6,r29,ep
000001fa 2d0600000000*   496 	mov	rosdaoff23(_McalCry_KeyElements),r13
00000200 f9760600        497 	mulhi	6,r25,r14
00000204 320600000000*   498 	mov	sdaoff23(_McalCry_KeyStorage),r18
0000020a cdf1            499 	add	r13,ep
0000020c 7138            500 	sld.hu	2[ep],r7
0000020e 128e0100        501 	addi	1,r18,r17
00000212 0d52            502 	mov	13,r10
00000214 07f6fcff        503 	addi	-4,r7,ep
00000218 de00            504 	zxh	ep
0000021a d2f1            505 	add	r18,ep
0000021c 6030            506 	sld.bu	0[ep],r6
0000021e 6148            507 	sld.bu	1[ep],r9
00000220 0ef0            508 	mov	r14,ep
00000222 cdf1            509 	add	r13,ep
00000224 7140            510 	sld.hu	2[ep],r8
00000226 c832            511 	shl	8,r6
00000228 0866fcff        512 	addi	-4,r8,r12
0000022c cc00            513 	zxh	r12
0000022e cc91            514 	add	r12,r18
00000230 929f0100        515 	ld.bu	0[r18],r19
00000234 cc89            516 	add	r12,r17
00000236 91ef0100        517 	ld.bu	0[r17],r29
0000023a c89a            518 	shl	8,r19
0000023c 13e9            519 	or	r19,r29
0000023e 0649            520 	or	r6,r9
00000240 d245*           521 	be	.L853
                         522 --line691
                         523 ..lin.C.3A.5C_ECU2.5CECU_Rivian_A1.5CTarget.5Crepo_projects.5CpFOTA.5CcL_LATEST.5Cmake.5Cobj.5CMcalCry_KeyManagement.20::

                                                                      Page 10
                                                              C:\Users\nhuliyap\AppData\Local\Temp\gh_00002r81.s
                         524 .LDWlin20:
00000242 3e0600000000*   525 	mov	rosdaoff23(_McalCry_KeyElementInfo),ep
00000248 cef1            526 	add	r14,ep
0000024a 6380            527 	sld.bu	3[ep],r16
0000024c 8182            528 	shr	1,r16
0000024e 8182            529 	shr	1,r16
00000250 a93d*           530 	bnl	.L860
00000252 1a78            531 	mov	r26,r15
00000254 d879            532 	add	r24,r15
00000256 e979            533 	cmp	r9,r15
00000258 eb35*           534 	bh	.L860
0000025a 3830            535 	not	r24,r6
0000025c e6d1            536 	cmp	r6,r26
0000025e eb4f0000        537 	setfh	r9
00000262 9b35*           538 	bh	.L860
00000264 7098            539 	sld.hu	0[ep],r19
00000266 1ae0            540 	mov	r26,r28
00000268 dbe1            541 	add	r27,r28
0000026a f3e1            542 	cmp	r19,r28
0000026c cb2d*           543 	bh	.L860
0000026e 3b88            544 	not	r27,r17
00000270 f1d1            545 	cmp	r17,r26
00000272 9b2d*           546 	bh	.L860
                         547 --line700
                         548 ..lin.C.3A.5C_ECU2.5CECU_Rivian_A1.5CTarget.5Crepo_projects.5CpFOTA.5CcL_LATEST.5Cmake.5Cobj.5CMcalCry_KeyManagement.21::
                         549 .LDWlin21:
00000274 07b0            550 	mov	r7,r22
00000276 08b8            551 	mov	r8,r23
00000278 fbe9            552 	cmp	r27,r29
0000027a c90d*           553 	bnl	.L866
                         554 --line705
                         555 ..lin.C.3A.5C_ECU2.5CECU_Rivian_A1.5CTarget.5Crepo_projects.5CpFOTA.5CcL_LATEST.5Cmake.5Cobj.5CMcalCry_KeyManagement.22::
                         556 .LDWlin22:
0000027c 1d30            557 	mov	r29,r6
0000027e c831            558 	add	r8,r6
00000280 300600000000*   559 	mov	sdaoff23(_McalCry_KeyStorage),r16
00000286 1b40            560 	mov	r27,r8
00000288 d031            561 	add	r16,r6
0000028a bd41            562 	sub	r29,r8
0000028c 0938            563 	mov	r9,r7
                         564 	jarl	_VStdLib_MemSet,lp
                         564 <EXPANSION BEGIN>
                         564 jarl22 _VStdLib_MemSet , lp 
0000028e 80ff0000*       564 <EXPANSION END>
                         565 .L866:
                         566 --line708
                         567 ..lin.C.3A.5C_ECU2.5CECU_Rivian_A1.5CTarget.5Crepo_projects.5CpFOTA.5CcL_LATEST.5Cmake.5Cobj.5CMcalCry_KeyManagement.23::
                         568 .LDWlin23:
00000292 1b30            569 	mov	r27,r6
00000294 1838            570 	mov	r24,r7
00000296 d731            571 	add	r23,r6
00000298 2b0600000000*   572 	mov	sdaoff23(_McalCry_KeyStorage),r11
0000029e d639            573 	add	r22,r7
000002a0 cb31            574 	add	r11,r6
000002a2 cb39            575 	add	r11,r7
000002a4 1a40            576 	mov	r26,r8
                         577 	jarl	_VStdLib_MemCpy,lp
                         577 <EXPANSION BEGIN>
                         577 jarl22 _VStdLib_MemCpy , lp 
000002a6 80ff0000*       577 <EXPANSION END>
                         578 --line710

                                                                      Page 11
                                                              C:\Users\nhuliyap\AppData\Local\Temp\gh_00002r81.s
                         579 ..lin.C.3A.5C_ECU2.5CECU_Rivian_A1.5CTarget.5Crepo_projects.5CpFOTA.5CcL_LATEST.5Cmake.5Cobj.5CMcalCry_KeyManagement.24::
                         580 .LDWlin24:
000002aa fce9            581 	cmp	r28,r29
000002ac e905*           582 	bnl	.L868
                         583 --line712
                         584 ..lin.C.3A.5C_ECU2.5CECU_Rivian_A1.5CTarget.5Crepo_projects.5CpFOTA.5CcL_LATEST.5Cmake.5Cobj.5CMcalCry_KeyManagement.25::
                         585 .LDWlin25:
000002ae 1530            586 	mov	r21,r6
000002b0 1938            587 	mov	r25,r7
000002b2 1c40            588 	mov	r28,r8
                         589 	jarl	_McalCry_SetKeyElementWrittenLengthWithCryptoKeyId,lp
                         589 <EXPANSION BEGIN>
                         589 jarl22 _McalCry_SetKeyElementWrittenLengthWithCryptoKeyId , lp 
000002b4 bfff72fd*       589 <EXPANSION END>
                         590 .L868:
                         591 --line714
                         592 ..lin.C.3A.5C_ECU2.5CECU_Rivian_A1.5CTarget.5Crepo_projects.5CpFOTA.5CcL_LATEST.5Cmake.5Cobj.5CMcalCry_KeyManagement.26::
                         593 .LDWlin26:
000002b8 1930            594 	mov	r25,r6
                         595 	jarl	_McalCry_Local_SetKeyElementStateWritten,lp
                         595 <EXPANSION BEGIN>
                         595 jarl22 _McalCry_Local_SetKeyElementStateWritten , lp 
000002ba bfffbafd*       595 <EXPANSION END>
                         596 --line716
                         597 ..lin.C.3A.5C_ECU2.5CECU_Rivian_A1.5CTarget.5Crepo_projects.5CpFOTA.5CcL_LATEST.5Cmake.5Cobj.5CMcalCry_KeyManagement.27::
                         598 .LDWlin27:
000002be 0052            599 	mov	0,r10
000002c0 4006fff7        600 	dispose	0,{r21,r22,r23,r24,r25,r26,r27,r28,r29,r31},[lp]
                         601 .L860:
                         602 --line720
                         603 ..lin.C.3A.5C_ECU2.5CECU_Rivian_A1.5CTarget.5Crepo_projects.5CpFOTA.5CcL_LATEST.5Cmake.5Cobj.5CMcalCry_KeyManagement.28::
                         604 .LDWlin28:
000002c4 0a52            605 	mov	10,r10
000002c6 4006fff7        606 	dispose	0,{r21,r22,r23,r24,r25,r26,r27,r28,r29,r31},[lp]
                         607 .L853:
                         608 --	    .ef
                         609 .LDW23:
                         610 --line725
                         611 ..lin.C.3A.5C_ECU2.5CECU_Rivian_A1.5CTarget.5Crepo_projects.5CpFOTA.5CcL_LATEST.5Cmake.5Cobj.5CMcalCry_KeyManagement.29::
                         612 .LDWlin29:
000002ca 4006fff7        613 	dispose	0,{r21,r22,r23,r24,r25,r26,r27,r28,r29,r31},[lp]
                         614 	.type	_McalCry_Local_KeyElementCopyPartial,@function
                         615 	.size	_McalCry_Local_KeyElementCopyPartial,.-_McalCry_Local_KeyElementCopyPartial
                         616 	.type	_McalCry_Local_KeyElementCopyPartial..C.3A.5C_ECU2.5CECU_Rivian_A1.5CTarget.5Crepo_projects.5CpFOTA.5CcL_LATEST.5Cmake.5Cobj.5CMcalCry_KeyManagement.,@function
                         617 	.size	_McalCry_Local_KeyElementCopyPartial..C.3A.5C_ECU2.5CECU_Rivian_A1.5CTarget.5Crepo_projects.5CpFOTA.5CcL_LATEST.5Cmake.5Cobj.5CMcalCry_KeyManagement.,.-_McalCry_Local_KeyElementCopyPartial..C.3A.5C_ECU2.5CECU_Rivian_A1.5CTarget.5Crepo_projects.5CpFOTA.5CcL_LATEST.5Cmake.5Cobj.5CMcalCry_KeyManagement.
                         618 	.align	2
                         619 .LDW33:
                         620 --_retVal	r10	local
                         621 --_keyStorageIndexSrc	r22	local
                         622 --_keyStorageIndexDst	r23	local
                         623 --_writtenLengthSrc	r9	local
                         624 --_writtenLengthDst	r29	local
                         625 
                         626 --_elementIndexSrc	r29	param
                         627 --_elementIndexDst	r25	param
                         628 --_dstCryptoKeyId	r21	param
                         629 --_keyElementSourceOffset	r24	param
                         630 --_keyElementTargetOffset	r27	param
                         631 --_keyElementCopyLength	r26	param
                         632 
                         633 	.section ".bss","awb"

                                                                      Page 12
                                                              C:\Users\nhuliyap\AppData\Local\Temp\gh_00002r81.s
                         634 .L1001:
                         635 	.type	.L1001,@object
                         636 	.size	.L1001,0
                         637 	.data
                         638 	.section ".MSR_CODE","ax"
                         639 	.align	2
                         640 	.align	2
                         641 ..gh.f.f.1.e.8:
                         642 	.type	..gh.f.f.1.e.8,@object
                         643 	.size	..gh.f.f.1.e.8,0
                         644 	.global	_McalCry_Local_KeyReadLockGetNotProtected
                         645 _McalCry_Local_KeyReadLockGetNotProtected:
                         646 --	    .bf
                         647 .LDW43:
000002ce 04f0            648 	mov	gp,ep
000002d0 c6f1            649 	add	r6,ep
000002d2 be0705900000*   650 	ld.bu	sdaoff23(_McalCry_KeyLock)[ep],r18
000002d8 129efeff        651 	addi	-2,r18,r19
000002dc 130603ff        652 	addi	-253,r19,zero
000002e0 910d*           653 	bl	.L1148
                         654 --line2306
                         655 ..lin.C.3A.5C_ECU2.5CECU_Rivian_A1.5CTarget.5Crepo_projects.5CpFOTA.5CcL_LATEST.5Cmake.5Cobj.5CMcalCry_KeyManagement.30::
                         656 .LDWlin30:
000002e2 04f0            657 	mov	gp,ep
000002e4 c6f1            658 	add	r6,ep
000002e6 4192            659 	add	1,r18
000002e8 9e070d900000*   660 	st.b	r18,sdaoff23(_McalCry_KeyLock)[ep]
000002ee 0052            661 	mov	0,r10
000002f0 7f00            662 	jmp	[lp]
                         663 .L1148:
000002f2 0152            664 	mov	1,r10
                         665 --	    .ef
                         666 .LDW53:
                         667 --line2310
                         668 ..lin.C.3A.5C_ECU2.5CECU_Rivian_A1.5CTarget.5Crepo_projects.5CpFOTA.5CcL_LATEST.5Cmake.5Cobj.5CMcalCry_KeyManagement.31::
                         669 .LDWlin31:
000002f4 7f00            670 	jmp	[lp]
                         671 	.type	_McalCry_Local_KeyReadLockGetNotProtected,@function
                         672 	.size	_McalCry_Local_KeyReadLockGetNotProtected,.-_McalCry_Local_KeyReadLockGetNotProtected
                         673 	.align	2
                         674 .LDW63:
                         675 --_retVal	r10	local
                         676 
                         677 --_cryptoKeyId	r6	param
                         678 
                         679 	.section ".bss","awb"
                         680 .L1191:
                         681 	.type	.L1191,@object
                         682 	.size	.L1191,0
                         683 	.data
                         684 	.section ".MSR_CODE","ax"
                         685 	.align	2
                         686 	.align	2
                         687 ..gh.f.f.1.e.9:
                         688 	.type	..gh.f.f.1.e.9,@object
                         689 	.size	..gh.f.f.1.e.9,0
                         690 	.global	_McalCry_Local_KeyReadLockReleaseNotProtected
                         691 _McalCry_Local_KeyReadLockReleaseNotProtected:
                         692 --	    .bf
                         693 .LDW73:
000002f6 04f0            694 	mov	gp,ep

                                                                      Page 13
                                                              C:\Users\nhuliyap\AppData\Local\Temp\gh_00002r81.s
000002f8 c6f1            695 	add	r6,ep
000002fa be0705900000*   696 	ld.bu	sdaoff23(_McalCry_KeyLock)[ep],r18
00000300 6292            697 	cmp	2,r18
00000302 830d*           698 	bnh	.L1233
                         699 --line2316
                         700 ..lin.C.3A.5C_ECU2.5CECU_Rivian_A1.5CTarget.5Crepo_projects.5CpFOTA.5CcL_LATEST.5Cmake.5Cobj.5CMcalCry_KeyManagement.32::
                         701 .LDWlin32:
00000304 04f0            702 	mov	gp,ep
00000306 c6f1            703 	add	r6,ep
00000308 129effff        704 	addi	-1,r18,r19
0000030c 9e070d980000*   705 	st.b	r19,sdaoff23(_McalCry_KeyLock)[ep]
                         706 .L1233:
                         707 --	    .ef
                         708 .LDW83:
00000312 7f00            709 	jmp	[lp]
                         710 	.type	_McalCry_Local_KeyReadLockReleaseNotProtected,@function
                         711 	.size	_McalCry_Local_KeyReadLockReleaseNotProtected,.-_McalCry_Local_KeyReadLockReleaseNotProtected
                         712 	.align	2
                         713 .LDW93:
                         714 
                         715 --_cryptoKeyId	r6	param
                         716 
                         717 	.section ".bss","awb"
                         718 .L1270:
                         719 	.type	.L1270,@object
                         720 	.size	.L1270,0
                         721 	.data
                         722 	.section ".MSR_CODE","ax"
                         723 	.align	2
                         724 	.align	2
                         725 ..gh.f.f.1.e.10:
                         726 	.type	..gh.f.f.1.e.10,@object
                         727 	.size	..gh.f.f.1.e.10,0
                         728 	.global	_McalCry_Local_KeyWriteLockGetNotProtected
                         729 _McalCry_Local_KeyWriteLockGetNotProtected:
                         730 --	    .bf
                         731 .LDW04:
00000314 04f0            732 	mov	gp,ep
00000316 c6f1            733 	add	r6,ep
00000318 be0705980000*   734 	ld.bu	sdaoff23(_McalCry_KeyLock)[ep],r19
0000031e 0152            735 	mov	1,r10
00000320 629a            736 	cmp	2,r19
00000322 8a0d*           737 	bne	.L1303
                         738 --line2325
                         739 ..lin.C.3A.5C_ECU2.5CECU_Rivian_A1.5CTarget.5Crepo_projects.5CpFOTA.5CcL_LATEST.5Cmake.5Cobj.5CMcalCry_KeyManagement.33::
                         740 .LDWlin33:
00000324 04f0            741 	mov	gp,ep
00000326 c6f1            742 	add	r6,ep
00000328 9e070d500000*   743 	st.b	r10,sdaoff23(_McalCry_KeyLock)[ep]
0000032e 0052            744 	mov	0,r10
00000330 7f00            745 	jmp	[lp]
                         746 .L1303:
                         747 --	    .ef
                         748 .LDW14:
                         749 --line2329
                         750 ..lin.C.3A.5C_ECU2.5CECU_Rivian_A1.5CTarget.5Crepo_projects.5CpFOTA.5CcL_LATEST.5Cmake.5Cobj.5CMcalCry_KeyManagement.34::
                         751 .LDWlin34:
00000332 7f00            752 	jmp	[lp]
                         753 	.type	_McalCry_Local_KeyWriteLockGetNotProtected,@function
                         754 	.size	_McalCry_Local_KeyWriteLockGetNotProtected,.-_McalCry_Local_KeyWriteLockGetNotProtected
                         755 	.align	2

                                                                      Page 14
                                                              C:\Users\nhuliyap\AppData\Local\Temp\gh_00002r81.s
                         756 .LDW24:
                         757 --_retVal	r10	local
                         758 
                         759 --_cryptoKeyId	r6	param
                         760 
                         761 	.section ".bss","awb"
                         762 .L1344:
                         763 	.type	.L1344,@object
                         764 	.size	.L1344,0
                         765 	.data
                         766 	.section ".MSR_CODE","ax"
                         767 	.align	2
                         768 	.align	2
                         769 ..gh.f.f.1.e.11:
                         770 	.type	..gh.f.f.1.e.11,@object
                         771 	.size	..gh.f.f.1.e.11,0
                         772 	.global	_McalCry_Local_KeyWriteLockReleaseNotProtected
                         773 _McalCry_Local_KeyWriteLockReleaseNotProtected:
                         774 --	    .bf
                         775 .LDW34:
00000334 04f0            776 	mov	gp,ep
00000336 c6f1            777 	add	r6,ep
00000338 be0705980000*   778 	ld.bu	sdaoff23(_McalCry_KeyLock)[ep],r19
0000033e 619a            779 	cmp	1,r19
00000340 fa05*           780 	bne	.L1385
                         781 --line2335
                         782 ..lin.C.3A.5C_ECU2.5CECU_Rivian_A1.5CTarget.5Crepo_projects.5CpFOTA.5CcL_LATEST.5Cmake.5Cobj.5CMcalCry_KeyManagement.35::
                         783 .LDWlin35:
00000342 04f0            784 	mov	gp,ep
00000344 c6f1            785 	add	r6,ep
00000346 0292            786 	mov	2,r18
00000348 9e070d900000*   787 	st.b	r18,sdaoff23(_McalCry_KeyLock)[ep]
                         788 .L1385:
                         789 --	    .ef
                         790 .LDW44:
0000034e 7f00            791 	jmp	[lp]
                         792 	.type	_McalCry_Local_KeyWriteLockReleaseNotProtected,@function
                         793 	.size	_McalCry_Local_KeyWriteLockReleaseNotProtected,.-_McalCry_Local_KeyWriteLockReleaseNotProtected
                         794 	.align	2
                         795 .LDW54:
                         796 
                         797 --_cryptoKeyId	r6	param
                         798 
                         799 	.section ".bss","awb"
                         800 .L1414:
                         801 	.type	.L1414,@object
                         802 	.size	.L1414,0
                         803 	.data
                         804 	.section ".MSR_CODE","ax"
                         805 	.align	2
                         806 	.align	2
                         807 ..gh.f.f.1.e.12:
                         808 	.type	..gh.f.f.1.e.12,@object
                         809 	.size	..gh.f.f.1.e.12,0
                         810 	.global	_McalCry_Local_KeyReadLockGet
                         811 _McalCry_Local_KeyReadLockGet:
                         812 --	    .bf
                         813 .LDW64:
00000350 bf077eff*       814 	jr	_McalCry_Local_KeyReadLockGetNotProtected
                         815 --	    .ef
                         816 .LDW74:

                                                                      Page 15
                                                              C:\Users\nhuliyap\AppData\Local\Temp\gh_00002r81.s
                         817 	.type	_McalCry_Local_KeyReadLockGet,@function
                         818 	.size	_McalCry_Local_KeyReadLockGet,.-_McalCry_Local_KeyReadLockGet
                         819 	.align	2
                         820 .LDW84:
                         821 
                         822 --_cryptoKeyId	r6	param
                         823 
                         824 	.section ".bss","awb"
                         825 .L1476:
                         826 	.type	.L1476,@object
                         827 	.size	.L1476,0
                         828 	.data
                         829 	.section ".MSR_CODE","ax"
                         830 	.align	2
                         831 	.align	2
                         832 ..gh.f.f.1.e.13:
                         833 	.type	..gh.f.f.1.e.13,@object
                         834 	.size	..gh.f.f.1.e.13,0
                         835 	.global	_McalCry_Local_KeyReadLockRelease
                         836 _McalCry_Local_KeyReadLockRelease:
                         837 --	    .bf
                         838 .LDW94:
00000354 bf07a2ff*       839 	jr	_McalCry_Local_KeyReadLockReleaseNotProtected
                         840 --	    .ef
                         841 .LDW05:
                         842 	.type	_McalCry_Local_KeyReadLockRelease,@function
                         843 	.size	_McalCry_Local_KeyReadLockRelease,.-_McalCry_Local_KeyReadLockRelease
                         844 	.align	2
                         845 .LDW15:
                         846 
                         847 --_cryptoKeyId	r6	param
                         848 
                         849 	.section ".bss","awb"
                         850 .L1521:
                         851 	.type	.L1521,@object
                         852 	.size	.L1521,0
                         853 	.data
                         854 	.section ".MSR_CODE","ax"
                         855 	.align	2
                         856 	.align	2
                         857 ..gh.f.f.1.e.14:
                         858 	.type	..gh.f.f.1.e.14,@object
                         859 	.size	..gh.f.f.1.e.14,0
                         860 	.global	_McalCry_Local_KeyWriteLockGet
                         861 _McalCry_Local_KeyWriteLockGet:
                         862 --	    .bf
                         863 .LDW25:
00000358 bf07bcff*       864 	jr	_McalCry_Local_KeyWriteLockGetNotProtected
                         865 --	    .ef
                         866 .LDW35:
                         867 	.type	_McalCry_Local_KeyWriteLockGet,@function
                         868 	.size	_McalCry_Local_KeyWriteLockGet,.-_McalCry_Local_KeyWriteLockGet
                         869 	.align	2
                         870 .LDW45:
                         871 
                         872 --_cryptoKeyId	r6	param
                         873 
                         874 	.section ".bss","awb"
                         875 .L1572:
                         876 	.type	.L1572,@object
                         877 	.size	.L1572,0

                                                                      Page 16
                                                              C:\Users\nhuliyap\AppData\Local\Temp\gh_00002r81.s
                         878 	.data
                         879 	.section ".MSR_CODE","ax"
                         880 	.align	2
                         881 	.align	2
                         882 ..gh.f.f.1.e.15:
                         883 	.type	..gh.f.f.1.e.15,@object
                         884 	.size	..gh.f.f.1.e.15,0
                         885 	.global	_McalCry_Local_KeyWriteLockRelease
                         886 _McalCry_Local_KeyWriteLockRelease:
                         887 --	    .bf
                         888 .LDW55:
0000035c bf07d8ff*       889 	jr	_McalCry_Local_KeyWriteLockReleaseNotProtected
                         890 --	    .ef
                         891 .LDW65:
                         892 	.type	_McalCry_Local_KeyWriteLockRelease,@function
                         893 	.size	_McalCry_Local_KeyWriteLockRelease,.-_McalCry_Local_KeyWriteLockRelease
                         894 	.align	2
                         895 .LDW75:
                         896 
                         897 --_cryptoKeyId	r6	param
                         898 
                         899 	.section ".bss","awb"
                         900 .L1617:
                         901 	.type	.L1617,@object
                         902 	.size	.L1617,0
                         903 	.data
                         904 	.section ".MSR_CODE","ax"
                         905 	.align	2
                         906 	.align	2
                         907 ..gh.f.f.1.e.16:
                         908 	.type	..gh.f.f.1.e.16,@object
                         909 	.size	..gh.f.f.1.e.16,0
                         910 	.global	_McalCry_Local_KeyElementSearch
                         911 _McalCry_Local_KeyElementSearch:
                         912 --	    .bf
                         913 .LDW85:
00000360 06f0            914 	mov	r6,ep
00000362 c1f2            915 	shl	1,ep
00000364 260600000000*   916 	mov	rosdaoff23(_McalCry_Key),r6
0000036a c6f1            917 	add	r6,ep
0000036c 0152            918 	mov	1,r10
0000036e 6190            919 	sld.bu	1[ep],r18
00000370 e50d*           920 	br	.L1641
                         921 .L1640:
                         922 --line2385
                         923 ..lin.C.3A.5C_ECU2.5CECU_Rivian_A1.5CTarget.5Crepo_projects.5CpFOTA.5CcL_LATEST.5Cmake.5Cobj.5CMcalCry_KeyManagement.36::
                         924 .LDWlin36:
00000372 f28e0600        925 	mulhi	6,r18,r17
00000376 c589            926 	add	r5,r17
00000378 b10705780000*   927 	ld.bu	rosdaoff23(_McalCry_KeyElements+4)[r17],r15
0000037e ef39            928 	cmp	r15,r7
00000380 da05*           929 	bne	.L1639
                         930 --line2386
                         931 ..lin.C.3A.5C_ECU2.5CECU_Rivian_A1.5CTarget.5Crepo_projects.5CpFOTA.5CcL_LATEST.5Cmake.5Cobj.5CMcalCry_KeyManagement.37::
                         932 .LDWlin37:
00000382 0052            933 	mov	0,r10
00000384 48970000        934 	st.b	r18,0[r8]
00000388 7f00            935 	jmp	[lp]
                         936 .L1639:
                         937 --line2384
                         938 ..lin.C.3A.5C_ECU2.5CECU_Rivian_A1.5CTarget.5Crepo_projects.5CpFOTA.5CcL_LATEST.5Cmake.5Cobj.5CMcalCry_KeyManagement.38::

                                                                      Page 17
                                                              C:\Users\nhuliyap\AppData\Local\Temp\gh_00002r81.s
                         939 .LDWlin38:
0000038a 4192            940 	add	1,r18
                         941 .L1641:
0000038c 6070            942 	sld.bu	0[ep],r14
0000038e ee91            943 	cmp	r14,r18
00000390 91f5*           944 	bl	.L1640
                         945 --	    .ef
                         946 .LDW95:
                         947 --line2384
                         948 ..lin.C.3A.5C_ECU2.5CECU_Rivian_A1.5CTarget.5Crepo_projects.5CpFOTA.5CcL_LATEST.5Cmake.5Cobj.5CMcalCry_KeyManagement.39::
                         949 .LDWlin39:
00000392 7f00            950 	jmp	[lp]
                         951 	.type	_McalCry_Local_KeyElementSearch,@function
                         952 	.size	_McalCry_Local_KeyElementSearch,.-_McalCry_Local_KeyElementSearch
                         953 	.align	2
                         954 .LDW06:
                         955 --_retVal	r10	local
                         956 --_elementIdx	r18	local
                         957 
                         958 --_cryptoKeyId	r6	param
                         959 --_keyElementId	r7	param
                         960 --_elementIndex	r8	param
                         961 
                         962 	.section ".bss","awb"
                         963 .L1698:
                         964 	.type	.L1698,@object
                         965 	.size	.L1698,0
                         966 	.data
                         967 	.section ".MSR_CODE","ax"
                         968 	.align	2
                         969 	.align	2
                         970 ..gh.f.f.1.e.17:
                         971 	.type	..gh.f.f.1.e.17,@object
                         972 	.size	..gh.f.f.1.e.17,0
                         973 	.global	_McalCry_KeyElementIdsGet
                         974 _McalCry_KeyElementIdsGet:
00000394 80076100        975 	prepare	{r29,r31},0
00000398 0778            976 	mov	r7,r15
0000039a 0898            977 	mov	r8,r19
                         978 --	    .bf
                         979 .LDW16:
0000039c a40705700000*   980 	ld.bu	sdaoff23(_McalCry_ModuleInitialized)[gp],r14
000003a2 204eff00        981 	movea	255,zero,r9
000003a6 01ea            982 	mov	1,r29
000003a8 ce860100        983 	andi	1,r14,r16
000003ac f04f244b        984 	cmove	r16,r9,r9
000003b0 9235*           985 	be	.L1786
                         986 --line2443
                         987 ..lin.C.3A.5C_ECU2.5CECU_Rivian_A1.5CTarget.5Crepo_projects.5CpFOTA.5CcL_LATEST.5Cmake.5Cobj.5CMcalCry_KeyManagement.40::
                         988 .LDWlin40:
000003b2 6732            989 	cmp	7,r6
000003b4 e925*           990 	bnl	.L1775
                         991 --line2446
                         992 ..lin.C.3A.5C_ECU2.5CECU_Rivian_A1.5CTarget.5Crepo_projects.5CpFOTA.5CcL_LATEST.5Cmake.5Cobj.5CMcalCry_KeyManagement.41::
                         993 .LDWlin41:
000003b6 e039            994 	cmp	zero,r7
000003b8 c225*           995 	be	.L1775
                         996 --line2449
                         997 ..lin.C.3A.5C_ECU2.5CECU_Rivian_A1.5CTarget.5Crepo_projects.5CpFOTA.5CcL_LATEST.5Cmake.5Cobj.5CMcalCry_KeyManagement.42::
                         998 .LDWlin42:
000003ba e041            999 	cmp	zero,r8

                                                                      Page 18
                                                              C:\Users\nhuliyap\AppData\Local\Temp\gh_00002r81.s
000003bc e44f044b       1000 	cmove	4,r9,r9
000003c0 922d*          1001 	be	.L1786
                        1002 --	    .bs
                        1003 .LDW26:
                        1004 --line2455
                        1005 ..lin.C.3A.5C_ECU2.5CECU_Rivian_A1.5CTarget.5Crepo_projects.5CpFOTA.5CcL_LATEST.5Cmake.5Cobj.5CMcalCry_KeyManagement.43::
                        1006 .LDWlin43:
000003c2 06f0           1007 	mov	r6,ep
000003c4 c1f2           1008 	shl	1,ep
000003c6 2d0600000000*  1009 	mov	rosdaoff23(_McalCry_Key),r13
000003cc cdf1           1010 	add	r13,ep
000003ce 0092           1011 	mov	0,r18
000003d0 6138           1012 	sld.bu	1[ep],r7
000003d2 12e8           1013 	mov	r18,r29
                        1014 .L1777:
000003d4 6088           1015 	sld.bu	0[ep],r17
000003d6 f139           1016 	cmp	r17,r7
000003d8 891d*          1017 	bnl	.L1783
                        1018 --line2460
                        1019 ..lin.C.3A.5C_ECU2.5CECU_Rivian_A1.5CTarget.5Crepo_projects.5CpFOTA.5CcL_LATEST.5Cmake.5Cobj.5CMcalCry_KeyManagement.44::
                        1020 .LDWlin44:
000003da 33670100       1021 	ld.w	0[r19],r12
000003de ec91           1022 	cmp	r12,r18
000003e0 a915*          1023 	bnl	.L1780
                        1024 --line2462
                        1025 ..lin.C.3A.5C_ECU2.5CECU_Rivian_A1.5CTarget.5Crepo_projects.5CpFOTA.5CcL_LATEST.5Cmake.5Cobj.5CMcalCry_KeyManagement.45::
                        1026 .LDWlin45:
000003e2 e78e0600       1027 	mulhi	6,r7,r17
000003e6 1240           1028 	mov	r18,r8
000003e8 c242           1029 	shl	2,r8
000003ea cf41           1030 	add	r15,r8
000003ec c589           1031 	add	r5,r17
000003ee b10705300000*  1032 	ld.bu	rosdaoff23(_McalCry_KeyElements+4)[r17],r6
000003f4 4192           1033 	add	1,r18
000003f6 9200           1034 	zxb	r18
000003f8 413a           1035 	add	1,r7
000003fa 68370100       1036 	st.w	r6,0[r8]
000003fe b5ed*          1037 	br	.L1777
                        1038 .L1775:
                        1039 --line2450
                        1040 ..lin.C.3A.5C_ECU2.5CECU_Rivian_A1.5CTarget.5Crepo_projects.5CpFOTA.5CcL_LATEST.5Cmake.5Cobj.5CMcalCry_KeyManagement.46::
                        1041 .LDWlin46:
00000400 044a           1042 	mov	4,r9
00000402 850d*          1043 	br	.L1786
                        1044 .L1780:
                        1045 --line2466
                        1046 ..lin.C.3A.5C_ECU2.5CECU_Rivian_A1.5CTarget.5Crepo_projects.5CpFOTA.5CcL_LATEST.5Cmake.5Cobj.5CMcalCry_KeyManagement.47::
                        1047 .LDWlin47:
00000404 03ea           1048 	mov	3,r29
00000406 1d48           1049 	mov	r29,r9
                        1050 .L1783:
00000408 73970100       1051 	st.w	r18,0[r19]
                        1052 --	    .es
                        1053 .LDW36:
0000040c 090601ff       1054 	addi	-255,r9,zero
00000410 820d*          1055 	be	.L1785
                        1056 .L1786:
                        1057 --line2482
                        1058 ..lin.C.3A.5C_ECU2.5CECU_Rivian_A1.5CTarget.5Crepo_projects.5CpFOTA.5CcL_LATEST.5Cmake.5Cobj.5CMcalCry_KeyManagement.48::
                        1059 .LDWlin48:
00000412 20367200       1060 	movea	114,zero,r6

                                                                      Page 19
                                                              C:\Users\nhuliyap\AppData\Local\Temp\gh_00002r81.s
00000416 003a           1061 	mov	0,r7
00000418 20461100       1062 	movea	17,zero,r8
                        1063 	jarl	_Det_ReportError,lp
                        1063 <EXPANSION BEGIN>
                        1063 jarl22 _Det_ReportError , lp 
0000041c 80ff0000*      1063 <EXPANSION END>
                        1064 .L1785:
                        1065 --line2491
                        1066 ..lin.C.3A.5C_ECU2.5CECU_Rivian_A1.5CTarget.5Crepo_projects.5CpFOTA.5CcL_LATEST.5Cmake.5Cobj.5CMcalCry_KeyManagement.49::
                        1067 .LDWlin49:
00000420 1d50           1068 	mov	r29,r10
                        1069 --	    .ef
                        1070 .LDW46:
00000422 40067f00       1071 	dispose	0,{r29,r31},[lp]
                        1072 	.type	_McalCry_KeyElementIdsGet,@function
                        1073 	.size	_McalCry_KeyElementIdsGet,.-_McalCry_KeyElementIdsGet
                        1074 	.align	2
                        1075 .LDW56:
                        1076 --_retVal	r29	local
                        1077 --_errorId	r9	local
                        1078 --_elementIndex	r7	local
                        1079 --_idx	r18	local
                        1080 
                        1081 --_cryptoKeyId	r6	param
                        1082 --_keyElementIdsPtr	r15	param
                        1083 --_keyElementIdsLengthPtr	r19	param
                        1084 
                        1085 	.section ".bss","awb"
                        1086 .L2410:
                        1087 	.type	.L2410,@object
                        1088 	.size	.L2410,0
                        1089 	.data
                        1090 	.section ".MSR_CODE","ax"
                        1091 	.align	2
                        1092 	.align	2
                        1093 ..gh.f.f.1.e.18:
                        1094 	.type	..gh.f.f.1.e.18,@object
                        1095 	.size	..gh.f.f.1.e.18,0
                        1096 	.global	_McalCry_KeyCopy
                        1097 _McalCry_KeyCopy:
00000426 8207e170       1098 	prepare	{r25,r26,r27,r28,r29,r31},1
0000042a 06c8           1099 	mov	r6,r25
0000042c 07d0           1100 	mov	r7,r26
                        1101 --	    .bf
                        1102 .LDW66:
0000042e a40705480000*  1103 	ld.bu	sdaoff23(_McalCry_ModuleInitialized)[gp],r9
00000434 43070300       1104 	st.b	zero,3[sp]
00000438 01ea           1105 	mov	1,r29
0000043a c94e0100       1106 	andi	1,r9,r9
0000043e e205*          1107 	be	.L2571
                        1108 --line2509
                        1109 ..lin.C.3A.5C_ECU2.5CECU_Rivian_A1.5CTarget.5Crepo_projects.5CpFOTA.5CcL_LATEST.5Cmake.5Cobj.5CMcalCry_KeyManagement.50::
                        1110 .LDWlin50:
00000440 044a           1111 	mov	4,r9
00000442 6732           1112 	cmp	7,r6
00000444 b905*          1113 	bnl	.L2571
                        1114 --line2512
                        1115 ..lin.C.3A.5C_ECU2.5CECU_Rivian_A1.5CTarget.5Crepo_projects.5CpFOTA.5CcL_LATEST.5Cmake.5Cobj.5CMcalCry_KeyManagement.51::
                        1116 .LDWlin51:
00000446 673a           1117 	cmp	7,r7
00000448 910d*          1118 	bl	.L2553

                                                                      Page 20
                                                              C:\Users\nhuliyap\AppData\Local\Temp\gh_00002r81.s
                        1119 .L2571:
                        1120 --line2551
                        1121 ..lin.C.3A.5C_ECU2.5CECU_Rivian_A1.5CTarget.5Crepo_projects.5CpFOTA.5CcL_LATEST.5Cmake.5Cobj.5CMcalCry_KeyManagement.52::
                        1122 .LDWlin52:
0000044a 20367200       1123 	movea	114,zero,r6
0000044e 003a           1124 	mov	0,r7
00000450 20461000       1125 	movea	16,zero,r8
                        1126 	jarl	_Det_ReportError,lp
                        1126 <EXPANSION BEGIN>
                        1126 jarl22 _Det_ReportError , lp 
00000454 80ff0000*      1126 <EXPANSION END>
00000458 853d*          1127 	br	.L2570
                        1128 .L2553:
                        1129 --line2519
                        1130 ..lin.C.3A.5C_ECU2.5CECU_Rivian_A1.5CTarget.5Crepo_projects.5CpFOTA.5CcL_LATEST.5Cmake.5Cobj.5CMcalCry_KeyManagement.53::
                        1131 .LDWlin53:
0000045a 0730           1132 	mov	r7,r6
                        1133 	jarl	_McalCry_Local_KeyWriteLockGet,lp
                        1133 <EXPANSION BEGIN>
                        1133 jarl22 _McalCry_Local_KeyWriteLockGet , lp 
0000045c bffffcfe*      1133 <EXPANSION END>
00000460 e051           1134 	cmp	zero,r10
                        1135 --line2520
                        1136 ..lin.C.3A.5C_ECU2.5CECU_Rivian_A1.5CTarget.5Crepo_projects.5CpFOTA.5CcL_LATEST.5Cmake.5Cobj.5CMcalCry_KeyManagement.54::
                        1137 .LDWlin54:
00000462 02ea           1138 	mov	2,r29
00000464 aa35*          1139 	bne	.L2570
                        1140 --line2523
                        1141 ..lin.C.3A.5C_ECU2.5CECU_Rivian_A1.5CTarget.5Crepo_projects.5CpFOTA.5CcL_LATEST.5Cmake.5Cobj.5CMcalCry_KeyManagement.55::
                        1142 .LDWlin55:
00000466 1930           1143 	mov	r25,r6
                        1144 	jarl	_McalCry_Local_KeyReadLockGet,lp
                        1144 <EXPANSION BEGIN>
                        1144 jarl22 _McalCry_Local_KeyReadLockGet , lp 
00000468 bfffe8fe*      1144 <EXPANSION END>
0000046c e051           1145 	cmp	zero,r10
                        1146 --line2525
                        1147 ..lin.C.3A.5C_ECU2.5CECU_Rivian_A1.5CTarget.5Crepo_projects.5CpFOTA.5CcL_LATEST.5Cmake.5Cobj.5CMcalCry_KeyManagement.56::
                        1148 .LDWlin56:
0000046e aa2d*          1149 	bne	.L2561
                        1150 --line2531
                        1151 ..lin.C.3A.5C_ECU2.5CECU_Rivian_A1.5CTarget.5Crepo_projects.5CpFOTA.5CcL_LATEST.5Cmake.5Cobj.5CMcalCry_KeyManagement.57::
                        1152 .LDWlin57:
00000470 19e0           1153 	mov	r25,r28
00000472 c1e2           1154 	shl	1,r28
00000474 290600000000*  1155 	mov	rosdaoff23(_McalCry_Key),r9
0000047a c9e1           1156 	add	r9,r28
0000047c 08ea           1157 	mov	8,r29
0000047e bcdf0100       1158 	ld.bu	1[r28],r27
00000482 951d*          1159 	br	.L2565
                        1160 .L2564:
                        1161 --line2533
                        1162 ..lin.C.3A.5C_ECU2.5CECU_Rivian_A1.5CTarget.5Crepo_projects.5CpFOTA.5CcL_LATEST.5Cmake.5Cobj.5CMcalCry_KeyManagement.58::
                        1163 .LDWlin58:
00000484 fbf60600       1164 	mulhi	6,r27,ep
00000488 1a30           1165 	mov	r26,r6
0000048a 23460300       1166 	movea	3,sp,r8
0000048e c5f1           1167 	add	r5,ep
00000490 be0705380000*  1168 	ld.bu	rosdaoff23(_McalCry_KeyElements+4)[ep],r7
                        1169 	jarl	_McalCry_Local_KeyElementSearch,lp
                        1169 <EXPANSION BEGIN>

                                                                      Page 21
                                                              C:\Users\nhuliyap\AppData\Local\Temp\gh_00002r81.s
                        1169 jarl22 _McalCry_Local_KeyElementSearch , lp 
00000496 bfffcafe*      1169 <EXPANSION END>
0000049a e051           1170 	cmp	zero,r10
0000049c ba0d*          1171 	bne	.L2563
                        1172 --line2535
                        1173 ..lin.C.3A.5C_ECU2.5CECU_Rivian_A1.5CTarget.5Crepo_projects.5CpFOTA.5CcL_LATEST.5Cmake.5Cobj.5CMcalCry_KeyManagement.59::
                        1174 .LDWlin59:
0000049e a33f0300       1175 	ld.bu	3[sp],r7
000004a2 1b30           1176 	mov	r27,r6
000004a4 8600           1177 	zxb	r6
000004a6 1a40           1178 	mov	r26,r8
                        1179 	jarl	_McalCry_Local_KeyElementCopy,lp
                        1179 <EXPANSION BEGIN>
                        1179 jarl22 _McalCry_Local_KeyElementCopy , lp 
000004a8 bfff96fc*      1179 <EXPANSION END>
                        1180 --line2536
                        1181 ..lin.C.3A.5C_ECU2.5CECU_Rivian_A1.5CTarget.5Crepo_projects.5CpFOTA.5CcL_LATEST.5Cmake.5Cobj.5CMcalCry_KeyManagement.60::
                        1182 .LDWlin60:
000004ac e0e9           1183 	cmp	zero,r29
000004ae eaef34eb       1184 	cmovne	r10,r29,r29
                        1185 .L2563:
000004b2 41da           1186 	add	1,r27
                        1187 .L2565:
000004b4 9c9f0100       1188 	ld.bu	0[r28],r19
000004b8 f3d9           1189 	cmp	r19,r27
000004ba d1e5*          1190 	bl	.L2564
                        1191 --line2542
                        1192 ..lin.C.3A.5C_ECU2.5CECU_Rivian_A1.5CTarget.5Crepo_projects.5CpFOTA.5CcL_LATEST.5Cmake.5Cobj.5CMcalCry_KeyManagement.61::
                        1193 .LDWlin61:
000004bc 1930           1194 	mov	r25,r6
                        1195 	jarl	_McalCry_Local_KeyReadLockRelease,lp
                        1195 <EXPANSION BEGIN>
                        1195 jarl22 _McalCry_Local_KeyReadLockRelease , lp 
000004be bfff96fe*      1195 <EXPANSION END>
                        1196 .L2561:
                        1197 --line2544
                        1198 ..lin.C.3A.5C_ECU2.5CECU_Rivian_A1.5CTarget.5Crepo_projects.5CpFOTA.5CcL_LATEST.5Cmake.5Cobj.5CMcalCry_KeyManagement.62::
                        1199 .LDWlin62:
000004c2 1a30           1200 	mov	r26,r6
                        1201 	jarl	_McalCry_Local_KeyWriteLockRelease,lp
                        1201 <EXPANSION BEGIN>
                        1201 jarl22 _McalCry_Local_KeyWriteLockRelease , lp 
000004c4 bfff98fe*      1201 <EXPANSION END>
                        1202 .L2570:
                        1203 --line2560
                        1204 ..lin.C.3A.5C_ECU2.5CECU_Rivian_A1.5CTarget.5Crepo_projects.5CpFOTA.5CcL_LATEST.5Cmake.5Cobj.5CMcalCry_KeyManagement.63::
                        1205 .LDWlin63:
000004c8 1d50           1206 	mov	r29,r10
                        1207 --	    .ef
                        1208 .LDW76:
000004ca 4206ff70       1209 	dispose	1,{r25,r26,r27,r28,r29,r31},[lp]
                        1210 	.type	_McalCry_KeyCopy,@function
                        1211 	.size	_McalCry_KeyCopy,.-_McalCry_KeyCopy
                        1212 	.align	2
                        1213 .LDW86:
                        1214 --_retVal	r29	local
                        1215 --_retValBuf	r10	local
                        1216 --_elementIndexSrc	r27	local
                        1217 --_elementIndexDst	3[sp]	local
                        1218 --_errorId	r9	local
                        1219 

                                                                      Page 22
                                                              C:\Users\nhuliyap\AppData\Local\Temp\gh_00002r81.s
                        1220 --_cryptoKeyId	r25	param
                        1221 --_targetCryptoKeyId	r26	param
                        1222 
                        1223 	.section ".bss","awb"
                        1224 .L3365:
                        1225 	.type	.L3365,@object
                        1226 	.size	.L3365,0
                        1227 	.data
                        1228 	.section ".MSR_CODE","ax"
                        1229 	.align	2
                        1230 	.align	2
                        1231 ..gh.f.f.1.e.19:
                        1232 	.type	..gh.f.f.1.e.19,@object
                        1233 	.size	..gh.f.f.1.e.19,0
                        1234 	.global	_McalCry_KeyElementCopy
                        1235 _McalCry_KeyElementCopy:
000004ce 8407e330       1236 	prepare	{r26,r27,r28,r29,r31},2,sp
000004d2 06d8           1237 	mov	r6,r27
000004d4 08e8           1238 	mov	r8,r29
                        1239 --	    .bf
                        1240 .LDW96:
000004d6 a40705300000*  1241 	ld.bu	sdaoff23(_McalCry_ModuleInitialized)[gp],r6
000004dc 01e2           1242 	mov	1,r28
000004de 8203           1243 	sst.b	zero,2[ep]
000004e0 8303           1244 	sst.b	zero,3[ep]
000004e2 c6960100       1245 	andi	1,r6,r18
000004e6 e49714d3       1246 	cmovne	4,r18,r26
000004ea e235*          1247 	be	.L3556
                        1248 --line2579
                        1249 ..lin.C.3A.5C_ECU2.5CECU_Rivian_A1.5CTarget.5Crepo_projects.5CpFOTA.5CcL_LATEST.5Cmake.5Cobj.5CMcalCry_KeyManagement.64::
                        1250 .LDWlin64:
000004ec 67da           1251 	cmp	7,r27
000004ee c935*          1252 	bnl	.L3556
                        1253 --line2582
                        1254 ..lin.C.3A.5C_ECU2.5CECU_Rivian_A1.5CTarget.5Crepo_projects.5CpFOTA.5CcL_LATEST.5Cmake.5Cobj.5CMcalCry_KeyManagement.65::
                        1255 .LDWlin65:
000004f0 6742           1256 	cmp	7,r8
000004f2 a935*          1257 	bnl	.L3556
                        1258 --line2588
                        1259 ..lin.C.3A.5C_ECU2.5CECU_Rivian_A1.5CTarget.5Crepo_projects.5CpFOTA.5CcL_LATEST.5Cmake.5Cobj.5CMcalCry_KeyManagement.66::
                        1260 .LDWlin66:
000004f4 1b30           1261 	mov	r27,r6
000004f6 23460200       1262 	movea	2,sp,r8
                        1263 	jarl	_McalCry_Local_KeyElementSearch,lp
                        1263 <EXPANSION BEGIN>
                        1263 jarl22 _McalCry_Local_KeyElementSearch , lp 
000004fa bfff66fe*      1263 <EXPANSION END>
000004fe e051           1264 	cmp	zero,r10
00000500 ba2d*          1265 	bne	.L3556
                        1266 --line2592
                        1267 ..lin.C.3A.5C_ECU2.5CECU_Rivian_A1.5CTarget.5Crepo_projects.5CpFOTA.5CcL_LATEST.5Cmake.5Cobj.5CMcalCry_KeyManagement.67::
                        1268 .LDWlin67:
00000502 1d30           1269 	mov	r29,r6
00000504 0938           1270 	mov	r9,r7
00000506 4142           1271 	add	1,r8
                        1272 	jarl	_McalCry_Local_KeyElementSearch,lp
                        1272 <EXPANSION BEGIN>
                        1272 jarl22 _McalCry_Local_KeyElementSearch , lp 
00000508 bfff58fe*      1272 <EXPANSION END>
0000050c e051           1273 	cmp	zero,r10
0000050e ca25*          1274 	bne	.L3556

                                                                      Page 23
                                                              C:\Users\nhuliyap\AppData\Local\Temp\gh_00002r81.s
                        1275 --line2596
                        1276 ..lin.C.3A.5C_ECU2.5CECU_Rivian_A1.5CTarget.5Crepo_projects.5CpFOTA.5CcL_LATEST.5Cmake.5Cobj.5CMcalCry_KeyManagement.68::
                        1277 .LDWlin68:
00000510 1d30           1278 	mov	r29,r6
                        1279 	jarl	_McalCry_Local_KeyWriteLockGet,lp
                        1279 <EXPANSION BEGIN>
                        1279 jarl22 _McalCry_Local_KeyWriteLockGet , lp 
00000512 bfff46fe*      1279 <EXPANSION END>
00000516 e051           1280 	cmp	zero,r10
                        1281 --line2598
                        1282 ..lin.C.3A.5C_ECU2.5CECU_Rivian_A1.5CTarget.5Crepo_projects.5CpFOTA.5CcL_LATEST.5Cmake.5Cobj.5CMcalCry_KeyManagement.69::
                        1283 .LDWlin69:
00000518 02e2           1284 	mov	2,r28
0000051a da25*          1285 	bne	.L3555
                        1286 --line2602
                        1287 ..lin.C.3A.5C_ECU2.5CECU_Rivian_A1.5CTarget.5Crepo_projects.5CpFOTA.5CcL_LATEST.5Cmake.5Cobj.5CMcalCry_KeyManagement.70::
                        1288 .LDWlin70:
0000051c fdd9           1289 	cmp	r29,r27
0000051e 9a0d*          1290 	bne	.L3549
                        1291 --line2604
                        1292 ..lin.C.3A.5C_ECU2.5CECU_Rivian_A1.5CTarget.5Crepo_projects.5CpFOTA.5CcL_LATEST.5Cmake.5Cobj.5CMcalCry_KeyManagement.71::
                        1293 .LDWlin71:
00000520 03f0           1294 	mov	sp,ep
00000522 6230           1295 	sld.bu	2[ep],r6
00000524 6338           1296 	sld.bu	3[ep],r7
00000526 1d40           1297 	mov	r29,r8
                        1298 	jarl	_McalCry_Local_KeyElementCopy,lp
                        1298 <EXPANSION BEGIN>
                        1298 jarl22 _McalCry_Local_KeyElementCopy , lp 
00000528 bfff16fc*      1298 <EXPANSION END>
0000052c 0ae0           1299 	mov	r10,r28
0000052e 8515*          1300 	br	.L3551
                        1301 .L3549:
                        1302 --line2606
                        1303 ..lin.C.3A.5C_ECU2.5CECU_Rivian_A1.5CTarget.5Crepo_projects.5CpFOTA.5CcL_LATEST.5Cmake.5Cobj.5CMcalCry_KeyManagement.72::
                        1304 .LDWlin72:
00000530 1b30           1305 	mov	r27,r6
                        1306 	jarl	_McalCry_Local_KeyReadLockGet,lp
                        1306 <EXPANSION BEGIN>
                        1306 jarl22 _McalCry_Local_KeyReadLockGet , lp 
00000532 bfff1efe*      1306 <EXPANSION END>
00000536 e051           1307 	cmp	zero,r10
00000538 ba0d*          1308 	bne	.L3551
                        1309 --line2612
                        1310 ..lin.C.3A.5C_ECU2.5CECU_Rivian_A1.5CTarget.5Crepo_projects.5CpFOTA.5CcL_LATEST.5Cmake.5Cobj.5CMcalCry_KeyManagement.73::
                        1311 .LDWlin73:
0000053a 03f0           1312 	mov	sp,ep
0000053c 6230           1313 	sld.bu	2[ep],r6
0000053e 6338           1314 	sld.bu	3[ep],r7
00000540 1d40           1315 	mov	r29,r8
                        1316 	jarl	_McalCry_Local_KeyElementCopy,lp
                        1316 <EXPANSION BEGIN>
                        1316 jarl22 _McalCry_Local_KeyElementCopy , lp 
00000542 bffffcfb*      1316 <EXPANSION END>
00000546 0ae0           1317 	mov	r10,r28
                        1318 --line2613
                        1319 ..lin.C.3A.5C_ECU2.5CECU_Rivian_A1.5CTarget.5Crepo_projects.5CpFOTA.5CcL_LATEST.5Cmake.5Cobj.5CMcalCry_KeyManagement.74::
                        1320 .LDWlin74:
00000548 1b30           1321 	mov	r27,r6
                        1322 	jarl	_McalCry_Local_KeyReadLockRelease,lp
                        1322 <EXPANSION BEGIN>

                                                                      Page 24
                                                              C:\Users\nhuliyap\AppData\Local\Temp\gh_00002r81.s
                        1322 jarl22 _McalCry_Local_KeyReadLockRelease , lp 
0000054a bfff0afe*      1322 <EXPANSION END>
                        1323 .L3551:
                        1324 --line2615
                        1325 ..lin.C.3A.5C_ECU2.5CECU_Rivian_A1.5CTarget.5Crepo_projects.5CpFOTA.5CcL_LATEST.5Cmake.5Cobj.5CMcalCry_KeyManagement.75::
                        1326 .LDWlin75:
0000054e 1d30           1327 	mov	r29,r6
                        1328 	jarl	_McalCry_Local_KeyWriteLockRelease,lp
                        1328 <EXPANSION BEGIN>
                        1328 jarl22 _McalCry_Local_KeyWriteLockRelease , lp 
00000550 bfff0cfe*      1328 <EXPANSION END>
00000554 850d*          1329 	br	.L3555
                        1330 .L3556:
                        1331 --line2624
                        1332 ..lin.C.3A.5C_ECU2.5CECU_Rivian_A1.5CTarget.5Crepo_projects.5CpFOTA.5CcL_LATEST.5Cmake.5Cobj.5CMcalCry_KeyManagement.76::
                        1333 .LDWlin76:
00000556 1a48           1334 	mov	r26,r9
00000558 20367200       1335 	movea	114,zero,r6
0000055c 003a           1336 	mov	0,r7
0000055e 0f42           1337 	mov	15,r8
                        1338 	jarl	_Det_ReportError,lp
                        1338 <EXPANSION BEGIN>
                        1338 jarl22 _Det_ReportError , lp 
00000560 80ff0000*      1338 <EXPANSION END>
                        1339 .L3555:
                        1340 --line2632
                        1341 ..lin.C.3A.5C_ECU2.5CECU_Rivian_A1.5CTarget.5Crepo_projects.5CpFOTA.5CcL_LATEST.5Cmake.5Cobj.5CMcalCry_KeyManagement.77::
                        1342 .LDWlin77:
00000564 1c50           1343 	mov	r28,r10
                        1344 --	    .ef
                        1345 .LDW07:
00000566 4406ff30       1346 	dispose	2,{r26,r27,r28,r29,r31},[lp]
                        1347 	.type	_McalCry_KeyElementCopy,@function
                        1348 	.size	_McalCry_KeyElementCopy,.-_McalCry_KeyElementCopy
                        1349 	.align	2
                        1350 .LDW17:
                        1351 --_retVal	r28	local
                        1352 --_elementIndexSrc	2[sp]	local
                        1353 --_elementIndexDst	3[sp]	local
                        1354 --_errorId	r26	local
                        1355 
                        1356 --_cryptoKeyId	r27	param
                        1357 --_keyElementId	r7	param
                        1358 --_targetCryptoKeyId	r29	param
                        1359 --_targetKeyElementId	r25	param
                        1360 
                        1361 	.section ".bss","awb"
                        1362 .L4291:
                        1363 	.type	.L4291,@object
                        1364 	.size	.L4291,0
                        1365 	.data
                        1366 	.section ".MSR_CODE","ax"
                        1367 	.align	2
                        1368 	.align	2
                        1369 ..gh.f.f.1.e.20:
                        1370 	.type	..gh.f.f.1.e.20,@object
                        1371 	.size	..gh.f.f.1.e.20,0
                        1372 	.global	_McalCry_KeyElementCopyPartial
                        1373 _McalCry_KeyElementCopyPartial:
0000056a 8607e3f3       1374 	prepare	{r22,r23,r24,r25,r26,r27,r28,r29,r31},3,sp
0000056e 06d8           1375 	mov	r6,r27

                                                                      Page 25
                                                              C:\Users\nhuliyap\AppData\Local\Temp\gh_00002r81.s
00000570 08c8           1376 	mov	r8,r25
00000572 09c0           1377 	mov	r9,r24
00000574 18bd           1378 	sld.w	48[ep],r23
00000576 1aed           1379 	sld.w	52[ep],r29
00000578 1cb5           1380 	sld.w	56[ep],r22
                        1381 --	    .bf
                        1382 .LDW27:
0000057a a40705300000*  1383 	ld.bu	sdaoff23(_McalCry_ModuleInitialized)[gp],r6
00000580 01e2           1384 	mov	1,r28
00000582 8a03           1385 	sst.b	zero,10[ep]
00000584 8b03           1386 	sst.b	zero,11[ep]
00000586 c6960100       1387 	andi	1,r6,r18
0000058a e49714d3       1388 	cmovne	4,r18,r26
0000058e c23d*          1389 	be	.L4465
                        1390 --line2654
                        1391 ..lin.C.3A.5C_ECU2.5CECU_Rivian_A1.5CTarget.5Crepo_projects.5CpFOTA.5CcL_LATEST.5Cmake.5Cobj.5CMcalCry_KeyManagement.78::
                        1392 .LDWlin78:
00000590 67da           1393 	cmp	7,r27
00000592 a93d*          1394 	bnl	.L4465
                        1395 --line2657
                        1396 ..lin.C.3A.5C_ECU2.5CECU_Rivian_A1.5CTarget.5Crepo_projects.5CpFOTA.5CcL_LATEST.5Cmake.5Cobj.5CMcalCry_KeyManagement.79::
                        1397 .LDWlin79:
00000594 67ea           1398 	cmp	7,r29
00000596 893d*          1399 	bnl	.L4465
                        1400 --line2663
                        1401 ..lin.C.3A.5C_ECU2.5CECU_Rivian_A1.5CTarget.5Crepo_projects.5CpFOTA.5CcL_LATEST.5Cmake.5Cobj.5CMcalCry_KeyManagement.80::
                        1402 .LDWlin80:
00000598 1b30           1403 	mov	r27,r6
0000059a 23460a00       1404 	movea	10,sp,r8
                        1405 	jarl	_McalCry_Local_KeyElementSearch,lp
                        1405 <EXPANSION BEGIN>
                        1405 jarl22 _McalCry_Local_KeyElementSearch , lp 
0000059e bfffc2fd*      1405 <EXPANSION END>
000005a2 e051           1406 	cmp	zero,r10
000005a4 9a35*          1407 	bne	.L4465
                        1408 --line2666
                        1409 ..lin.C.3A.5C_ECU2.5CECU_Rivian_A1.5CTarget.5Crepo_projects.5CpFOTA.5CcL_LATEST.5Cmake.5Cobj.5CMcalCry_KeyManagement.81::
                        1410 .LDWlin81:
000005a6 1d30           1411 	mov	r29,r6
000005a8 1638           1412 	mov	r22,r7
000005aa 4142           1413 	add	1,r8
                        1414 	jarl	_McalCry_Local_KeyElementSearch,lp
                        1414 <EXPANSION BEGIN>
                        1414 jarl22 _McalCry_Local_KeyElementSearch , lp 
000005ac bfffb4fd*      1414 <EXPANSION END>
000005b0 e051           1415 	cmp	zero,r10
000005b2 aa2d*          1416 	bne	.L4465
                        1417 --line2670
                        1418 ..lin.C.3A.5C_ECU2.5CECU_Rivian_A1.5CTarget.5Crepo_projects.5CpFOTA.5CcL_LATEST.5Cmake.5Cobj.5CMcalCry_KeyManagement.82::
                        1419 .LDWlin82:
000005b4 1d30           1420 	mov	r29,r6
                        1421 	jarl	_McalCry_Local_KeyWriteLockGet,lp
                        1421 <EXPANSION BEGIN>
                        1421 jarl22 _McalCry_Local_KeyWriteLockGet , lp 
000005b6 bfffa2fd*      1421 <EXPANSION END>
000005ba e051           1422 	cmp	zero,r10
                        1423 --line2672
                        1424 ..lin.C.3A.5C_ECU2.5CECU_Rivian_A1.5CTarget.5Crepo_projects.5CpFOTA.5CcL_LATEST.5Cmake.5Cobj.5CMcalCry_KeyManagement.83::
                        1425 .LDWlin83:
000005bc 02e2           1426 	mov	2,r28
000005be ca2d*          1427 	bne	.L4464

                                                                      Page 26
                                                              C:\Users\nhuliyap\AppData\Local\Temp\gh_00002r81.s
                        1428 --line2676
                        1429 ..lin.C.3A.5C_ECU2.5CECU_Rivian_A1.5CTarget.5Crepo_projects.5CpFOTA.5CcL_LATEST.5Cmake.5Cobj.5CMcalCry_KeyManagement.84::
                        1430 .LDWlin84:
000005c0 fdd9           1431 	cmp	r29,r27
000005c2 ca0d*          1432 	bne	.L4458
                        1433 --line2678
                        1434 ..lin.C.3A.5C_ECU2.5CECU_Rivian_A1.5CTarget.5Crepo_projects.5CpFOTA.5CcL_LATEST.5Cmake.5Cobj.5CMcalCry_KeyManagement.85::
                        1435 .LDWlin85:
000005c4 03f0           1436 	mov	sp,ep
000005c6 6a30           1437 	sld.bu	10[ep],r6
000005c8 6b38           1438 	sld.bu	11[ep],r7
000005ca 1d40           1439 	mov	r29,r8
000005cc 1948           1440 	mov	r25,r9
000005ce 01c5           1441 	sst.w	r24,0[ep]
000005d0 03bd           1442 	sst.w	r23,4[ep]
                        1443 	jarl	_McalCry_Local_KeyElementCopyPartial,lp
                        1443 <EXPANSION BEGIN>
                        1443 jarl22 _McalCry_Local_KeyElementCopyPartial , lp 
000005d2 bfff08fc*      1443 <EXPANSION END>
000005d6 0ae0           1444 	mov	r10,r28
000005d8 b515*          1445 	br	.L4460
                        1446 .L4458:
                        1447 --line2680
                        1448 ..lin.C.3A.5C_ECU2.5CECU_Rivian_A1.5CTarget.5Crepo_projects.5CpFOTA.5CcL_LATEST.5Cmake.5Cobj.5CMcalCry_KeyManagement.86::
                        1449 .LDWlin86:
000005da 1b30           1450 	mov	r27,r6
                        1451 	jarl	_McalCry_Local_KeyReadLockGet,lp
                        1451 <EXPANSION BEGIN>
                        1451 jarl22 _McalCry_Local_KeyReadLockGet , lp 
000005dc bfff74fd*      1451 <EXPANSION END>
000005e0 e051           1452 	cmp	zero,r10
000005e2 ea0d*          1453 	bne	.L4460
                        1454 --line2686
                        1455 ..lin.C.3A.5C_ECU2.5CECU_Rivian_A1.5CTarget.5Crepo_projects.5CpFOTA.5CcL_LATEST.5Cmake.5Cobj.5CMcalCry_KeyManagement.87::
                        1456 .LDWlin87:
000005e4 03f0           1457 	mov	sp,ep
000005e6 6a30           1458 	sld.bu	10[ep],r6
000005e8 6b38           1459 	sld.bu	11[ep],r7
000005ea 1d40           1460 	mov	r29,r8
000005ec 1948           1461 	mov	r25,r9
000005ee 01c5           1462 	sst.w	r24,0[ep]
000005f0 03bd           1463 	sst.w	r23,4[ep]
                        1464 	jarl	_McalCry_Local_KeyElementCopyPartial,lp
                        1464 <EXPANSION BEGIN>
                        1464 jarl22 _McalCry_Local_KeyElementCopyPartial , lp 
000005f2 bfffe8fb*      1464 <EXPANSION END>
000005f6 0ae0           1465 	mov	r10,r28
                        1466 --line2687
                        1467 ..lin.C.3A.5C_ECU2.5CECU_Rivian_A1.5CTarget.5Crepo_projects.5CpFOTA.5CcL_LATEST.5Cmake.5Cobj.5CMcalCry_KeyManagement.88::
                        1468 .LDWlin88:
000005f8 1b30           1469 	mov	r27,r6
                        1470 	jarl	_McalCry_Local_KeyReadLockRelease,lp
                        1470 <EXPANSION BEGIN>
                        1470 jarl22 _McalCry_Local_KeyReadLockRelease , lp 
000005fa bfff5afd*      1470 <EXPANSION END>
                        1471 .L4460:
                        1472 --line2689
                        1473 ..lin.C.3A.5C_ECU2.5CECU_Rivian_A1.5CTarget.5Crepo_projects.5CpFOTA.5CcL_LATEST.5Cmake.5Cobj.5CMcalCry_KeyManagement.89::
                        1474 .LDWlin89:
000005fe 1d30           1475 	mov	r29,r6
                        1476 	jarl	_McalCry_Local_KeyWriteLockRelease,lp

                                                                      Page 27
                                                              C:\Users\nhuliyap\AppData\Local\Temp\gh_00002r81.s
                        1476 <EXPANSION BEGIN>
                        1476 jarl22 _McalCry_Local_KeyWriteLockRelease , lp 
00000600 bfff5cfd*      1476 <EXPANSION END>
00000604 950d*          1477 	br	.L4464
                        1478 .L4465:
                        1479 --line2698
                        1480 ..lin.C.3A.5C_ECU2.5CECU_Rivian_A1.5CTarget.5Crepo_projects.5CpFOTA.5CcL_LATEST.5Cmake.5Cobj.5CMcalCry_KeyManagement.90::
                        1481 .LDWlin90:
00000606 1a48           1482 	mov	r26,r9
00000608 20367200       1483 	movea	114,zero,r6
0000060c 003a           1484 	mov	0,r7
0000060e 20461300       1485 	movea	19,zero,r8
                        1486 	jarl	_Det_ReportError,lp
                        1486 <EXPANSION BEGIN>
                        1486 jarl22 _Det_ReportError , lp 
00000612 80ff0000*      1486 <EXPANSION END>
                        1487 .L4464:
                        1488 --line2706
                        1489 ..lin.C.3A.5C_ECU2.5CECU_Rivian_A1.5CTarget.5Crepo_projects.5CpFOTA.5CcL_LATEST.5Cmake.5Cobj.5CMcalCry_KeyManagement.91::
                        1490 .LDWlin91:
00000616 1c50           1491 	mov	r28,r10
                        1492 --	    .ef
                        1493 .LDW37:
00000618 4606fff3       1494 	dispose	3,{r22,r23,r24,r25,r26,r27,r28,r29,r31},[lp]
                        1495 	.type	_McalCry_KeyElementCopyPartial,@function
                        1496 	.size	_McalCry_KeyElementCopyPartial,.-_McalCry_KeyElementCopyPartial
                        1497 	.align	2
                        1498 .LDW47:
                        1499 --_retVal	r28	local
                        1500 --_elementIndexSrc	10[sp]	local
                        1501 --_elementIndexDst	11[sp]	local
                        1502 --_errorId	r26	local
                        1503 
                        1504 --_cryptoKeyId	r27	param
                        1505 --_keyElementId	r7	param
                        1506 --_keyElementSourceOffset	r25	param
                        1507 --_keyElementTargetOffset	r24	param
                        1508 --_keyElementCopyLength	r23	param
                        1509 --_targetCryptoKeyId	r29	param
                        1510 --_targetKeyElementId	r22	param
                        1511 
                        1512 	.section ".bss","awb"
                        1513 .L5167:
                        1514 	.type	.L5167,@object
                        1515 	.size	.L5167,0
                        1516 	.data
                        1517 	.section ".MSR_CODE","ax"
                        1518 	.align	2
                        1519 	.align	2
                        1520 ..gh.f.f.1.e.21:
                        1521 	.type	..gh.f.f.1.e.21,@object
                        1522 	.size	..gh.f.f.1.e.21,0
                        1523 	.global	_McalCry_KeyElementSetInternalStandard
                        1524 _McalCry_KeyElementSetInternalStandard:
0000061c 8007fb700000*  1525 	prepare	{r25,r26,r27,r28,r29,r31},0,rosdaoff23(_McalCry_KeyElementInfo)
00000622 0000*
00000624 06c8           1526 	mov	r6,r25
00000626 9900           1527 	zxb	r25
00000628 08e8           1528 	mov	r8,r29
                        1529 --	    .bf
                        1530 .LDW57:

                                                                      Page 28
                                                              C:\Users\nhuliyap\AppData\Local\Temp\gh_00002r81.s
0000062a f9960600       1531 	mulhi	6,r25,r18
0000062e 3a0600000000*  1532 	mov	sdaoff23(_McalCry_KeyStorage),r26
00000634 d2f1           1533 	add	r18,ep
00000636 c591           1534 	add	r5,r18
00000638 b20707e00000*  1535 	ld.hu	rosdaoff23(_McalCry_KeyElements+2)[r18],r28
0000063e 70d8           1536 	sld.hu	0[ep],r27
00000640 1c30           1537 	mov	r28,r6
00000642 da31           1538 	add	r26,r6
                        1539 	jarl	_VStdLib_MemCpy,lp
                        1539 <EXPANSION BEGIN>
                        1539 jarl22 _VStdLib_MemCpy , lp 
00000644 80ff0000*      1539 <EXPANSION END>
                        1540 --line2720
                        1541 ..lin.C.3A.5C_ECU2.5CECU_Rivian_A1.5CTarget.5Crepo_projects.5CpFOTA.5CcL_LATEST.5Cmake.5Cobj.5CMcalCry_KeyManagement.92::
                        1542 .LDWlin92:
00000648 fdd9           1543 	cmp	r29,r27
0000064a 930d*          1544 	bnh	.L5311
                        1545 --line2721
                        1546 ..lin.C.3A.5C_ECU2.5CECU_Rivian_A1.5CTarget.5Crepo_projects.5CpFOTA.5CcL_LATEST.5Cmake.5Cobj.5CMcalCry_KeyManagement.93::
                        1547 .LDWlin93:
0000064c 1d30           1548 	mov	r29,r6
0000064e dc31           1549 	add	r28,r6
00000650 1b40           1550 	mov	r27,r8
00000652 da31           1551 	add	r26,r6
00000654 bd41           1552 	sub	r29,r8
00000656 003a           1553 	mov	0,r7
                        1554 	jarl	_VStdLib_MemSet,lp
                        1554 <EXPANSION BEGIN>
                        1554 jarl22 _VStdLib_MemSet , lp 
00000658 80ff0000*      1554 <EXPANSION END>
                        1555 .L5311:
                        1556 --line2724
                        1557 ..lin.C.3A.5C_ECU2.5CECU_Rivian_A1.5CTarget.5Crepo_projects.5CpFOTA.5CcL_LATEST.5Cmake.5Cobj.5CMcalCry_KeyManagement.94::
                        1558 .LDWlin94:
0000065c 1930           1559 	mov	r25,r6
0000065e 1d38           1560 	mov	r29,r7
                        1561 	jarl	_McalCry_SetKeyElementWrittenLengthWithCryptoKeyIdSearch,lp
                        1561 <EXPANSION BEGIN>
                        1561 jarl22 _McalCry_SetKeyElementWrittenLengthWithCryptoKeyIdSearch , lp 
00000660 bfffd0f9*      1561 <EXPANSION END>
                        1562 --	    .ef
                        1563 .LDW67:
                        1564 --line2725
                        1565 ..lin.C.3A.5C_ECU2.5CECU_Rivian_A1.5CTarget.5Crepo_projects.5CpFOTA.5CcL_LATEST.5Cmake.5Cobj.5CMcalCry_KeyManagement.95::
                        1566 .LDWlin95:
00000664 4006ff70       1567 	dispose	0,{r25,r26,r27,r28,r29,r31},[lp]
                        1568 	.type	_McalCry_KeyElementSetInternalStandard,@function
                        1569 	.size	_McalCry_KeyElementSetInternalStandard,.-_McalCry_KeyElementSetInternalStandard
                        1570 	.align	2
                        1571 .LDW77:
                        1572 --_keyStorageIndex	r28	local
                        1573 --_maxLength	r27	local
                        1574 
                        1575 --_elementIndex	r25	param
                        1576 --_keyPtr	r7	param
                        1577 --_keyLength	r29	param
                        1578 
                        1579 	.section ".bss","awb"
                        1580 .L5339:
                        1581 	.type	.L5339,@object
                        1582 	.size	.L5339,0

                                                                      Page 29
                                                              C:\Users\nhuliyap\AppData\Local\Temp\gh_00002r81.s
                        1583 	.data
                        1584 	.section ".MSR_CODE","ax"
                        1585 	.align	2
                        1586 	.align	2
                        1587 ..gh.f.f.1.e.22:
                        1588 	.type	..gh.f.f.1.e.22,@object
                        1589 	.size	..gh.f.f.1.e.22,0
                        1590 	.global	_McalCry_KeyElementSetInternalStandardWithCryptoKeyId
                        1591 _McalCry_KeyElementSetInternalStandardWithCryptoKeyId:
00000668 8007fbf00000*  1592 	prepare	{r24,r25,r26,r27,r28,r29,r31},0,rosdaoff23(_McalCry_KeyElementInfo)
0000066e 0000*
00000670 07c8           1593 	mov	r7,r25
00000672 06c0           1594 	mov	r6,r24
00000674 9900           1595 	zxb	r25
00000676 09e8           1596 	mov	r9,r29
                        1597 --	    .bf
                        1598 .LDW87:
00000678 f9960600       1599 	mulhi	6,r25,r18
0000067c 3a0600000000*  1600 	mov	sdaoff23(_McalCry_KeyStorage),r26
00000682 0838           1601 	mov	r8,r7
00000684 0940           1602 	mov	r9,r8
00000686 d2f1           1603 	add	r18,ep
00000688 c591           1604 	add	r5,r18
0000068a b20707e00000*  1605 	ld.hu	rosdaoff23(_McalCry_KeyElements+2)[r18],r28
00000690 70d8           1606 	sld.hu	0[ep],r27
00000692 1c30           1607 	mov	r28,r6
00000694 da31           1608 	add	r26,r6
                        1609 	jarl	_VStdLib_MemCpy,lp
                        1609 <EXPANSION BEGIN>
                        1609 jarl22 _VStdLib_MemCpy , lp 
00000696 80ff0000*      1609 <EXPANSION END>
                        1610 --line2739
                        1611 ..lin.C.3A.5C_ECU2.5CECU_Rivian_A1.5CTarget.5Crepo_projects.5CpFOTA.5CcL_LATEST.5Cmake.5Cobj.5CMcalCry_KeyManagement.96::
                        1612 .LDWlin96:
0000069a fdd9           1613 	cmp	r29,r27
0000069c 930d*          1614 	bnh	.L5377
                        1615 --line2740
                        1616 ..lin.C.3A.5C_ECU2.5CECU_Rivian_A1.5CTarget.5Crepo_projects.5CpFOTA.5CcL_LATEST.5Cmake.5Cobj.5CMcalCry_KeyManagement.97::
                        1617 .LDWlin97:
0000069e 1d30           1618 	mov	r29,r6
000006a0 dc31           1619 	add	r28,r6
000006a2 1b40           1620 	mov	r27,r8
000006a4 da31           1621 	add	r26,r6
000006a6 bd41           1622 	sub	r29,r8
000006a8 003a           1623 	mov	0,r7
                        1624 	jarl	_VStdLib_MemSet,lp
                        1624 <EXPANSION BEGIN>
                        1624 jarl22 _VStdLib_MemSet , lp 
000006aa 80ff0000*      1624 <EXPANSION END>
                        1625 .L5377:
                        1626 --line2743
                        1627 ..lin.C.3A.5C_ECU2.5CECU_Rivian_A1.5CTarget.5Crepo_projects.5CpFOTA.5CcL_LATEST.5Cmake.5Cobj.5CMcalCry_KeyManagement.98::
                        1628 .LDWlin98:
000006ae 1830           1629 	mov	r24,r6
000006b0 1938           1630 	mov	r25,r7
000006b2 1d40           1631 	mov	r29,r8
                        1632 	jarl	_McalCry_SetKeyElementWrittenLengthWithCryptoKeyId,lp
                        1632 <EXPANSION BEGIN>
                        1632 jarl22 _McalCry_SetKeyElementWrittenLengthWithCryptoKeyId , lp 
000006b4 bfff72f9*      1632 <EXPANSION END>
                        1633 --	    .ef

                                                                      Page 30
                                                              C:\Users\nhuliyap\AppData\Local\Temp\gh_00002r81.s
                        1634 .LDW97:
                        1635 --line2744
                        1636 ..lin.C.3A.5C_ECU2.5CECU_Rivian_A1.5CTarget.5Crepo_projects.5CpFOTA.5CcL_LATEST.5Cmake.5Cobj.5CMcalCry_KeyManagement.99::
                        1637 .LDWlin99:
000006b8 4006fff0       1638 	dispose	0,{r24,r25,r26,r27,r28,r29,r31},[lp]
                        1639 	.type	_McalCry_KeyElementSetInternalStandardWithCryptoKeyId,@function
                        1640 	.size	_McalCry_KeyElementSetInternalStandardWithCryptoKeyId,.-_McalCry_KeyElementSetInternalStandardWithCryptoKeyId
                        1641 	.align	2
                        1642 .LDW08:
                        1643 --_keyStorageIndex	r28	local
                        1644 --_maxLength	r27	local
                        1645 
                        1646 --_cryptoKeyId	r24	param
                        1647 --_elementIndex	r25	param
                        1648 --_keyPtr	r8	param
                        1649 --_keyLength	r29	param
                        1650 
                        1651 	.section ".bss","awb"
                        1652 .L5419:
                        1653 	.type	.L5419,@object
                        1654 	.size	.L5419,0
                        1655 	.data
                        1656 	.section ".MSR_CODE","ax"
                        1657 	.align	2
                        1658 	.align	2
                        1659 ..gh.f.f.1.e.23:
                        1660 	.type	..gh.f.f.1.e.23,@object
                        1661 	.size	..gh.f.f.1.e.23,0
                        1662 	.global	_McalCry_Local_KeyElementSetInternal
                        1663 _McalCry_Local_KeyElementSetInternal:
000006bc 80073b000000*  1664 	prepare	{r31},0,rosdaoff23(_McalCry_KeyElements)
000006c2 0000*
000006c4 0798           1665 	mov	r7,r19
000006c6 0680           1666 	mov	r6,r16
000006c8 9300           1667 	zxb	r19
000006ca 0878           1668 	mov	r8,r15
000006cc 83770500       1669 	ld.bu	4[sp],r14
                        1670 --	    .bf
                        1671 .LDW18:
000006d0 f33e0600       1672 	mulhi	6,r19,r7
000006d4 c7f1           1673 	add	r7,ep
000006d6 7190           1674 	sld.hu	2[ep],r18
000006d8 3e0600000000*  1675 	mov	sdaoff23(_McalCry_KeyStorage),ep
000006de 126efeff       1676 	addi	-2,r18,r13
000006e2 cd00           1677 	zxh	r13
000006e4 cdf1           1678 	add	r13,ep
000006e6 deff0000       1679 	tst1	7,0[ep]
000006ea 9a1d*          1680 	bne	.L5464
                        1681 --line2768
                        1682 ..lin.C.3A.5C_ECU2.5CECU_Rivian_A1.5CTarget.5Crepo_projects.5CpFOTA.5CcL_LATEST.5Cmake.5Cobj.5CMcalCry_KeyManagement.100::
                        1683 .LDWlin100:
000006ec 3e0600000000*  1684 	mov	rosdaoff23(_McalCry_KeyElementInfo),ep
000006f2 c7f1           1685 	add	r7,ep
000006f4 7030           1686 	sld.hu	0[ep],r6
000006f6 e649           1687 	cmp	r6,r9
000006f8 f205*          1688 	be	.L5461
000006fa 6340           1689 	sld.bu	3[ep],r8
000006fc 8142           1690 	shr	1,r8
000006fe 8142           1691 	shr	1,r8
00000700 9915*          1692 	bnl	.L5460
00000702 e649           1693 	cmp	r6,r9

                                                                      Page 31
                                                              C:\Users\nhuliyap\AppData\Local\Temp\gh_00002r81.s
00000704 fb0d*          1694 	bh	.L5460
                        1695 .L5461:
                        1696 --line2772
                        1697 ..lin.C.3A.5C_ECU2.5CECU_Rivian_A1.5CTarget.5Crepo_projects.5CpFOTA.5CcL_LATEST.5Cmake.5Cobj.5CMcalCry_KeyManagement.101::
                        1698 .LDWlin101:
00000706 6550           1699 	sld.bu	5[ep],r10
00000708 ea71           1700 	cmp	r10,r14
0000070a 910d*          1701 	bl	.L5464
                        1702 --line2774
                        1703 ..lin.C.3A.5C_ECU2.5CECU_Rivian_A1.5CTarget.5Crepo_projects.5CpFOTA.5CcL_LATEST.5Cmake.5Cobj.5CMcalCry_KeyManagement.102::
                        1704 .LDWlin102:
0000070c 1030           1705 	mov	r16,r6
0000070e 1338           1706 	mov	r19,r7
00000710 0f40           1707 	mov	r15,r8
                        1708 	jarl	_McalCry_KeyElementSetInternalStandardWithCryptoKeyId,lp
                        1708 <EXPANSION BEGIN>
                        1708 jarl22 _McalCry_KeyElementSetInternalStandardWithCryptoKeyId , lp 
00000712 bfff56ff*      1708 <EXPANSION END>
                        1709 --line2775
                        1710 ..lin.C.3A.5C_ECU2.5CECU_Rivian_A1.5CTarget.5Crepo_projects.5CpFOTA.5CcL_LATEST.5Cmake.5Cobj.5CMcalCry_KeyManagement.103::
                        1711 .LDWlin103:
00000716 0052           1712 	mov	0,r10
00000718 40063f00       1713 	dispose	0,{r31},[lp]
                        1714 .L5464:
                        1715 --line2779
                        1716 ..lin.C.3A.5C_ECU2.5CECU_Rivian_A1.5CTarget.5Crepo_projects.5CpFOTA.5CcL_LATEST.5Cmake.5Cobj.5CMcalCry_KeyManagement.104::
                        1717 .LDWlin104:
0000071c 0752           1718 	mov	7,r10
0000071e 40063f00       1719 	dispose	0,{r31},[lp]
                        1720 .L5460:
                        1721 --line2784
                        1722 ..lin.C.3A.5C_ECU2.5CECU_Rivian_A1.5CTarget.5Crepo_projects.5CpFOTA.5CcL_LATEST.5Cmake.5Cobj.5CMcalCry_KeyManagement.105::
                        1723 .LDWlin105:
00000722 0a52           1724 	mov	10,r10
                        1725 --	    .ef
                        1726 .LDW28:
00000724 40063f00       1727 	dispose	0,{r31},[lp]
                        1728 	.type	_McalCry_Local_KeyElementSetInternal,@function
                        1729 	.size	_McalCry_Local_KeyElementSetInternal,.-_McalCry_Local_KeyElementSetInternal
                        1730 	.align	2
                        1731 .LDW38:
                        1732 --_retVal	r10	local
                        1733 
                        1734 --_cryptoKeyId	r16	param
                        1735 --_elementIndex	r19	param
                        1736 --_keyPtr	r15	param
                        1737 --_keyLength	r9	param
                        1738 --_writeAccess	r14	param
                        1739 
                        1740 	.section ".bss","awb"
                        1741 .L5553:
                        1742 	.type	.L5553,@object
                        1743 	.size	.L5553,0
                        1744 	.data
                        1745 	.section ".MSR_CODE","ax"
                        1746 	.align	2
                        1747 	.align	2
                        1748 ..gh.f.f.1.e.24:
                        1749 	.type	..gh.f.f.1.e.24,@object
                        1750 	.size	..gh.f.f.1.e.24,0
                        1751 	.global	_McalCry_KeyElementSet

                                                                      Page 32
                                                              C:\Users\nhuliyap\AppData\Local\Temp\gh_00002r81.s
                        1752 _McalCry_KeyElementSet:
00000728 8807e130       1753 	prepare	{r26,r27,r28,r29,r31},4
0000072c 06d8           1754 	mov	r6,r27
0000072e 08d0           1755 	mov	r8,r26
                        1756 --	    .bf
                        1757 .LDW48:
00000730 a40705880000*  1758 	ld.bu	sdaoff23(_McalCry_ModuleInitialized)[gp],r17
00000736 20eeff00       1759 	movea	255,zero,r29
0000073a 01e2           1760 	mov	1,r28
0000073c d1860100       1761 	andi	1,r17,r16
00000740 f0ef24eb       1762 	cmove	r16,r29,r29
00000744 a24d*          1763 	be	.L5668
                        1764 --line2831
                        1765 ..lin.C.3A.5C_ECU2.5CECU_Rivian_A1.5CTarget.5Crepo_projects.5CpFOTA.5CcL_LATEST.5Cmake.5Cobj.5CMcalCry_KeyManagement.106::
                        1766 .LDWlin106:
00000746 6732           1767 	cmp	7,r6
00000748 e4ef12eb       1768 	cmovnl	4,r29,r29
0000074c e945*          1769 	bnl	.L5668
                        1770 --line2834
                        1771 ..lin.C.3A.5C_ECU2.5CECU_Rivian_A1.5CTarget.5Crepo_projects.5CpFOTA.5CcL_LATEST.5Cmake.5Cobj.5CMcalCry_KeyManagement.107::
                        1772 .LDWlin107:
0000074e e041           1773 	cmp	zero,r8
00000750 e2ef04eb       1774 	cmove	2,r29,r29
00000754 a245*          1775 	be	.L5668
                        1776 --line2838
                        1777 ..lin.C.3A.5C_ECU2.5CECU_Rivian_A1.5CTarget.5Crepo_projects.5CpFOTA.5CcL_LATEST.5Cmake.5Cobj.5CMcalCry_KeyManagement.108::
                        1778 .LDWlin108:
00000756 e049           1779 	cmp	zero,r9
00000758 e5ef04eb       1780 	cmove	5,r29,r29
0000075c e23d*          1781 	be	.L5668
                        1782 --	    .bs
                        1783 .LDW58:
                        1784 --line2845
                        1785 ..lin.C.3A.5C_ECU2.5CECU_Rivian_A1.5CTarget.5Crepo_projects.5CpFOTA.5CcL_LATEST.5Cmake.5Cobj.5CMcalCry_KeyManagement.109::
                        1786 .LDWlin109:
0000075e 43070700       1787 	st.b	zero,7[sp]
                        1788 	jarl	_McalCry_Local_KeyWriteLockGet,lp
                        1788 <EXPANSION BEGIN>
                        1788 jarl22 _McalCry_Local_KeyWriteLockGet , lp 
00000762 bffff6fb*      1788 <EXPANSION END>
00000766 e051           1789 	cmp	zero,r10
                        1790 --line2848
                        1791 ..lin.C.3A.5C_ECU2.5CECU_Rivian_A1.5CTarget.5Crepo_projects.5CpFOTA.5CcL_LATEST.5Cmake.5Cobj.5CMcalCry_KeyManagement.110::
                        1792 .LDWlin110:
00000768 e2e714e3       1793 	cmovne	2,r28,r28
0000076c da3d*          1794 	bne	.L5667
                        1795 --line2860
                        1796 ..lin.C.3A.5C_ECU2.5CECU_Rivian_A1.5CTarget.5Crepo_projects.5CpFOTA.5CcL_LATEST.5Cmake.5Cobj.5CMcalCry_KeyManagement.111::
                        1797 .LDWlin111:
0000076e 23460700       1798 	movea	7,sp,r8
                        1799 	jarl	_McalCry_Local_KeyElementSearch,lp
                        1799 <EXPANSION BEGIN>
                        1799 jarl22 _McalCry_Local_KeyElementSearch , lp 
00000772 bfffeefb*      1799 <EXPANSION END>
00000776 e051           1800 	cmp	zero,r10
                        1801 --line2863
                        1802 ..lin.C.3A.5C_ECU2.5CECU_Rivian_A1.5CTarget.5Crepo_projects.5CpFOTA.5CcL_LATEST.5Cmake.5Cobj.5CMcalCry_KeyManagement.112::
                        1803 .LDWlin112:
00000778 e4ef14eb       1804 	cmovne	4,r29,r29
0000077c 8a2d*          1805 	bne	.L5662
                        1806 --line2867

                                                                      Page 33
                                                              C:\Users\nhuliyap\AppData\Local\Temp\gh_00002r81.s
                        1807 ..lin.C.3A.5C_ECU2.5CECU_Rivian_A1.5CTarget.5Crepo_projects.5CpFOTA.5CcL_LATEST.5Cmake.5Cobj.5CMcalCry_KeyManagement.113::
                        1808 .LDWlin113:
0000077e 03f0           1809 	mov	sp,ep
00000780 6738           1810 	sld.bu	7[ep],r7
00000782 1b30           1811 	mov	r27,r6
00000784 1a40           1812 	mov	r26,r8
00000786 0105           1813 	sst.w	zero,0[ep]
                        1814 	jarl	_McalCry_Local_KeyElementSetInternal,lp
                        1814 <EXPANSION BEGIN>
                        1814 jarl22 _McalCry_Local_KeyElementSetInternal , lp 
00000788 bfff34ff*      1814 <EXPANSION END>
0000078c 0ae0           1815 	mov	r10,r28
                        1816 --line2876
                        1817 ..lin.C.3A.5C_ECU2.5CECU_Rivian_A1.5CTarget.5Crepo_projects.5CpFOTA.5CcL_LATEST.5Cmake.5Cobj.5CMcalCry_KeyManagement.114::
                        1818 .LDWlin114:
0000078e e051           1819 	cmp	zero,r10
00000790 ea1d*          1820 	bne	.L5662
                        1821 --line2878
                        1822 ..lin.C.3A.5C_ECU2.5CECU_Rivian_A1.5CTarget.5Crepo_projects.5CpFOTA.5CcL_LATEST.5Cmake.5Cobj.5CMcalCry_KeyManagement.115::
                        1823 .LDWlin115:
00000792 a34f0700       1824 	ld.bu	7[sp],r9
00000796 05f0           1825 	mov	r5,ep
00000798 e98e0600       1826 	mulhi	6,r9,r17
0000079c d1f1           1827 	add	r17,ep
0000079e be0707780000*  1828 	ld.hu	rosdaoff23(_McalCry_KeyElements+2)[ep],r15
000007a4 3e0600000000*  1829 	mov	sdaoff23(_McalCry_KeyStorage),ep
000007aa c589           1830 	add	r5,r17
000007ac 0f46feff       1831 	addi	-2,r15,r8
000007b0 c800           1832 	zxh	r8
000007b2 c8f1           1833 	add	r8,ep
000007b4 6090           1834 	sld.bu	0[ep],r18
000007b6 d2968000       1835 	andi	128,r18,r18
000007ba 8093           1836 	sst.b	r18,0[ep]
000007bc b10705980000*  1837 	ld.bu	rosdaoff23(_McalCry_KeyElementInfo+3)[r17],r19
000007c2 839a           1838 	shr	3,r19
000007c4 c905*          1839 	bnl	.L5662
                        1840 --line2881
                        1841 ..lin.C.3A.5C_ECU2.5CECU_Rivian_A1.5CTarget.5Crepo_projects.5CpFOTA.5CcL_LATEST.5Cmake.5Cobj.5CMcalCry_KeyManagement.116::
                        1842 .LDWlin116:
000007c6 20968000       1843 	movea	128,zero,r18
000007ca 8093           1844 	sst.b	r18,0[ep]
                        1845 .L5662:
000007cc 1b30           1846 	mov	r27,r6
                        1847 	jarl	_McalCry_Local_KeyWriteLockRelease,lp
                        1847 <EXPANSION BEGIN>
                        1847 jarl22 _McalCry_Local_KeyWriteLockRelease , lp 
000007ce bfff8efb*      1847 <EXPANSION END>
                        1848 --	    .es
                        1849 .LDW68:
                        1850 --line2891
                        1851 ..lin.C.3A.5C_ECU2.5CECU_Rivian_A1.5CTarget.5Crepo_projects.5CpFOTA.5CcL_LATEST.5Cmake.5Cobj.5CMcalCry_KeyManagement.117::
                        1852 .LDWlin117:
000007d2 1d0601ff       1853 	addi	-255,r29,zero
000007d6 820d*          1854 	be	.L5667
                        1855 .L5668:
                        1856 --line2892
                        1857 ..lin.C.3A.5C_ECU2.5CECU_Rivian_A1.5CTarget.5Crepo_projects.5CpFOTA.5CcL_LATEST.5Cmake.5Cobj.5CMcalCry_KeyManagement.118::
                        1858 .LDWlin118:
000007d8 1d48           1859 	mov	r29,r9
000007da 20367200       1860 	movea	114,zero,r6
000007de 003a           1861 	mov	0,r7

                                                                      Page 34
                                                              C:\Users\nhuliyap\AppData\Local\Temp\gh_00002r81.s
000007e0 0442           1862 	mov	4,r8
                        1863 	jarl	_Det_ReportError,lp
                        1863 <EXPANSION BEGIN>
                        1863 jarl22 _Det_ReportError , lp 
000007e2 80ff0000*      1863 <EXPANSION END>
                        1864 .L5667:
                        1865 --line2901
                        1866 ..lin.C.3A.5C_ECU2.5CECU_Rivian_A1.5CTarget.5Crepo_projects.5CpFOTA.5CcL_LATEST.5Cmake.5Cobj.5CMcalCry_KeyManagement.119::
                        1867 .LDWlin119:
000007e6 1c50           1868 	mov	r28,r10
                        1869 --	    .ef
                        1870 .LDW78:
000007e8 4806ff30       1871 	dispose	4,{r26,r27,r28,r29,r31},[lp]
                        1872 	.type	_McalCry_KeyElementSet,@function
                        1873 	.size	_McalCry_KeyElementSet,.-_McalCry_KeyElementSet
                        1874 	.align	2
                        1875 .LDW88:
                        1876 --_retVal	r28	local
                        1877 --_errorId	r29	local
                        1878 --_elementIndex	7[sp]	local
                        1879 
                        1880 --_cryptoKeyId	r27	param
                        1881 --_keyElementId	r24	param
                        1882 --_keyPtr	r26	param
                        1883 --_keyLength	r25	param
                        1884 
                        1885 	.section ".bss","awb"
                        1886 .L6608:
                        1887 	.type	.L6608,@object
                        1888 	.size	.L6608,0
                        1889 	.data
                        1890 	.section ".MSR_CODE","ax"
                        1891 	.align	2
                        1892 	.align	2
                        1893 ..gh.f.f.1.e.25:
                        1894 	.type	..gh.f.f.1.e.25,@object
                        1895 	.size	..gh.f.f.1.e.25,0
                        1896 	.global	_McalCry_KeyValidSet
                        1897 _McalCry_KeyValidSet:
000007ec 8007e100       1898 	prepare	{r28,r29,r31},0
000007f0 06e8           1899 	mov	r6,r29
                        1900 --	    .bf
                        1901 .LDW98:
000007f2 a40705400000*  1902 	ld.bu	sdaoff23(_McalCry_ModuleInitialized)[gp],r8
000007f8 01e2           1903 	mov	1,r28
000007fa c84e0100       1904 	andi	1,r8,r9
000007fe c215*          1905 	be	.L6770
                        1906 --line2917
                        1907 ..lin.C.3A.5C_ECU2.5CECU_Rivian_A1.5CTarget.5Crepo_projects.5CpFOTA.5CcL_LATEST.5Cmake.5Cobj.5CMcalCry_KeyManagement.120::
                        1908 .LDWlin120:
00000800 6732           1909 	cmp	7,r6
00000802 044a           1910 	mov	4,r9
00000804 9915*          1911 	bnl	.L6770
                        1912 --line2923
                        1913 ..lin.C.3A.5C_ECU2.5CECU_Rivian_A1.5CTarget.5Crepo_projects.5CpFOTA.5CcL_LATEST.5Cmake.5Cobj.5CMcalCry_KeyManagement.121::
                        1914 .LDWlin121:
                        1915 	jarl	_McalCry_Local_KeyWriteLockGet,lp
                        1915 <EXPANSION BEGIN>
                        1915 jarl22 _McalCry_Local_KeyWriteLockGet , lp 
00000806 bfff52fb*      1915 <EXPANSION END>
0000080a e051           1916 	cmp	zero,r10

                                                                      Page 35
                                                              C:\Users\nhuliyap\AppData\Local\Temp\gh_00002r81.s
                        1917 --line2924
                        1918 ..lin.C.3A.5C_ECU2.5CECU_Rivian_A1.5CTarget.5Crepo_projects.5CpFOTA.5CcL_LATEST.5Cmake.5Cobj.5CMcalCry_KeyManagement.122::
                        1919 .LDWlin122:
0000080c d205*          1920 	be	.L6766
0000080e 02e2           1921 	mov	2,r28
                        1922 .L6769:
                        1923 --line2958
                        1924 ..lin.C.3A.5C_ECU2.5CECU_Rivian_A1.5CTarget.5Crepo_projects.5CpFOTA.5CcL_LATEST.5Cmake.5Cobj.5CMcalCry_KeyManagement.123::
                        1925 .LDWlin123:
00000810 1c50           1926 	mov	r28,r10
                        1927 --	    .ef
                        1928 .LDW09:
00000812 4006ff00       1929 	dispose	0,{r28,r29,r31},[lp]
                        1930 .L6766:
                        1931 --line2927
                        1932 ..lin.C.3A.5C_ECU2.5CECU_Rivian_A1.5CTarget.5Crepo_projects.5CpFOTA.5CcL_LATEST.5Cmake.5Cobj.5CMcalCry_KeyManagement.124::
                        1933 .LDWlin124:
00000816 1c38           1934 	mov	r28,r7
                        1935 	jarl	_McalCry_SetKeyState,lp
                        1935 <EXPANSION BEGIN>
                        1935 jarl22 _McalCry_SetKeyState , lp 
00000818 bfff90f8*      1935 <EXPANSION END>
                        1936 --line2932
                        1937 ..lin.C.3A.5C_ECU2.5CECU_Rivian_A1.5CTarget.5Crepo_projects.5CpFOTA.5CcL_LATEST.5Cmake.5Cobj.5CMcalCry_KeyManagement.125::
                        1938 .LDWlin125:
0000081c 1d30           1939 	mov	r29,r6
                        1940 	jarl	_McalCry_Local_KeyWriteLockRelease,lp
                        1940 <EXPANSION BEGIN>
                        1940 jarl22 _McalCry_Local_KeyWriteLockRelease , lp 
0000081e bfff3efb*      1940 <EXPANSION END>
                        1941 --line2942
                        1942 ..lin.C.3A.5C_ECU2.5CECU_Rivian_A1.5CTarget.5Crepo_projects.5CpFOTA.5CcL_LATEST.5Cmake.5Cobj.5CMcalCry_KeyManagement.126::
                        1943 .LDWlin126:
00000822 00e2           1944 	mov	0,r28
00000824 e5f5*          1945 	br	.L6769
                        1946 .L6770:
                        1947 --line2949
                        1948 ..lin.C.3A.5C_ECU2.5CECU_Rivian_A1.5CTarget.5Crepo_projects.5CpFOTA.5CcL_LATEST.5Cmake.5Cobj.5CMcalCry_KeyManagement.127::
                        1949 .LDWlin127:
00000826 20367200       1950 	movea	114,zero,r6
0000082a 003a           1951 	mov	0,r7
0000082c 0542           1952 	mov	5,r8
                        1953 	jarl	_Det_ReportError,lp
                        1953 <EXPANSION BEGIN>
                        1953 jarl22 _Det_ReportError , lp 
0000082e 80ff0000*      1953 <EXPANSION END>
00000832 f5ed*          1954 	br	.L6769
                        1955 	.type	_McalCry_KeyValidSet,@function
                        1956 	.size	_McalCry_KeyValidSet,.-_McalCry_KeyValidSet
                        1957 	.align	2
                        1958 .LDW19:
                        1959 --_errorId	r9	local
                        1960 --_retVal	r28	local
                        1961 
                        1962 --_cryptoKeyId	r29	param
                        1963 
                        1964 	.section ".bss","awb"
                        1965 .L7185:
                        1966 	.type	.L7185,@object
                        1967 	.size	.L7185,0
                        1968 	.data

                                                                      Page 36
                                                              C:\Users\nhuliyap\AppData\Local\Temp\gh_00002r81.s
                        1969 	.section ".MSR_CODE","ax"
                        1970 	.align	2
                        1971 	.align	2
                        1972 ..gh.f.f.1.e.26:
                        1973 	.type	..gh.f.f.1.e.26,@object
                        1974 	.size	..gh.f.f.1.e.26,0
                        1975 	.global	_McalCry_Local_KeyElementGetStorageIndexBasic
                        1976 _McalCry_Local_KeyElementGetStorageIndexBasic:
00000834 8600           1977 	zxb	r6
00000836 0770           1978 	mov	r7,r14
00000838 8900           1979 	zxb	r9
                        1980 --	    .bf
                        1981 .LDW29:
0000083a 614a           1982 	cmp	1,r9
0000083c e145*          1983 	bl	.L7279
0000083e b21d*          1984 	be	.L7271
00000840 634a           1985 	cmp	3,r9
00000842 e12d*          1986 	bl	.L7273
00000844 ea15*          1987 	bne	.L7280
00000846 e6f60600       1988 	mulhi	6,r6,ep
0000084a 283f0100       1989 	ld.w	0[r8],r7
0000084e c5f1           1990 	add	r5,ep
00000850 be0707900000*  1991 	ld.hu	rosdaoff23(_McalCry_KeyElements+2)[ep],r18
00000856 3e0600000000*  1992 	mov	sdaoff23(_McalCry_KeyStorage),ep
0000085c 124efcff       1993 	addi	-4,r18,r9
00000860 c900           1994 	zxh	r9
00000862 c9f1           1995 	add	r9,ep
00000864 6080           1996 	sld.bu	0[ep],r16
00000866 6178           1997 	sld.bu	1[ep],r15
00000868 c882           1998 	shl	8,r16
0000086a 1079           1999 	or	r16,r15
0000086c e779           2000 	cmp	r7,r15
0000086e d92d*          2001 	bnl	.L7279
                        2002 .L7280:
00000870 0352           2003 	mov	3,r10
                        2004 --line2993
                        2005 ..lin.C.3A.5C_ECU2.5CECU_Rivian_A1.5CTarget.5Crepo_projects.5CpFOTA.5CcL_LATEST.5Cmake.5Cobj.5CMcalCry_KeyManagement.128::
                        2006 .LDWlin128:
00000872 7f00           2007 	jmp	[lp]
                        2008 .L7271:
00000874 e6f60600       2009 	mulhi	6,r6,ep
00000878 288f0100       2010 	ld.w	0[r8],r17
0000087c c5f1           2011 	add	r5,ep
0000087e be0707900000*  2012 	ld.hu	rosdaoff23(_McalCry_KeyElements+2)[ep],r18
00000884 3e0600000000*  2013 	mov	sdaoff23(_McalCry_KeyStorage),ep
0000088a 5c92           2014 	add	-4,r18
0000088c d200           2015 	zxh	r18
0000088e d2f1           2016 	add	r18,ep
00000890 6038           2017 	sld.bu	0[ep],r7
00000892 6198           2018 	sld.bu	1[ep],r19
00000894 c83a           2019 	shl	8,r7
00000896 0799           2020 	or	r7,r19
00000898 f199           2021 	cmp	r17,r19
0000089a bbed*          2022 	bh	.L7280
0000089c e515*          2023 	br	.L7279
                        2024 .L7273:
0000089e e6f60600       2025 	mulhi	6,r6,ep
000008a2 28670100       2026 	ld.w	0[r8],r12
000008a6 c5f1           2027 	add	r5,ep
000008a8 be0707900000*  2028 	ld.hu	rosdaoff23(_McalCry_KeyElements+2)[ep],r18
000008ae 3e0600000000*  2029 	mov	sdaoff23(_McalCry_KeyStorage),ep

                                                                      Page 37
                                                              C:\Users\nhuliyap\AppData\Local\Temp\gh_00002r81.s
000008b4 126efcff       2030 	addi	-4,r18,r13
000008b8 cd00           2031 	zxh	r13
000008ba cdf1           2032 	add	r13,ep
000008bc 6090           2033 	sld.bu	0[ep],r18
000008be 6188           2034 	sld.bu	1[ep],r17
000008c0 c892           2035 	shl	8,r18
000008c2 1289           2036 	or	r18,r17
000008c4 ec89           2037 	cmp	r12,r17
000008c6 dad5*          2038 	bne	.L7280
                        2039 .L7279:
000008c8 e6f60600       2040 	mulhi	6,r6,ep
000008cc 0052           2041 	mov	0,r10
000008ce c5f1           2042 	add	r5,ep
000008d0 be0707900000*  2043 	ld.hu	rosdaoff23(_McalCry_KeyElements+2)[ep],r18
000008d6 3e0600000000*  2044 	mov	sdaoff23(_McalCry_KeyStorage),ep
000008dc 6e970000       2045 	st.h	r18,0[r14]
000008e0 5c92           2046 	add	-4,r18
000008e2 d200           2047 	zxh	r18
000008e4 d2f1           2048 	add	r18,ep
000008e6 6070           2049 	sld.bu	0[ep],r14
000008e8 6168           2050 	sld.bu	1[ep],r13
000008ea c872           2051 	shl	8,r14
000008ec 0e69           2052 	or	r14,r13
000008ee 686f0100       2053 	st.w	r13,0[r8]
                        2054 --	    .ef
                        2055 .LDW39:
                        2056 --line2993
                        2057 ..lin.C.3A.5C_ECU2.5CECU_Rivian_A1.5CTarget.5Crepo_projects.5CpFOTA.5CcL_LATEST.5Cmake.5Cobj.5CMcalCry_KeyManagement.129::
                        2058 .LDWlin129:
000008f2 7f00           2059 	jmp	[lp]
                        2060 	.type	_McalCry_Local_KeyElementGetStorageIndexBasic,@function
                        2061 	.size	_McalCry_Local_KeyElementGetStorageIndexBasic,.-_McalCry_Local_KeyElementGetStorageIndexBasic
                        2062 	.align	2
                        2063 .LDW49:
                        2064 --_retVal	r10	local
                        2065 
                        2066 --_elementIndex	r6	param
                        2067 --_resultIndexPtr	r14	param
                        2068 --_resultLengthPtr	r8	param
                        2069 --_lengthCheck	r9	param
                        2070 --_serviceType	none	param
                        2071 
                        2072 	.section ".bss","awb"
                        2073 .L7392:
                        2074 	.type	.L7392,@object
                        2075 	.size	.L7392,0
                        2076 	.data
                        2077 	.section ".MSR_CODE","ax"
                        2078 	.align	2
                        2079 	.align	2
                        2080 ..gh.f.f.1.e.27:
                        2081 	.type	..gh.f.f.1.e.27,@object
                        2082 	.size	..gh.f.f.1.e.27,0
                        2083 	.global	_McalCry_Local_KeyElementGetStorageIndexExtended
                        2084 _McalCry_Local_KeyElementGetStorageIndexExtended:
000008f4 8407e130       2085 	prepare	{r26,r27,r28,r29,r31},2
000008f8 08e8           2086 	mov	r8,r29
000008fa 83df1d00       2087 	ld.bu	28[sp],r27
000008fe 83d72100       2088 	ld.bu	32[sp],r26
                        2089 --	    .bf
                        2090 .LDW59:

                                                                      Page 38
                                                              C:\Users\nhuliyap\AppData\Local\Temp\gh_00002r81.s
00000902 43070700       2091 	st.b	zero,7[sp]
00000906 23460700       2092 	movea	7,sp,r8
                        2093 	jarl	_McalCry_Local_KeyElementSearch,lp
                        2093 <EXPANSION BEGIN>
                        2093 jarl22 _McalCry_Local_KeyElementSearch , lp 
0000090a bfff56fa*      2093 <EXPANSION END>
0000090e e051           2094 	cmp	zero,r10
                        2095 --line3007
                        2096 ..lin.C.3A.5C_ECU2.5CECU_Rivian_A1.5CTarget.5Crepo_projects.5CpFOTA.5CcL_LATEST.5Cmake.5Cobj.5CMcalCry_KeyManagement.130::
                        2097 .LDWlin130:
00000910 c205*          2098 	be	.L7485
00000912 0852           2099 	mov	8,r10
00000914 4406ff30       2100 	dispose	2,{r26,r27,r28,r29,r31},[lp]
                        2101 .L7485:
                        2102 --line3010
                        2103 ..lin.C.3A.5C_ECU2.5CECU_Rivian_A1.5CTarget.5Crepo_projects.5CpFOTA.5CcL_LATEST.5Cmake.5Cobj.5CMcalCry_KeyManagement.131::
                        2104 .LDWlin131:
00000918 a3370700       2105 	ld.bu	7[sp],r6
0000091c e6f60600       2106 	mulhi	6,r6,ep
00000920 c5f1           2107 	add	r5,ep
00000922 be0707980000*  2108 	ld.hu	rosdaoff23(_McalCry_KeyElements+2)[ep],r19
00000928 3e0600000000*  2109 	mov	sdaoff23(_McalCry_KeyStorage),ep
0000092e 133efeff       2110 	addi	-2,r19,r7
00000932 c700           2111 	zxh	r7
00000934 c7f1           2112 	add	r7,ep
00000936 dec70000       2113 	tst1	0,0[ep]
0000093a a20d*          2114 	be	.L7487
                        2115 --line3014
                        2116 ..lin.C.3A.5C_ECU2.5CECU_Rivian_A1.5CTarget.5Crepo_projects.5CpFOTA.5CcL_LATEST.5Cmake.5Cobj.5CMcalCry_KeyManagement.132::
                        2117 .LDWlin132:
0000093c 0940           2118 	mov	r9,r8
0000093e 1d38           2119 	mov	r29,r7
00000940 1b48           2120 	mov	r27,r9
00000942 63d70100       2121 	st.w	r26,0[sp]
                        2122 	jarl	_McalCry_Local_KeyElementGetStorageIndexBasic,lp
                        2122 <EXPANSION BEGIN>
                        2122 jarl22 _McalCry_Local_KeyElementGetStorageIndexBasic , lp 
00000946 bfffeefe*      2122 <EXPANSION END>
0000094a 4406ff30       2123 	dispose	2,{r26,r27,r28,r29,r31},[lp]
                        2124 .L7487:
0000094e 0952           2125 	mov	9,r10
                        2126 --	    .ef
                        2127 .LDW69:
                        2128 --line3017
                        2129 ..lin.C.3A.5C_ECU2.5CECU_Rivian_A1.5CTarget.5Crepo_projects.5CpFOTA.5CcL_LATEST.5Cmake.5Cobj.5CMcalCry_KeyManagement.133::
                        2130 .LDWlin133:
00000950 4406ff30       2131 	dispose	2,{r26,r27,r28,r29,r31},[lp]
                        2132 	.type	_McalCry_Local_KeyElementGetStorageIndexExtended,@function
                        2133 	.size	_McalCry_Local_KeyElementGetStorageIndexExtended,.-_McalCry_Local_KeyElementGetStorageIndexExtended
                        2134 	.align	2
                        2135 .LDW79:
                        2136 --_retVal	r10	local
                        2137 --_elementIndex	7[sp]	local
                        2138 
                        2139 --_cryptoKeyId	r6	param
                        2140 --_keyElementId	r7	param
                        2141 --_resultIndexPtr	r29	param
                        2142 --_resultLengthPtr	r28	param
                        2143 --_lengthCheck	r27	param
                        2144 --_serviceType	r26	param
                        2145 

                                                                      Page 39
                                                              C:\Users\nhuliyap\AppData\Local\Temp\gh_00002r81.s
                        2146 	.section ".bss","awb"
                        2147 .L7561:
                        2148 	.type	.L7561,@object
                        2149 	.size	.L7561,0
                        2150 	.data
                        2151 	.section ".MSR_CODE","ax"
                        2152 	.align	2
                        2153 	.align	2
                        2154 ..gh.f.f.1.e.28:
                        2155 	.type	..gh.f.f.1.e.28,@object
                        2156 	.size	..gh.f.f.1.e.28,0
                        2157 	.global	_McalCry_Local_KeyElementGetStorageIndex
                        2158 _McalCry_Local_KeyElementGetStorageIndex:
00000954 84072300       2159 	prepare	{r31},2,sp
00000958 6c98           2160 	sld.bu	12[ep],r19
                        2161 --	    .bf
                        2162 .LDW89:
0000095a 0492           2163 	mov	4,r18
0000095c 019d           2164 	sst.w	r19,0[ep]
0000095e 0395           2165 	sst.w	r18,4[ep]
                        2166 	jarl	_McalCry_Local_KeyElementGetStorageIndexExtended,lp
                        2166 <EXPANSION BEGIN>
                        2166 jarl22 _McalCry_Local_KeyElementGetStorageIndexExtended , lp 
00000960 bfff94ff*      2166 <EXPANSION END>
                        2167 --	    .ef
                        2168 .LDW99:
                        2169 --line3030
                        2170 ..lin.C.3A.5C_ECU2.5CECU_Rivian_A1.5CTarget.5Crepo_projects.5CpFOTA.5CcL_LATEST.5Cmake.5Cobj.5CMcalCry_KeyManagement.134::
                        2171 .LDWlin134:
00000964 44063f00       2172 	dispose	2,{r31},[lp]
                        2173 	.type	_McalCry_Local_KeyElementGetStorageIndex,@function
                        2174 	.size	_McalCry_Local_KeyElementGetStorageIndex,.-_McalCry_Local_KeyElementGetStorageIndex
                        2175 	.align	2
                        2176 .LDW001:
                        2177 
                        2178 --_cryptoKeyId	r6	param
                        2179 --_keyElementId	r7	param
                        2180 --_resultIndexPtr	r8	param
                        2181 --_resultLengthPtr	r9	param
                        2182 --_lengthCheck	r19	param
                        2183 
                        2184 	.section ".bss","awb"
                        2185 .L7652:
                        2186 	.type	.L7652,@object
                        2187 	.size	.L7652,0
                        2188 	.data
                        2189 	.section ".MSR_CODE","ax"
                        2190 	.align	2
                        2191 	.align	2
                        2192 ..gh.f.f.1.e.29:
                        2193 	.type	..gh.f.f.1.e.29,@object
                        2194 	.size	..gh.f.f.1.e.29,0
                        2195 	.global	_McalCry_Local_KeyElementGetStorageIndexJob
                        2196 _McalCry_Local_KeyElementGetStorageIndexJob:
00000968 84072300       2197 	prepare	{r31},2,sp
0000096c 6c98           2198 	sld.bu	12[ep],r19
                        2199 --	    .bf
                        2200 .LDW101:
0000096e 0492           2201 	mov	4,r18
00000970 019d           2202 	sst.w	r19,0[ep]
00000972 0395           2203 	sst.w	r18,4[ep]

                                                                      Page 40
                                                              C:\Users\nhuliyap\AppData\Local\Temp\gh_00002r81.s
                        2204 	jarl	_McalCry_Local_KeyElementGetStorageIndexExtended,lp
                        2204 <EXPANSION BEGIN>
                        2204 jarl22 _McalCry_Local_KeyElementGetStorageIndexExtended , lp 
00000974 bfff80ff*      2204 <EXPANSION END>
                        2205 --line3043
                        2206 ..lin.C.3A.5C_ECU2.5CECU_Rivian_A1.5CTarget.5Crepo_projects.5CpFOTA.5CcL_LATEST.5Cmake.5Cobj.5CMcalCry_KeyManagement.135::
                        2207 .LDWlin135:
00000978 e051           2208 	cmp	zero,r10
0000097a 920d*          2209 	be	.L7670
                        2210 --line3045
                        2211 ..lin.C.3A.5C_ECU2.5CECU_Rivian_A1.5CTarget.5Crepo_projects.5CpFOTA.5CcL_LATEST.5Cmake.5Cobj.5CMcalCry_KeyManagement.136::
                        2212 .LDWlin136:
0000097c 6952           2213 	cmp	9,r10
0000097e f205*          2214 	be	.L7670
                        2215 --line3047
                        2216 ..lin.C.3A.5C_ECU2.5CECU_Rivian_A1.5CTarget.5Crepo_projects.5CpFOTA.5CcL_LATEST.5Cmake.5Cobj.5CMcalCry_KeyManagement.137::
                        2217 .LDWlin137:
00000980 0a8a           2218 	mov	10,r17
00000982 6352           2219 	cmp	3,r10
00000984 e18f1453       2220 	cmovne	1,r17,r10
00000988 44063f00       2221 	dispose	2,{r31},[lp]
                        2222 .L7670:
                        2223 --	    .ef
                        2224 .LDW201:
                        2225 --line3054
                        2226 ..lin.C.3A.5C_ECU2.5CECU_Rivian_A1.5CTarget.5Crepo_projects.5CpFOTA.5CcL_LATEST.5Cmake.5Cobj.5CMcalCry_KeyManagement.138::
                        2227 .LDWlin138:
0000098c 44063f00       2228 	dispose	2,{r31},[lp]
                        2229 	.type	_McalCry_Local_KeyElementGetStorageIndexJob,@function
                        2230 	.size	_McalCry_Local_KeyElementGetStorageIndexJob,.-_McalCry_Local_KeyElementGetStorageIndexJob
                        2231 	.align	2
                        2232 .LDW301:
                        2233 --_retVal	r10	local
                        2234 
                        2235 --_cryptoKeyId	r6	param
                        2236 --_keyElementId	r7	param
                        2237 --_resultIndexPtr	r8	param
                        2238 --_resultLengthPtr	r9	param
                        2239 --_lengthCheck	r19	param
                        2240 
                        2241 	.section ".bss","awb"
                        2242 .L7724:
                        2243 	.type	.L7724,@object
                        2244 	.size	.L7724,0
                        2245 	.data
                        2246 	.section ".MSR_CODE","ax"
                        2247 	.align	2
                        2248 	.align	2
                        2249 ..gh.f.f.1.e.30:
                        2250 	.type	..gh.f.f.1.e.30,@object
                        2251 	.size	..gh.f.f.1.e.30,0
                        2252 	.global	_McalCry_Local_KeyElementGetStorageIndexJobOptional
                        2253 _McalCry_Local_KeyElementGetStorageIndexJobOptional:
00000990 84072300       2254 	prepare	{r31},2,sp
00000994 6c98           2255 	sld.bu	12[ep],r19
                        2256 --	    .bf
                        2257 .LDW401:
00000996 0492           2258 	mov	4,r18
00000998 019d           2259 	sst.w	r19,0[ep]
0000099a 0395           2260 	sst.w	r18,4[ep]
                        2261 	jarl	_McalCry_Local_KeyElementGetStorageIndexExtended,lp

                                                                      Page 41
                                                              C:\Users\nhuliyap\AppData\Local\Temp\gh_00002r81.s
                        2261 <EXPANSION BEGIN>
                        2261 jarl22 _McalCry_Local_KeyElementGetStorageIndexExtended , lp 
0000099c bfff58ff*      2261 <EXPANSION END>
                        2262 --line3067
                        2263 ..lin.C.3A.5C_ECU2.5CECU_Rivian_A1.5CTarget.5Crepo_projects.5CpFOTA.5CcL_LATEST.5Cmake.5Cobj.5CMcalCry_KeyManagement.139::
                        2264 .LDWlin139:
000009a0 e051           2265 	cmp	zero,r10
000009a2 e205*          2266 	be	.L7774
                        2267 --line3069
                        2268 ..lin.C.3A.5C_ECU2.5CECU_Rivian_A1.5CTarget.5Crepo_projects.5CpFOTA.5CcL_LATEST.5Cmake.5Cobj.5CMcalCry_KeyManagement.140::
                        2269 .LDWlin140:
000009a4 6952           2270 	cmp	9,r10
000009a6 c205*          2271 	be	.L7774
                        2272 --line3071
                        2273 ..lin.C.3A.5C_ECU2.5CECU_Rivian_A1.5CTarget.5Crepo_projects.5CpFOTA.5CcL_LATEST.5Cmake.5Cobj.5CMcalCry_KeyManagement.141::
                        2274 .LDWlin141:
000009a8 6852           2275 	cmp	8,r10
000009aa ea571453       2276 	cmovne	10,r10,r10
                        2277 .L7774:
                        2278 --	    .ef
                        2279 .LDW501:
000009ae 44063f00       2280 	dispose	2,{r31},[lp]
                        2281 	.type	_McalCry_Local_KeyElementGetStorageIndexJobOptional,@function
                        2282 	.size	_McalCry_Local_KeyElementGetStorageIndexJobOptional,.-_McalCry_Local_KeyElementGetStorageIndexJobOptional
                        2283 	.align	2
                        2284 .LDW601:
                        2285 --_retVal	r10	local
                        2286 
                        2287 --_cryptoKeyId	r6	param
                        2288 --_keyElementId	r7	param
                        2289 --_resultIndexPtr	r8	param
                        2290 --_resultLengthPtr	r9	param
                        2291 --_lengthCheck	r19	param
                        2292 
                        2293 	.section ".bss","awb"
                        2294 .L7836:
                        2295 	.type	.L7836,@object
                        2296 	.size	.L7836,0
                        2297 	.data
                        2298 	.section ".MSR_CODE","ax"
                        2299 	.align	2
                        2300 	.align	2
                        2301 ..gh.f.f.1.e.31:
                        2302 	.type	..gh.f.f.1.e.31,@object
                        2303 	.size	..gh.f.f.1.e.31,0
                        2304 	.global	_McalCry_Local_GetElementsIndexJob
                        2305 _McalCry_Local_GetElementsIndexJob:
000009b2 8207e170       2306 	prepare	{r25,r26,r27,r28,r29,r31},1
000009b6 08d0           2307 	mov	r8,r26
000009b8 06e0           2308 	mov	r6,r28
000009ba 07d8           2309 	mov	r7,r27
000009bc 9a00           2310 	zxb	r26
000009be c9ceff00       2311 	andi	255,r9,r25
                        2312 --	    .bf
                        2313 .LDW701:
000009c2 0152           2314 	mov	1,r10
000009c4 00ea           2315 	mov	0,r29
000009c6 a515*          2316 	br	.L7894
                        2317 .L7893:
                        2318 --line3089
                        2319 ..lin.C.3A.5C_ECU2.5CECU_Rivian_A1.5CTarget.5Crepo_projects.5CpFOTA.5CcL_LATEST.5Cmake.5Cobj.5CMcalCry_KeyManagement.142::

                                                                      Page 42
                                                              C:\Users\nhuliyap\AppData\Local\Temp\gh_00002r81.s
                        2320 .LDWlin142:
000009c8 fdf60c00       2321 	mulhi	12,r29,ep
000009cc 1c30           2322 	mov	r28,r6
000009ce 63cf0100       2323 	st.w	r25,0[sp]
000009d2 dbf1           2324 	add	r27,ep
000009d4 003d           2325 	sld.w	0[ep],r7
000009d6 1e460800       2326 	addi	8,ep,r8
000009da 1e4e0400       2327 	addi	4,ep,r9
                        2328 	jarl	_McalCry_Local_KeyElementGetStorageIndexJob,lp
                        2328 <EXPANSION BEGIN>
                        2328 jarl22 _McalCry_Local_KeyElementGetStorageIndexJob , lp 
000009de bfff8aff*      2328 <EXPANSION END>
                        2329 --line3090
                        2330 ..lin.C.3A.5C_ECU2.5CECU_Rivian_A1.5CTarget.5Crepo_projects.5CpFOTA.5CcL_LATEST.5Cmake.5Cobj.5CMcalCry_KeyManagement.143::
                        2331 .LDWlin143:
000009e2 e051           2332 	cmp	zero,r10
000009e4 da05*          2333 	bne	.L7897
                        2334 --line3088
                        2335 ..lin.C.3A.5C_ECU2.5CECU_Rivian_A1.5CTarget.5Crepo_projects.5CpFOTA.5CcL_LATEST.5Cmake.5Cobj.5CMcalCry_KeyManagement.144::
                        2336 .LDWlin144:
000009e6 41ea           2337 	add	1,r29
000009e8 9d00           2338 	zxb	r29
                        2339 .L7894:
000009ea fae9           2340 	cmp	r26,r29
000009ec e1ed*          2341 	bl	.L7893
                        2342 .L7897:
                        2343 --	    .ef
                        2344 .LDW801:
                        2345 --line3094
                        2346 ..lin.C.3A.5C_ECU2.5CECU_Rivian_A1.5CTarget.5Crepo_projects.5CpFOTA.5CcL_LATEST.5Cmake.5Cobj.5CMcalCry_KeyManagement.145::
                        2347 .LDWlin145:
000009ee 4206ff70       2348 	dispose	1,{r25,r26,r27,r28,r29,r31},[lp]
                        2349 	.type	_McalCry_Local_GetElementsIndexJob,@function
                        2350 	.size	_McalCry_Local_GetElementsIndexJob,.-_McalCry_Local_GetElementsIndexJob
                        2351 	.align	2
                        2352 .LDW901:
                        2353 --_retVal	r10	local
                        2354 --_i	r29	local
                        2355 
                        2356 --_cryptoKeyId	r28	param
                        2357 --_keyElements	r27	param
                        2358 --_numberOfElements	r26	param
                        2359 --_lengthCheck	r25	param
                        2360 
                        2361 	.section ".bss","awb"
                        2362 .L7948:
                        2363 	.type	.L7948,@object
                        2364 	.size	.L7948,0
                        2365 	.data
                        2366 	.section ".MSR_CODE","ax"
                        2367 	.align	2
                        2368 	.align	2
                        2369 ..gh.f.f.1.e.32:
                        2370 	.type	..gh.f.f.1.e.32,@object
                        2371 	.size	..gh.f.f.1.e.32,0
                        2372 	.global	_McalCry_Local_ElementGetterSetId
                        2373 _McalCry_Local_ElementGetterSetId:
000009f2 07f0           2374 	mov	r7,ep
000009f4 9e00           2375 	zxb	ep
                        2376 --	    .bf
                        2377 .LDW011:

                                                                      Page 43
                                                              C:\Users\nhuliyap\AppData\Local\Temp\gh_00002r81.s
000009f6 ecf74002       2378 	mul	12,ep,zero
000009fa c6f1           2379 	add	r6,ep
000009fc 0145           2380 	sst.w	r8,0[ep]
                        2381 --	    .ef
                        2382 .LDW111:
000009fe 7f00           2383 	jmp	[lp]
                        2384 	.type	_McalCry_Local_ElementGetterSetId,@function
                        2385 	.size	_McalCry_Local_ElementGetterSetId,.-_McalCry_Local_ElementGetterSetId
                        2386 	.align	2
                        2387 .LDW211:
                        2388 
                        2389 --_keyElements	r6	param
                        2390 --_elementNumber	r7	param
                        2391 --_keyElementId	r8	param
                        2392 
                        2393 	.section ".bss","awb"
                        2394 .L8033:
                        2395 	.type	.L8033,@object
                        2396 	.size	.L8033,0
                        2397 	.data
                        2398 	.section ".MSR_CODE","ax"
                        2399 	.align	2
                        2400 	.align	2
                        2401 ..gh.f.f.1.e.33:
                        2402 	.type	..gh.f.f.1.e.33,@object
                        2403 	.size	..gh.f.f.1.e.33,0
                        2404 	.global	_McalCry_Local_ElementGetterSetIdAndLength
                        2405 _McalCry_Local_ElementGetterSetIdAndLength:
00000a00 8700           2406 	zxb	r7
                        2407 --	    .bf
                        2408 .LDW311:
00000a02 e7f60c00       2409 	mulhi	12,r7,ep
00000a06 c6f1           2410 	add	r6,ep
00000a08 0145           2411 	sst.w	r8,0[ep]
00000a0a 034d           2412 	sst.w	r9,4[ep]
                        2413 --	    .ef
                        2414 .LDW411:
00000a0c 7f00           2415 	jmp	[lp]
                        2416 	.type	_McalCry_Local_ElementGetterSetIdAndLength,@function
                        2417 	.size	_McalCry_Local_ElementGetterSetIdAndLength,.-_McalCry_Local_ElementGetterSetIdAndLength
                        2418 	.align	2
                        2419 .LDW511:
                        2420 
                        2421 --_keyElements	r6	param
                        2422 --_elementNumber	r7	param
                        2423 --_keyElementId	r8	param
                        2424 --_keyLength	r9	param
                        2425 
                        2426 	.section ".bss","awb"
                        2427 .L8081:
                        2428 	.type	.L8081,@object
                        2429 	.size	.L8081,0
                        2430 	.data
                        2431 	.section ".MSR_CODE","ax"
                        2432 	.align	2
                        2433 	.align	2
                        2434 ..gh.f.f.1.e.34:
                        2435 	.type	..gh.f.f.1.e.34,@object
                        2436 	.size	..gh.f.f.1.e.34,0
                        2437 	.global	_McalCry_KeyElementGet
                        2438 _McalCry_KeyElementGet:

                                                                      Page 44
                                                              C:\Users\nhuliyap\AppData\Local\Temp\gh_00002r81.s
00000a0e 8407e1f0       2439 	prepare	{r24,r25,r26,r27,r28,r29,r31},2
00000a12 06d8           2440 	mov	r6,r27
00000a14 08c0           2441 	mov	r8,r24
00000a16 09d0           2442 	mov	r9,r26
                        2443 --	    .bf
                        2444 .LDW611:
00000a18 a40705900000*  2445 	ld.bu	sdaoff23(_McalCry_ModuleInitialized)[gp],r18
00000a1e 20eeff00       2446 	movea	255,zero,r29
00000a22 43070500       2447 	st.b	zero,5[sp]
00000a26 01e2           2448 	mov	1,r28
00000a28 d2960100       2449 	andi	1,r18,r18
00000a2c f2ef24eb       2450 	cmove	r18,r29,r29
00000a30 925d*          2451 	be	.L8131
                        2452 --line3130
                        2453 ..lin.C.3A.5C_ECU2.5CECU_Rivian_A1.5CTarget.5Crepo_projects.5CpFOTA.5CcL_LATEST.5Cmake.5Cobj.5CMcalCry_KeyManagement.146::
                        2454 .LDWlin146:
00000a32 6732           2455 	cmp	7,r6
00000a34 e4ef12eb       2456 	cmovnl	4,r29,r29
00000a38 d955*          2457 	bnl	.L8131
                        2458 --line3133
                        2459 ..lin.C.3A.5C_ECU2.5CECU_Rivian_A1.5CTarget.5Crepo_projects.5CpFOTA.5CcL_LATEST.5Cmake.5Cobj.5CMcalCry_KeyManagement.147::
                        2460 .LDWlin147:
00000a3a e041           2461 	cmp	zero,r8
00000a3c a24d*          2462 	be	.L8111
                        2463 --line3136
                        2464 ..lin.C.3A.5C_ECU2.5CECU_Rivian_A1.5CTarget.5Crepo_projects.5CpFOTA.5CcL_LATEST.5Cmake.5Cobj.5CMcalCry_KeyManagement.148::
                        2465 .LDWlin148:
00000a3e e049           2466 	cmp	zero,r9
00000a40 e2ef04eb       2467 	cmove	2,r29,r29
00000a44 f24d*          2468 	be	.L8131
                        2469 --line3139
                        2470 ..lin.C.3A.5C_ECU2.5CECU_Rivian_A1.5CTarget.5Crepo_projects.5CpFOTA.5CcL_LATEST.5Cmake.5Cobj.5CMcalCry_KeyManagement.149::
                        2471 .LDWlin149:
00000a46 298f0100       2472 	ld.w	0[r9],r17
00000a4a e089           2473 	cmp	zero,r17
00000a4c e5ef04eb       2474 	cmove	5,r29,r29
00000a50 924d*          2475 	be	.L8131
                        2476 --line3145
                        2477 ..lin.C.3A.5C_ECU2.5CECU_Rivian_A1.5CTarget.5Crepo_projects.5CpFOTA.5CcL_LATEST.5Cmake.5Cobj.5CMcalCry_KeyManagement.150::
                        2478 .LDWlin150:
                        2479 	jarl	_McalCry_Local_KeyReadLockGet,lp
                        2479 <EXPANSION BEGIN>
                        2479 jarl22 _McalCry_Local_KeyReadLockGet , lp 
00000a52 bffffef8*      2479 <EXPANSION END>
00000a56 e051           2480 	cmp	zero,r10
                        2481 --line3146
                        2482 ..lin.C.3A.5C_ECU2.5CECU_Rivian_A1.5CTarget.5Crepo_projects.5CpFOTA.5CcL_LATEST.5Cmake.5Cobj.5CMcalCry_KeyManagement.151::
                        2483 .LDWlin151:
00000a58 e2e714e3       2484 	cmovne	2,r28,r28
00000a5c aa4d*          2485 	bne	.L8130
                        2486 --line3158
                        2487 ..lin.C.3A.5C_ECU2.5CECU_Rivian_A1.5CTarget.5Crepo_projects.5CpFOTA.5CcL_LATEST.5Cmake.5Cobj.5CMcalCry_KeyManagement.152::
                        2488 .LDWlin152:
00000a5e 23460500       2489 	movea	5,sp,r8
                        2490 	jarl	_McalCry_Local_KeyElementSearch,lp
                        2490 <EXPANSION BEGIN>
                        2490 jarl22 _McalCry_Local_KeyElementSearch , lp 
00000a62 bffffef8*      2490 <EXPANSION END>
00000a66 e051           2491 	cmp	zero,r10
                        2492 --line3162
                        2493 ..lin.C.3A.5C_ECU2.5CECU_Rivian_A1.5CTarget.5Crepo_projects.5CpFOTA.5CcL_LATEST.5Cmake.5Cobj.5CMcalCry_KeyManagement.153::

                                                                      Page 45
                                                              C:\Users\nhuliyap\AppData\Local\Temp\gh_00002r81.s
                        2494 .LDWlin153:
00000a68 e4ef14eb       2495 	cmovne	4,r29,r29
00000a6c da35*          2496 	bne	.L8121
                        2497 --line3166
                        2498 ..lin.C.3A.5C_ECU2.5CECU_Rivian_A1.5CTarget.5Crepo_projects.5CpFOTA.5CcL_LATEST.5Cmake.5Cobj.5CMcalCry_KeyManagement.154::
                        2499 .LDWlin154:
00000a6e a3370500       2500 	ld.bu	5[sp],r6
00000a72 05f0           2501 	mov	r5,ep
00000a74 390600000000*  2502 	mov	sdaoff23(_McalCry_KeyStorage),r25
00000a7a e68e0600       2503 	mulhi	6,r6,r17
00000a7e d1f1           2504 	add	r17,ep
00000a80 be0707980000*  2505 	ld.hu	rosdaoff23(_McalCry_KeyElements+2)[ep],r19
00000a86 13f6feff       2506 	addi	-2,r19,ep
00000a8a de00           2507 	zxh	ep
00000a8c d9f1           2508 	add	r25,ep
00000a8e dec70000       2509 	tst1	0,0[ep]
00000a92 e8e704e3       2510 	cmove	8,r28,r28
00000a96 8225*          2511 	be	.L8121
                        2512 --line3172
                        2513 ..lin.C.3A.5C_ECU2.5CECU_Rivian_A1.5CTarget.5Crepo_projects.5CpFOTA.5CcL_LATEST.5Cmake.5Cobj.5CMcalCry_KeyManagement.155::
                        2514 .LDWlin155:
00000a98 05f0           2515 	mov	r5,ep
00000a9a d1f1           2516 	add	r17,ep
00000a9c be0705380000*  2517 	ld.bu	rosdaoff23(_McalCry_KeyElementInfo+4)[ep],r7
00000aa2 e039           2518 	cmp	zero,r7
00000aa4 8a1d*          2519 	bne	.L8125
                        2520 --line3174
                        2521 ..lin.C.3A.5C_ECU2.5CECU_Rivian_A1.5CTarget.5Crepo_projects.5CpFOTA.5CcL_LATEST.5Cmake.5Cobj.5CMcalCry_KeyManagement.156::
                        2522 .LDWlin156:
00000aa6 0940           2523 	mov	r9,r8
00000aa8 039a           2524 	mov	3,r19
00000aaa 639f0100       2525 	st.w	r19,0[sp]
00000aae 233e0600       2526 	movea	6,sp,r7
00000ab2 1c48           2527 	mov	r28,r9
                        2528 	jarl	_McalCry_Local_KeyElementGetStorageIndexBasic,lp
                        2528 <EXPANSION BEGIN>
                        2528 jarl22 _McalCry_Local_KeyElementGetStorageIndexBasic , lp 
00000ab4 bfff80fd*      2528 <EXPANSION END>
00000ab8 0ae0           2529 	mov	r10,r28
                        2530 --line3176
                        2531 ..lin.C.3A.5C_ECU2.5CECU_Rivian_A1.5CTarget.5Crepo_projects.5CpFOTA.5CcL_LATEST.5Cmake.5Cobj.5CMcalCry_KeyManagement.157::
                        2532 .LDWlin157:
00000aba e051           2533 	cmp	zero,r10
00000abc da0d*          2534 	bne	.L8121
                        2535 --line3178
                        2536 ..lin.C.3A.5C_ECU2.5CECU_Rivian_A1.5CTarget.5Crepo_projects.5CpFOTA.5CcL_LATEST.5Cmake.5Cobj.5CMcalCry_KeyManagement.158::
                        2537 .LDWlin158:
00000abe e33f0700       2538 	ld.hu	6[sp],r7
00000ac2 3a470100       2539 	ld.w	0[r26],r8
00000ac6 1830           2540 	mov	r24,r6
00000ac8 d939           2541 	add	r25,r7
                        2542 	jarl	_VStdLib_MemCpy,lp
                        2542 <EXPANSION BEGIN>
                        2542 jarl22 _VStdLib_MemCpy , lp 
00000aca 80ff0000*      2542 <EXPANSION END>
00000ace c505*          2543 	br	.L8121
                        2544 .L8111:
                        2545 --line3137
                        2546 ..lin.C.3A.5C_ECU2.5CECU_Rivian_A1.5CTarget.5Crepo_projects.5CpFOTA.5CcL_LATEST.5Cmake.5Cobj.5CMcalCry_KeyManagement.159::
                        2547 .LDWlin159:
00000ad0 02ea           2548 	mov	2,r29

                                                                      Page 46
                                                              C:\Users\nhuliyap\AppData\Local\Temp\gh_00002r81.s
00000ad2 850d*          2549 	br	.L8131
                        2550 .L8125:
                        2551 --line3190
                        2552 ..lin.C.3A.5C_ECU2.5CECU_Rivian_A1.5CTarget.5Crepo_projects.5CpFOTA.5CcL_LATEST.5Cmake.5Cobj.5CMcalCry_KeyManagement.160::
                        2553 .LDWlin160:
00000ad4 06e2           2554 	mov	6,r28
                        2555 .L8121:
00000ad6 1b30           2556 	mov	r27,r6
                        2557 	jarl	_McalCry_Local_KeyReadLockRelease,lp
                        2557 <EXPANSION BEGIN>
                        2557 jarl22 _McalCry_Local_KeyReadLockRelease , lp 
00000ad8 bfff7cf8*      2557 <EXPANSION END>
                        2558 --line3200
                        2559 ..lin.C.3A.5C_ECU2.5CECU_Rivian_A1.5CTarget.5Crepo_projects.5CpFOTA.5CcL_LATEST.5Cmake.5Cobj.5CMcalCry_KeyManagement.161::
                        2560 .LDWlin161:
00000adc 1d0601ff       2561 	addi	-255,r29,zero
00000ae0 820d*          2562 	be	.L8130
                        2563 .L8131:
                        2564 --line3201
                        2565 ..lin.C.3A.5C_ECU2.5CECU_Rivian_A1.5CTarget.5Crepo_projects.5CpFOTA.5CcL_LATEST.5Cmake.5Cobj.5CMcalCry_KeyManagement.162::
                        2566 .LDWlin162:
00000ae2 1d48           2567 	mov	r29,r9
00000ae4 20367200       2568 	movea	114,zero,r6
00000ae8 003a           2569 	mov	0,r7
00000aea 0642           2570 	mov	6,r8
                        2571 	jarl	_Det_ReportError,lp
                        2571 <EXPANSION BEGIN>
                        2571 jarl22 _Det_ReportError , lp 
00000aec 80ff0000*      2571 <EXPANSION END>
                        2572 .L8130:
                        2573 --line3210
                        2574 ..lin.C.3A.5C_ECU2.5CECU_Rivian_A1.5CTarget.5Crepo_projects.5CpFOTA.5CcL_LATEST.5Cmake.5Cobj.5CMcalCry_KeyManagement.163::
                        2575 .LDWlin163:
00000af0 1c50           2576 	mov	r28,r10
                        2577 --	    .ef
                        2578 .LDW711:
00000af2 4406fff0       2579 	dispose	2,{r24,r25,r26,r27,r28,r29,r31},[lp]
                        2580 	.type	_McalCry_KeyElementGet,@function
                        2581 	.size	_McalCry_KeyElementGet,.-_McalCry_KeyElementGet
                        2582 	.align	2
                        2583 .LDW811:
                        2584 --_errorId	r29	local
                        2585 --_retVal	r28	local
                        2586 --_elementIndex	5[sp]	local
                        2587 --_resultIndex	6[sp]	local
                        2588 
                        2589 --_cryptoKeyId	r27	param
                        2590 --_keyElementId	r25	param
                        2591 --_resultPtr	r24	param
                        2592 --_resultLengthPtr	r26	param
                        2593 
                        2594 	.section ".bss","awb"
                        2595 .L9073:
                        2596 	.type	.L9073,@object
                        2597 	.size	.L9073,0
                        2598 	.data
                        2599 	.section ".MSR_CODE","ax"
                        2600 	.align	2
                        2601 	.align	2
                        2602 ..gh.f.f.1.e.35:
                        2603 	.type	..gh.f.f.1.e.35,@object

                                                                      Page 47
                                                              C:\Users\nhuliyap\AppData\Local\Temp\gh_00002r81.s
                        2604 	.size	..gh.f.f.1.e.35,0
                        2605 	.global	_McalCry_RandomSeed
                        2606 _McalCry_RandomSeed:
00000af6 80072100       2607 	prepare	{r31},0
                        2608 --	    .bf
                        2609 .LDW911:
00000afa a40705980000*  2610 	ld.bu	sdaoff23(_McalCry_ModuleInitialized)[gp],r19
00000b00 d34e0100       2611 	andi	1,r19,r9
00000b04 f205*          2612 	be	.L9275
                        2613 --line3227
                        2614 ..lin.C.3A.5C_ECU2.5CECU_Rivian_A1.5CTarget.5Crepo_projects.5CpFOTA.5CcL_LATEST.5Cmake.5Cobj.5CMcalCry_KeyManagement.164::
                        2615 .LDWlin164:
00000b06 6732           2616 	cmp	7,r6
00000b08 044a           2617 	mov	4,r9
00000b0a c905*          2618 	bnl	.L9275
                        2619 --line3230
                        2620 ..lin.C.3A.5C_ECU2.5CECU_Rivian_A1.5CTarget.5Crepo_projects.5CpFOTA.5CcL_LATEST.5Cmake.5Cobj.5CMcalCry_KeyManagement.165::
                        2621 .LDWlin165:
00000b0c e039           2622 	cmp	zero,r7
00000b0e 9a0d*          2623 	bne	.L9268
00000b10 024a           2624 	mov	2,r9
                        2625 .L9275:
                        2626 --line3252
                        2627 ..lin.C.3A.5C_ECU2.5CECU_Rivian_A1.5CTarget.5Crepo_projects.5CpFOTA.5CcL_LATEST.5Cmake.5Cobj.5CMcalCry_KeyManagement.166::
                        2628 .LDWlin166:
00000b12 20367200       2629 	movea	114,zero,r6
00000b16 003a           2630 	mov	0,r7
00000b18 0d42           2631 	mov	13,r8
                        2632 	jarl	_Det_ReportError,lp
                        2632 <EXPANSION BEGIN>
                        2632 jarl22 _Det_ReportError , lp 
00000b1a 80ff0000*      2632 <EXPANSION END>
00000b1e c505*          2633 	br	.L9274
                        2634 .L9268:
                        2635 --line3233
                        2636 ..lin.C.3A.5C_ECU2.5CECU_Rivian_A1.5CTarget.5Crepo_projects.5CpFOTA.5CcL_LATEST.5Cmake.5Cobj.5CMcalCry_KeyManagement.167::
                        2637 .LDWlin167:
00000b20 e041           2638 	cmp	zero,r8
00000b22 054a           2639 	mov	5,r9
00000b24 f2f5*          2640 	be	.L9275
                        2641 .L9274:
                        2642 --line3261
                        2643 ..lin.C.3A.5C_ECU2.5CECU_Rivian_A1.5CTarget.5Crepo_projects.5CpFOTA.5CcL_LATEST.5Cmake.5Cobj.5CMcalCry_KeyManagement.168::
                        2644 .LDWlin168:
00000b26 0152           2645 	mov	1,r10
                        2646 --	    .ef
                        2647 .LDW021:
00000b28 40063f00       2648 	dispose	0,{r31},[lp]
                        2649 	.type	_McalCry_RandomSeed,@function
                        2650 	.size	_McalCry_RandomSeed,.-_McalCry_RandomSeed
                        2651 	.align	2
                        2652 .LDW121:
                        2653 --_errorId	r9	local
                        2654 
                        2655 --_cryptoKeyId	r6	param
                        2656 --_entropyPtr	r7	param
                        2657 --_entropyLength	r8	param
                        2658 
                        2659 	.section ".bss","awb"
                        2660 .L9640:
                        2661 	.type	.L9640,@object

                                                                      Page 48
                                                              C:\Users\nhuliyap\AppData\Local\Temp\gh_00002r81.s
                        2662 	.size	.L9640,0
                        2663 	.data
                        2664 	.section ".MSR_CODE","ax"
                        2665 	.align	2
                        2666 	.align	2
                        2667 ..gh.f.f.1.e.36:
                        2668 	.type	..gh.f.f.1.e.36,@object
                        2669 	.size	..gh.f.f.1.e.36,0
                        2670 	.global	_McalCry_KeyGenerate
                        2671 _McalCry_KeyGenerate:
00000b2c 80072100       2672 	prepare	{r31},0
                        2673 --	    .bf
                        2674 .LDW221:
00000b30 a40705980000*  2675 	ld.bu	sdaoff23(_McalCry_ModuleInitialized)[gp],r19
00000b36 d34e0100       2676 	andi	1,r19,r9
00000b3a c205*          2677 	be	.L9733
                        2678 --line3276
                        2679 ..lin.C.3A.5C_ECU2.5CECU_Rivian_A1.5CTarget.5Crepo_projects.5CpFOTA.5CcL_LATEST.5Cmake.5Cobj.5CMcalCry_KeyManagement.169::
                        2680 .LDWlin169:
00000b3c 6732           2681 	cmp	7,r6
00000b3e 044a           2682 	mov	4,r9
00000b40 f105*          2683 	bl	.L9732
                        2684 .L9733:
                        2685 --line3293
                        2686 ..lin.C.3A.5C_ECU2.5CECU_Rivian_A1.5CTarget.5Crepo_projects.5CpFOTA.5CcL_LATEST.5Cmake.5Cobj.5CMcalCry_KeyManagement.170::
                        2687 .LDWlin170:
00000b42 20367200       2688 	movea	114,zero,r6
00000b46 003a           2689 	mov	0,r7
00000b48 0742           2690 	mov	7,r8
                        2691 	jarl	_Det_ReportError,lp
                        2691 <EXPANSION BEGIN>
                        2691 jarl22 _Det_ReportError , lp 
00000b4a 80ff0000*      2691 <EXPANSION END>
                        2692 .L9732:
                        2693 --line3302
                        2694 ..lin.C.3A.5C_ECU2.5CECU_Rivian_A1.5CTarget.5Crepo_projects.5CpFOTA.5CcL_LATEST.5Cmake.5Cobj.5CMcalCry_KeyManagement.171::
                        2695 .LDWlin171:
00000b4e 0152           2696 	mov	1,r10
                        2697 --	    .ef
                        2698 .LDW321:
00000b50 40063f00       2699 	dispose	0,{r31},[lp]
                        2700 	.type	_McalCry_KeyGenerate,@function
                        2701 	.size	_McalCry_KeyGenerate,.-_McalCry_KeyGenerate
                        2702 	.align	2
                        2703 .LDW421:
                        2704 --_errorId	r9	local
                        2705 
                        2706 --_cryptoKeyId	r6	param
                        2707 
                        2708 	.section ".bss","awb"
                        2709 .L9988:
                        2710 	.type	.L9988,@object
                        2711 	.size	.L9988,0
                        2712 	.data
                        2713 	.section ".MSR_CODE","ax"
                        2714 	.align	2
                        2715 	.align	2
                        2716 ..gh.f.f.1.e.37:
                        2717 	.type	..gh.f.f.1.e.37,@object
                        2718 	.size	..gh.f.f.1.e.37,0
                        2719 	.global	_McalCry_KeyDerive

                                                                      Page 49
                                                              C:\Users\nhuliyap\AppData\Local\Temp\gh_00002r81.s
                        2720 _McalCry_KeyDerive:
00000b54 80072100       2721 	prepare	{r31},0
                        2722 --	    .bf
                        2723 .LDW521:
00000b58 a40705980000*  2724 	ld.bu	sdaoff23(_McalCry_ModuleInitialized)[gp],r19
00000b5e d34e0100       2725 	andi	1,r19,r9
00000b62 e205*          2726 	be	.L10056
                        2727 --line3318
                        2728 ..lin.C.3A.5C_ECU2.5CECU_Rivian_A1.5CTarget.5Crepo_projects.5CpFOTA.5CcL_LATEST.5Cmake.5Cobj.5CMcalCry_KeyManagement.172::
                        2729 .LDWlin172:
00000b64 044a           2730 	mov	4,r9
00000b66 6732           2731 	cmp	7,r6
00000b68 b905*          2732 	bnl	.L10056
                        2733 --line3321
                        2734 ..lin.C.3A.5C_ECU2.5CECU_Rivian_A1.5CTarget.5Crepo_projects.5CpFOTA.5CcL_LATEST.5Cmake.5Cobj.5CMcalCry_KeyManagement.173::
                        2735 .LDWlin173:
00000b6a 673a           2736 	cmp	7,r7
00000b6c f105*          2737 	bl	.L10055
                        2738 .L10056:
                        2739 --line3367
                        2740 ..lin.C.3A.5C_ECU2.5CECU_Rivian_A1.5CTarget.5Crepo_projects.5CpFOTA.5CcL_LATEST.5Cmake.5Cobj.5CMcalCry_KeyManagement.174::
                        2741 .LDWlin174:
00000b6e 20367200       2742 	movea	114,zero,r6
00000b72 003a           2743 	mov	0,r7
00000b74 0842           2744 	mov	8,r8
                        2745 	jarl	_Det_ReportError,lp
                        2745 <EXPANSION BEGIN>
                        2745 jarl22 _Det_ReportError , lp 
00000b76 80ff0000*      2745 <EXPANSION END>
                        2746 .L10055:
                        2747 --line3373
                        2748 ..lin.C.3A.5C_ECU2.5CECU_Rivian_A1.5CTarget.5Crepo_projects.5CpFOTA.5CcL_LATEST.5Cmake.5Cobj.5CMcalCry_KeyManagement.175::
                        2749 .LDWlin175:
00000b7a 0152           2750 	mov	1,r10
                        2751 --	    .ef
                        2752 .LDW621:
00000b7c 40063f00       2753 	dispose	0,{r31},[lp]
                        2754 	.type	_McalCry_KeyDerive,@function
                        2755 	.size	_McalCry_KeyDerive,.-_McalCry_KeyDerive
                        2756 	.align	2
                        2757 .LDW721:
                        2758 --_errorId	r9	local
                        2759 
                        2760 --_cryptoKeyId	r6	param
                        2761 --_targetCryptoKeyId	r7	param
                        2762 
                        2763 	.section ".bss","awb"
                        2764 .L10339:
                        2765 	.type	.L10339,@object
                        2766 	.size	.L10339,0
                        2767 	.data
                        2768 	.section ".MSR_CODE","ax"
                        2769 	.align	2
                        2770 	.align	2
                        2771 ..gh.f.f.1.e.38:
                        2772 	.type	..gh.f.f.1.e.38,@object
                        2773 	.size	..gh.f.f.1.e.38,0
                        2774 	.global	_McalCry_KeyExchangeCalcPubVal
                        2775 _McalCry_KeyExchangeCalcPubVal:
00000b80 80072100       2776 	prepare	{r31},0
00000b84 08f0           2777 	mov	r8,ep

                                                                      Page 50
                                                              C:\Users\nhuliyap\AppData\Local\Temp\gh_00002r81.s
                        2778 --	    .bf
                        2779 .LDW821:
00000b86 a40705980000*  2780 	ld.bu	sdaoff23(_McalCry_ModuleInitialized)[gp],r19
00000b8c d34e0100       2781 	andi	1,r19,r9
00000b90 920d*          2782 	be	.L10426
                        2783 --line3390
                        2784 ..lin.C.3A.5C_ECU2.5CECU_Rivian_A1.5CTarget.5Crepo_projects.5CpFOTA.5CcL_LATEST.5Cmake.5Cobj.5CMcalCry_KeyManagement.176::
                        2785 .LDWlin176:
00000b92 6732           2786 	cmp	7,r6
00000b94 044a           2787 	mov	4,r9
00000b96 e905*          2788 	bnl	.L10426
                        2789 --line3393
                        2790 ..lin.C.3A.5C_ECU2.5CECU_Rivian_A1.5CTarget.5Crepo_projects.5CpFOTA.5CcL_LATEST.5Cmake.5Cobj.5CMcalCry_KeyManagement.177::
                        2791 .LDWlin177:
00000b98 024a           2792 	mov	2,r9
00000b9a e039           2793 	cmp	zero,r7
00000b9c b205*          2794 	be	.L10426
                        2795 --line3396
                        2796 ..lin.C.3A.5C_ECU2.5CECU_Rivian_A1.5CTarget.5Crepo_projects.5CpFOTA.5CcL_LATEST.5Cmake.5Cobj.5CMcalCry_KeyManagement.178::
                        2797 .LDWlin178:
00000b9e e041           2798 	cmp	zero,r8
00000ba0 8a0d*          2799 	bne	.L10419
                        2800 .L10426:
                        2801 --line3426
                        2802 ..lin.C.3A.5C_ECU2.5CECU_Rivian_A1.5CTarget.5Crepo_projects.5CpFOTA.5CcL_LATEST.5Cmake.5Cobj.5CMcalCry_KeyManagement.179::
                        2803 .LDWlin179:
00000ba2 20367200       2804 	movea	114,zero,r6
00000ba6 003a           2805 	mov	0,r7
00000ba8 0942           2806 	mov	9,r8
                        2807 	jarl	_Det_ReportError,lp
                        2807 <EXPANSION BEGIN>
                        2807 jarl22 _Det_ReportError , lp 
00000baa 80ff0000*      2807 <EXPANSION END>
00000bae d505*          2808 	br	.L10425
                        2809 .L10419:
                        2810 --line3399
                        2811 ..lin.C.3A.5C_ECU2.5CECU_Rivian_A1.5CTarget.5Crepo_projects.5CpFOTA.5CcL_LATEST.5Cmake.5Cobj.5CMcalCry_KeyManagement.180::
                        2812 .LDWlin180:
00000bb0 0095           2813 	sld.w	0[ep],r18
00000bb2 054a           2814 	mov	5,r9
00000bb4 e091           2815 	cmp	zero,r18
00000bb6 e2f5*          2816 	be	.L10426
                        2817 .L10425:
                        2818 --line3435
                        2819 ..lin.C.3A.5C_ECU2.5CECU_Rivian_A1.5CTarget.5Crepo_projects.5CpFOTA.5CcL_LATEST.5Cmake.5Cobj.5CMcalCry_KeyManagement.181::
                        2820 .LDWlin181:
00000bb8 0152           2821 	mov	1,r10
                        2822 --	    .ef
                        2823 .LDW921:
00000bba 40063f00       2824 	dispose	0,{r31},[lp]
                        2825 	.type	_McalCry_KeyExchangeCalcPubVal,@function
                        2826 	.size	_McalCry_KeyExchangeCalcPubVal,.-_McalCry_KeyExchangeCalcPubVal
                        2827 	.align	2
                        2828 .LDW031:
                        2829 --_errorId	r9	local
                        2830 
                        2831 --_cryptoKeyId	r6	param
                        2832 --_publicValuePtr	r7	param
                        2833 --_publicValueLengthPtr	ep	param
                        2834 
                        2835 	.section ".bss","awb"

                                                                      Page 51
                                                              C:\Users\nhuliyap\AppData\Local\Temp\gh_00002r81.s
                        2836 .L10843:
                        2837 	.type	.L10843,@object
                        2838 	.size	.L10843,0
                        2839 	.data
                        2840 	.section ".MSR_CODE","ax"
                        2841 	.align	2
                        2842 	.align	2
                        2843 ..gh.f.f.1.e.39:
                        2844 	.type	..gh.f.f.1.e.39,@object
                        2845 	.size	..gh.f.f.1.e.39,0
                        2846 	.global	_McalCry_KeyExchangeCalcSecret
                        2847 _McalCry_KeyExchangeCalcSecret:
00000bbe 80072100       2848 	prepare	{r31},0
                        2849 --	    .bf
                        2850 .LDW131:
00000bc2 a40705980000*  2851 	ld.bu	sdaoff23(_McalCry_ModuleInitialized)[gp],r19
00000bc8 d34e0100       2852 	andi	1,r19,r9
00000bcc f205*          2853 	be	.L10955
                        2854 --line3452
                        2855 ..lin.C.3A.5C_ECU2.5CECU_Rivian_A1.5CTarget.5Crepo_projects.5CpFOTA.5CcL_LATEST.5Cmake.5Cobj.5CMcalCry_KeyManagement.182::
                        2856 .LDWlin182:
00000bce 6732           2857 	cmp	7,r6
00000bd0 044a           2858 	mov	4,r9
00000bd2 c905*          2859 	bnl	.L10955
                        2860 --line3455
                        2861 ..lin.C.3A.5C_ECU2.5CECU_Rivian_A1.5CTarget.5Crepo_projects.5CpFOTA.5CcL_LATEST.5Cmake.5Cobj.5CMcalCry_KeyManagement.183::
                        2862 .LDWlin183:
00000bd4 e039           2863 	cmp	zero,r7
00000bd6 9a0d*          2864 	bne	.L10948
00000bd8 024a           2865 	mov	2,r9
                        2866 .L10955:
                        2867 --line3478
                        2868 ..lin.C.3A.5C_ECU2.5CECU_Rivian_A1.5CTarget.5Crepo_projects.5CpFOTA.5CcL_LATEST.5Cmake.5Cobj.5CMcalCry_KeyManagement.184::
                        2869 .LDWlin184:
00000bda 20367200       2870 	movea	114,zero,r6
00000bde 003a           2871 	mov	0,r7
00000be0 0a42           2872 	mov	10,r8
                        2873 	jarl	_Det_ReportError,lp
                        2873 <EXPANSION BEGIN>
                        2873 jarl22 _Det_ReportError , lp 
00000be2 80ff0000*      2873 <EXPANSION END>
00000be6 c505*          2874 	br	.L10954
                        2875 .L10948:
                        2876 --line3458
                        2877 ..lin.C.3A.5C_ECU2.5CECU_Rivian_A1.5CTarget.5Crepo_projects.5CpFOTA.5CcL_LATEST.5Cmake.5Cobj.5CMcalCry_KeyManagement.185::
                        2878 .LDWlin185:
00000be8 e041           2879 	cmp	zero,r8
00000bea 054a           2880 	mov	5,r9
00000bec f2f5*          2881 	be	.L10955
                        2882 .L10954:
                        2883 --line3487
                        2884 ..lin.C.3A.5C_ECU2.5CECU_Rivian_A1.5CTarget.5Crepo_projects.5CpFOTA.5CcL_LATEST.5Cmake.5Cobj.5CMcalCry_KeyManagement.186::
                        2885 .LDWlin186:
00000bee 0152           2886 	mov	1,r10
                        2887 --	    .ef
                        2888 .LDW231:
00000bf0 40063f00       2889 	dispose	0,{r31},[lp]
                        2890 	.type	_McalCry_KeyExchangeCalcSecret,@function
                        2891 	.size	_McalCry_KeyExchangeCalcSecret,.-_McalCry_KeyExchangeCalcSecret
                        2892 	.align	2
                        2893 .LDW331:

                                                                      Page 52
                                                              C:\Users\nhuliyap\AppData\Local\Temp\gh_00002r81.s
                        2894 --_errorId	r9	local
                        2895 
                        2896 --_cryptoKeyId	r6	param
                        2897 --_partnerPublicValuePtr	r7	param
                        2898 --_partnerPublicValueLength	r8	param
                        2899 
                        2900 	.section ".bss","awb"
                        2901 .L11320:
                        2902 	.type	.L11320,@object
                        2903 	.size	.L11320,0
                        2904 	.data
                        2905 	.section ".MSR_CODE","ax"
                        2906 	.align	2
                        2907 	.align	2
                        2908 ..gh.f.f.1.e.40:
                        2909 	.type	..gh.f.f.1.e.40,@object
                        2910 	.size	..gh.f.f.1.e.40,0
                        2911 	.global	_McalCry_CertificateParse
                        2912 _McalCry_CertificateParse:
00000bf4 80072100       2913 	prepare	{r31},0
                        2914 --	    .bf
                        2915 .LDW431:
00000bf8 a40705980000*  2916 	ld.bu	sdaoff23(_McalCry_ModuleInitialized)[gp],r19
00000bfe d34e0100       2917 	andi	1,r19,r9
00000c02 c205*          2918 	be	.L11413
                        2919 --line3501
                        2920 ..lin.C.3A.5C_ECU2.5CECU_Rivian_A1.5CTarget.5Crepo_projects.5CpFOTA.5CcL_LATEST.5Cmake.5Cobj.5CMcalCry_KeyManagement.187::
                        2921 .LDWlin187:
00000c04 6732           2922 	cmp	7,r6
00000c06 044a           2923 	mov	4,r9
00000c08 f105*          2924 	bl	.L11412
                        2925 .L11413:
                        2926 --line3514
                        2927 ..lin.C.3A.5C_ECU2.5CECU_Rivian_A1.5CTarget.5Crepo_projects.5CpFOTA.5CcL_LATEST.5Cmake.5Cobj.5CMcalCry_KeyManagement.188::
                        2928 .LDWlin188:
00000c0a 20367200       2929 	movea	114,zero,r6
00000c0e 003a           2930 	mov	0,r7
00000c10 0b42           2931 	mov	11,r8
                        2932 	jarl	_Det_ReportError,lp
                        2932 <EXPANSION BEGIN>
                        2932 jarl22 _Det_ReportError , lp 
00000c12 80ff0000*      2932 <EXPANSION END>
                        2933 .L11412:
                        2934 --line3523
                        2935 ..lin.C.3A.5C_ECU2.5CECU_Rivian_A1.5CTarget.5Crepo_projects.5CpFOTA.5CcL_LATEST.5Cmake.5Cobj.5CMcalCry_KeyManagement.189::
                        2936 .LDWlin189:
00000c16 0152           2937 	mov	1,r10
                        2938 --	    .ef
                        2939 .LDW531:
00000c18 40063f00       2940 	dispose	0,{r31},[lp]
                        2941 	.type	_McalCry_CertificateParse,@function
                        2942 	.size	_McalCry_CertificateParse,.-_McalCry_CertificateParse
                        2943 	.align	2
                        2944 .LDW631:
                        2945 --_errorId	r9	local
                        2946 
                        2947 --_cryptoKeyId	r6	param
                        2948 
                        2949 	.section ".bss","awb"
                        2950 .L11660:
                        2951 	.type	.L11660,@object

                                                                      Page 53
                                                              C:\Users\nhuliyap\AppData\Local\Temp\gh_00002r81.s
                        2952 	.size	.L11660,0
                        2953 	.data
                        2954 	.section ".MSR_CODE","ax"
                        2955 	.align	2
                        2956 	.align	2
                        2957 ..gh.f.f.1.e.41:
                        2958 	.type	..gh.f.f.1.e.41,@object
                        2959 	.size	..gh.f.f.1.e.41,0
                        2960 	.global	_McalCry_CertificateVerify
                        2961 _McalCry_CertificateVerify:
00000c1c 80072100       2962 	prepare	{r31},0
                        2963 --	    .bf
                        2964 .LDW731:
00000c20 a40705980000*  2965 	ld.bu	sdaoff23(_McalCry_ModuleInitialized)[gp],r19
00000c26 d34e0100       2966 	andi	1,r19,r9
00000c2a e205*          2967 	be	.L11731
                        2968 --line3539
                        2969 ..lin.C.3A.5C_ECU2.5CECU_Rivian_A1.5CTarget.5Crepo_projects.5CpFOTA.5CcL_LATEST.5Cmake.5Cobj.5CMcalCry_KeyManagement.190::
                        2970 .LDWlin190:
00000c2c 044a           2971 	mov	4,r9
00000c2e 6732           2972 	cmp	7,r6
00000c30 b905*          2973 	bnl	.L11731
                        2974 --line3542
                        2975 ..lin.C.3A.5C_ECU2.5CECU_Rivian_A1.5CTarget.5Crepo_projects.5CpFOTA.5CcL_LATEST.5Cmake.5Cobj.5CMcalCry_KeyManagement.191::
                        2976 .LDWlin191:
00000c32 673a           2977 	cmp	7,r7
00000c34 910d*          2978 	bl	.L11724
                        2979 .L11731:
                        2980 --line3560
                        2981 ..lin.C.3A.5C_ECU2.5CECU_Rivian_A1.5CTarget.5Crepo_projects.5CpFOTA.5CcL_LATEST.5Cmake.5Cobj.5CMcalCry_KeyManagement.192::
                        2982 .LDWlin192:
00000c36 20367200       2983 	movea	114,zero,r6
00000c3a 003a           2984 	mov	0,r7
00000c3c 20461200       2985 	movea	18,zero,r8
                        2986 	jarl	_Det_ReportError,lp
                        2986 <EXPANSION BEGIN>
                        2986 jarl22 _Det_ReportError , lp 
00000c40 80ff0000*      2986 <EXPANSION END>
00000c44 c505*          2987 	br	.L11730
                        2988 .L11724:
                        2989 --line3545
                        2990 ..lin.C.3A.5C_ECU2.5CECU_Rivian_A1.5CTarget.5Crepo_projects.5CpFOTA.5CcL_LATEST.5Cmake.5Cobj.5CMcalCry_KeyManagement.193::
                        2991 .LDWlin193:
00000c46 e041           2992 	cmp	zero,r8
00000c48 024a           2993 	mov	2,r9
00000c4a e2f5*          2994 	be	.L11731
                        2995 .L11730:
                        2996 --line3569
                        2997 ..lin.C.3A.5C_ECU2.5CECU_Rivian_A1.5CTarget.5Crepo_projects.5CpFOTA.5CcL_LATEST.5Cmake.5Cobj.5CMcalCry_KeyManagement.194::
                        2998 .LDWlin194:
00000c4c 0152           2999 	mov	1,r10
                        3000 --	    .ef
                        3001 .LDW831:
00000c4e 40063f00       3002 	dispose	0,{r31},[lp]
                        3003 	.type	_McalCry_CertificateVerify,@function
                        3004 	.size	_McalCry_CertificateVerify,.-_McalCry_CertificateVerify
                        3005 	.align	2
                        3006 .LDW931:
                        3007 --_errorId	r9	local
                        3008 
                        3009 --_cryptoKeyId	r6	param

                                                                      Page 54
                                                              C:\Users\nhuliyap\AppData\Local\Temp\gh_00002r81.s
                        3010 --_verifyCryptoKeyId	r7	param
                        3011 --_verifyPtr	r8	param
                        3012 
                        3013 	.section ".bss","awb"
                        3014 .L12069:
                        3015 	.type	.L12069,@object
                        3016 	.size	.L12069,0
                        3017 	.data
                        3018 	.section ".MSR_CODE","ax"
                        3019 	.align	2
                        3020 	.align	2
                        3021 ..gh.f.f.1.e.42:
                        3022 	.type	..gh.f.f.1.e.42,@object
                        3023 	.size	..gh.f.f.1.e.42,0
                        3024 	.global	_McalCry_Api_GetKeyFlags
                        3025 _McalCry_Api_GetKeyFlags:
00000c52 82076100       3026 	prepare	{r29,r31},1
00000c56 08e8           3027 	mov	r8,r29
                        3028 --	    .bf
                        3029 .LDW041:
00000c58 43070300       3030 	st.b	zero,3[sp]
00000c5c 23460300       3031 	movea	3,sp,r8
                        3032 	jarl	_McalCry_Local_KeyElementSearch,lp
                        3032 <EXPANSION BEGIN>
                        3032 jarl22 _McalCry_Local_KeyElementSearch , lp 
00000c60 bfff00f7*      3032 <EXPANSION END>
                        3033 --line3910
                        3034 ..lin.C.3A.5C_ECU2.5CECU_Rivian_A1.5CTarget.5Crepo_projects.5CpFOTA.5CcL_LATEST.5Cmake.5Cobj.5CMcalCry_KeyManagement.195::
                        3035 .LDWlin195:
00000c64 e051           3036 	cmp	zero,r10
00000c66 ca25*          3037 	bne	.L12152
                        3038 --line3911
                        3039 ..lin.C.3A.5C_ECU2.5CECU_Rivian_A1.5CTarget.5Crepo_projects.5CpFOTA.5CcL_LATEST.5Cmake.5Cobj.5CMcalCry_KeyManagement.196::
                        3040 .LDWlin196:
00000c68 a3370300       3041 	ld.bu	3[sp],r6
00000c6c e6f60600       3042 	mulhi	6,r6,ep
00000c70 c5f1           3043 	add	r5,ep
00000c72 be0707400000*  3044 	ld.hu	rosdaoff23(_McalCry_KeyElements+2)[ep],r8
00000c78 04f0           3045 	mov	gp,ep
00000c7a 0896feff       3046 	addi	-2,r8,r18
00000c7e d200           3047 	zxh	r18
00000c80 d2f1           3048 	add	r18,ep
00000c82 be0705480000*  3049 	ld.bu	sdaoff23(_McalCry_KeyStorage)[ep],r9
00000c88 1df0           3050 	mov	r29,ep
00000c8a 8103           3051 	sst.b	zero,1[ep]
00000c8c 8303           3052 	sst.b	zero,3[ep]
00000c8e c98e0100       3053 	andi	1,r9,r17
00000c92 c93e8000       3054 	andi	128,r9,r7
00000c96 070680ff       3055 	addi	-128,r7,zero
00000c9a e2870000       3056 	setfe	r16
00000c9e 808b           3057 	sst.b	r17,0[ep]
00000ca0 8283           3058 	sst.b	r16,2[ep]
00000ca2 8403           3059 	sst.b	zero,4[ep]
00000ca4 8503           3060 	sst.b	zero,5[ep]
00000ca6 8603           3061 	sst.b	zero,6[ep]
00000ca8 8703           3062 	sst.b	zero,7[ep]
00000caa 42067f00       3063 	dispose	1,{r29,r31},[lp]
                        3064 .L12152:
                        3065 --	    .ef
                        3066 .LDW141:
                        3067 --line3996

                                                                      Page 55
                                                              C:\Users\nhuliyap\AppData\Local\Temp\gh_00002r81.s
                        3068 ..lin.C.3A.5C_ECU2.5CECU_Rivian_A1.5CTarget.5Crepo_projects.5CpFOTA.5CcL_LATEST.5Cmake.5Cobj.5CMcalCry_KeyManagement.197::
                        3069 .LDWlin197:
00000cae 42067f00       3070 	dispose	1,{r29,r31},[lp]
                        3071 	.type	_McalCry_Api_GetKeyFlags,@function
                        3072 	.size	_McalCry_Api_GetKeyFlags,.-_McalCry_Api_GetKeyFlags
                        3073 	.align	2
                        3074 .LDW241:
                        3075 --_retVal	r10	local
                        3076 --_elementIndex	3[sp]	local
                        3077 
                        3078 --_cryptoKeyId	r6	param
                        3079 --_keyElementId	r7	param
                        3080 --_keyFlagsPtr	r29	param
                        3081 
                        3082 	.section ".bss","awb"
                        3083 .L12235:
                        3084 	.type	.L12235,@object
                        3085 	.size	.L12235,0
                        3086 	.data
                        3087 	.section ".MSR_CODE","ax"
                        3088 	.align	2
                        3089 	.align	2
                        3090 ..gh.f.f.1.e.43:
                        3091 	.type	..gh.f.f.1.e.43,@object
                        3092 	.size	..gh.f.f.1.e.43,0
                        3093 	.global	_McalCry_Api_KeyElementGetStorageIndex
                        3094 _McalCry_Api_KeyElementGetStorageIndex:
00000cb2 84072300       3095 	prepare	{r31},2,sp
00000cb6 6c98           3096 	sld.bu	12[ep],r19
00000cb8 83971100       3097 	ld.bu	16[sp],r18
                        3098 --	    .bf
                        3099 .LDW341:
00000cbc 019d           3100 	sst.w	r19,0[ep]
00000cbe 0395           3101 	sst.w	r18,4[ep]
                        3102 	jarl	_McalCry_Local_KeyElementGetStorageIndexExtended,lp
                        3102 <EXPANSION BEGIN>
                        3102 jarl22 _McalCry_Local_KeyElementGetStorageIndexExtended , lp 
00000cc0 bfff34fc*      3102 <EXPANSION END>
                        3103 --	    .ef
                        3104 .LDW441:
                        3105 --line4016
                        3106 ..lin.C.3A.5C_ECU2.5CECU_Rivian_A1.5CTarget.5Crepo_projects.5CpFOTA.5CcL_LATEST.5Cmake.5Cobj.5CMcalCry_KeyManagement.198::
                        3107 .LDWlin198:
00000cc4 44063f00       3108 	dispose	2,{r31},[lp]
                        3109 	.type	_McalCry_Api_KeyElementGetStorageIndex,@function
                        3110 	.size	_McalCry_Api_KeyElementGetStorageIndex,.-_McalCry_Api_KeyElementGetStorageIndex
                        3111 	.align	2
                        3112 .LDW541:
                        3113 
                        3114 --_cryptoKeyId	r6	param
                        3115 --_keyElementId	r7	param
                        3116 --_resultIndexPtr	r8	param
                        3117 --_resultLengthPtr	r9	param
                        3118 --_lengthCheck	r19	param
                        3119 --_serviceType	r18	param
                        3120 
                        3121 	.section ".bss","awb"
                        3122 .L12308:
                        3123 	.type	.L12308,@object
                        3124 	.size	.L12308,0
                        3125 	.data

                                                                      Page 56
                                                              C:\Users\nhuliyap\AppData\Local\Temp\gh_00002r81.s
                        3126 	.section ".MSR_CODE","ax"
                        3127 	.align	2
                        3128 	.align	2
                        3129 ..gh.f.f.1.e.44:
                        3130 	.type	..gh.f.f.1.e.44,@object
                        3131 	.size	..gh.f.f.1.e.44,0
                        3132 	.global	_McalCry_Api_KeyReadLockGetNotProtected
                        3133 _McalCry_Api_KeyReadLockGetNotProtected:
                        3134 --	    .bf
                        3135 .LDW641:
00000cc8 bf0706f6*      3136 	jr	_McalCry_Local_KeyReadLockGetNotProtected
                        3137 --	    .ef
                        3138 .LDW741:
                        3139 	.type	_McalCry_Api_KeyReadLockGetNotProtected,@function
                        3140 	.size	_McalCry_Api_KeyReadLockGetNotProtected,.-_McalCry_Api_KeyReadLockGetNotProtected
                        3141 	.align	2
                        3142 .LDW841:
                        3143 
                        3144 --_cryptoKeyId	r6	param
                        3145 
                        3146 	.section ".bss","awb"
                        3147 .L12356:
                        3148 	.type	.L12356,@object
                        3149 	.size	.L12356,0
                        3150 	.data
                        3151 	.section ".MSR_CODE","ax"
                        3152 	.align	2
                        3153 	.align	2
                        3154 ..gh.f.f.1.e.45:
                        3155 	.type	..gh.f.f.1.e.45,@object
                        3156 	.size	..gh.f.f.1.e.45,0
                        3157 	.global	_McalCry_Api_KeyReadLockReleaseNotProtected
                        3158 _McalCry_Api_KeyReadLockReleaseNotProtected:
                        3159 --	    .bf
                        3160 .LDW941:
00000ccc bf072af6*      3161 	jr	_McalCry_Local_KeyReadLockReleaseNotProtected
                        3162 --	    .ef
                        3163 .LDW051:
                        3164 	.type	_McalCry_Api_KeyReadLockReleaseNotProtected,@function
                        3165 	.size	_McalCry_Api_KeyReadLockReleaseNotProtected,.-_McalCry_Api_KeyReadLockReleaseNotProtected
                        3166 	.align	2
                        3167 .LDW151:
                        3168 
                        3169 --_cryptoKeyId	r6	param
                        3170 
                        3171 	.section ".bss","awb"
                        3172 .L12401:
                        3173 	.type	.L12401,@object
                        3174 	.size	.L12401,0
                        3175 	.data
                        3176 	.section ".MSR_CODE","ax"
                        3177 	.align	2
                        3178 --_McalCry_Key	rosdaoff23(_McalCry_Key)	import
                        3179 --_McalCry_KeyElementInfo	rosdaoff23(_McalCry_KeyElementInfo)	import
                        3180 --_McalCry_KeyElements	rosdaoff23(_McalCry_KeyElements)	import
                        3181 --_McalCry_KeyLock	sdaoff23(_McalCry_KeyLock)	import
                        3182 --_McalCry_KeyStorage	sdaoff23(_McalCry_KeyStorage)	import
                        3183 --_McalCry_ModuleInitialized	sdaoff23(_McalCry_ModuleInitialized)	import
                        3184 
                        3185 	.data
                        3186 	.ghsnote version,17

                                                                      Page 57
                                                              C:\Users\nhuliyap\AppData\Local\Temp\gh_00002r81.s
                        3187 	.ghsnote tools,3
                        3188 	.ghsnote options,144
                        3189 	.section ".MSR_CODE","ax"
                        3190 	.align	2
                        3191 ..eof.C.3A.5C_ECU2.5CECU_Rivian_A1.5CTarget.5Crepo_projects.5CpFOTA.5CcL_LATEST.5Cmake.5Cobj.5CMcalCry_KeyManagement...43.3A.5C_ECU2.5CECU_Rivian_A1.5CTarget.5Crepo_projects.5CpFOTA.5CcL_LATEST.5Cmake..64F86B54..0::
                        3192 .rh850_flags REGMODE32,DATA_ALIGN8,GP_FIX,EP_NONFIX,TP_FIX,REG2_RESERVE,G3K,SDA_EXTRA_REGS_0
