                                                                      Page 1
                                                              C:\Users\nhuliyap\AppData\Local\Temp\gh_00001c41.s
Command Line: C:\GHS\comp_201517\ease850.exe -w -stderr=err/SwcServiceCsm.err -elf -b0 -I../source/_common -I../source/common -I../source/ecuabcanif -I../source/ecuabcantrcv -I../source/ecuabcryif -I../source/ecuabfee -I../source/ecuabmemif -I../source/libautosar -I../source/mcalcan -I../source/mcalcry -I../source/mcaldio -I../source/mcaleep -I../source/mcalfls -I../source/mcalmcu -I../source/projectara -I../source/projectcfg -I../source/projectcompiler -I../source/swcservicebswm -I../source/swcservicecantp -I../source/swcservicecomm -I../source/swcservicecsm -I../source/swcservicedcm -I../source/swcservicedem -I../source/swcservicedet -I../source/swcserviceecum -I../source/swcservicenvm -I../source/swcserviceos -I../source/swcservicepdur -I../source/swcserviceschm -I../source/swcservicestartup -I../source/wrappers/swcservicesecm -I../source/wrappers/vsecprim -I../source/wrappers/vstdlib -Ic:/ghs/comp_201517/ansi -Ic:/ghs/comp_201517/include/v800 -Igendata -IC:\GHS\comp_201517\lib\rh850 -cg_underscore -cpu=rh850g3k -nofpu -no_v850_simd -rh850_fpsimd=none -nomacro -patch_dbo=C:\_ECU2\ECU_Rivian_A1\Target\repo_projects\pFOTA\cL_LATEST\make\obj\SwcServiceCsm.dbo -source=SwcServiceCsm.c -o obj\gh_00001c41.o -list=lst/SwcServiceCsm.lst C:\Users\nhuliyap\AppData\Local\Temp\gh_00001c41.s 
Original File: C:\Users\nhuliyap\AppData\Local\Temp\gh_00001c41.s
Source File: SwcServiceCsm.c
Directory: C:\_ECU2\ECU_Rivian_A1\Target\repo_projects\pFOTA\cL_LATEST\make
Host OS: Windows
EASE: Copyright (C) 1983-2015 Green Hills Software.  All Rights Reserved.
Release: Compiler v2015.1.7
Build Directory: [Directory] BTOWORKER6:c:/build_2015_1_bto/2015-10-21.2100-2015_1_bto/win32-comp-ecom
Revision: [VCInfo] http://toolsvc/branches/release-branch-70-bto/src@544153 (built by build)
Revision Date: Thu Oct 22 07:50:13 2015

Release Date: Thu Oct 22 09:32:32 2015

                           1 --Driver Command: ccrh850 -DBRS_DERIVATIVE_701018 -DBRS_OSC_CLK=16
                           2 --		-DBRS_TIMEBASE_CLOCK=80 -DBRS_EVA_BOARD_
                           3 --		-DBRS_DERIVATIVE_GROUP_F1L -DBRS_OS_USECASE_BRS
                           4 --		-DBRS_PLATFORM_RH850 -DBRS_COMP_GHS
                           5 --		-DBRS_CPU_LOCAL_RAM_SIZE_CORE0=32
                           6 --		-DBRS_CPU_RAM_START_CORE0=0xFEDF8000 -list=lst/SwcServiceCsm.lst
                           7 --		-object_dir=obj -stderr=err/SwcServiceCsm.err -c -cpu=rh850
                           8 --		-sda=all -large_sda -prepare_dispose -pragma_asm_inline -no_callt
                           9 --		-inline_prologue -notda -reserve_r2 -fsoft
                          10 --		--unknown_pragma_warnings -list -g -Ogeneral -shortenum
                          11 --		-registermode=32 -I../source/_common -I../source/common
                          12 --		-I../source/ecuabcanif -I../source/ecuabcantrcv
                          13 --		-I../source/ecuabcryif -I../source/ecuabfee
                          14 --		-I../source/ecuabmemif -I../source/libautosar -I../source/mcalcan
                          15 --		-I../source/mcalcry -I../source/mcaldio -I../source/mcaleep
                          16 --		-I../source/mcalfls -I../source/mcalmcu -I../source/projectara
                          17 --		-I../source/projectcfg -I../source/projectcompiler
                          18 --		-I../source/swcservicebswm -I../source/swcservicecantp
                          19 --		-I../source/swcservicecomm -I../source/swcservicecsm
                          20 --		-I../source/swcservicedcm -I../source/swcservicedem
                          21 --		-I../source/swcservicedet -I../source/swcserviceecum
                          22 --		-I../source/swcservicenvm -I../source/swcserviceos
                          23 --		-I../source/swcservicepdur -I../source/swcserviceschm
                          24 --		-I../source/swcservicestartup -I../source/wrappers/swcservicesecm
                          25 --		-I../source/wrappers/vsecprim -I../source/wrappers/vstdlib
                          26 --		-Ic:/ghs/comp_201517/ansi -Ic:/ghs/comp_201517/include/v800
                          27 --		-Igendata ../source/SwcServiceCsm/SwcServiceCsm.c
                          28 --Source File:   ../source/SwcServiceCsm/SwcServiceCsm.c
                          29 --Directory:     
                          30 --		C:\_ECU2\ECU_Rivian_A1\Target\repo_projects\pFOTA\cL_LATEST\make
                          31 --Compile Date:  Wed Sep 06 14:07:23 2023
                          32 --Host OS:       Win32
                          33 --Version:       C-RH850 2015.1.7 RELEASE VERSION
                          34 --Release:       Compiler v2015.1.7
                          35 --Revision Date: Thu Oct 22 08:06:12 2015
                          36 --Release Date:  Thu Oct 22 09:34:32 2015
                          37 -- ecom  -g -w -OM
                          38 	.text
                          39 ..bof.C.3A.5C_ECU2.5CECU_Rivian_A1.5CTarget.5Crepo_projects.5CpFOTA.5CcL_LATEST.5Cmake.5Cobj.5CSwcServiceCsm...43.3A.5C_ECU2.5CECU_Rivian_A1.5CTarget.5Crepo_projects.5CpFOTA.5CcL_LATEST.5Cmake..64F86B7B..0::
                          40 	.align	2
                          41 ..gh.f.f.1.e.0:
                          42 	.type	..gh.f.f.1.e.0,@object
                          43 	.size	..gh.f.f.1.e.0,0
                          44 	.global	_Csm_HandleJobProcessing..C.3A.5C_ECU2.5CECU_Rivian_A1.5CTarget.5Crepo_projects.5CpFOTA.5CcL_LATEST.5Cmake.5Cobj.5CSwcServiceCsm.
                          45 _Csm_HandleJobProcessing..C.3A.5C_ECU2.5CECU_Rivian_A1.5CTarget.5Crepo_projects.5CpFOTA.5CcL_LATEST.5Cmake.5Cobj.5CSwcServiceCsm.:
                          46 _Csm_HandleJobProcessing:
                          47 --	    .bf
                          48 .LDW01:
00000000 80070000*        49 	jr	_EcuabCryIf_ProcessJob
                          50 --	    .ef

                                                                      Page 2
                                                              C:\Users\nhuliyap\AppData\Local\Temp\gh_00001c41.s
                          51 .LDW11:
                          52 	.type	_Csm_HandleJobProcessing,@function
                          53 	.size	_Csm_HandleJobProcessing,.-_Csm_HandleJobProcessing
                          54 	.type	_Csm_HandleJobProcessing..C.3A.5C_ECU2.5CECU_Rivian_A1.5CTarget.5Crepo_projects.5CpFOTA.5CcL_LATEST.5Cmake.5Cobj.5CSwcServiceCsm.,@function
                          55 	.size	_Csm_HandleJobProcessing..C.3A.5C_ECU2.5CECU_Rivian_A1.5CTarget.5Crepo_projects.5CpFOTA.5CcL_LATEST.5Cmake.5Cobj.5CSwcServiceCsm.,.-_Csm_HandleJobProcessing..C.3A.5C_ECU2.5CECU_Rivian_A1.5CTarget.5Crepo_projects.5CpFOTA.5CcL_LATEST.5Cmake.5Cobj.5CSwcServiceCsm.
                          56 	.align	2
                          57 .LDW21:
                          58 
                          59 --_channelId	r6	param
                          60 --_job	r7	param
                          61 
                          62 	.section ".bss","awb"
                          63 .L68:
                          64 	.type	.L68,@object
                          65 	.size	.L68,0
                          66 	.data
                          67 	.text
                          68 	.align	2
                          69 	.align	2
                          70 	.align	2
                          71 ..gh.f.f.1.e.1:
                          72 	.type	..gh.f.f.1.e.1,@object
                          73 	.size	..gh.f.f.1.e.1,0
                          74 	.global	_Csm_ProcessJob..C.3A.5C_ECU2.5CECU_Rivian_A1.5CTarget.5Crepo_projects.5CpFOTA.5CcL_LATEST.5Cmake.5Cobj.5CSwcServiceCsm.
                          75 _Csm_ProcessJob..C.3A.5C_ECU2.5CECU_Rivian_A1.5CTarget.5Crepo_projects.5CpFOTA.5CcL_LATEST.5Cmake.5Cobj.5CSwcServiceCsm.:
                          76 _Csm_ProcessJob:
00000004 8007e100         77 	prepare	{r28,r29,r31},0
00000008 06e0             78 	mov	r6,r28
                          79 --	    .bf
                          80 .LDW31:
0000000a 26ef0100         81 	ld.w	0[r6],r29
0000000e 270600000000*    82 	mov	sdaoff23(_Csm_JobState),r7
00000014 fdf60300         83 	mulhi	3,r29,ep
00000018 c7e9             84 	add	r7,r29
0000001a 0638             85 	mov	r6,r7
0000001c 0232             86 	mov	2,r6
0000001e c5f1             87 	add	r5,ep
00000020 be0705f00000*    88 	ld.bu	rosdaoff23(_Csm_JobTable+2)[ep],ep
00000026 5d370000         89 	st.b	r6,0[r29]
0000002a c3f2             90 	shl	3,ep
0000002c c5f1             91 	add	r5,ep
0000002e 9e0709300000*    92 	ld.w	rosdaoff23(_Csm_QueueInfo)[ep],r6
                          93 	jarl	_Csm_HandleJobProcessing,lp
                          93 <EXPANSION BEGIN>
                          93 jarl22 _Csm_HandleJobProcessing , lp 
00000034 bfffccff*        93 <EXPANSION END>
                          94 --line390
                          95 ..lin.C.3A.5C_ECU2.5CECU_Rivian_A1.5CTarget.5Crepo_projects.5CpFOTA.5CcL_LATEST.5Cmake.5Cobj.5CSwcServiceCsm.1::
                          96 .LDWlin1:
00000038 e051             97 	cmp	zero,r10
0000003a ca05*            98 	bne	.L94
0000003c dcd73400         99 	tst1	2,52[r28]
00000040 820d*           100 	be	.L93
                         101 .L94:
                         102 --line393
                         103 ..lin.C.3A.5C_ECU2.5CECU_Rivian_A1.5CTarget.5Crepo_projects.5CpFOTA.5CcL_LATEST.5Cmake.5Cobj.5CSwcServiceCsm.2::
                         104 .LDWlin2:
00000042 1f82            105 	mov	-1,r16
00000044 5d070000        106 	st.b	zero,0[r29]
00000048 7c870100        107 	st.w	r16,0[r28]
0000004c 4006ff00        108 	dispose	0,{r28,r29,r31},[lp]

                                                                      Page 3
                                                              C:\Users\nhuliyap\AppData\Local\Temp\gh_00001c41.s
                         109 .L93:
                         110 --line397
                         111 ..lin.C.3A.5C_ECU2.5CECU_Rivian_A1.5CTarget.5Crepo_projects.5CpFOTA.5CcL_LATEST.5Cmake.5Cobj.5CSwcServiceCsm.3::
                         112 .LDWlin3:
00000050 017a            113 	mov	1,r15
00000052 5d7f0000        114 	st.b	r15,0[r29]
                         115 --	    .ef
                         116 .LDW41:
00000056 4006ff00        117 	dispose	0,{r28,r29,r31},[lp]
                         118 	.type	_Csm_ProcessJob,@function
                         119 	.size	_Csm_ProcessJob,.-_Csm_ProcessJob
                         120 	.type	_Csm_ProcessJob..C.3A.5C_ECU2.5CECU_Rivian_A1.5CTarget.5Crepo_projects.5CpFOTA.5CcL_LATEST.5Cmake.5Cobj.5CSwcServiceCsm.,@function
                         121 	.size	_Csm_ProcessJob..C.3A.5C_ECU2.5CECU_Rivian_A1.5CTarget.5Crepo_projects.5CpFOTA.5CcL_LATEST.5Cmake.5Cobj.5CSwcServiceCsm.,.-_Csm_ProcessJob..C.3A.5C_ECU2.5CECU_Rivian_A1.5CTarget.5Crepo_projects.5CpFOTA.5CcL_LATEST.5Cmake.5Cobj.5CSwcServiceCsm.
                         122 	.align	2
                         123 .LDW51:
                         124 --_retVal	r10	local
                         125 
                         126 --_job	r28	param
                         127 
                         128 	.section ".bss","awb"
                         129 .L140:
                         130 	.type	.L140,@object
                         131 	.size	.L140,0
                         132 	.section ".sdata","aw"
                         133 	.global	_Csm_IsInitialized..C.3A.5C_ECU2.5CECU_Rivian_A1.5CTarget.5Crepo_projects.5CpFOTA.5CcL_LATEST.5Cmake.5Cobj.5CSwcServiceCsm.
                         134 _Csm_IsInitialized..C.3A.5C_ECU2.5CECU_Rivian_A1.5CTarget.5Crepo_projects.5CpFOTA.5CcL_LATEST.5Cmake.5Cobj.5CSwcServiceCsm.:
00000000 00              135 _Csm_IsInitialized:	.byte	0
                         136 	.type	_Csm_IsInitialized..C.3A.5C_ECU2.5CECU_Rivian_A1.5CTarget.5Crepo_projects.5CpFOTA.5CcL_LATEST.5Cmake.5Cobj.5CSwcServiceCsm.,@object
                         137 	.size	_Csm_IsInitialized..C.3A.5C_ECU2.5CECU_Rivian_A1.5CTarget.5Crepo_projects.5CpFOTA.5CcL_LATEST.5Cmake.5Cobj.5CSwcServiceCsm.,1
                         138 	.type	_Csm_IsInitialized,@object
                         139 	.size	_Csm_IsInitialized,1
                         140 	.data
                         141 	.text
                         142 	.align	2
                         143 	.align	2
                         144 ..gh.f.f.1.e.2:
                         145 	.type	..gh.f.f.1.e.2,@object
                         146 	.size	..gh.f.f.1.e.2,0
                         147 	.global	_Csm_GetJobObj..C.3A.5C_ECU2.5CECU_Rivian_A1.5CTarget.5Crepo_projects.5CpFOTA.5CcL_LATEST.5Cmake.5Cobj.5CSwcServiceCsm.
                         148 _Csm_GetJobObj..C.3A.5C_ECU2.5CECU_Rivian_A1.5CTarget.5Crepo_projects.5CpFOTA.5CcL_LATEST.5Cmake.5Cobj.5CSwcServiceCsm.:
                         149 _Csm_GetJobObj:
                         150 --	    .bf
                         151 .LDW61:
0000005a 04f0            152 	mov	gp,ep
0000005c c6f1            153 	add	r6,ep
0000005e be0705480000*   154 	ld.bu	sdaoff23(_Csm_JobState)[ep],r9
00000064 0252            155 	mov	2,r10
00000066 624a            156 	cmp	2,r9
00000068 994d*           157 	bnl	.L194
                         158 --line424
                         159 ..lin.C.3A.5C_ECU2.5CECU_Rivian_A1.5CTarget.5Crepo_projects.5CpFOTA.5CcL_LATEST.5Cmake.5Cobj.5CSwcServiceCsm.4::
                         160 .LDWlin4:
0000006a 614a            161 	cmp	1,r9
0000006c 9a0d*           162 	bne	.L199
                         163 --line425
                         164 ..lin.C.3A.5C_ECU2.5CECU_Rivian_A1.5CTarget.5Crepo_projects.5CpFOTA.5CcL_LATEST.5Cmake.5Cobj.5CSwcServiceCsm.5::
                         165 .LDWlin5:
0000006e 04f0            166 	mov	gp,ep
00000070 c6f1            167 	add	r6,ep
00000072 be0705980000*   168 	ld.bu	sdaoff23(_Csm_JobToObjMap)[ep],r19
00000078 479f0000        169 	st.b	r19,0[r7]

                                                                      Page 4
                                                              C:\Users\nhuliyap\AppData\Local\Temp\gh_00001c41.s
0000007c d53d*           170 	br	.L228
                         171 .L199:
                         172 --	    .bs
                         173 .LDW71:
                         174 --line444
                         175 ..lin.C.3A.5C_ECU2.5CECU_Rivian_A1.5CTarget.5Crepo_projects.5CpFOTA.5CcL_LATEST.5Cmake.5Cobj.5CSwcServiceCsm.6::
                         176 .LDWlin6:
0000007e e6f60300        177 	mulhi	3,r6,ep
00000082 2f0600000000*   178 	mov	sdaoff23(_Csm_Job),r15
00000088 c5f1            179 	add	r5,ep
0000008a be0705f00000*   180 	ld.bu	rosdaoff23(_Csm_JobTable+2)[ep],ep
00000090 c3f2            181 	shl	3,ep
00000092 c5f1            182 	add	r5,ep
00000094 be0705900000*   183 	ld.bu	rosdaoff23(_Csm_QueueInfo+4)[ep],r18
0000009a f2f68c00        184 	mulhi	140,r18,ep
0000009e cff1            185 	add	r15,ep
000000a0 0075            186 	sld.w	0[ep],r14
000000a2 7f72            187 	cmp	-1,r14
000000a4 ba2d*           188 	bne	.L194
                         189 --line469
                         190 ..lin.C.3A.5C_ECU2.5CECU_Rivian_A1.5CTarget.5Crepo_projects.5CpFOTA.5CcL_LATEST.5Cmake.5Cobj.5CSwcServiceCsm.7::
                         191 .LDWlin7:
000000a6 47970000        192 	st.b	r18,0[r7]
000000aa 0488            193 	mov	gp,r17
000000ac c689            194 	add	r6,r17
000000ae 0135            195 	sst.w	r6,0[ep]
000000b0 8600            196 	zxb	r6
000000b2 e6861400        197 	mulhi	20,r6,r16
000000b6 2d0600000000*   198 	mov	rosdaoff23(_Csm_JobPrimitiveInfo),r13
000000bc c332            199 	shl	3,r6
000000be 2c0600000000*   200 	mov	rosdaoff23(_Csm_JobInfo),r12
000000c4 cd81            201 	add	r13,r16
000000c6 cc31            202 	add	r12,r6
000000c8 91070d900000*   203 	st.b	r18,sdaoff23(_Csm_JobToObjMap)[r17]
000000ce 2185            204 	sst.w	r16,64[ep]
000000d0 2335            205 	sst.w	r6,68[ep]
000000d2 8403            206 	sst.b	zero,4[ep]
000000d4 1e9e0800        207 	addi	8,ep,r19
000000d8 1e7e5400        208 	addi	84,ep,r15
000000dc 1e5e4000        209 	addi	64,ep,r11
                         210 .L275:
000000e0 b30709400000    211 	ld.dw	0[r19],r8
000000e6 489a            212 	add	8,r19
000000e8 af070f400000    213 	st.dw	r8,0[r15]
000000ee 487a            214 	add	8,r15
000000f0 f359            215 	cmp	r19,r11
000000f2 faf5*           216 	bne	.L275
000000f4 d003            217 	sst.b	zero,80[ep]
                         218 .L228:
                         219 --	    .es
                         220 .LDW81:
                         221 --line473
                         222 ..lin.C.3A.5C_ECU2.5CECU_Rivian_A1.5CTarget.5Crepo_projects.5CpFOTA.5CcL_LATEST.5Cmake.5Cobj.5CSwcServiceCsm.8::
                         223 .LDWlin8:
000000f6 0052            224 	mov	0,r10
000000f8 7f00            225 	jmp	[lp]
                         226 .L194:
                         227 --	    .ef
                         228 .LDW91:
                         229 --line478
                         230 ..lin.C.3A.5C_ECU2.5CECU_Rivian_A1.5CTarget.5Crepo_projects.5CpFOTA.5CcL_LATEST.5Cmake.5Cobj.5CSwcServiceCsm.9::

                                                                      Page 5
                                                              C:\Users\nhuliyap\AppData\Local\Temp\gh_00001c41.s
                         231 .LDWlin9:
000000fa 7f00            232 	jmp	[lp]
                         233 	.type	_Csm_GetJobObj,@function
                         234 	.size	_Csm_GetJobObj,.-_Csm_GetJobObj
                         235 	.type	_Csm_GetJobObj..C.3A.5C_ECU2.5CECU_Rivian_A1.5CTarget.5Crepo_projects.5CpFOTA.5CcL_LATEST.5Cmake.5Cobj.5CSwcServiceCsm.,@function
                         236 	.size	_Csm_GetJobObj..C.3A.5C_ECU2.5CECU_Rivian_A1.5CTarget.5Crepo_projects.5CpFOTA.5CcL_LATEST.5Cmake.5Cobj.5CSwcServiceCsm.,.-_Csm_GetJobObj..C.3A.5C_ECU2.5CECU_Rivian_A1.5CTarget.5Crepo_projects.5CpFOTA.5CcL_LATEST.5Cmake.5Cobj.5CSwcServiceCsm.
                         237 	.align	2
                         238 .LDW02:
                         239 --_retVal	r10	local
                         240 --_idx	r18	local
                         241 
                         242 --_jobId	r6	param
                         243 --_jobObjId	r7	param
                         244 
                         245 	.section ".bss","awb"
                         246 .L274:
                         247 	.type	.L274,@object
                         248 	.size	.L274,0
                         249 	.data
                         250 	.text
                         251 	.align	2
                         252 	.align	2
                         253 ..gh.f.f.1.e.3:
                         254 	.type	..gh.f.f.1.e.3,@object
                         255 	.size	..gh.f.f.1.e.3,0
                         256 	.global	_Csm_InitMemory
                         257 _Csm_InitMemory:
                         258 --	    .bf
                         259 .LDW12:
000000fc 84070d000000*   260 	st.b	zero,sdaoff23(_Csm_IsInitialized)[gp]
                         261 --	    .ef
                         262 .LDW22:
00000102 7f00            263 	jmp	[lp]
                         264 	.type	_Csm_InitMemory,@function
                         265 	.size	_Csm_InitMemory,.-_Csm_InitMemory
                         266 	.align	2
                         267 .LDW32:
                         268 
                         269 	.section ".bss","awb"
                         270 .L401:
                         271 	.type	.L401,@object
                         272 	.size	.L401,0
                         273 	.data
                         274 	.text
                         275 	.align	2
                         276 	.align	2
                         277 ..gh.f.f.1.e.4:
                         278 	.type	..gh.f.f.1.e.4,@object
                         279 	.size	..gh.f.f.1.e.4,0
                         280 	.global	_Csm_Init
                         281 _Csm_Init:
                         282 --	    .bf
                         283 .LDW42:
00000104 a40705700000*   284 	ld.bu	sdaoff23(_Csm_IsInitialized)[gp],r14
0000010a 0092            285 	mov	0,r18
0000010c 6172            286 	cmp	1,r14
                         287 --	    .bs
                         288 .LDW52:
0000010e c24d*           289 	be	.L434
                         290 .L426:
                         291 --line774

                                                                      Page 6
                                                              C:\Users\nhuliyap\AppData\Local\Temp\gh_00001c41.s
                         292 ..lin.C.3A.5C_ECU2.5CECU_Rivian_A1.5CTarget.5Crepo_projects.5CpFOTA.5CcL_LATEST.5Cmake.5Cobj.5CSwcServiceCsm.10::
                         293 .LDWlin10:
00000110 f2f68c00        294 	mulhi	140,r18,ep
00000114 2c0600000000*   295 	mov	sdaoff23(_Csm_Job),r12
0000011a 1f5a            296 	mov	-1,r11
0000011c ccf1            297 	add	r12,ep
0000011e 8403            298 	sst.b	zero,4[ep]
00000120 0505            299 	sst.w	zero,8[ep]
00000122 0705            300 	sst.w	zero,12[ep]
00000124 0905            301 	sst.w	zero,16[ep]
00000126 0b05            302 	sst.w	zero,20[ep]
00000128 0d05            303 	sst.w	zero,24[ep]
0000012a 0f05            304 	sst.w	zero,28[ep]
0000012c 1105            305 	sst.w	zero,32[ep]
0000012e 1305            306 	sst.w	zero,36[ep]
00000130 1505            307 	sst.w	zero,40[ep]
00000132 1705            308 	sst.w	zero,44[ep]
00000134 1905            309 	sst.w	zero,48[ep]
00000136 b403            310 	sst.b	zero,52[ep]
00000138 2505            311 	sst.w	zero,72[ep]
0000013a 015d            312 	sst.w	r11,0[ep]
0000013c 1e860800        313 	addi	8,ep,r16
00000140 1e7e5400        314 	addi	84,ep,r15
00000144 1e564000        315 	addi	64,ep,r10
                         316 .L546:
00000148 b00709400000    317 	ld.dw	0[r16],r8
0000014e 4882            318 	add	8,r16
00000150 af070f400000    319 	st.dw	r8,0[r15]
00000156 487a            320 	add	8,r15
00000158 f051            321 	cmp	r16,r10
0000015a faf5*           322 	bne	.L546
                         323 --line773
                         324 ..lin.C.3A.5C_ECU2.5CECU_Rivian_A1.5CTarget.5Crepo_projects.5CpFOTA.5CcL_LATEST.5Cmake.5Cobj.5CSwcServiceCsm.11::
                         325 .LDWlin11:
0000015c 4192            326 	add	1,r18
0000015e d003            327 	sst.b	zero,80[ep]
00000160 6292            328 	cmp	2,r18
00000162 f1d5*           329 	bl	.L426
00000164 0092            330 	mov	0,r18
                         331 .L429:
                         332 --line812
                         333 ..lin.C.3A.5C_ECU2.5CECU_Rivian_A1.5CTarget.5Crepo_projects.5CpFOTA.5CcL_LATEST.5Cmake.5Cobj.5CSwcServiceCsm.12::
                         334 .LDWlin12:
00000166 04f0            335 	mov	gp,ep
00000168 d2f1            336 	add	r18,ep
0000016a 4192            337 	add	1,r18
0000016c 9e070d000000*   338 	st.b	zero,sdaoff23(_Csm_JobState)[ep]
00000172 6592            339 	cmp	5,r18
00000174 91fd*           340 	bl	.L429
00000176 0092            341 	mov	0,r18
                         342 .L432:
                         343 --line816
                         344 ..lin.C.3A.5C_ECU2.5CECU_Rivian_A1.5CTarget.5Crepo_projects.5CpFOTA.5CcL_LATEST.5Cmake.5Cobj.5CSwcServiceCsm.13::
                         345 .LDWlin13:
00000178 1288            346 	mov	r18,r17
0000017a c38a            347 	shl	3,r17
0000017c c589            348 	add	r5,r17
0000017e b10705980000*   349 	ld.bu	rosdaoff23(_Csm_QueueInfo+4)[r17],r19
00000184 12f0            350 	mov	r18,ep
00000186 c2f2            351 	shl	2,ep
00000188 c4f1            352 	add	gp,ep

                                                                      Page 7
                                                              C:\Users\nhuliyap\AppData\Local\Temp\gh_00001c41.s
0000018a 4192            353 	add	1,r18
0000018c 9e070d980000*   354 	st.b	r19,sdaoff23(_Csm_QueueState+2)[ep]
00000192 be070d000000*   355 	st.h	zero,sdaoff23(_Csm_QueueState)[ep]
00000198 6292            356 	cmp	2,r18
0000019a f1ed*           357 	bl	.L432
                         358 --line845
                         359 ..lin.C.3A.5C_ECU2.5CECU_Rivian_A1.5CTarget.5Crepo_projects.5CpFOTA.5CcL_LATEST.5Cmake.5Cobj.5CSwcServiceCsm.14::
                         360 .LDWlin14:
0000019c 0192            361 	mov	1,r18
0000019e 84070d900000*   362 	st.b	r18,sdaoff23(_Csm_IsInitialized)[gp]
                         363 --	    .es
                         364 .LDW62:
                         365 --	    .ef
                         366 .LDW72:
000001a4 7f00            367 	jmp	[lp]
                         368 .L434:
                         369 --line852
                         370 ..lin.C.3A.5C_ECU2.5CECU_Rivian_A1.5CTarget.5Crepo_projects.5CpFOTA.5CcL_LATEST.5Cmake.5Cobj.5CSwcServiceCsm.15::
                         371 .LDWlin15:
000001a6 1238            372 	mov	r18,r7
000001a8 20366e00        373 	movea	110,zero,r6
000001ac 0740            374 	mov	r7,r8
000001ae 204e1100        375 	movea	17,zero,r9
000001b2 80070000*       376 	jr	_Det_ReportError
                         377 	.type	_Csm_Init,@function
                         378 	.size	_Csm_Init,.-_Csm_Init
                         379 	.align	2
                         380 .LDW82:
                         381 --_index	r18	local
                         382 
                         383 	.section ".bss","awb"
                         384 .L545:
                         385 	.type	.L545,@object
                         386 	.size	.L545,0
                         387 	.data
                         388 	.text
                         389 	.align	2
                         390 	.align	2
                         391 ..gh.f.f.1.e.5:
                         392 	.type	..gh.f.f.1.e.5,@object
                         393 	.size	..gh.f.f.1.e.5,0
                         394 	.global	_Csm_MainFunction
                         395 _Csm_MainFunction:
                         396 --	    .bf
                         397 .LDW92:
000001b6 a40705900000*   398 	ld.bu	sdaoff23(_Csm_IsInitialized)[gp],r18
000001bc 6192            399 	cmp	1,r18
000001be 820d*           400 	be	.L655
                         401 --line952
                         402 ..lin.C.3A.5C_ECU2.5CECU_Rivian_A1.5CTarget.5Crepo_projects.5CpFOTA.5CcL_LATEST.5Cmake.5Cobj.5CSwcServiceCsm.16::
                         403 .LDWlin16:
000001c0 20366e00        404 	movea	110,zero,r6
000001c4 003a            405 	mov	0,r7
000001c6 0142            406 	mov	1,r8
000001c8 054a            407 	mov	5,r9
000001ca 80070000*       408 	jr	_Det_ReportError
                         409 .L655:
                         410 --	    .ef
                         411 .LDW03:
                         412 --line958
                         413 ..lin.C.3A.5C_ECU2.5CECU_Rivian_A1.5CTarget.5Crepo_projects.5CpFOTA.5CcL_LATEST.5Cmake.5Cobj.5CSwcServiceCsm.17::

                                                                      Page 8
                                                              C:\Users\nhuliyap\AppData\Local\Temp\gh_00001c41.s
                         414 .LDWlin17:
000001ce 7f00            415 	jmp	[lp]
                         416 	.type	_Csm_MainFunction,@function
                         417 	.size	_Csm_MainFunction,.-_Csm_MainFunction
                         418 	.align	2
                         419 .LDW13:
                         420 
                         421 	.section ".bss","awb"
                         422 .L707:
                         423 	.type	.L707,@object
                         424 	.size	.L707,0
                         425 	.data
                         426 	.text
                         427 	.align	2
                         428 	.align	2
                         429 ..gh.f.f.1.e.6:
                         430 	.type	..gh.f.f.1.e.6,@object
                         431 	.size	..gh.f.f.1.e.6,0
                         432 	.global	_Csm_CallbackNotification
                         433 _Csm_CallbackNotification:
                         434 --	    .bf
                         435 .LDW23:
                         436 --	    .ef
                         437 .LDW33:
000001d0 7f00            438 	jmp	[lp]
                         439 	.type	_Csm_CallbackNotification,@function
                         440 	.size	_Csm_CallbackNotification,.-_Csm_CallbackNotification
                         441 	.align	2
                         442 .LDW43:
                         443 
                         444 --_job	none	param
                         445 --_result	none	param
                         446 
                         447 	.section ".bss","awb"
                         448 .L768:
                         449 	.type	.L768,@object
                         450 	.size	.L768,0
                         451 	.data
                         452 	.text
                         453 	.align	2
                         454 	.align	2
                         455 ..gh.f.f.1.e.7:
                         456 	.type	..gh.f.f.1.e.7,@object
                         457 	.size	..gh.f.f.1.e.7,0
                         458 	.global	_Csm_KeyElementSet
                         459 _Csm_KeyElementSet:
000001d2 80076100        460 	prepare	{r29,r31},0
                         461 --	    .bf
                         462 .LDW53:
000001d6 a40705980000*   463 	ld.bu	sdaoff23(_Csm_IsInitialized)[gp],r19
000001dc 01ea            464 	mov	1,r29
000001de 619a            465 	cmp	1,r19
000001e0 a20d*           466 	be	.L785
000001e2 054a            467 	mov	5,r9
                         468 .L795:
                         469 --line1089
                         470 ..lin.C.3A.5C_ECU2.5CECU_Rivian_A1.5CTarget.5Crepo_projects.5CpFOTA.5CcL_LATEST.5Cmake.5Cobj.5CSwcServiceCsm.18::
                         471 .LDWlin18:
000001e4 20366e00        472 	movea	110,zero,r6
000001e8 003a            473 	mov	0,r7
000001ea 20467800        474 	movea	120,zero,r8

                                                                      Page 9
                                                              C:\Users\nhuliyap\AppData\Local\Temp\gh_00001c41.s
                         475 	jarl	_Det_ReportError,lp
                         475 <EXPANSION BEGIN>
                         475 jarl22 _Det_ReportError , lp 
000001ee 80ff0000*       475 <EXPANSION END>
000001f2 9515*           476 	br	.L794
                         477 .L785:
                         478 --line1074
                         479 ..lin.C.3A.5C_ECU2.5CECU_Rivian_A1.5CTarget.5Crepo_projects.5CpFOTA.5CcL_LATEST.5Cmake.5Cobj.5CSwcServiceCsm.19::
                         480 .LDWlin19:
000001f4 e041            481 	cmp	zero,r8
000001f6 e14f044b        482 	cmove	1,r9,r9
000001fa d2f5*           483 	be	.L795
                         484 --line1078
                         485 ..lin.C.3A.5C_ECU2.5CECU_Rivian_A1.5CTarget.5Crepo_projects.5CpFOTA.5CcL_LATEST.5Cmake.5Cobj.5CSwcServiceCsm.20::
                         486 .LDWlin20:
000001fc 6732            487 	cmp	7,r6
000001fe e34f124b        488 	cmovnl	3,r9,r9
00000202 99f5*           489 	bnl	.L795
                         490 --line1084
                         491 ..lin.C.3A.5C_ECU2.5CECU_Rivian_A1.5CTarget.5Crepo_projects.5CpFOTA.5CcL_LATEST.5Cmake.5Cobj.5CSwcServiceCsm.21::
                         492 .LDWlin21:
00000204 c232            493 	shl	2,r6
00000206 c531            494 	add	r5,r6
00000208 860709300000*   495 	ld.w	rosdaoff23(_Csm_Key)[r6],r6
                         496 	jarl	_CryIf_KeyElementSet,lp
                         496 <EXPANSION BEGIN>
                         496 jarl22 _CryIf_KeyElementSet , lp 
0000020e 80ff0000*       496 <EXPANSION END>
00000212 0ae8            497 	mov	r10,r29
                         498 .L794:
                         499 --line1095
                         500 ..lin.C.3A.5C_ECU2.5CECU_Rivian_A1.5CTarget.5Crepo_projects.5CpFOTA.5CcL_LATEST.5Cmake.5Cobj.5CSwcServiceCsm.22::
                         501 .LDWlin22:
00000214 1d50            502 	mov	r29,r10
                         503 --	    .ef
                         504 .LDW63:
00000216 40067f00        505 	dispose	0,{r29,r31},[lp]
                         506 	.type	_Csm_KeyElementSet,@function
                         507 	.size	_Csm_KeyElementSet,.-_Csm_KeyElementSet
                         508 	.align	2
                         509 .LDW73:
                         510 --_retVal	r29	local
                         511 --_errorId	r9	local
                         512 
                         513 --_keyId	r6	param
                         514 --_keyElementId	r7	param
                         515 --_keyPtr	r8	param
                         516 --_keyLength	r9	param
                         517 
                         518 	.section ".bss","awb"
                         519 .L881:
                         520 	.type	.L881,@object
                         521 	.size	.L881,0
                         522 	.data
                         523 	.text
                         524 	.align	2
                         525 	.align	2
                         526 ..gh.f.f.1.e.8:
                         527 	.type	..gh.f.f.1.e.8,@object
                         528 	.size	..gh.f.f.1.e.8,0
                         529 	.global	_Csm_KeySetValid

                                                                      Page 10
                                                              C:\Users\nhuliyap\AppData\Local\Temp\gh_00001c41.s
                         530 _Csm_KeySetValid:
0000021a 80076100        531 	prepare	{r29,r31},0
                         532 --	    .bf
                         533 .LDW83:
0000021e a40705980000*   534 	ld.bu	sdaoff23(_Csm_IsInitialized)[gp],r19
00000224 01ea            535 	mov	1,r29
00000226 054a            536 	mov	5,r9
00000228 619a            537 	cmp	1,r19
0000022a da0d*           538 	bne	.L968
                         539 --line1117
                         540 ..lin.C.3A.5C_ECU2.5CECU_Rivian_A1.5CTarget.5Crepo_projects.5CpFOTA.5CcL_LATEST.5Cmake.5Cobj.5CSwcServiceCsm.23::
                         541 .LDWlin23:
0000022c 6732            542 	cmp	7,r6
0000022e 034a            543 	mov	3,r9
00000230 a90d*           544 	bnl	.L968
                         545 --line1123
                         546 ..lin.C.3A.5C_ECU2.5CECU_Rivian_A1.5CTarget.5Crepo_projects.5CpFOTA.5CcL_LATEST.5Cmake.5Cobj.5CSwcServiceCsm.24::
                         547 .LDWlin24:
00000232 c232            548 	shl	2,r6
00000234 c531            549 	add	r5,r6
00000236 860709300000*   550 	ld.w	rosdaoff23(_Csm_Key)[r6],r6
                         551 	jarl	_CryIf_KeySetValid,lp
                         551 <EXPANSION BEGIN>
                         551 jarl22 _CryIf_KeySetValid , lp 
0000023c 80ff0000*       551 <EXPANSION END>
00000240 0ae8            552 	mov	r10,r29
00000242 850d*           553 	br	.L967
                         554 .L968:
                         555 --line1128
                         556 ..lin.C.3A.5C_ECU2.5CECU_Rivian_A1.5CTarget.5Crepo_projects.5CpFOTA.5CcL_LATEST.5Cmake.5Cobj.5CSwcServiceCsm.25::
                         557 .LDWlin25:
00000244 20366e00        558 	movea	110,zero,r6
00000248 003a            559 	mov	0,r7
0000024a 20466700        560 	movea	103,zero,r8
                         561 	jarl	_Det_ReportError,lp
                         561 <EXPANSION BEGIN>
                         561 jarl22 _Det_ReportError , lp 
0000024e 80ff0000*       561 <EXPANSION END>
                         562 .L967:
                         563 --line1134
                         564 ..lin.C.3A.5C_ECU2.5CECU_Rivian_A1.5CTarget.5Crepo_projects.5CpFOTA.5CcL_LATEST.5Cmake.5Cobj.5CSwcServiceCsm.26::
                         565 .LDWlin26:
00000252 1d50            566 	mov	r29,r10
                         567 --	    .ef
                         568 .LDW93:
00000254 40067f00        569 	dispose	0,{r29,r31},[lp]
                         570 	.type	_Csm_KeySetValid,@function
                         571 	.size	_Csm_KeySetValid,.-_Csm_KeySetValid
                         572 	.align	2
                         573 .LDW04:
                         574 --_retVal	r29	local
                         575 --_errorId	r9	local
                         576 
                         577 --_keyId	r6	param
                         578 
                         579 	.section ".bss","awb"
                         580 .L1043:
                         581 	.type	.L1043,@object
                         582 	.size	.L1043,0
                         583 	.data
                         584 	.text

                                                                      Page 11
                                                              C:\Users\nhuliyap\AppData\Local\Temp\gh_00001c41.s
                         585 	.align	2
                         586 	.align	2
                         587 ..gh.f.f.1.e.9:
                         588 	.type	..gh.f.f.1.e.9,@object
                         589 	.size	..gh.f.f.1.e.9,0
                         590 	.global	_Csm_KeyElementGet
                         591 _Csm_KeyElementGet:
00000258 80076100        592 	prepare	{r29,r31},0
                         593 --	    .bf
                         594 .LDW14:
0000025c a40705980000*   595 	ld.bu	sdaoff23(_Csm_IsInitialized)[gp],r19
00000262 01ea            596 	mov	1,r29
00000264 619a            597 	cmp	1,r19
00000266 c20d*           598 	be	.L1109
00000268 054a            599 	mov	5,r9
                         600 .L1120:
                         601 --line1172
                         602 ..lin.C.3A.5C_ECU2.5CECU_Rivian_A1.5CTarget.5Crepo_projects.5CpFOTA.5CcL_LATEST.5Cmake.5Cobj.5CSwcServiceCsm.27::
                         603 .LDWlin27:
0000026a 20366e00        604 	movea	110,zero,r6
0000026e 003a            605 	mov	0,r7
00000270 20466800        606 	movea	104,zero,r8
                         607 	jarl	_Det_ReportError,lp
                         607 <EXPANSION BEGIN>
                         607 jarl22 _Det_ReportError , lp 
00000274 80ff0000*       607 <EXPANSION END>
00000278 d515*           608 	br	.L1119
                         609 .L1113:
                         610 --line1158
                         611 ..lin.C.3A.5C_ECU2.5CECU_Rivian_A1.5CTarget.5Crepo_projects.5CpFOTA.5CcL_LATEST.5Cmake.5Cobj.5CSwcServiceCsm.28::
                         612 .LDWlin28:
0000027a 1d48            613 	mov	r29,r9
0000027c f5f5*           614 	br	.L1120
                         615 .L1109:
                         616 --line1156
                         617 ..lin.C.3A.5C_ECU2.5CECU_Rivian_A1.5CTarget.5Crepo_projects.5CpFOTA.5CcL_LATEST.5Cmake.5Cobj.5CSwcServiceCsm.29::
                         618 .LDWlin29:
0000027e e041            619 	cmp	zero,r8
00000280 d2fd*           620 	be	.L1113
00000282 e049            621 	cmp	zero,r9
00000284 e14f044b        622 	cmove	1,r9,r9
00000288 92f5*           623 	be	.L1120
                         624 --line1161
                         625 ..lin.C.3A.5C_ECU2.5CECU_Rivian_A1.5CTarget.5Crepo_projects.5CpFOTA.5CcL_LATEST.5Cmake.5Cobj.5CSwcServiceCsm.30::
                         626 .LDWlin30:
0000028a 6732            627 	cmp	7,r6
0000028c e34f124b        628 	cmovnl	3,r9,r9
00000290 d9ed*           629 	bnl	.L1120
                         630 --line1167
                         631 ..lin.C.3A.5C_ECU2.5CECU_Rivian_A1.5CTarget.5Crepo_projects.5CpFOTA.5CcL_LATEST.5Cmake.5Cobj.5CSwcServiceCsm.31::
                         632 .LDWlin31:
00000292 c232            633 	shl	2,r6
00000294 c531            634 	add	r5,r6
00000296 860709300000*   635 	ld.w	rosdaoff23(_Csm_Key)[r6],r6
                         636 	jarl	_CryIf_KeyElementGet,lp
                         636 <EXPANSION BEGIN>
                         636 jarl22 _CryIf_KeyElementGet , lp 
0000029c 80ff0000*       636 <EXPANSION END>
000002a0 0ae8            637 	mov	r10,r29
                         638 .L1119:
                         639 --line1178

                                                                      Page 12
                                                              C:\Users\nhuliyap\AppData\Local\Temp\gh_00001c41.s
                         640 ..lin.C.3A.5C_ECU2.5CECU_Rivian_A1.5CTarget.5Crepo_projects.5CpFOTA.5CcL_LATEST.5Cmake.5Cobj.5CSwcServiceCsm.32::
                         641 .LDWlin32:
000002a2 1d50            642 	mov	r29,r10
                         643 --	    .ef
                         644 .LDW24:
000002a4 40067f00        645 	dispose	0,{r29,r31},[lp]
                         646 	.type	_Csm_KeyElementGet,@function
                         647 	.size	_Csm_KeyElementGet,.-_Csm_KeyElementGet
                         648 	.align	2
                         649 .LDW34:
                         650 --_retVal	r29	local
                         651 --_errorId	r9	local
                         652 
                         653 --_keyId	r6	param
                         654 --_keyElementId	r7	param
                         655 --_keyPtr	r8	param
                         656 --_keyLengthPtr	r9	param
                         657 
                         658 	.section ".bss","awb"
                         659 .L1208:
                         660 	.type	.L1208,@object
                         661 	.size	.L1208,0
                         662 	.data
                         663 	.text
                         664 	.align	2
                         665 	.align	2
                         666 ..gh.f.f.1.e.10:
                         667 	.type	..gh.f.f.1.e.10,@object
                         668 	.size	..gh.f.f.1.e.10,0
                         669 	.global	_Csm_KeyElementCopy
                         670 _Csm_KeyElementCopy:
000002a8 80076100        671 	prepare	{r29,r31},0
                         672 --	    .bf
                         673 .LDW44:
000002ac a40705980000*   674 	ld.bu	sdaoff23(_Csm_IsInitialized)[gp],r19
000002b2 01ea            675 	mov	1,r29
000002b4 619a            676 	cmp	1,r19
000002b6 c20d*           677 	be	.L1302
000002b8 054a            678 	mov	5,r9
                         679 .L1310:
                         680 --line1214
                         681 ..lin.C.3A.5C_ECU2.5CECU_Rivian_A1.5CTarget.5Crepo_projects.5CpFOTA.5CcL_LATEST.5Cmake.5Cobj.5CSwcServiceCsm.33::
                         682 .LDWlin33:
000002ba 20366e00        683 	movea	110,zero,r6
000002be 003a            684 	mov	0,r7
000002c0 20467100        685 	movea	113,zero,r8
                         686 	jarl	_Det_ReportError,lp
                         686 <EXPANSION BEGIN>
                         686 jarl22 _Det_ReportError , lp 
000002c4 80ff0000*       686 <EXPANSION END>
000002c8 f515*           687 	br	.L1309
                         688 .L1306:
                         689 --line1204
                         690 ..lin.C.3A.5C_ECU2.5CECU_Rivian_A1.5CTarget.5Crepo_projects.5CpFOTA.5CcL_LATEST.5Cmake.5Cobj.5CSwcServiceCsm.34::
                         691 .LDWlin34:
000002ca 034a            692 	mov	3,r9
000002cc f5f5*           693 	br	.L1310
                         694 .L1302:
                         695 --line1203
                         696 ..lin.C.3A.5C_ECU2.5CECU_Rivian_A1.5CTarget.5Crepo_projects.5CpFOTA.5CcL_LATEST.5Cmake.5Cobj.5CSwcServiceCsm.35::
                         697 .LDWlin35:

                                                                      Page 13
                                                              C:\Users\nhuliyap\AppData\Local\Temp\gh_00001c41.s
000002ce 6732            698 	cmp	7,r6
000002d0 d9fd*           699 	bnl	.L1306
000002d2 6742            700 	cmp	7,r8
000002d4 e34f124b        701 	cmovnl	3,r9,r9
000002d8 99f5*           702 	bnl	.L1310
                         703 --line1209
                         704 ..lin.C.3A.5C_ECU2.5CECU_Rivian_A1.5CTarget.5Crepo_projects.5CpFOTA.5CcL_LATEST.5Cmake.5Cobj.5CSwcServiceCsm.36::
                         705 .LDWlin36:
000002da 06f0            706 	mov	r6,ep
000002dc c2f2            707 	shl	2,ep
000002de 330600000000*   708 	mov	rosdaoff23(_Csm_Key),r19
000002e4 d3f1            709 	add	r19,ep
000002e6 0035            710 	sld.w	0[ep],r6
000002e8 08f0            711 	mov	r8,ep
000002ea c2f2            712 	shl	2,ep
000002ec d3f1            713 	add	r19,ep
000002ee 0045            714 	sld.w	0[ep],r8
                         715 	jarl	_CryIf_KeyElementCopy,lp
                         715 <EXPANSION BEGIN>
                         715 jarl22 _CryIf_KeyElementCopy , lp 
000002f0 80ff0000*       715 <EXPANSION END>
000002f4 0ae8            716 	mov	r10,r29
                         717 .L1309:
                         718 --line1220
                         719 ..lin.C.3A.5C_ECU2.5CECU_Rivian_A1.5CTarget.5Crepo_projects.5CpFOTA.5CcL_LATEST.5Cmake.5Cobj.5CSwcServiceCsm.37::
                         720 .LDWlin37:
000002f6 1d50            721 	mov	r29,r10
                         722 --	    .ef
                         723 .LDW54:
000002f8 40067f00        724 	dispose	0,{r29,r31},[lp]
                         725 	.type	_Csm_KeyElementCopy,@function
                         726 	.size	_Csm_KeyElementCopy,.-_Csm_KeyElementCopy
                         727 	.align	2
                         728 .LDW64:
                         729 --_retVal	r29	local
                         730 --_errorId	r9	local
                         731 
                         732 --_keyId	r6	param
                         733 --_keyElementId	r7	param
                         734 --_targetKeyId	r8	param
                         735 --_targetKeyElementId	r9	param
                         736 
                         737 	.section ".bss","awb"
                         738 .L1386:
                         739 	.type	.L1386,@object
                         740 	.size	.L1386,0
                         741 	.data
                         742 	.text
                         743 	.align	2
                         744 	.align	2
                         745 ..gh.f.f.1.e.11:
                         746 	.type	..gh.f.f.1.e.11,@object
                         747 	.size	..gh.f.f.1.e.11,0
                         748 	.global	_Csm_KeyElementCopyPartial
                         749 _Csm_KeyElementCopyPartial:
000002fc 86076300        750 	prepare	{r29,r31},3,sp
00000300 0a8d            751 	sld.w	20[ep],r17
00000302 0c9d            752 	sld.w	24[ep],r19
00000304 0e85            753 	sld.w	28[ep],r16
                         754 --	    .bf
                         755 .LDW74:

                                                                      Page 14
                                                              C:\Users\nhuliyap\AppData\Local\Temp\gh_00001c41.s
00000306 a40705780000*   756 	ld.bu	sdaoff23(_Csm_IsInitialized)[gp],r15
0000030c 01ea            757 	mov	1,r29
0000030e 617a            758 	cmp	1,r15
00000310 c20d*           759 	be	.L1466
00000312 054a            760 	mov	5,r9
                         761 .L1474:
                         762 --line1259
                         763 ..lin.C.3A.5C_ECU2.5CECU_Rivian_A1.5CTarget.5Crepo_projects.5CpFOTA.5CcL_LATEST.5Cmake.5Cobj.5CSwcServiceCsm.38::
                         764 .LDWlin38:
00000314 20366e00        765 	movea	110,zero,r6
00000318 003a            766 	mov	0,r7
0000031a 20467900        767 	movea	121,zero,r8
                         768 	jarl	_Det_ReportError,lp
                         768 <EXPANSION BEGIN>
                         768 jarl22 _Det_ReportError , lp 
0000031e 80ff0000*       768 <EXPANSION END>
00000322 c51d*           769 	br	.L1473
                         770 .L1470:
                         771 --line1249
                         772 ..lin.C.3A.5C_ECU2.5CECU_Rivian_A1.5CTarget.5Crepo_projects.5CpFOTA.5CcL_LATEST.5Cmake.5Cobj.5CSwcServiceCsm.39::
                         773 .LDWlin39:
00000324 034a            774 	mov	3,r9
00000326 f5f5*           775 	br	.L1474
                         776 .L1466:
                         777 --line1248
                         778 ..lin.C.3A.5C_ECU2.5CECU_Rivian_A1.5CTarget.5Crepo_projects.5CpFOTA.5CcL_LATEST.5Cmake.5Cobj.5CSwcServiceCsm.40::
                         779 .LDWlin40:
00000328 6732            780 	cmp	7,r6
0000032a d9fd*           781 	bnl	.L1470
0000032c 679a            782 	cmp	7,r19
0000032e e34f124b        783 	cmovnl	3,r9,r9
00000332 99f5*           784 	bnl	.L1474
                         785 --line1254
                         786 ..lin.C.3A.5C_ECU2.5CECU_Rivian_A1.5CTarget.5Crepo_projects.5CpFOTA.5CcL_LATEST.5Cmake.5Cobj.5CSwcServiceCsm.41::
                         787 .LDWlin41:
00000334 06f0            788 	mov	r6,ep
00000336 c2f2            789 	shl	2,ep
00000338 320600000000*   790 	mov	rosdaoff23(_Csm_Key),r18
0000033e d2f1            791 	add	r18,ep
00000340 0035            792 	sld.w	0[ep],r6
00000342 13f0            793 	mov	r19,ep
00000344 c2f2            794 	shl	2,ep
00000346 638f0100        795 	st.w	r17,0[sp]
0000034a d2f1            796 	add	r18,ep
0000034c 0075            797 	sld.w	0[ep],r14
0000034e 03f0            798 	mov	sp,ep
00000350 0585            799 	sst.w	r16,8[ep]
00000352 0375            800 	sst.w	r14,4[ep]
                         801 	jarl	_CryIf_KeyElementCopyPartial,lp
                         801 <EXPANSION BEGIN>
                         801 jarl22 _CryIf_KeyElementCopyPartial , lp 
00000354 80ff0000*       801 <EXPANSION END>
00000358 0ae8            802 	mov	r10,r29
                         803 .L1473:
                         804 --line1265
                         805 ..lin.C.3A.5C_ECU2.5CECU_Rivian_A1.5CTarget.5Crepo_projects.5CpFOTA.5CcL_LATEST.5Cmake.5Cobj.5CSwcServiceCsm.42::
                         806 .LDWlin42:
0000035a 1d50            807 	mov	r29,r10
                         808 --	    .ef
                         809 .LDW84:
0000035c 46067f00        810 	dispose	3,{r29,r31},[lp]

                                                                      Page 15
                                                              C:\Users\nhuliyap\AppData\Local\Temp\gh_00001c41.s
                         811 	.type	_Csm_KeyElementCopyPartial,@function
                         812 	.size	_Csm_KeyElementCopyPartial,.-_Csm_KeyElementCopyPartial
                         813 	.align	2
                         814 .LDW94:
                         815 --_retVal	r29	local
                         816 --_errorId	r9	local
                         817 
                         818 --_keyId	r6	param
                         819 --_keyElementId	r7	param
                         820 --_keyElementSourceOffset	r8	param
                         821 --_keyElementTargetOffset	r9	param
                         822 --_keyElementCopyLength	r17	param
                         823 --_targetKeyId	r19	param
                         824 --_targetKeyElementId	r16	param
                         825 
                         826 	.section ".bss","awb"
                         827 .L1562:
                         828 	.type	.L1562,@object
                         829 	.size	.L1562,0
                         830 	.data
                         831 	.text
                         832 	.align	2
                         833 	.align	2
                         834 ..gh.f.f.1.e.12:
                         835 	.type	..gh.f.f.1.e.12,@object
                         836 	.size	..gh.f.f.1.e.12,0
                         837 	.global	_Csm_KeyCopy
                         838 _Csm_KeyCopy:
00000360 80076100        839 	prepare	{r29,r31},0
                         840 --	    .bf
                         841 .LDW05:
00000364 a40705900000*   842 	ld.bu	sdaoff23(_Csm_IsInitialized)[gp],r18
0000036a 01ea            843 	mov	1,r29
0000036c 054a            844 	mov	5,r9
0000036e 6192            845 	cmp	1,r18
00000370 ea05*           846 	bne	.L1650
                         847 --line1291
                         848 ..lin.C.3A.5C_ECU2.5CECU_Rivian_A1.5CTarget.5Crepo_projects.5CpFOTA.5CcL_LATEST.5Cmake.5Cobj.5CSwcServiceCsm.43::
                         849 .LDWlin43:
00000372 034a            850 	mov	3,r9
00000374 6732            851 	cmp	7,r6
00000376 b905*           852 	bnl	.L1650
00000378 673a            853 	cmp	7,r7
0000037a 910d*           854 	bl	.L1645
                         855 .L1650:
                         856 --line1302
                         857 ..lin.C.3A.5C_ECU2.5CECU_Rivian_A1.5CTarget.5Crepo_projects.5CpFOTA.5CcL_LATEST.5Cmake.5Cobj.5CSwcServiceCsm.44::
                         858 .LDWlin44:
0000037c 20366e00        859 	movea	110,zero,r6
00000380 003a            860 	mov	0,r7
00000382 20467300        861 	movea	115,zero,r8
                         862 	jarl	_Det_ReportError,lp
                         862 <EXPANSION BEGIN>
                         862 jarl22 _Det_ReportError , lp 
00000386 80ff0000*       862 <EXPANSION END>
0000038a f50d*           863 	br	.L1649
                         864 .L1645:
                         865 --line1297
                         866 ..lin.C.3A.5C_ECU2.5CECU_Rivian_A1.5CTarget.5Crepo_projects.5CpFOTA.5CcL_LATEST.5Cmake.5Cobj.5CSwcServiceCsm.45::
                         867 .LDWlin45:
0000038c 06f0            868 	mov	r6,ep

                                                                      Page 16
                                                              C:\Users\nhuliyap\AppData\Local\Temp\gh_00001c41.s
0000038e c2f2            869 	shl	2,ep
00000390 330600000000*   870 	mov	rosdaoff23(_Csm_Key),r19
00000396 d3f1            871 	add	r19,ep
00000398 0035            872 	sld.w	0[ep],r6
0000039a 07f0            873 	mov	r7,ep
0000039c c2f2            874 	shl	2,ep
0000039e d3f1            875 	add	r19,ep
000003a0 003d            876 	sld.w	0[ep],r7
                         877 	jarl	_CryIf_KeyCopy,lp
                         877 <EXPANSION BEGIN>
                         877 jarl22 _CryIf_KeyCopy , lp 
000003a2 80ff0000*       877 <EXPANSION END>
000003a6 0ae8            878 	mov	r10,r29
                         879 .L1649:
                         880 --line1308
                         881 ..lin.C.3A.5C_ECU2.5CECU_Rivian_A1.5CTarget.5Crepo_projects.5CpFOTA.5CcL_LATEST.5Cmake.5Cobj.5CSwcServiceCsm.46::
                         882 .LDWlin46:
000003a8 1d50            883 	mov	r29,r10
                         884 --	    .ef
                         885 .LDW15:
000003aa 40067f00        886 	dispose	0,{r29,r31},[lp]
                         887 	.type	_Csm_KeyCopy,@function
                         888 	.size	_Csm_KeyCopy,.-_Csm_KeyCopy
                         889 	.align	2
                         890 .LDW25:
                         891 --_retVal	r29	local
                         892 --_errorId	r9	local
                         893 
                         894 --_keyId	r6	param
                         895 --_targetKeyId	r7	param
                         896 
                         897 	.section ".bss","awb"
                         898 .L1738:
                         899 	.type	.L1738,@object
                         900 	.size	.L1738,0
                         901 	.data
                         902 	.text
                         903 	.align	2
                         904 	.align	2
                         905 ..gh.f.f.1.e.13:
                         906 	.type	..gh.f.f.1.e.13,@object
                         907 	.size	..gh.f.f.1.e.13,0
                         908 	.global	_Csm_RandomSeed
                         909 _Csm_RandomSeed:
000003ae 80076100        910 	prepare	{r29,r31},0
                         911 --	    .bf
                         912 .LDW35:
000003b2 a40705980000*   913 	ld.bu	sdaoff23(_Csm_IsInitialized)[gp],r19
000003b8 01ea            914 	mov	1,r29
000003ba 054a            915 	mov	5,r9
000003bc 619a            916 	cmp	1,r19
000003be ca05*           917 	bne	.L1827
                         918 --line1330
                         919 ..lin.C.3A.5C_ECU2.5CECU_Rivian_A1.5CTarget.5Crepo_projects.5CpFOTA.5CcL_LATEST.5Cmake.5Cobj.5CSwcServiceCsm.47::
                         920 .LDWlin47:
000003c0 e039            921 	cmp	zero,r7
000003c2 aa0d*           922 	bne	.L1820
000003c4 014a            923 	mov	1,r9
                         924 .L1827:
                         925 --line1345
                         926 ..lin.C.3A.5C_ECU2.5CECU_Rivian_A1.5CTarget.5Crepo_projects.5CpFOTA.5CcL_LATEST.5Cmake.5Cobj.5CSwcServiceCsm.48::

                                                                      Page 17
                                                              C:\Users\nhuliyap\AppData\Local\Temp\gh_00001c41.s
                         927 .LDWlin48:
000003c6 20366e00        928 	movea	110,zero,r6
000003ca 003a            929 	mov	0,r7
000003cc 20466900        930 	movea	105,zero,r8
                         931 	jarl	_Det_ReportError,lp
                         931 <EXPANSION BEGIN>
                         931 jarl22 _Det_ReportError , lp 
000003d0 80ff0000*       931 <EXPANSION END>
000003d4 c50d*           932 	br	.L1826
                         933 .L1820:
                         934 --line1334
                         935 ..lin.C.3A.5C_ECU2.5CECU_Rivian_A1.5CTarget.5Crepo_projects.5CpFOTA.5CcL_LATEST.5Cmake.5Cobj.5CSwcServiceCsm.49::
                         936 .LDWlin49:
000003d6 6732            937 	cmp	7,r6
000003d8 034a            938 	mov	3,r9
000003da e9f5*           939 	bnl	.L1827
                         940 --line1340
                         941 ..lin.C.3A.5C_ECU2.5CECU_Rivian_A1.5CTarget.5Crepo_projects.5CpFOTA.5CcL_LATEST.5Cmake.5Cobj.5CSwcServiceCsm.50::
                         942 .LDWlin50:
000003dc c232            943 	shl	2,r6
000003de c531            944 	add	r5,r6
000003e0 860709300000*   945 	ld.w	rosdaoff23(_Csm_Key)[r6],r6
                         946 	jarl	_EcuabCryIf_RandomSeed,lp
                         946 <EXPANSION BEGIN>
                         946 jarl22 _EcuabCryIf_RandomSeed , lp 
000003e6 80ff0000*       946 <EXPANSION END>
000003ea 0ae8            947 	mov	r10,r29
                         948 .L1826:
                         949 --line1351
                         950 ..lin.C.3A.5C_ECU2.5CECU_Rivian_A1.5CTarget.5Crepo_projects.5CpFOTA.5CcL_LATEST.5Cmake.5Cobj.5CSwcServiceCsm.51::
                         951 .LDWlin51:
000003ec 1d50            952 	mov	r29,r10
                         953 --	    .ef
                         954 .LDW45:
000003ee 40067f00        955 	dispose	0,{r29,r31},[lp]
                         956 	.type	_Csm_RandomSeed,@function
                         957 	.size	_Csm_RandomSeed,.-_Csm_RandomSeed
                         958 	.align	2
                         959 .LDW55:
                         960 --_retVal	r29	local
                         961 --_errorId	r9	local
                         962 
                         963 --_keyId	r6	param
                         964 --_seedPtr	r7	param
                         965 --_seedLength	r8	param
                         966 
                         967 	.section ".bss","awb"
                         968 .L1921:
                         969 	.type	.L1921,@object
                         970 	.size	.L1921,0
                         971 	.data
                         972 	.text
                         973 	.align	2
                         974 	.align	2
                         975 ..gh.f.f.1.e.14:
                         976 	.type	..gh.f.f.1.e.14,@object
                         977 	.size	..gh.f.f.1.e.14,0
                         978 	.global	_Csm_KeyGenerate
                         979 _Csm_KeyGenerate:
000003f2 80076100        980 	prepare	{r29,r31},0
                         981 --	    .bf

                                                                      Page 18
                                                              C:\Users\nhuliyap\AppData\Local\Temp\gh_00001c41.s
                         982 .LDW65:
000003f6 a40705980000*   983 	ld.bu	sdaoff23(_Csm_IsInitialized)[gp],r19
000003fc 01ea            984 	mov	1,r29
000003fe 054a            985 	mov	5,r9
00000400 619a            986 	cmp	1,r19
00000402 da0d*           987 	bne	.L2008
                         988 --line1372
                         989 ..lin.C.3A.5C_ECU2.5CECU_Rivian_A1.5CTarget.5Crepo_projects.5CpFOTA.5CcL_LATEST.5Cmake.5Cobj.5CSwcServiceCsm.52::
                         990 .LDWlin52:
00000404 6732            991 	cmp	7,r6
00000406 034a            992 	mov	3,r9
00000408 a90d*           993 	bnl	.L2008
                         994 --line1378
                         995 ..lin.C.3A.5C_ECU2.5CECU_Rivian_A1.5CTarget.5Crepo_projects.5CpFOTA.5CcL_LATEST.5Cmake.5Cobj.5CSwcServiceCsm.53::
                         996 .LDWlin53:
0000040a c232            997 	shl	2,r6
0000040c c531            998 	add	r5,r6
0000040e 860709300000*   999 	ld.w	rosdaoff23(_Csm_Key)[r6],r6
                        1000 	jarl	_EcuabCryIf_KeyGenerate,lp
                        1000 <EXPANSION BEGIN>
                        1000 jarl22 _EcuabCryIf_KeyGenerate , lp 
00000414 80ff0000*      1000 <EXPANSION END>
00000418 0ae8           1001 	mov	r10,r29
0000041a 850d*          1002 	br	.L2007
                        1003 .L2008:
                        1004 --line1383
                        1005 ..lin.C.3A.5C_ECU2.5CECU_Rivian_A1.5CTarget.5Crepo_projects.5CpFOTA.5CcL_LATEST.5Cmake.5Cobj.5CSwcServiceCsm.54::
                        1006 .LDWlin54:
0000041c 20366e00       1007 	movea	110,zero,r6
00000420 003a           1008 	mov	0,r7
00000422 20466a00       1009 	movea	106,zero,r8
                        1010 	jarl	_Det_ReportError,lp
                        1010 <EXPANSION BEGIN>
                        1010 jarl22 _Det_ReportError , lp 
00000426 80ff0000*      1010 <EXPANSION END>
                        1011 .L2007:
                        1012 --line1389
                        1013 ..lin.C.3A.5C_ECU2.5CECU_Rivian_A1.5CTarget.5Crepo_projects.5CpFOTA.5CcL_LATEST.5Cmake.5Cobj.5CSwcServiceCsm.55::
                        1014 .LDWlin55:
0000042a 1d50           1015 	mov	r29,r10
                        1016 --	    .ef
                        1017 .LDW75:
0000042c 40067f00       1018 	dispose	0,{r29,r31},[lp]
                        1019 	.type	_Csm_KeyGenerate,@function
                        1020 	.size	_Csm_KeyGenerate,.-_Csm_KeyGenerate
                        1021 	.align	2
                        1022 .LDW85:
                        1023 --_retVal	r29	local
                        1024 --_errorId	r9	local
                        1025 
                        1026 --_keyId	r6	param
                        1027 
                        1028 	.section ".bss","awb"
                        1029 .L2083:
                        1030 	.type	.L2083,@object
                        1031 	.size	.L2083,0
                        1032 	.data
                        1033 	.text
                        1034 	.align	2
                        1035 	.align	2
                        1036 ..gh.f.f.1.e.15:

                                                                      Page 19
                                                              C:\Users\nhuliyap\AppData\Local\Temp\gh_00001c41.s
                        1037 	.type	..gh.f.f.1.e.15,@object
                        1038 	.size	..gh.f.f.1.e.15,0
                        1039 	.global	_Csm_KeyDerive
                        1040 _Csm_KeyDerive:
00000430 80076100       1041 	prepare	{r29,r31},0
                        1042 --	    .bf
                        1043 .LDW95:
00000434 a40705900000*  1044 	ld.bu	sdaoff23(_Csm_IsInitialized)[gp],r18
0000043a 01ea           1045 	mov	1,r29
0000043c 054a           1046 	mov	5,r9
0000043e 6192           1047 	cmp	1,r18
00000440 ea05*          1048 	bne	.L2157
                        1049 --line1409
                        1050 ..lin.C.3A.5C_ECU2.5CECU_Rivian_A1.5CTarget.5Crepo_projects.5CpFOTA.5CcL_LATEST.5Cmake.5Cobj.5CSwcServiceCsm.56::
                        1051 .LDWlin56:
00000442 034a           1052 	mov	3,r9
00000444 6732           1053 	cmp	7,r6
00000446 b905*          1054 	bnl	.L2157
00000448 673a           1055 	cmp	7,r7
0000044a 910d*          1056 	bl	.L2152
                        1057 .L2157:
                        1058 --line1420
                        1059 ..lin.C.3A.5C_ECU2.5CECU_Rivian_A1.5CTarget.5Crepo_projects.5CpFOTA.5CcL_LATEST.5Cmake.5Cobj.5CSwcServiceCsm.57::
                        1060 .LDWlin57:
0000044c 20366e00       1061 	movea	110,zero,r6
00000450 003a           1062 	mov	0,r7
00000452 20466b00       1063 	movea	107,zero,r8
                        1064 	jarl	_Det_ReportError,lp
                        1064 <EXPANSION BEGIN>
                        1064 jarl22 _Det_ReportError , lp 
00000456 80ff0000*      1064 <EXPANSION END>
0000045a f50d*          1065 	br	.L2156
                        1066 .L2152:
                        1067 --line1415
                        1068 ..lin.C.3A.5C_ECU2.5CECU_Rivian_A1.5CTarget.5Crepo_projects.5CpFOTA.5CcL_LATEST.5Cmake.5Cobj.5CSwcServiceCsm.58::
                        1069 .LDWlin58:
0000045c 06f0           1070 	mov	r6,ep
0000045e c2f2           1071 	shl	2,ep
00000460 330600000000*  1072 	mov	rosdaoff23(_Csm_Key),r19
00000466 d3f1           1073 	add	r19,ep
00000468 0035           1074 	sld.w	0[ep],r6
0000046a 07f0           1075 	mov	r7,ep
0000046c c2f2           1076 	shl	2,ep
0000046e d3f1           1077 	add	r19,ep
00000470 003d           1078 	sld.w	0[ep],r7
                        1079 	jarl	_CryIf_KeyDerive,lp
                        1079 <EXPANSION BEGIN>
                        1079 jarl22 _CryIf_KeyDerive , lp 
00000472 80ff0000*      1079 <EXPANSION END>
00000476 0ae8           1080 	mov	r10,r29
                        1081 .L2156:
                        1082 --line1426
                        1083 ..lin.C.3A.5C_ECU2.5CECU_Rivian_A1.5CTarget.5Crepo_projects.5CpFOTA.5CcL_LATEST.5Cmake.5Cobj.5CSwcServiceCsm.59::
                        1084 .LDWlin59:
00000478 1d50           1085 	mov	r29,r10
                        1086 --	    .ef
                        1087 .LDW06:
0000047a 40067f00       1088 	dispose	0,{r29,r31},[lp]
                        1089 	.type	_Csm_KeyDerive,@function
                        1090 	.size	_Csm_KeyDerive,.-_Csm_KeyDerive
                        1091 	.align	2

                                                                      Page 20
                                                              C:\Users\nhuliyap\AppData\Local\Temp\gh_00001c41.s
                        1092 .LDW16:
                        1093 --_retVal	r29	local
                        1094 --_errorId	r9	local
                        1095 
                        1096 --_keyId	r6	param
                        1097 --_targetKeyId	r7	param
                        1098 
                        1099 	.section ".bss","awb"
                        1100 .L2234:
                        1101 	.type	.L2234,@object
                        1102 	.size	.L2234,0
                        1103 	.data
                        1104 	.text
                        1105 	.align	2
                        1106 	.align	2
                        1107 ..gh.f.f.1.e.16:
                        1108 	.type	..gh.f.f.1.e.16,@object
                        1109 	.size	..gh.f.f.1.e.16,0
                        1110 	.global	_Csm_KeyExchangeCalcPubVal
                        1111 _Csm_KeyExchangeCalcPubVal:
0000047e 80076100       1112 	prepare	{r29,r31},0
                        1113 --	    .bf
                        1114 .LDW26:
00000482 a40705980000*  1115 	ld.bu	sdaoff23(_Csm_IsInitialized)[gp],r19
00000488 01ea           1116 	mov	1,r29
0000048a 054a           1117 	mov	5,r9
0000048c 619a           1118 	cmp	1,r19
0000048e ea05*          1119 	bne	.L2324
                        1120 --line1448
                        1121 ..lin.C.3A.5C_ECU2.5CECU_Rivian_A1.5CTarget.5Crepo_projects.5CpFOTA.5CcL_LATEST.5Cmake.5Cobj.5CSwcServiceCsm.60::
                        1122 .LDWlin60:
00000490 1d48           1123 	mov	r29,r9
00000492 e039           1124 	cmp	zero,r7
00000494 b205*          1125 	be	.L2324
00000496 e041           1126 	cmp	zero,r8
00000498 9a0d*          1127 	bne	.L2316
                        1128 .L2324:
                        1129 --line1464
                        1130 ..lin.C.3A.5C_ECU2.5CECU_Rivian_A1.5CTarget.5Crepo_projects.5CpFOTA.5CcL_LATEST.5Cmake.5Cobj.5CSwcServiceCsm.61::
                        1131 .LDWlin61:
0000049a 20366e00       1132 	movea	110,zero,r6
0000049e 003a           1133 	mov	0,r7
000004a0 20466c00       1134 	movea	108,zero,r8
                        1135 	jarl	_Det_ReportError,lp
                        1135 <EXPANSION BEGIN>
                        1135 jarl22 _Det_ReportError , lp 
000004a4 80ff0000*      1135 <EXPANSION END>
000004a8 c50d*          1136 	br	.L2323
                        1137 .L2316:
                        1138 --line1453
                        1139 ..lin.C.3A.5C_ECU2.5CECU_Rivian_A1.5CTarget.5Crepo_projects.5CpFOTA.5CcL_LATEST.5Cmake.5Cobj.5CSwcServiceCsm.62::
                        1140 .LDWlin62:
000004aa 6732           1141 	cmp	7,r6
000004ac 034a           1142 	mov	3,r9
000004ae e9f5*          1143 	bnl	.L2324
                        1144 --line1459
                        1145 ..lin.C.3A.5C_ECU2.5CECU_Rivian_A1.5CTarget.5Crepo_projects.5CpFOTA.5CcL_LATEST.5Cmake.5Cobj.5CSwcServiceCsm.63::
                        1146 .LDWlin63:
000004b0 c232           1147 	shl	2,r6
000004b2 c531           1148 	add	r5,r6
000004b4 860709300000*  1149 	ld.w	rosdaoff23(_Csm_Key)[r6],r6

                                                                      Page 21
                                                              C:\Users\nhuliyap\AppData\Local\Temp\gh_00001c41.s
                        1150 	jarl	_CryIf_KeyExchangeCalcPubVal,lp
                        1150 <EXPANSION BEGIN>
                        1150 jarl22 _CryIf_KeyExchangeCalcPubVal , lp 
000004ba 80ff0000*      1150 <EXPANSION END>
000004be 0ae8           1151 	mov	r10,r29
                        1152 .L2323:
                        1153 --line1470
                        1154 ..lin.C.3A.5C_ECU2.5CECU_Rivian_A1.5CTarget.5Crepo_projects.5CpFOTA.5CcL_LATEST.5Cmake.5Cobj.5CSwcServiceCsm.64::
                        1155 .LDWlin64:
000004c0 1d50           1156 	mov	r29,r10
                        1157 --	    .ef
                        1158 .LDW36:
000004c2 40067f00       1159 	dispose	0,{r29,r31},[lp]
                        1160 	.type	_Csm_KeyExchangeCalcPubVal,@function
                        1161 	.size	_Csm_KeyExchangeCalcPubVal,.-_Csm_KeyExchangeCalcPubVal
                        1162 	.align	2
                        1163 .LDW46:
                        1164 --_retVal	r29	local
                        1165 --_errorId	r9	local
                        1166 
                        1167 --_keyId	r6	param
                        1168 --_publicValuePtr	r7	param
                        1169 --_publicValueLengthPtr	r8	param
                        1170 
                        1171 	.section ".bss","awb"
                        1172 .L2424:
                        1173 	.type	.L2424,@object
                        1174 	.size	.L2424,0
                        1175 	.data
                        1176 	.text
                        1177 	.align	2
                        1178 	.align	2
                        1179 ..gh.f.f.1.e.17:
                        1180 	.type	..gh.f.f.1.e.17,@object
                        1181 	.size	..gh.f.f.1.e.17,0
                        1182 	.global	_Csm_KeyExchangeCalcSecret
                        1183 _Csm_KeyExchangeCalcSecret:
000004c6 80076100       1184 	prepare	{r29,r31},0
                        1185 --	    .bf
                        1186 .LDW56:
000004ca a40705980000*  1187 	ld.bu	sdaoff23(_Csm_IsInitialized)[gp],r19
000004d0 01ea           1188 	mov	1,r29
000004d2 054a           1189 	mov	5,r9
000004d4 619a           1190 	cmp	1,r19
000004d6 ca05*          1191 	bne	.L2527
                        1192 --line1493
                        1193 ..lin.C.3A.5C_ECU2.5CECU_Rivian_A1.5CTarget.5Crepo_projects.5CpFOTA.5CcL_LATEST.5Cmake.5Cobj.5CSwcServiceCsm.65::
                        1194 .LDWlin65:
000004d8 e039           1195 	cmp	zero,r7
000004da aa0d*          1196 	bne	.L2520
000004dc 014a           1197 	mov	1,r9
                        1198 .L2527:
                        1199 --line1508
                        1200 ..lin.C.3A.5C_ECU2.5CECU_Rivian_A1.5CTarget.5Crepo_projects.5CpFOTA.5CcL_LATEST.5Cmake.5Cobj.5CSwcServiceCsm.66::
                        1201 .LDWlin66:
000004de 20366e00       1202 	movea	110,zero,r6
000004e2 003a           1203 	mov	0,r7
000004e4 20466d00       1204 	movea	109,zero,r8
                        1205 	jarl	_Det_ReportError,lp
                        1205 <EXPANSION BEGIN>
                        1205 jarl22 _Det_ReportError , lp 

                                                                      Page 22
                                                              C:\Users\nhuliyap\AppData\Local\Temp\gh_00001c41.s
000004e8 80ff0000*      1205 <EXPANSION END>
000004ec c50d*          1206 	br	.L2526
                        1207 .L2520:
                        1208 --line1497
                        1209 ..lin.C.3A.5C_ECU2.5CECU_Rivian_A1.5CTarget.5Crepo_projects.5CpFOTA.5CcL_LATEST.5Cmake.5Cobj.5CSwcServiceCsm.67::
                        1210 .LDWlin67:
000004ee 6732           1211 	cmp	7,r6
000004f0 034a           1212 	mov	3,r9
000004f2 e9f5*          1213 	bnl	.L2527
                        1214 --line1503
                        1215 ..lin.C.3A.5C_ECU2.5CECU_Rivian_A1.5CTarget.5Crepo_projects.5CpFOTA.5CcL_LATEST.5Cmake.5Cobj.5CSwcServiceCsm.68::
                        1216 .LDWlin68:
000004f4 c232           1217 	shl	2,r6
000004f6 c531           1218 	add	r5,r6
000004f8 860709300000*  1219 	ld.w	rosdaoff23(_Csm_Key)[r6],r6
                        1220 	jarl	_CryIf_KeyExchangeCalcSecret,lp
                        1220 <EXPANSION BEGIN>
                        1220 jarl22 _CryIf_KeyExchangeCalcSecret , lp 
000004fe 80ff0000*      1220 <EXPANSION END>
00000502 0ae8           1221 	mov	r10,r29
                        1222 .L2526:
                        1223 --line1514
                        1224 ..lin.C.3A.5C_ECU2.5CECU_Rivian_A1.5CTarget.5Crepo_projects.5CpFOTA.5CcL_LATEST.5Cmake.5Cobj.5CSwcServiceCsm.69::
                        1225 .LDWlin69:
00000504 1d50           1226 	mov	r29,r10
                        1227 --	    .ef
                        1228 .LDW66:
00000506 40067f00       1229 	dispose	0,{r29,r31},[lp]
                        1230 	.type	_Csm_KeyExchangeCalcSecret,@function
                        1231 	.size	_Csm_KeyExchangeCalcSecret,.-_Csm_KeyExchangeCalcSecret
                        1232 	.align	2
                        1233 .LDW76:
                        1234 --_retVal	r29	local
                        1235 --_errorId	r9	local
                        1236 
                        1237 --_keyId	r6	param
                        1238 --_partnerPublicValuePtr	r7	param
                        1239 --_partnerPublicValueLength	r8	param
                        1240 
                        1241 	.section ".bss","awb"
                        1242 .L2609:
                        1243 	.type	.L2609,@object
                        1244 	.size	.L2609,0
                        1245 	.data
                        1246 	.text
                        1247 	.align	2
                        1248 	.align	2
                        1249 ..gh.f.f.1.e.18:
                        1250 	.type	..gh.f.f.1.e.18,@object
                        1251 	.size	..gh.f.f.1.e.18,0
                        1252 	.global	_Csm_CertificateParse
                        1253 _Csm_CertificateParse:
0000050a 80076100       1254 	prepare	{r29,r31},0
                        1255 --	    .bf
                        1256 .LDW86:
0000050e a40705980000*  1257 	ld.bu	sdaoff23(_Csm_IsInitialized)[gp],r19
00000514 01ea           1258 	mov	1,r29
00000516 054a           1259 	mov	5,r9
00000518 619a           1260 	cmp	1,r19
0000051a da0d*          1261 	bne	.L2696
                        1262 --line1535

                                                                      Page 23
                                                              C:\Users\nhuliyap\AppData\Local\Temp\gh_00001c41.s
                        1263 ..lin.C.3A.5C_ECU2.5CECU_Rivian_A1.5CTarget.5Crepo_projects.5CpFOTA.5CcL_LATEST.5Cmake.5Cobj.5CSwcServiceCsm.70::
                        1264 .LDWlin70:
0000051c 6732           1265 	cmp	7,r6
0000051e 034a           1266 	mov	3,r9
00000520 a90d*          1267 	bnl	.L2696
                        1268 --line1541
                        1269 ..lin.C.3A.5C_ECU2.5CECU_Rivian_A1.5CTarget.5Crepo_projects.5CpFOTA.5CcL_LATEST.5Cmake.5Cobj.5CSwcServiceCsm.71::
                        1270 .LDWlin71:
00000522 c232           1271 	shl	2,r6
00000524 c531           1272 	add	r5,r6
00000526 860709300000*  1273 	ld.w	rosdaoff23(_Csm_Key)[r6],r6
                        1274 	jarl	_CryIf_CertificateParse,lp
                        1274 <EXPANSION BEGIN>
                        1274 jarl22 _CryIf_CertificateParse , lp 
0000052c 80ff0000*      1274 <EXPANSION END>
00000530 0ae8           1275 	mov	r10,r29
00000532 f505*          1276 	br	.L2695
                        1277 .L2696:
                        1278 --line1546
                        1279 ..lin.C.3A.5C_ECU2.5CECU_Rivian_A1.5CTarget.5Crepo_projects.5CpFOTA.5CcL_LATEST.5Cmake.5Cobj.5CSwcServiceCsm.72::
                        1280 .LDWlin72:
00000534 20366e00       1281 	movea	110,zero,r6
00000538 003a           1282 	mov	0,r7
0000053a 0640           1283 	mov	r6,r8
                        1284 	jarl	_Det_ReportError,lp
                        1284 <EXPANSION BEGIN>
                        1284 jarl22 _Det_ReportError , lp 
0000053c 80ff0000*      1284 <EXPANSION END>
                        1285 .L2695:
                        1286 --line1552
                        1287 ..lin.C.3A.5C_ECU2.5CECU_Rivian_A1.5CTarget.5Crepo_projects.5CpFOTA.5CcL_LATEST.5Cmake.5Cobj.5CSwcServiceCsm.73::
                        1288 .LDWlin73:
00000540 1d50           1289 	mov	r29,r10
                        1290 --	    .ef
                        1291 .LDW96:
00000542 40067f00       1292 	dispose	0,{r29,r31},[lp]
                        1293 	.type	_Csm_CertificateParse,@function
                        1294 	.size	_Csm_CertificateParse,.-_Csm_CertificateParse
                        1295 	.align	2
                        1296 .LDW07:
                        1297 --_retVal	r29	local
                        1298 --_errorId	r9	local
                        1299 
                        1300 --_keyId	r6	param
                        1301 
                        1302 	.section ".bss","awb"
                        1303 .L2771:
                        1304 	.type	.L2771,@object
                        1305 	.size	.L2771,0
                        1306 	.data
                        1307 	.text
                        1308 	.align	2
                        1309 	.align	2
                        1310 ..gh.f.f.1.e.19:
                        1311 	.type	..gh.f.f.1.e.19,@object
                        1312 	.size	..gh.f.f.1.e.19,0
                        1313 	.global	_Csm_CertificateVerify
                        1314 _Csm_CertificateVerify:
00000546 80076100       1315 	prepare	{r29,r31},0
                        1316 --	    .bf
                        1317 .LDW17:

                                                                      Page 24
                                                              C:\Users\nhuliyap\AppData\Local\Temp\gh_00001c41.s
0000054a a40705900000*  1318 	ld.bu	sdaoff23(_Csm_IsInitialized)[gp],r18
00000550 01ea           1319 	mov	1,r29
00000552 054a           1320 	mov	5,r9
00000554 6192           1321 	cmp	1,r18
00000556 ca05*          1322 	bne	.L2848
                        1323 --line1573
                        1324 ..lin.C.3A.5C_ECU2.5CECU_Rivian_A1.5CTarget.5Crepo_projects.5CpFOTA.5CcL_LATEST.5Cmake.5Cobj.5CSwcServiceCsm.74::
                        1325 .LDWlin74:
00000558 e041           1326 	cmp	zero,r8
0000055a aa0d*          1327 	bne	.L2840
0000055c 014a           1328 	mov	1,r9
                        1329 .L2848:
                        1330 --line1588
                        1331 ..lin.C.3A.5C_ECU2.5CECU_Rivian_A1.5CTarget.5Crepo_projects.5CpFOTA.5CcL_LATEST.5Cmake.5Cobj.5CSwcServiceCsm.75::
                        1332 .LDWlin75:
0000055e 20366e00       1333 	movea	110,zero,r6
00000562 003a           1334 	mov	0,r7
00000564 20467400       1335 	movea	116,zero,r8
                        1336 	jarl	_Det_ReportError,lp
                        1336 <EXPANSION BEGIN>
                        1336 jarl22 _Det_ReportError , lp 
00000568 80ff0000*      1336 <EXPANSION END>
0000056c c515*          1337 	br	.L2847
                        1338 .L2840:
                        1339 --line1577
                        1340 ..lin.C.3A.5C_ECU2.5CECU_Rivian_A1.5CTarget.5Crepo_projects.5CpFOTA.5CcL_LATEST.5Cmake.5Cobj.5CSwcServiceCsm.76::
                        1341 .LDWlin76:
0000056e 034a           1342 	mov	3,r9
00000570 6732           1343 	cmp	7,r6
00000572 e9f5*          1344 	bnl	.L2848
00000574 673a           1345 	cmp	7,r7
                        1346 --line1578
                        1347 ..lin.C.3A.5C_ECU2.5CECU_Rivian_A1.5CTarget.5Crepo_projects.5CpFOTA.5CcL_LATEST.5Cmake.5Cobj.5CSwcServiceCsm.77::
                        1348 .LDWlin77:
00000576 c9f5*          1349 	bnl	.L2848
                        1350 .L2843:
                        1351 --line1583
                        1352 ..lin.C.3A.5C_ECU2.5CECU_Rivian_A1.5CTarget.5Crepo_projects.5CpFOTA.5CcL_LATEST.5Cmake.5Cobj.5CSwcServiceCsm.78::
                        1353 .LDWlin78:
00000578 06f0           1354 	mov	r6,ep
0000057a c2f2           1355 	shl	2,ep
0000057c 330600000000*  1356 	mov	rosdaoff23(_Csm_Key),r19
00000582 d3f1           1357 	add	r19,ep
00000584 0035           1358 	sld.w	0[ep],r6
00000586 07f0           1359 	mov	r7,ep
00000588 c2f2           1360 	shl	2,ep
0000058a d3f1           1361 	add	r19,ep
0000058c 003d           1362 	sld.w	0[ep],r7
                        1363 	jarl	_CryIf_CertificateVerify,lp
                        1363 <EXPANSION BEGIN>
                        1363 jarl22 _CryIf_CertificateVerify , lp 
0000058e 80ff0000*      1363 <EXPANSION END>
00000592 0ae8           1364 	mov	r10,r29
                        1365 .L2847:
                        1366 --line1594
                        1367 ..lin.C.3A.5C_ECU2.5CECU_Rivian_A1.5CTarget.5Crepo_projects.5CpFOTA.5CcL_LATEST.5Cmake.5Cobj.5CSwcServiceCsm.79::
                        1368 .LDWlin79:
00000594 1d50           1369 	mov	r29,r10
                        1370 --	    .ef
                        1371 .LDW27:
00000596 40067f00       1372 	dispose	0,{r29,r31},[lp]

                                                                      Page 25
                                                              C:\Users\nhuliyap\AppData\Local\Temp\gh_00001c41.s
                        1373 	.type	_Csm_CertificateVerify,@function
                        1374 	.size	_Csm_CertificateVerify,.-_Csm_CertificateVerify
                        1375 	.align	2
                        1376 .LDW37:
                        1377 --_retVal	r29	local
                        1378 --_errorId	r9	local
                        1379 
                        1380 --_keyId	r6	param
                        1381 --_verifyKeyId	r7	param
                        1382 --_verifyPtr	r8	param
                        1383 
                        1384 	.section ".bss","awb"
                        1385 .L2936:
                        1386 	.type	.L2936,@object
                        1387 	.size	.L2936,0
                        1388 	.data
                        1389 	.text
                        1390 	.align	2
                        1391 	.align	2
                        1392 ..gh.f.f.1.e.20:
                        1393 	.type	..gh.f.f.1.e.20,@object
                        1394 	.size	..gh.f.f.1.e.20,0
                        1395 	.global	_Csm_CancelJob
                        1396 _Csm_CancelJob:
0000059a 8007e110       1397 	prepare	{r27,r28,r29,r31},0
                        1398 --	    .bf
                        1399 .LDW47:
0000059e a40705980000*  1400 	ld.bu	sdaoff23(_Csm_IsInitialized)[gp],r19
000005a4 01e2           1401 	mov	1,r28
000005a6 054a           1402 	mov	5,r9
000005a8 619a           1403 	cmp	1,r19
000005aa fa35*          1404 	bne	.L3046
                        1405 --line1616
                        1406 ..lin.C.3A.5C_ECU2.5CECU_Rivian_A1.5CTarget.5Crepo_projects.5CpFOTA.5CcL_LATEST.5Cmake.5Cobj.5CSwcServiceCsm.80::
                        1407 .LDWlin80:
000005ac 6532           1408 	cmp	5,r6
000005ae 034a           1409 	mov	3,r9
000005b0 c935*          1410 	bnl	.L3046
                        1411 --line1624
                        1412 ..lin.C.3A.5C_ECU2.5CECU_Rivian_A1.5CTarget.5Crepo_projects.5CpFOTA.5CcL_LATEST.5Cmake.5Cobj.5CSwcServiceCsm.81::
                        1413 .LDWlin81:
000005b2 3d0600000000*  1414 	mov	sdaoff23(_Csm_JobState),r29
000005b8 c6e9           1415 	add	r6,r29
000005ba 9d3f0100       1416 	ld.bu	0[r29],r7
000005be e039           1417 	cmp	zero,r7
000005c0 e13f14e3       1418 	cmovne	1,r7,r28
000005c4 9235*          1419 	be	.L3045
                        1420 --	    .bs
                        1421 .LDW57:
                        1422 --line1629
                        1423 ..lin.C.3A.5C_ECU2.5CECU_Rivian_A1.5CTarget.5Crepo_projects.5CpFOTA.5CcL_LATEST.5Cmake.5Cobj.5CSwcServiceCsm.82::
                        1424 .LDWlin82:
000005c6 04f0           1425 	mov	gp,ep
000005c8 c6f1           1426 	add	r6,ep
000005ca be0705900000*  1427 	ld.bu	sdaoff23(_Csm_JobToObjMap)[ep],r18
000005d0 310600000000*  1428 	mov	sdaoff23(_Csm_Job),r17
000005d6 f2de8c00       1429 	mulhi	140,r18,r27
000005da d1d9           1430 	add	r17,r27
000005dc 613a           1431 	cmp	1,r7
000005de ca25*          1432 	bne	.L3045
                        1433 --line1644

                                                                      Page 26
                                                              C:\Users\nhuliyap\AppData\Local\Temp\gh_00001c41.s
                        1434 ..lin.C.3A.5C_ECU2.5CECU_Rivian_A1.5CTarget.5Crepo_projects.5CpFOTA.5CcL_LATEST.5Cmake.5Cobj.5CSwcServiceCsm.83::
                        1435 .LDWlin83:
000005e0 e6f60300       1436 	mulhi	3,r6,ep
000005e4 0582           1437 	mov	5,r16
000005e6 5d870000       1438 	st.b	r16,0[r29]
000005ea 1b38           1439 	mov	r27,r7
000005ec c5f1           1440 	add	r5,ep
000005ee be0705f00000*  1441 	ld.bu	rosdaoff23(_Csm_JobTable+2)[ep],ep
000005f4 c3f2           1442 	shl	3,ep
000005f6 c5f1           1443 	add	r5,ep
000005f8 9e0709300000*  1444 	ld.w	rosdaoff23(_Csm_QueueInfo)[ep],r6
                        1445 	jarl	_EcuabCryIf_CancelJob,lp
                        1445 <EXPANSION BEGIN>
                        1445 jarl22 _EcuabCryIf_CancelJob , lp 
000005fe 80ff0000*      1445 <EXPANSION END>
00000602 0ae0           1446 	mov	r10,r28
                        1447 --line1646
                        1448 ..lin.C.3A.5C_ECU2.5CECU_Rivian_A1.5CTarget.5Crepo_projects.5CpFOTA.5CcL_LATEST.5Cmake.5Cobj.5CSwcServiceCsm.84::
                        1449 .LDWlin84:
00000604 e051           1450 	cmp	zero,r10
00000606 da05*          1451 	bne	.L3041
                        1452 --line1655
                        1453 ..lin.C.3A.5C_ECU2.5CECU_Rivian_A1.5CTarget.5Crepo_projects.5CpFOTA.5CcL_LATEST.5Cmake.5Cobj.5CSwcServiceCsm.85::
                        1454 .LDWlin85:
00000608 1f8a           1455 	mov	-1,r17
0000060a 7b8f0100       1456 	st.w	r17,0[r27]
0000060e a505*          1457 	br	.L3032
                        1458 .L3041:
                        1459 --line1661
                        1460 ..lin.C.3A.5C_ECU2.5CECU_Rivian_A1.5CTarget.5Crepo_projects.5CpFOTA.5CcL_LATEST.5Cmake.5Cobj.5CSwcServiceCsm.86::
                        1461 .LDWlin86:
00000610 0152           1462 	mov	1,r10
                        1463 .L3032:
                        1464 --	    .es
                        1465 .LDW67:
00000612 5d570000       1466 	st.b	r10,0[r29]
00000616 850d*          1467 	br	.L3045
                        1468 .L3046:
                        1469 --line1674
                        1470 ..lin.C.3A.5C_ECU2.5CECU_Rivian_A1.5CTarget.5Crepo_projects.5CpFOTA.5CcL_LATEST.5Cmake.5Cobj.5CSwcServiceCsm.87::
                        1471 .LDWlin87:
00000618 20366e00       1472 	movea	110,zero,r6
0000061c 003a           1473 	mov	0,r7
0000061e 20466f00       1474 	movea	111,zero,r8
                        1475 	jarl	_Det_ReportError,lp
                        1475 <EXPANSION BEGIN>
                        1475 jarl22 _Det_ReportError , lp 
00000622 80ff0000*      1475 <EXPANSION END>
                        1476 .L3045:
                        1477 --line1681
                        1478 ..lin.C.3A.5C_ECU2.5CECU_Rivian_A1.5CTarget.5Crepo_projects.5CpFOTA.5CcL_LATEST.5Cmake.5Cobj.5CSwcServiceCsm.88::
                        1479 .LDWlin88:
00000626 1c50           1480 	mov	r28,r10
                        1481 --	    .ef
                        1482 .LDW77:
00000628 4006ff10       1483 	dispose	0,{r27,r28,r29,r31},[lp]
                        1484 	.type	_Csm_CancelJob,@function
                        1485 	.size	_Csm_CancelJob,.-_Csm_CancelJob
                        1486 	.align	2
                        1487 .LDW87:
                        1488 --_retVal	r28	local

                                                                      Page 27
                                                              C:\Users\nhuliyap\AppData\Local\Temp\gh_00001c41.s
                        1489 --_errorId	r9	local
                        1490 --_job	r27	local
                        1491 
                        1492 --_jobId	r6	param
                        1493 --_mode	none	param
                        1494 
                        1495 	.section ".bss","awb"
                        1496 .L3210:
                        1497 	.type	.L3210,@object
                        1498 	.size	.L3210,0
                        1499 	.data
                        1500 	.text
                        1501 	.align	2
                        1502 	.align	2
                        1503 ..gh.f.f.1.e.21:
                        1504 	.type	..gh.f.f.1.e.21,@object
                        1505 	.size	..gh.f.f.1.e.21,0
                        1506 	.global	_Csm_Hash
                        1507 _Csm_Hash:
0000062c 8207e3f0       1508 	prepare	{r24,r25,r26,r27,r28,r29,r31},1,sp
00000630 07e0           1509 	mov	r7,r28
00000632 08d8           1510 	mov	r8,r27
00000634 09d0           1511 	mov	r9,r26
00000636 10cd           1512 	sld.w	32[ep],r25
00000638 12c5           1513 	sld.w	36[ep],r24
                        1514 --	    .bf
                        1515 .LDW97:
0000063a a40705380000*  1516 	ld.bu	sdaoff23(_Csm_IsInitialized)[gp],r7
00000640 01ea           1517 	mov	1,r29
00000642 613a           1518 	cmp	1,r7
00000644 a20d*          1519 	be	.L3326
00000646 054a           1520 	mov	5,r9
                        1521 .L3339:
                        1522 --	    .es
                        1523 .LDW08:
                        1524 --line1742
                        1525 ..lin.C.3A.5C_ECU2.5CECU_Rivian_A1.5CTarget.5Crepo_projects.5CpFOTA.5CcL_LATEST.5Cmake.5Cobj.5CSwcServiceCsm.89::
                        1526 .LDWlin89:
00000648 20366e00       1527 	movea	110,zero,r6
0000064c 003a           1528 	mov	0,r7
0000064e 20465d00       1529 	movea	93,zero,r8
                        1530 	jarl	_Det_ReportError,lp
                        1530 <EXPANSION BEGIN>
                        1530 jarl22 _Det_ReportError , lp 
00000652 80ff0000*      1530 <EXPANSION END>
00000656 952d*          1531 	br	.L3338
                        1532 .L3326:
                        1533 --line1707
                        1534 ..lin.C.3A.5C_ECU2.5CECU_Rivian_A1.5CTarget.5Crepo_projects.5CpFOTA.5CcL_LATEST.5Cmake.5Cobj.5CSwcServiceCsm.90::
                        1535 .LDWlin90:
00000658 034a           1536 	mov	3,r9
0000065a 6532           1537 	cmp	5,r6
0000065c e9f5*          1538 	bnl	.L3339
                        1539 --line1711
                        1540 ..lin.C.3A.5C_ECU2.5CECU_Rivian_A1.5CTarget.5Crepo_projects.5CpFOTA.5CcL_LATEST.5Cmake.5Cobj.5CSwcServiceCsm.91::
                        1541 .LDWlin91:
0000065e 0698           1542 	mov	r6,r19
00000660 9300           1543 	zxb	r19
00000662 f3f61400       1544 	mulhi	20,r19,ep
00000666 c5f1           1545 	add	r5,ep
00000668 9e0709f00000*  1546 	ld.w	rosdaoff23(_Csm_JobPrimitiveInfo+4)[ep],ep

                                                                      Page 28
                                                              C:\Users\nhuliyap\AppData\Local\Temp\gh_00001c41.s
0000066e 6440           1547 	sld.bu	4[ep],r8
00000670 e041           1548 	cmp	zero,r8
00000672 baed*          1549 	bne	.L3339
                        1550 .L3332:
                        1551 --	    .bs
                        1552 .LDW18:
                        1553 --line1718
                        1554 ..lin.C.3A.5C_ECU2.5CECU_Rivian_A1.5CTarget.5Crepo_projects.5CpFOTA.5CcL_LATEST.5Cmake.5Cobj.5CSwcServiceCsm.92::
                        1555 .LDWlin92:
00000674 43070300       1556 	st.b	zero,3[sp]
00000678 233e0300       1557 	movea	3,sp,r7
                        1558 	jarl	_Csm_GetJobObj,lp
                        1558 <EXPANSION BEGIN>
                        1558 jarl22 _Csm_GetJobObj , lp 
0000067c bfffdef9*      1558 <EXPANSION END>
00000680 0ae8           1559 	mov	r10,r29
                        1560 --line1723
                        1561 ..lin.C.3A.5C_ECU2.5CECU_Rivian_A1.5CTarget.5Crepo_projects.5CpFOTA.5CcL_LATEST.5Cmake.5Cobj.5CSwcServiceCsm.93::
                        1562 .LDWlin93:
00000682 e051           1563 	cmp	zero,r10
00000684 aa15*          1564 	bne	.L3338
                        1565 --line1724
                        1566 ..lin.C.3A.5C_ECU2.5CECU_Rivian_A1.5CTarget.5Crepo_projects.5CpFOTA.5CcL_LATEST.5Cmake.5Cobj.5CSwcServiceCsm.94::
                        1567 .LDWlin94:
00000686 a38f0300       1568 	ld.bu	3[sp],r17
0000068a 300600000000*  1569 	mov	sdaoff23(_Csm_Job),r16
00000690 f1368c00       1570 	mulhi	140,r17,r6
00000694 d031           1571 	add	r16,r6
00000696 06f0           1572 	mov	r6,ep
00000698 b4e3           1573 	sst.b	r28,52[ep]
0000069a 05dd           1574 	sst.w	r27,8[ep]
0000069c 07d5           1575 	sst.w	r26,12[ep]
0000069e 11cd           1576 	sst.w	r25,32[ep]
000006a0 13c5           1577 	sst.w	r24,36[ep]
                        1578 	jarl	_Csm_ProcessJob,lp
                        1578 <EXPANSION BEGIN>
                        1578 jarl22 _Csm_ProcessJob , lp 
000006a2 bfff62f9*      1578 <EXPANSION END>
000006a6 0ae8           1579 	mov	r10,r29
                        1580 .L3338:
                        1581 --line1748
                        1582 ..lin.C.3A.5C_ECU2.5CECU_Rivian_A1.5CTarget.5Crepo_projects.5CpFOTA.5CcL_LATEST.5Cmake.5Cobj.5CSwcServiceCsm.95::
                        1583 .LDWlin95:
000006a8 1d50           1584 	mov	r29,r10
                        1585 --	    .ef
                        1586 .LDW28:
000006aa 4206fff0       1587 	dispose	1,{r24,r25,r26,r27,r28,r29,r31},[lp]
                        1588 	.type	_Csm_Hash,@function
                        1589 	.size	_Csm_Hash,.-_Csm_Hash
                        1590 	.align	2
                        1591 .LDW38:
                        1592 --_retVal	r29	local
                        1593 --_errorId	r9	local
                        1594 --_jobObjId	3[sp]	local
                        1595 
                        1596 --_jobId	r6	param
                        1597 --_mode	r28	param
                        1598 --_dataPtr	r27	param
                        1599 --_dataLength	r26	param
                        1600 --_resultPtr	r25	param
                        1601 --_resultLengthPtr	r24	param

                                                                      Page 29
                                                              C:\Users\nhuliyap\AppData\Local\Temp\gh_00001c41.s
                        1602 
                        1603 	.section ".bss","awb"
                        1604 .L3452:
                        1605 	.type	.L3452,@object
                        1606 	.size	.L3452,0
                        1607 	.data
                        1608 	.text
                        1609 	.align	2
                        1610 	.align	2
                        1611 ..gh.f.f.1.e.22:
                        1612 	.type	..gh.f.f.1.e.22,@object
                        1613 	.size	..gh.f.f.1.e.22,0
                        1614 	.global	_Csm_MacGenerate
                        1615 _Csm_MacGenerate:
                        1616 --	    .bf
                        1617 .LDW48:
000006ae 0152           1618 	mov	1,r10
                        1619 --	    .ef
                        1620 .LDW58:
000006b0 7f00           1621 	jmp	[lp]
                        1622 	.type	_Csm_MacGenerate,@function
                        1623 	.size	_Csm_MacGenerate,.-_Csm_MacGenerate
                        1624 	.align	2
                        1625 .LDW68:
                        1626 
                        1627 --_jobId	none	param
                        1628 --_mode	none	param
                        1629 --_dataPtr	none	param
                        1630 --_dataLength	none	param
                        1631 --_macPtr	none	param
                        1632 --_macLengthPtr	none	param
                        1633 
                        1634 	.section ".bss","awb"
                        1635 .L3569:
                        1636 	.type	.L3569,@object
                        1637 	.size	.L3569,0
                        1638 	.data
                        1639 	.text
                        1640 	.align	2
                        1641 	.align	2
                        1642 ..gh.f.f.1.e.23:
                        1643 	.type	..gh.f.f.1.e.23,@object
                        1644 	.size	..gh.f.f.1.e.23,0
                        1645 	.global	_Csm_MacVerify
                        1646 _Csm_MacVerify:
000006b2 8207e3f1       1647 	prepare	{r23,r24,r25,r26,r27,r28,r29,r31},1,sp
000006b6 07e0           1648 	mov	r7,r28
000006b8 08d8           1649 	mov	r8,r27
000006ba 09d0           1650 	mov	r9,r26
000006bc 12cd           1651 	sld.w	36[ep],r25
000006be 14c5           1652 	sld.w	40[ep],r24
000006c0 16bd           1653 	sld.w	44[ep],r23
                        1654 --	    .bf
                        1655 .LDW78:
000006c2 a40705400000*  1656 	ld.bu	sdaoff23(_Csm_IsInitialized)[gp],r8
000006c8 01ea           1657 	mov	1,r29
000006ca 6142           1658 	cmp	1,r8
000006cc a20d*          1659 	be	.L3589
000006ce 054a           1660 	mov	5,r9
                        1661 .L3602:
                        1662 --	    .es

                                                                      Page 30
                                                              C:\Users\nhuliyap\AppData\Local\Temp\gh_00001c41.s
                        1663 .LDW88:
                        1664 --line1884
                        1665 ..lin.C.3A.5C_ECU2.5CECU_Rivian_A1.5CTarget.5Crepo_projects.5CpFOTA.5CcL_LATEST.5Cmake.5Cobj.5CSwcServiceCsm.96::
                        1666 .LDWlin96:
000006d0 20366e00       1667 	movea	110,zero,r6
000006d4 003a           1668 	mov	0,r7
000006d6 20466100       1669 	movea	97,zero,r8
                        1670 	jarl	_Det_ReportError,lp
                        1670 <EXPANSION BEGIN>
                        1670 jarl22 _Det_ReportError , lp 
000006da 80ff0000*      1670 <EXPANSION END>
000006de a52d*          1671 	br	.L3601
                        1672 .L3589:
                        1673 --line1848
                        1674 ..lin.C.3A.5C_ECU2.5CECU_Rivian_A1.5CTarget.5Crepo_projects.5CpFOTA.5CcL_LATEST.5Cmake.5Cobj.5CSwcServiceCsm.97::
                        1675 .LDWlin97:
000006e0 034a           1676 	mov	3,r9
000006e2 6532           1677 	cmp	5,r6
000006e4 e9f5*          1678 	bnl	.L3602
                        1679 --line1852
                        1680 ..lin.C.3A.5C_ECU2.5CECU_Rivian_A1.5CTarget.5Crepo_projects.5CpFOTA.5CcL_LATEST.5Cmake.5Cobj.5CSwcServiceCsm.98::
                        1681 .LDWlin98:
000006e6 0638           1682 	mov	r6,r7
000006e8 8700           1683 	zxb	r7
000006ea e7f61400       1684 	mulhi	20,r7,ep
000006ee c5f1           1685 	add	r5,ep
000006f0 9e0709f00000*  1686 	ld.w	rosdaoff23(_Csm_JobPrimitiveInfo+4)[ep],ep
000006f6 6490           1687 	sld.bu	4[ep],r18
000006f8 6292           1688 	cmp	2,r18
000006fa baed*          1689 	bne	.L3602
                        1690 .L3595:
                        1691 --	    .bs
                        1692 .LDW98:
                        1693 --line1859
                        1694 ..lin.C.3A.5C_ECU2.5CECU_Rivian_A1.5CTarget.5Crepo_projects.5CpFOTA.5CcL_LATEST.5Cmake.5Cobj.5CSwcServiceCsm.99::
                        1695 .LDWlin99:
000006fc 43070300       1696 	st.b	zero,3[sp]
00000700 233e0300       1697 	movea	3,sp,r7
                        1698 	jarl	_Csm_GetJobObj,lp
                        1698 <EXPANSION BEGIN>
                        1698 jarl22 _Csm_GetJobObj , lp 
00000704 bfff56f9*      1698 <EXPANSION END>
00000708 0ae8           1699 	mov	r10,r29
                        1700 --line1864
                        1701 ..lin.C.3A.5C_ECU2.5CECU_Rivian_A1.5CTarget.5Crepo_projects.5CpFOTA.5CcL_LATEST.5Cmake.5Cobj.5CSwcServiceCsm.100::
                        1702 .LDWlin100:
0000070a e051           1703 	cmp	zero,r10
0000070c ba15*          1704 	bne	.L3601
                        1705 --line1865
                        1706 ..lin.C.3A.5C_ECU2.5CECU_Rivian_A1.5CTarget.5Crepo_projects.5CpFOTA.5CcL_LATEST.5Cmake.5Cobj.5CSwcServiceCsm.101::
                        1707 .LDWlin101:
0000070e a38f0300       1708 	ld.bu	3[sp],r17
00000712 300600000000*  1709 	mov	sdaoff23(_Csm_Job),r16
00000718 f1368c00       1710 	mulhi	140,r17,r6
0000071c d031           1711 	add	r16,r6
0000071e 06f0           1712 	mov	r6,ep
00000720 b4e3           1713 	sst.b	r28,52[ep]
00000722 05dd           1714 	sst.w	r27,8[ep]
00000724 07d5           1715 	sst.w	r26,12[ep]
00000726 09cd           1716 	sst.w	r25,16[ep]
00000728 0bc5           1717 	sst.w	r24,20[ep]

                                                                      Page 31
                                                              C:\Users\nhuliyap\AppData\Local\Temp\gh_00001c41.s
0000072a 19bd           1718 	sst.w	r23,48[ep]
                        1719 	jarl	_Csm_ProcessJob,lp
                        1719 <EXPANSION BEGIN>
                        1719 jarl22 _Csm_ProcessJob , lp 
0000072c bfffd8f8*      1719 <EXPANSION END>
00000730 0ae8           1720 	mov	r10,r29
                        1721 .L3601:
                        1722 --line1890
                        1723 ..lin.C.3A.5C_ECU2.5CECU_Rivian_A1.5CTarget.5Crepo_projects.5CpFOTA.5CcL_LATEST.5Cmake.5Cobj.5CSwcServiceCsm.102::
                        1724 .LDWlin102:
00000732 1d50           1725 	mov	r29,r10
                        1726 --	    .ef
                        1727 .LDW09:
00000734 4206fff1       1728 	dispose	1,{r23,r24,r25,r26,r27,r28,r29,r31},[lp]
                        1729 	.type	_Csm_MacVerify,@function
                        1730 	.size	_Csm_MacVerify,.-_Csm_MacVerify
                        1731 	.align	2
                        1732 .LDW19:
                        1733 --_retVal	r29	local
                        1734 --_errorId	r9	local
                        1735 --_jobObjId	3[sp]	local
                        1736 
                        1737 --_jobId	r6	param
                        1738 --_mode	r28	param
                        1739 --_dataPtr	r27	param
                        1740 --_dataLength	r26	param
                        1741 --_macPtr	r25	param
                        1742 --_macLength	r24	param
                        1743 --_verifyPtr	r23	param
                        1744 
                        1745 	.section ".bss","awb"
                        1746 .L3713:
                        1747 	.type	.L3713,@object
                        1748 	.size	.L3713,0
                        1749 	.data
                        1750 	.text
                        1751 	.align	2
                        1752 	.align	2
                        1753 ..gh.f.f.1.e.24:
                        1754 	.type	..gh.f.f.1.e.24,@object
                        1755 	.size	..gh.f.f.1.e.24,0
                        1756 	.global	_Csm_Encrypt
                        1757 _Csm_Encrypt:
                        1758 --	    .bf
                        1759 .LDW29:
00000738 0152           1760 	mov	1,r10
                        1761 --	    .ef
                        1762 .LDW39:
0000073a 7f00           1763 	jmp	[lp]
                        1764 	.type	_Csm_Encrypt,@function
                        1765 	.size	_Csm_Encrypt,.-_Csm_Encrypt
                        1766 	.align	2
                        1767 .LDW49:
                        1768 
                        1769 --_jobId	none	param
                        1770 --_mode	none	param
                        1771 --_dataPtr	none	param
                        1772 --_dataLength	none	param
                        1773 --_resultPtr	none	param
                        1774 --_resultLengthPtr	none	param
                        1775 

                                                                      Page 32
                                                              C:\Users\nhuliyap\AppData\Local\Temp\gh_00001c41.s
                        1776 	.section ".bss","awb"
                        1777 .L3825:
                        1778 	.type	.L3825,@object
                        1779 	.size	.L3825,0
                        1780 	.data
                        1781 	.text
                        1782 	.align	2
                        1783 	.align	2
                        1784 ..gh.f.f.1.e.25:
                        1785 	.type	..gh.f.f.1.e.25,@object
                        1786 	.size	..gh.f.f.1.e.25,0
                        1787 	.global	_Csm_Decrypt
                        1788 _Csm_Decrypt:
0000073c 8207e3f0       1789 	prepare	{r24,r25,r26,r27,r28,r29,r31},1,sp
00000740 07e0           1790 	mov	r7,r28
00000742 08d8           1791 	mov	r8,r27
00000744 09d0           1792 	mov	r9,r26
00000746 10cd           1793 	sld.w	32[ep],r25
00000748 12c5           1794 	sld.w	36[ep],r24
                        1795 --	    .bf
                        1796 .LDW59:
0000074a a40705400000*  1797 	ld.bu	sdaoff23(_Csm_IsInitialized)[gp],r8
00000750 01ea           1798 	mov	1,r29
00000752 6142           1799 	cmp	1,r8
00000754 a20d*          1800 	be	.L3845
00000756 054a           1801 	mov	5,r9
                        1802 .L3858:
                        1803 --	    .es
                        1804 .LDW69:
                        1805 --line2025
                        1806 ..lin.C.3A.5C_ECU2.5CECU_Rivian_A1.5CTarget.5Crepo_projects.5CpFOTA.5CcL_LATEST.5Cmake.5Cobj.5CSwcServiceCsm.103::
                        1807 .LDWlin103:
00000758 20366e00       1808 	movea	110,zero,r6
0000075c 003a           1809 	mov	0,r7
0000075e 20465f00       1810 	movea	95,zero,r8
                        1811 	jarl	_Det_ReportError,lp
                        1811 <EXPANSION BEGIN>
                        1811 jarl22 _Det_ReportError , lp 
00000762 80ff0000*      1811 <EXPANSION END>
00000766 952d*          1812 	br	.L3857
                        1813 .L3845:
                        1814 --line1990
                        1815 ..lin.C.3A.5C_ECU2.5CECU_Rivian_A1.5CTarget.5Crepo_projects.5CpFOTA.5CcL_LATEST.5Cmake.5Cobj.5CSwcServiceCsm.104::
                        1816 .LDWlin104:
00000768 034a           1817 	mov	3,r9
0000076a 6532           1818 	cmp	5,r6
0000076c e9f5*          1819 	bnl	.L3858
                        1820 --line1994
                        1821 ..lin.C.3A.5C_ECU2.5CECU_Rivian_A1.5CTarget.5Crepo_projects.5CpFOTA.5CcL_LATEST.5Cmake.5Cobj.5CSwcServiceCsm.105::
                        1822 .LDWlin105:
0000076e 0638           1823 	mov	r6,r7
00000770 8700           1824 	zxb	r7
00000772 e7f61400       1825 	mulhi	20,r7,ep
00000776 c5f1           1826 	add	r5,ep
00000778 9e0709f00000*  1827 	ld.w	rosdaoff23(_Csm_JobPrimitiveInfo+4)[ep],ep
0000077e 6490           1828 	sld.bu	4[ep],r18
00000780 6492           1829 	cmp	4,r18
00000782 baed*          1830 	bne	.L3858
                        1831 .L3851:
                        1832 --	    .bs
                        1833 .LDW79:

                                                                      Page 33
                                                              C:\Users\nhuliyap\AppData\Local\Temp\gh_00001c41.s
                        1834 --line2001
                        1835 ..lin.C.3A.5C_ECU2.5CECU_Rivian_A1.5CTarget.5Crepo_projects.5CpFOTA.5CcL_LATEST.5Cmake.5Cobj.5CSwcServiceCsm.106::
                        1836 .LDWlin106:
00000784 43070300       1837 	st.b	zero,3[sp]
00000788 233e0300       1838 	movea	3,sp,r7
                        1839 	jarl	_Csm_GetJobObj,lp
                        1839 <EXPANSION BEGIN>
                        1839 jarl22 _Csm_GetJobObj , lp 
0000078c bfffcef8*      1839 <EXPANSION END>
00000790 0ae8           1840 	mov	r10,r29
                        1841 --line2006
                        1842 ..lin.C.3A.5C_ECU2.5CECU_Rivian_A1.5CTarget.5Crepo_projects.5CpFOTA.5CcL_LATEST.5Cmake.5Cobj.5CSwcServiceCsm.107::
                        1843 .LDWlin107:
00000792 e051           1844 	cmp	zero,r10
00000794 aa15*          1845 	bne	.L3857
                        1846 --line2007
                        1847 ..lin.C.3A.5C_ECU2.5CECU_Rivian_A1.5CTarget.5Crepo_projects.5CpFOTA.5CcL_LATEST.5Cmake.5Cobj.5CSwcServiceCsm.108::
                        1848 .LDWlin108:
00000796 a38f0300       1849 	ld.bu	3[sp],r17
0000079a 300600000000*  1850 	mov	sdaoff23(_Csm_Job),r16
000007a0 f1368c00       1851 	mulhi	140,r17,r6
000007a4 d031           1852 	add	r16,r6
000007a6 06f0           1853 	mov	r6,ep
000007a8 b4e3           1854 	sst.b	r28,52[ep]
000007aa 05dd           1855 	sst.w	r27,8[ep]
000007ac 07d5           1856 	sst.w	r26,12[ep]
000007ae 11cd           1857 	sst.w	r25,32[ep]
000007b0 13c5           1858 	sst.w	r24,36[ep]
                        1859 	jarl	_Csm_ProcessJob,lp
                        1859 <EXPANSION BEGIN>
                        1859 jarl22 _Csm_ProcessJob , lp 
000007b2 bfff52f8*      1859 <EXPANSION END>
000007b6 0ae8           1860 	mov	r10,r29
                        1861 .L3857:
                        1862 --line2031
                        1863 ..lin.C.3A.5C_ECU2.5CECU_Rivian_A1.5CTarget.5Crepo_projects.5CpFOTA.5CcL_LATEST.5Cmake.5Cobj.5CSwcServiceCsm.109::
                        1864 .LDWlin109:
000007b8 1d50           1865 	mov	r29,r10
                        1866 --	    .ef
                        1867 .LDW89:
000007ba 4206fff0       1868 	dispose	1,{r24,r25,r26,r27,r28,r29,r31},[lp]
                        1869 	.type	_Csm_Decrypt,@function
                        1870 	.size	_Csm_Decrypt,.-_Csm_Decrypt
                        1871 	.align	2
                        1872 .LDW99:
                        1873 --_retVal	r29	local
                        1874 --_errorId	r9	local
                        1875 --_jobObjId	3[sp]	local
                        1876 
                        1877 --_jobId	r6	param
                        1878 --_mode	r28	param
                        1879 --_dataPtr	r27	param
                        1880 --_dataLength	r26	param
                        1881 --_resultPtr	r25	param
                        1882 --_resultLengthPtr	r24	param
                        1883 
                        1884 	.section ".bss","awb"
                        1885 .L3969:
                        1886 	.type	.L3969,@object
                        1887 	.size	.L3969,0
                        1888 	.data

                                                                      Page 34
                                                              C:\Users\nhuliyap\AppData\Local\Temp\gh_00001c41.s
                        1889 	.text
                        1890 	.align	2
                        1891 	.align	2
                        1892 ..gh.f.f.1.e.26:
                        1893 	.type	..gh.f.f.1.e.26,@object
                        1894 	.size	..gh.f.f.1.e.26,0
                        1895 	.global	_Csm_AEADEncrypt
                        1896 _Csm_AEADEncrypt:
                        1897 --	    .bf
                        1898 .LDW001:
000007be 0152           1899 	mov	1,r10
                        1900 --	    .ef
                        1901 .LDW101:
000007c0 7f00           1902 	jmp	[lp]
                        1903 	.type	_Csm_AEADEncrypt,@function
                        1904 	.size	_Csm_AEADEncrypt,.-_Csm_AEADEncrypt
                        1905 	.align	2
                        1906 .LDW201:
                        1907 
                        1908 --_jobId	none	param
                        1909 --_mode	none	param
                        1910 --_plaintextPtr	none	param
                        1911 --_plaintextLength	none	param
                        1912 --_associatedDataPtr	none	param
                        1913 --_associatedDataLength	none	param
                        1914 --_ciphertextPtr	none	param
                        1915 --_ciphertextLengthPtr	none	param
                        1916 --_tagPtr	none	param
                        1917 --_tagLengthPtr	none	param
                        1918 
                        1919 	.section ".bss","awb"
                        1920 .L4081:
                        1921 	.type	.L4081,@object
                        1922 	.size	.L4081,0
                        1923 	.data
                        1924 	.text
                        1925 	.align	2
                        1926 	.align	2
                        1927 ..gh.f.f.1.e.27:
                        1928 	.type	..gh.f.f.1.e.27,@object
                        1929 	.size	..gh.f.f.1.e.27,0
                        1930 	.global	_Csm_AEADDecrypt
                        1931 _Csm_AEADDecrypt:
                        1932 --	    .bf
                        1933 .LDW301:
000007c2 0152           1934 	mov	1,r10
                        1935 --	    .ef
                        1936 .LDW401:
000007c4 7f00           1937 	jmp	[lp]
                        1938 	.type	_Csm_AEADDecrypt,@function
                        1939 	.size	_Csm_AEADDecrypt,.-_Csm_AEADDecrypt
                        1940 	.align	2
                        1941 .LDW501:
                        1942 
                        1943 --_jobId	none	param
                        1944 --_mode	none	param
                        1945 --_ciphertextPtr	none	param
                        1946 --_ciphertextLength	none	param
                        1947 --_associatedDataPtr	none	param
                        1948 --_associatedDataLength	none	param
                        1949 --_tagPtr	none	param

                                                                      Page 35
                                                              C:\Users\nhuliyap\AppData\Local\Temp\gh_00001c41.s
                        1950 --_tagLength	none	param
                        1951 --_plaintextPtr	none	param
                        1952 --_plaintextLengthPtr	none	param
                        1953 --_verifyPtr	none	param
                        1954 
                        1955 	.section ".bss","awb"
                        1956 .L4129:
                        1957 	.type	.L4129,@object
                        1958 	.size	.L4129,0
                        1959 	.data
                        1960 	.text
                        1961 	.align	2
                        1962 	.align	2
                        1963 ..gh.f.f.1.e.28:
                        1964 	.type	..gh.f.f.1.e.28,@object
                        1965 	.size	..gh.f.f.1.e.28,0
                        1966 	.global	_Csm_SignatureGenerate
                        1967 _Csm_SignatureGenerate:
                        1968 --	    .bf
                        1969 .LDW601:
000007c6 0152           1970 	mov	1,r10
                        1971 --	    .ef
                        1972 .LDW701:
000007c8 7f00           1973 	jmp	[lp]
                        1974 	.type	_Csm_SignatureGenerate,@function
                        1975 	.size	_Csm_SignatureGenerate,.-_Csm_SignatureGenerate
                        1976 	.align	2
                        1977 .LDW801:
                        1978 
                        1979 --_jobId	none	param
                        1980 --_mode	none	param
                        1981 --_dataPtr	none	param
                        1982 --_dataLength	none	param
                        1983 --_resultPtr	none	param
                        1984 --_resultLengthPtr	none	param
                        1985 
                        1986 	.section ".bss","awb"
                        1987 .L4177:
                        1988 	.type	.L4177,@object
                        1989 	.size	.L4177,0
                        1990 	.data
                        1991 	.text
                        1992 	.align	2
                        1993 	.align	2
                        1994 ..gh.f.f.1.e.29:
                        1995 	.type	..gh.f.f.1.e.29,@object
                        1996 	.size	..gh.f.f.1.e.29,0
                        1997 	.global	_Csm_SignatureVerify
                        1998 _Csm_SignatureVerify:
000007ca 8207e3f1       1999 	prepare	{r23,r24,r25,r26,r27,r28,r29,r31},1,sp
000007ce 07e0           2000 	mov	r7,r28
000007d0 08d8           2001 	mov	r8,r27
000007d2 09d0           2002 	mov	r9,r26
000007d4 12cd           2003 	sld.w	36[ep],r25
000007d6 14c5           2004 	sld.w	40[ep],r24
000007d8 16bd           2005 	sld.w	44[ep],r23
                        2006 --	    .bf
                        2007 .LDW901:
000007da a40705400000*  2008 	ld.bu	sdaoff23(_Csm_IsInitialized)[gp],r8
000007e0 01ea           2009 	mov	1,r29
000007e2 6142           2010 	cmp	1,r8

                                                                      Page 36
                                                              C:\Users\nhuliyap\AppData\Local\Temp\gh_00001c41.s
000007e4 a20d*          2011 	be	.L4197
000007e6 054a           2012 	mov	5,r9
                        2013 .L4210:
                        2014 --	    .es
                        2015 .LDW011:
                        2016 --line2334
                        2017 ..lin.C.3A.5C_ECU2.5CECU_Rivian_A1.5CTarget.5Crepo_projects.5CpFOTA.5CcL_LATEST.5Cmake.5Cobj.5CSwcServiceCsm.110::
                        2018 .LDWlin110:
000007e8 20366e00       2019 	movea	110,zero,r6
000007ec 003a           2020 	mov	0,r7
000007ee 20466400       2021 	movea	100,zero,r8
                        2022 	jarl	_Det_ReportError,lp
                        2022 <EXPANSION BEGIN>
                        2022 jarl22 _Det_ReportError , lp 
000007f2 80ff0000*      2022 <EXPANSION END>
000007f6 a52d*          2023 	br	.L4209
                        2024 .L4197:
                        2025 --line2298
                        2026 ..lin.C.3A.5C_ECU2.5CECU_Rivian_A1.5CTarget.5Crepo_projects.5CpFOTA.5CcL_LATEST.5Cmake.5Cobj.5CSwcServiceCsm.111::
                        2027 .LDWlin111:
000007f8 034a           2028 	mov	3,r9
000007fa 6532           2029 	cmp	5,r6
000007fc e9f5*          2030 	bnl	.L4210
                        2031 --line2302
                        2032 ..lin.C.3A.5C_ECU2.5CECU_Rivian_A1.5CTarget.5Crepo_projects.5CpFOTA.5CcL_LATEST.5Cmake.5Cobj.5CSwcServiceCsm.112::
                        2033 .LDWlin112:
000007fe 0638           2034 	mov	r6,r7
00000800 8700           2035 	zxb	r7
00000802 e7f61400       2036 	mulhi	20,r7,ep
00000806 c5f1           2037 	add	r5,ep
00000808 9e0709f00000*  2038 	ld.w	rosdaoff23(_Csm_JobPrimitiveInfo+4)[ep],ep
0000080e 6490           2039 	sld.bu	4[ep],r18
00000810 6892           2040 	cmp	8,r18
00000812 baed*          2041 	bne	.L4210
                        2042 .L4203:
                        2043 --	    .bs
                        2044 .LDW111:
                        2045 --line2309
                        2046 ..lin.C.3A.5C_ECU2.5CECU_Rivian_A1.5CTarget.5Crepo_projects.5CpFOTA.5CcL_LATEST.5Cmake.5Cobj.5CSwcServiceCsm.113::
                        2047 .LDWlin113:
00000814 43070300       2048 	st.b	zero,3[sp]
00000818 233e0300       2049 	movea	3,sp,r7
                        2050 	jarl	_Csm_GetJobObj,lp
                        2050 <EXPANSION BEGIN>
                        2050 jarl22 _Csm_GetJobObj , lp 
0000081c bfff3ef8*      2050 <EXPANSION END>
00000820 0ae8           2051 	mov	r10,r29
                        2052 --line2314
                        2053 ..lin.C.3A.5C_ECU2.5CECU_Rivian_A1.5CTarget.5Crepo_projects.5CpFOTA.5CcL_LATEST.5Cmake.5Cobj.5CSwcServiceCsm.114::
                        2054 .LDWlin114:
00000822 e051           2055 	cmp	zero,r10
00000824 ba15*          2056 	bne	.L4209
                        2057 --line2315
                        2058 ..lin.C.3A.5C_ECU2.5CECU_Rivian_A1.5CTarget.5Crepo_projects.5CpFOTA.5CcL_LATEST.5Cmake.5Cobj.5CSwcServiceCsm.115::
                        2059 .LDWlin115:
00000826 a38f0300       2060 	ld.bu	3[sp],r17
0000082a 300600000000*  2061 	mov	sdaoff23(_Csm_Job),r16
00000830 f1368c00       2062 	mulhi	140,r17,r6
00000834 d031           2063 	add	r16,r6
00000836 06f0           2064 	mov	r6,ep
00000838 b4e3           2065 	sst.b	r28,52[ep]

                                                                      Page 37
                                                              C:\Users\nhuliyap\AppData\Local\Temp\gh_00001c41.s
0000083a 05dd           2066 	sst.w	r27,8[ep]
0000083c 07d5           2067 	sst.w	r26,12[ep]
0000083e 09cd           2068 	sst.w	r25,16[ep]
00000840 0bc5           2069 	sst.w	r24,20[ep]
00000842 19bd           2070 	sst.w	r23,48[ep]
                        2071 	jarl	_Csm_ProcessJob,lp
                        2071 <EXPANSION BEGIN>
                        2071 jarl22 _Csm_ProcessJob , lp 
00000844 bfffc0f7*      2071 <EXPANSION END>
00000848 0ae8           2072 	mov	r10,r29
                        2073 .L4209:
                        2074 --line2340
                        2075 ..lin.C.3A.5C_ECU2.5CECU_Rivian_A1.5CTarget.5Crepo_projects.5CpFOTA.5CcL_LATEST.5Cmake.5Cobj.5CSwcServiceCsm.116::
                        2076 .LDWlin116:
0000084a 1d50           2077 	mov	r29,r10
                        2078 --	    .ef
                        2079 .LDW211:
0000084c 4206fff1       2080 	dispose	1,{r23,r24,r25,r26,r27,r28,r29,r31},[lp]
                        2081 	.type	_Csm_SignatureVerify,@function
                        2082 	.size	_Csm_SignatureVerify,.-_Csm_SignatureVerify
                        2083 	.align	2
                        2084 .LDW311:
                        2085 --_retVal	r29	local
                        2086 --_errorId	r9	local
                        2087 --_jobObjId	3[sp]	local
                        2088 
                        2089 --_jobId	r6	param
                        2090 --_mode	r28	param
                        2091 --_dataPtr	r27	param
                        2092 --_dataLength	r26	param
                        2093 --_signaturePtr	r25	param
                        2094 --_signatureLength	r24	param
                        2095 --_verifyPtr	r23	param
                        2096 
                        2097 	.section ".bss","awb"
                        2098 .L4321:
                        2099 	.type	.L4321,@object
                        2100 	.size	.L4321,0
                        2101 	.data
                        2102 	.text
                        2103 	.align	2
                        2104 	.align	2
                        2105 ..gh.f.f.1.e.30:
                        2106 	.type	..gh.f.f.1.e.30,@object
                        2107 	.size	..gh.f.f.1.e.30,0
                        2108 	.global	_Csm_RandomGenerate
                        2109 _Csm_RandomGenerate:
                        2110 --	    .bf
                        2111 .LDW411:
00000850 0152           2112 	mov	1,r10
                        2113 --	    .ef
                        2114 .LDW511:
00000852 7f00           2115 	jmp	[lp]
                        2116 	.type	_Csm_RandomGenerate,@function
                        2117 	.size	_Csm_RandomGenerate,.-_Csm_RandomGenerate
                        2118 	.align	2
                        2119 .LDW611:
                        2120 
                        2121 --_jobId	none	param
                        2122 --_resultPtr	none	param
                        2123 --_resultLengthPtr	none	param

                                                                      Page 38
                                                              C:\Users\nhuliyap\AppData\Local\Temp\gh_00001c41.s
                        2124 
                        2125 	.section ".bss","awb"
                        2126 .L4433:
                        2127 	.type	.L4433,@object
                        2128 	.size	.L4433,0
                        2129 	.data
                        2130 	.text
                        2131 	.align	2
                        2132 	.align	2
                        2133 ..gh.f.f.1.e.31:
                        2134 	.type	..gh.f.f.1.e.31,@object
                        2135 	.size	..gh.f.f.1.e.31,0
                        2136 	.global	_Csm_JobKeySetValid
                        2137 _Csm_JobKeySetValid:
                        2138 --	    .bf
                        2139 .LDW711:
00000854 0152           2140 	mov	1,r10
                        2141 --	    .ef
                        2142 .LDW811:
00000856 7f00           2143 	jmp	[lp]
                        2144 	.type	_Csm_JobKeySetValid,@function
                        2145 	.size	_Csm_JobKeySetValid,.-_Csm_JobKeySetValid
                        2146 	.align	2
                        2147 .LDW911:
                        2148 
                        2149 --_jobId	none	param
                        2150 --_keyId	none	param
                        2151 
                        2152 	.section ".bss","awb"
                        2153 .L4481:
                        2154 	.type	.L4481,@object
                        2155 	.size	.L4481,0
                        2156 	.data
                        2157 	.text
                        2158 	.align	2
                        2159 	.align	2
                        2160 ..gh.f.f.1.e.32:
                        2161 	.type	..gh.f.f.1.e.32,@object
                        2162 	.size	..gh.f.f.1.e.32,0
                        2163 	.global	_Csm_JobRandomSeed
                        2164 _Csm_JobRandomSeed:
                        2165 --	    .bf
                        2166 .LDW021:
00000858 0152           2167 	mov	1,r10
                        2168 --	    .ef
                        2169 .LDW121:
0000085a 7f00           2170 	jmp	[lp]
                        2171 	.type	_Csm_JobRandomSeed,@function
                        2172 	.size	_Csm_JobRandomSeed,.-_Csm_JobRandomSeed
                        2173 	.align	2
                        2174 .LDW221:
                        2175 
                        2176 --_jobId	none	param
                        2177 --_keyId	none	param
                        2178 --_seedPtr	none	param
                        2179 --_seedLength	none	param
                        2180 
                        2181 	.section ".bss","awb"
                        2182 .L4529:
                        2183 	.type	.L4529,@object
                        2184 	.size	.L4529,0

                                                                      Page 39
                                                              C:\Users\nhuliyap\AppData\Local\Temp\gh_00001c41.s
                        2185 	.data
                        2186 	.text
                        2187 	.align	2
                        2188 	.align	2
                        2189 ..gh.f.f.1.e.33:
                        2190 	.type	..gh.f.f.1.e.33,@object
                        2191 	.size	..gh.f.f.1.e.33,0
                        2192 	.global	_Csm_JobKeyGenerate
                        2193 _Csm_JobKeyGenerate:
                        2194 --	    .bf
                        2195 .LDW321:
0000085c 0152           2196 	mov	1,r10
                        2197 --	    .ef
                        2198 .LDW421:
0000085e 7f00           2199 	jmp	[lp]
                        2200 	.type	_Csm_JobKeyGenerate,@function
                        2201 	.size	_Csm_JobKeyGenerate,.-_Csm_JobKeyGenerate
                        2202 	.align	2
                        2203 .LDW521:
                        2204 
                        2205 --_jobId	none	param
                        2206 --_keyId	none	param
                        2207 
                        2208 	.section ".bss","awb"
                        2209 .L4577:
                        2210 	.type	.L4577,@object
                        2211 	.size	.L4577,0
                        2212 	.data
                        2213 	.text
                        2214 	.align	2
                        2215 	.align	2
                        2216 ..gh.f.f.1.e.34:
                        2217 	.type	..gh.f.f.1.e.34,@object
                        2218 	.size	..gh.f.f.1.e.34,0
                        2219 	.global	_Csm_JobKeyDerive
                        2220 _Csm_JobKeyDerive:
                        2221 --	    .bf
                        2222 .LDW621:
00000860 0152           2223 	mov	1,r10
                        2224 --	    .ef
                        2225 .LDW721:
00000862 7f00           2226 	jmp	[lp]
                        2227 	.type	_Csm_JobKeyDerive,@function
                        2228 	.size	_Csm_JobKeyDerive,.-_Csm_JobKeyDerive
                        2229 	.align	2
                        2230 .LDW821:
                        2231 
                        2232 --_jobId	none	param
                        2233 --_keyId	none	param
                        2234 --_targetKeyId	none	param
                        2235 
                        2236 	.section ".bss","awb"
                        2237 .L4625:
                        2238 	.type	.L4625,@object
                        2239 	.size	.L4625,0
                        2240 	.data
                        2241 	.text
                        2242 	.align	2
                        2243 	.align	2
                        2244 ..gh.f.f.1.e.35:
                        2245 	.type	..gh.f.f.1.e.35,@object

                                                                      Page 40
                                                              C:\Users\nhuliyap\AppData\Local\Temp\gh_00001c41.s
                        2246 	.size	..gh.f.f.1.e.35,0
                        2247 	.global	_Csm_JobKeyExchangeCalcPubVal
                        2248 _Csm_JobKeyExchangeCalcPubVal:
                        2249 --	    .bf
                        2250 .LDW921:
00000864 0152           2251 	mov	1,r10
                        2252 --	    .ef
                        2253 .LDW031:
00000866 7f00           2254 	jmp	[lp]
                        2255 	.type	_Csm_JobKeyExchangeCalcPubVal,@function
                        2256 	.size	_Csm_JobKeyExchangeCalcPubVal,.-_Csm_JobKeyExchangeCalcPubVal
                        2257 	.align	2
                        2258 .LDW131:
                        2259 
                        2260 --_jobId	none	param
                        2261 --_keyId	none	param
                        2262 --_publicValuePtr	none	param
                        2263 --_publicValueLengthPtr	none	param
                        2264 
                        2265 	.section ".bss","awb"
                        2266 .L4673:
                        2267 	.type	.L4673,@object
                        2268 	.size	.L4673,0
                        2269 	.data
                        2270 	.text
                        2271 	.align	2
                        2272 	.align	2
                        2273 ..gh.f.f.1.e.36:
                        2274 	.type	..gh.f.f.1.e.36,@object
                        2275 	.size	..gh.f.f.1.e.36,0
                        2276 	.global	_Csm_JobKeyExchangeCalcSecret
                        2277 _Csm_JobKeyExchangeCalcSecret:
                        2278 --	    .bf
                        2279 .LDW231:
00000868 0152           2280 	mov	1,r10
                        2281 --	    .ef
                        2282 .LDW331:
0000086a 7f00           2283 	jmp	[lp]
                        2284 	.type	_Csm_JobKeyExchangeCalcSecret,@function
                        2285 	.size	_Csm_JobKeyExchangeCalcSecret,.-_Csm_JobKeyExchangeCalcSecret
                        2286 	.align	2
                        2287 .LDW431:
                        2288 
                        2289 --_jobId	none	param
                        2290 --_keyId	none	param
                        2291 --_partnerPublicValuePtr	none	param
                        2292 --_partnerPublicValueLength	none	param
                        2293 
                        2294 	.section ".bss","awb"
                        2295 .L4721:
                        2296 	.type	.L4721,@object
                        2297 	.size	.L4721,0
                        2298 	.data
                        2299 	.text
                        2300 	.align	2
                        2301 	.align	2
                        2302 ..gh.f.f.1.e.37:
                        2303 	.type	..gh.f.f.1.e.37,@object
                        2304 	.size	..gh.f.f.1.e.37,0
                        2305 	.global	_Csm_SaveContextJob
                        2306 _Csm_SaveContextJob:

                                                                      Page 41
                                                              C:\Users\nhuliyap\AppData\Local\Temp\gh_00001c41.s
0000086c 8207e110       2307 	prepare	{r27,r28,r29,r31},1
00000870 07e0           2308 	mov	r7,r28
00000872 08d8           2309 	mov	r8,r27
                        2310 --	    .bf
                        2311 .LDW531:
00000874 a40705980000*  2312 	ld.bu	sdaoff23(_Csm_IsInitialized)[gp],r19
0000087a 01ea           2313 	mov	1,r29
0000087c 054a           2314 	mov	5,r9
0000087e 619a           2315 	cmp	1,r19
00000880 9a0d*          2316 	bne	.L4761
                        2317 --line2797
                        2318 ..lin.C.3A.5C_ECU2.5CECU_Rivian_A1.5CTarget.5Crepo_projects.5CpFOTA.5CcL_LATEST.5Cmake.5Cobj.5CSwcServiceCsm.117::
                        2319 .LDWlin117:
00000882 6532           2320 	cmp	5,r6
00000884 034a           2321 	mov	3,r9
00000886 e905*          2322 	bnl	.L4761
                        2323 --line2801
                        2324 ..lin.C.3A.5C_ECU2.5CECU_Rivian_A1.5CTarget.5Crepo_projects.5CpFOTA.5CcL_LATEST.5Cmake.5Cobj.5CSwcServiceCsm.118::
                        2325 .LDWlin118:
00000888 1d48           2326 	mov	r29,r9
0000088a e039           2327 	cmp	zero,r7
0000088c b205*          2328 	be	.L4761
0000088e e041           2329 	cmp	zero,r8
00000890 9a0d*          2330 	bne	.L4747
                        2331 .L4761:
                        2332 --	    .es
                        2333 .LDW631:
                        2334 --line2837
                        2335 ..lin.C.3A.5C_ECU2.5CECU_Rivian_A1.5CTarget.5Crepo_projects.5CpFOTA.5CcL_LATEST.5Cmake.5Cobj.5CSwcServiceCsm.119::
                        2336 .LDWlin119:
00000892 20366e00       2337 	movea	110,zero,r6
00000896 003a           2338 	mov	0,r7
00000898 20468600       2339 	movea	134,zero,r8
                        2340 	jarl	_Det_ReportError,lp
                        2340 <EXPANSION BEGIN>
                        2340 jarl22 _Det_ReportError , lp 
0000089c 80ff0000*      2340 <EXPANSION END>
000008a0 d52d*          2341 	br	.L4760
                        2342 .L4747:
                        2343 --line2805
                        2344 ..lin.C.3A.5C_ECU2.5CECU_Rivian_A1.5CTarget.5Crepo_projects.5CpFOTA.5CcL_LATEST.5Cmake.5Cobj.5CSwcServiceCsm.120::
                        2345 .LDWlin120:
000008a2 0690           2346 	mov	r6,r18
000008a4 9200           2347 	zxb	r18
000008a6 f2f61400       2348 	mulhi	20,r18,ep
000008aa 094a           2349 	mov	9,r9
000008ac c5f1           2350 	add	r5,ep
000008ae 9e0709f00000*  2351 	ld.w	rosdaoff23(_Csm_JobPrimitiveInfo+4)[ep],ep
000008b4 6480           2352 	sld.bu	4[ep],r16
000008b6 6882           2353 	cmp	8,r16
000008b8 dbed*          2354 	bh	.L4761
                        2355 --line2811
                        2356 ..lin.C.3A.5C_ECU2.5CECU_Rivian_A1.5CTarget.5Crepo_projects.5CpFOTA.5CcL_LATEST.5Cmake.5Cobj.5CSwcServiceCsm.121::
                        2357 .LDWlin121:
000008ba 04f0           2358 	mov	gp,ep
000008bc c6f1           2359 	add	r6,ep
000008be be0705780000*  2360 	ld.bu	sdaoff23(_Csm_JobState)[ep],r15
000008c4 e079           2361 	cmp	zero,r15
000008c6 a21d*          2362 	be	.L4760
                        2363 --	    .bs
                        2364 .LDW731:

                                                                      Page 42
                                                              C:\Users\nhuliyap\AppData\Local\Temp\gh_00001c41.s
                        2365 --line2815
                        2366 ..lin.C.3A.5C_ECU2.5CECU_Rivian_A1.5CTarget.5Crepo_projects.5CpFOTA.5CcL_LATEST.5Cmake.5Cobj.5CSwcServiceCsm.122::
                        2367 .LDWlin122:
000008c8 43070300       2368 	st.b	zero,3[sp]
000008cc 233e0300       2369 	movea	3,sp,r7
                        2370 	jarl	_Csm_GetJobObj,lp
                        2370 <EXPANSION BEGIN>
                        2370 jarl22 _Csm_GetJobObj , lp 
000008d0 bfff8af7*      2370 <EXPANSION END>
000008d4 0ae8           2371 	mov	r10,r29
                        2372 --line2820
                        2373 ..lin.C.3A.5C_ECU2.5CECU_Rivian_A1.5CTarget.5Crepo_projects.5CpFOTA.5CcL_LATEST.5Cmake.5Cobj.5CSwcServiceCsm.123::
                        2374 .LDWlin123:
000008d6 e051           2375 	cmp	zero,r10
000008d8 9a15*          2376 	bne	.L4760
                        2377 --line2821
                        2378 ..lin.C.3A.5C_ECU2.5CECU_Rivian_A1.5CTarget.5Crepo_projects.5CpFOTA.5CcL_LATEST.5Cmake.5Cobj.5CSwcServiceCsm.124::
                        2379 .LDWlin124:
000008da a3770300       2380 	ld.bu	3[sp],r14
000008de 2d0600000000*  2381 	mov	sdaoff23(_Csm_Job),r13
000008e4 0862           2382 	mov	8,r12
000008e6 ee368c00       2383 	mulhi	140,r14,r6
000008ea cd31           2384 	add	r13,r6
000008ec 06f0           2385 	mov	r6,ep
000008ee b463           2386 	sst.b	r12,52[ep]
000008f0 11e5           2387 	sst.w	r28,32[ep]
000008f2 13dd           2388 	sst.w	r27,36[ep]
                        2389 	jarl	_Csm_ProcessJob,lp
                        2389 <EXPANSION BEGIN>
                        2389 jarl22 _Csm_ProcessJob , lp 
000008f4 bfff10f7*      2389 <EXPANSION END>
000008f8 0ae8           2390 	mov	r10,r29
                        2391 .L4760:
                        2392 --line2843
                        2393 ..lin.C.3A.5C_ECU2.5CECU_Rivian_A1.5CTarget.5Crepo_projects.5CpFOTA.5CcL_LATEST.5Cmake.5Cobj.5CSwcServiceCsm.125::
                        2394 .LDWlin125:
000008fa 1d50           2395 	mov	r29,r10
                        2396 --	    .ef
                        2397 .LDW831:
000008fc 4206ff10       2398 	dispose	1,{r27,r28,r29,r31},[lp]
                        2399 	.type	_Csm_SaveContextJob,@function
                        2400 	.size	_Csm_SaveContextJob,.-_Csm_SaveContextJob
                        2401 	.align	2
                        2402 .LDW931:
                        2403 --_retVal	r29	local
                        2404 --_errorId	r9	local
                        2405 --_jobObjId	3[sp]	local
                        2406 
                        2407 --_jobId	r6	param
                        2408 --_contextBufferPtr	r28	param
                        2409 --_contextBufferLengthPtr	r27	param
                        2410 
                        2411 	.section ".bss","awb"
                        2412 .L4903:
                        2413 	.type	.L4903,@object
                        2414 	.size	.L4903,0
                        2415 	.data
                        2416 	.text
                        2417 	.align	2
                        2418 	.align	2
                        2419 ..gh.f.f.1.e.38:

                                                                      Page 43
                                                              C:\Users\nhuliyap\AppData\Local\Temp\gh_00001c41.s
                        2420 	.type	..gh.f.f.1.e.38,@object
                        2421 	.size	..gh.f.f.1.e.38,0
                        2422 	.global	_Csm_RestoreContextJob
                        2423 _Csm_RestoreContextJob:
00000900 8207e110       2424 	prepare	{r27,r28,r29,r31},1
00000904 07e0           2425 	mov	r7,r28
00000906 08d8           2426 	mov	r8,r27
                        2427 --	    .bf
                        2428 .LDW041:
00000908 a40705980000*  2429 	ld.bu	sdaoff23(_Csm_IsInitialized)[gp],r19
0000090e 01ea           2430 	mov	1,r29
00000910 054a           2431 	mov	5,r9
00000912 619a           2432 	cmp	1,r19
00000914 fa2d*          2433 	bne	.L5044
                        2434 --line2866
                        2435 ..lin.C.3A.5C_ECU2.5CECU_Rivian_A1.5CTarget.5Crepo_projects.5CpFOTA.5CcL_LATEST.5Cmake.5Cobj.5CSwcServiceCsm.126::
                        2436 .LDWlin126:
00000916 6532           2437 	cmp	5,r6
00000918 034a           2438 	mov	3,r9
0000091a c92d*          2439 	bnl	.L5044
                        2440 --line2870
                        2441 ..lin.C.3A.5C_ECU2.5CECU_Rivian_A1.5CTarget.5Crepo_projects.5CpFOTA.5CcL_LATEST.5Cmake.5Cobj.5CSwcServiceCsm.127::
                        2442 .LDWlin127:
0000091c e039           2443 	cmp	zero,r7
0000091e e3ef144b       2444 	cmovne	3,r29,r9
00000922 822d*          2445 	be	.L5044
                        2446 --line2874
                        2447 ..lin.C.3A.5C_ECU2.5CECU_Rivian_A1.5CTarget.5Crepo_projects.5CpFOTA.5CcL_LATEST.5Cmake.5Cobj.5CSwcServiceCsm.128::
                        2448 .LDWlin128:
00000924 0690           2449 	mov	r6,r18
00000926 9200           2450 	zxb	r18
00000928 f2f61400       2451 	mulhi	20,r18,ep
0000092c 094a           2452 	mov	9,r9
0000092e c5f1           2453 	add	r5,ep
00000930 9e0709f00000*  2454 	ld.w	rosdaoff23(_Csm_JobPrimitiveInfo+4)[ep],ep
00000936 6480           2455 	sld.bu	4[ep],r16
00000938 6882           2456 	cmp	8,r16
0000093a cb1d*          2457 	bh	.L5044
                        2458 --	    .bs
                        2459 .LDW141:
                        2460 --line2881
                        2461 ..lin.C.3A.5C_ECU2.5CECU_Rivian_A1.5CTarget.5Crepo_projects.5CpFOTA.5CcL_LATEST.5Cmake.5Cobj.5CSwcServiceCsm.129::
                        2462 .LDWlin129:
0000093c 43070300       2463 	st.b	zero,3[sp]
00000940 233e0300       2464 	movea	3,sp,r7
                        2465 	jarl	_Csm_GetJobObj,lp
                        2465 <EXPANSION BEGIN>
                        2465 jarl22 _Csm_GetJobObj , lp 
00000944 bfff16f7*      2465 <EXPANSION END>
00000948 0ae8           2466 	mov	r10,r29
                        2467 --line2886
                        2468 ..lin.C.3A.5C_ECU2.5CECU_Rivian_A1.5CTarget.5Crepo_projects.5CpFOTA.5CcL_LATEST.5Cmake.5Cobj.5CSwcServiceCsm.130::
                        2469 .LDWlin130:
0000094a e051           2470 	cmp	zero,r10
0000094c aa1d*          2471 	bne	.L5043
                        2472 --line2887
                        2473 ..lin.C.3A.5C_ECU2.5CECU_Rivian_A1.5CTarget.5Crepo_projects.5CpFOTA.5CcL_LATEST.5Cmake.5Cobj.5CSwcServiceCsm.131::
                        2474 .LDWlin131:
0000094e a37f0300       2475 	ld.bu	3[sp],r15
00000952 2e0600000000*  2476 	mov	sdaoff23(_Csm_Job),r14
00000958 206e1000       2477 	movea	16,zero,r13

                                                                      Page 44
                                                              C:\Users\nhuliyap\AppData\Local\Temp\gh_00001c41.s
0000095c ef368c00       2478 	mulhi	140,r15,r6
00000960 ce31           2479 	add	r14,r6
00000962 06f0           2480 	mov	r6,ep
00000964 b46b           2481 	sst.b	r13,52[ep]
00000966 05e5           2482 	sst.w	r28,8[ep]
00000968 07dd           2483 	sst.w	r27,12[ep]
                        2484 	jarl	_Csm_ProcessJob,lp
                        2484 <EXPANSION BEGIN>
                        2484 jarl22 _Csm_ProcessJob , lp 
0000096a bfff9af6*      2484 <EXPANSION END>
0000096e 0ae8           2485 	mov	r10,r29
00000970 850d*          2486 	br	.L5043
                        2487 .L5044:
                        2488 --	    .es
                        2489 .LDW241:
                        2490 --line2903
                        2491 ..lin.C.3A.5C_ECU2.5CECU_Rivian_A1.5CTarget.5Crepo_projects.5CpFOTA.5CcL_LATEST.5Cmake.5Cobj.5CSwcServiceCsm.132::
                        2492 .LDWlin132:
00000972 20366e00       2493 	movea	110,zero,r6
00000976 003a           2494 	mov	0,r7
00000978 20468700       2495 	movea	135,zero,r8
                        2496 	jarl	_Det_ReportError,lp
                        2496 <EXPANSION BEGIN>
                        2496 jarl22 _Det_ReportError , lp 
0000097c 80ff0000*      2496 <EXPANSION END>
                        2497 .L5043:
                        2498 --line2909
                        2499 ..lin.C.3A.5C_ECU2.5CECU_Rivian_A1.5CTarget.5Crepo_projects.5CpFOTA.5CcL_LATEST.5Cmake.5Cobj.5CSwcServiceCsm.133::
                        2500 .LDWlin133:
00000980 1d50           2501 	mov	r29,r10
                        2502 --	    .ef
                        2503 .LDW341:
00000982 4206ff10       2504 	dispose	1,{r27,r28,r29,r31},[lp]
                        2505 	.type	_Csm_RestoreContextJob,@function
                        2506 	.size	_Csm_RestoreContextJob,.-_Csm_RestoreContextJob
                        2507 	.align	2
                        2508 .LDW441:
                        2509 --_retVal	r29	local
                        2510 --_errorId	r9	local
                        2511 --_jobObjId	3[sp]	local
                        2512 
                        2513 --_jobId	r6	param
                        2514 --_contextBufferPtr	r28	param
                        2515 --_contextBufferLength	r27	param
                        2516 
                        2517 	.section ".bss","awb"
                        2518 .L5175:
                        2519 	.type	.L5175,@object
                        2520 	.size	.L5175,0
                        2521 	.data
                        2522 	.text
                        2523 	.align	2
                        2524 --_Csm_JobInfo	rosdaoff23(_Csm_JobInfo)	import
                        2525 --_Csm_JobPrimitiveInfo	rosdaoff23(_Csm_JobPrimitiveInfo)	import
                        2526 --_Csm_JobTable	rosdaoff23(_Csm_JobTable)	import
                        2527 --_Csm_Key	rosdaoff23(_Csm_Key)	import
                        2528 --_Csm_QueueInfo	rosdaoff23(_Csm_QueueInfo)	import
                        2529 --_Csm_Job	sdaoff23(_Csm_Job)	import
                        2530 --_Csm_JobState	sdaoff23(_Csm_JobState)	import
                        2531 --_Csm_JobToObjMap	sdaoff23(_Csm_JobToObjMap)	import
                        2532 --_Csm_QueueState	sdaoff23(_Csm_QueueState)	import

                                                                      Page 45
                                                              C:\Users\nhuliyap\AppData\Local\Temp\gh_00001c41.s
                        2533 --_Csm_IsInitialized	sdaoff23(_Csm_IsInitialized)	static
                        2534 
                        2535 	.data
                        2536 	.ghsnote version,17
                        2537 	.ghsnote tools,3
                        2538 	.ghsnote options,144
                        2539 	.text
                        2540 	.align	2
                        2541 ..eof.C.3A.5C_ECU2.5CECU_Rivian_A1.5CTarget.5Crepo_projects.5CpFOTA.5CcL_LATEST.5Cmake.5Cobj.5CSwcServiceCsm...43.3A.5C_ECU2.5CECU_Rivian_A1.5CTarget.5Crepo_projects.5CpFOTA.5CcL_LATEST.5Cmake..64F86B7B..0::
                        2542 .rh850_flags REGMODE32,DATA_ALIGN8,GP_FIX,EP_NONFIX,TP_FIX,REG2_RESERVE,G3K,SDA_EXTRA_REGS_0
