                                                                      Page 1
                                                              C:\Users\nhuliyap\AppData\Local\Temp\gh_000097o1.s
Command Line: C:\GHS\comp_201517\ease850.exe -w -stderr=err/SwcServicePduR.err -elf -b0 -I../source/_common -I../source/common -I../source/ecuabcanif -I../source/ecuabcantrcv -I../source/ecuabcryif -I../source/ecuabfee -I../source/ecuabmemif -I../source/libautosar -I../source/mcalcan -I../source/mcalcry -I../source/mcaldio -I../source/mcaleep -I../source/mcalfls -I../source/mcalmcu -I../source/projectara -I../source/projectcfg -I../source/projectcompiler -I../source/swcservicebswm -I../source/swcservicecantp -I../source/swcservicecomm -I../source/swcservicecsm -I../source/swcservicedcm -I../source/swcservicedem -I../source/swcservicedet -I../source/swcserviceecum -I../source/swcservicenvm -I../source/swcserviceos -I../source/swcservicepdur -I../source/swcserviceschm -I../source/swcservicestartup -I../source/wrappers/swcservicesecm -I../source/wrappers/vsecprim -I../source/wrappers/vstdlib -Ic:/ghs/comp_201517/ansi -Ic:/ghs/comp_201517/include/v800 -Igendata -IC:\GHS\comp_201517\lib\rh850 -cg_underscore -cpu=rh850g3k -nofpu -no_v850_simd -rh850_fpsimd=none -nomacro -patch_dbo=C:\_ECU2\ECU_Rivian_A1\Target\repo_projects\pFOTA\cL_LATEST\make\obj\SwcServicePduR.dbo -source=SwcServicePduR.c -o obj\gh_000097o1.o -list=lst/SwcServicePduR.lst C:\Users\nhuliyap\AppData\Local\Temp\gh_000097o1.s 
Original File: C:\Users\nhuliyap\AppData\Local\Temp\gh_000097o1.s
Source File: SwcServicePduR.c
Directory: C:\_ECU2\ECU_Rivian_A1\Target\repo_projects\pFOTA\cL_LATEST\make
Host OS: Windows
EASE: Copyright (C) 1983-2015 Green Hills Software.  All Rights Reserved.
Release: Compiler v2015.1.7
Build Directory: [Directory] BTOWORKER6:c:/build_2015_1_bto/2015-10-21.2100-2015_1_bto/win32-comp-ecom
Revision: [VCInfo] http://toolsvc/branches/release-branch-70-bto/src@544153 (built by build)
Revision Date: Thu Oct 22 07:50:13 2015

Release Date: Thu Oct 22 09:32:32 2015

                           1 --Driver Command: ccrh850 -DBRS_DERIVATIVE_701018 -DBRS_OSC_CLK=16
                           2 --		-DBRS_TIMEBASE_CLOCK=80 -DBRS_EVA_BOARD_
                           3 --		-DBRS_DERIVATIVE_GROUP_F1L -DBRS_OS_USECASE_BRS
                           4 --		-DBRS_PLATFORM_RH850 -DBRS_COMP_GHS
                           5 --		-DBRS_CPU_LOCAL_RAM_SIZE_CORE0=32
                           6 --		-DBRS_CPU_RAM_START_CORE0=0xFEDF8000 -list=lst/SwcServicePduR.lst
                           7 --		-object_dir=obj -stderr=err/SwcServicePduR.err -c -cpu=rh850
                           8 --		-sda=all -large_sda -prepare_dispose -pragma_asm_inline -no_callt
                           9 --		-inline_prologue -notda -reserve_r2 -fsoft
                          10 --		--unknown_pragma_warnings -list -g -Ogeneral -shortenum
                          11 --		-registermode=32 -I../source/_common -I../source/common
                          12 --		-I../source/ecuabcanif -I../source/ecuabcantrcv
                          13 --		-I../source/ecuabcryif -I../source/ecuabfee
                          14 --		-I../source/ecuabmemif -I../source/libautosar -I../source/mcalcan
                          15 --		-I../source/mcalcry -I../source/mcaldio -I../source/mcaleep
                          16 --		-I../source/mcalfls -I../source/mcalmcu -I../source/projectara
                          17 --		-I../source/projectcfg -I../source/projectcompiler
                          18 --		-I../source/swcservicebswm -I../source/swcservicecantp
                          19 --		-I../source/swcservicecomm -I../source/swcservicecsm
                          20 --		-I../source/swcservicedcm -I../source/swcservicedem
                          21 --		-I../source/swcservicedet -I../source/swcserviceecum
                          22 --		-I../source/swcservicenvm -I../source/swcserviceos
                          23 --		-I../source/swcservicepdur -I../source/swcserviceschm
                          24 --		-I../source/swcservicestartup -I../source/wrappers/swcservicesecm
                          25 --		-I../source/wrappers/vsecprim -I../source/wrappers/vstdlib
                          26 --		-Ic:/ghs/comp_201517/ansi -Ic:/ghs/comp_201517/include/v800
                          27 --		-Igendata ../source/SwcServicePduR/SwcServicePduR.c
                          28 --Source File:   ../source/SwcServicePduR/SwcServicePduR.c
                          29 --Directory:     
                          30 --		C:\_ECU2\ECU_Rivian_A1\Target\repo_projects\pFOTA\cL_LATEST\make
                          31 --Compile Date:  Wed Sep 06 14:07:29 2023
                          32 --Host OS:       Win32
                          33 --Version:       C-RH850 2015.1.7 RELEASE VERSION
                          34 --Release:       Compiler v2015.1.7
                          35 --Revision Date: Thu Oct 22 08:06:12 2015
                          36 --Release Date:  Thu Oct 22 09:34:32 2015
                          37 -- ecom  -g -w -OM
                          38 	.text
                          39 ..bof.C.3A.5C_ECU2.5CECU_Rivian_A1.5CTarget.5Crepo_projects.5CpFOTA.5CcL_LATEST.5Cmake.5Cobj.5CSwcServicePduR...43.3A.5C_ECU2.5CECU_Rivian_A1.5CTarget.5Crepo_projects.5CpFOTA.5CcL_LATEST.5Cmake..64F86B81..0::
                          40 	.align	2
                          41 ..gh.f.f.1.e.0:
                          42 	.type	..gh.f.f.1.e.0,@object
                          43 	.size	..gh.f.f.1.e.0,0
                          44 	.global	_PduR_GetConfigurationId
                          45 _PduR_GetConfigurationId:
00000000 80072100         46 	prepare	{r31},0
                          47 --	    .bf
                          48 .LDW01:
00000004 a40705880000*    49 	ld.bu	sdaoff23(_PduR_Initialized)[gp],r17
0000000a e089             50 	cmp	zero,r17

                                                                      Page 2
                                                              C:\Users\nhuliyap\AppData\Local\Temp\gh_000097o1.s
0000000c ea970000         51 	setfne	r18
00000010 9a0d*            52 	bne	.L7
                          53 --line111
                          54 ..lin.C.3A.5C_ECU2.5CECU_Rivian_A1.5CTarget.5Crepo_projects.5CpFOTA.5CcL_LATEST.5Cmake.5Cobj.5CSwcServicePduR.1::
                          55 .LDWlin1:
00000012 20363300         56 	movea	51,zero,r6
00000016 1238             57 	mov	r18,r7
00000018 2046f200         58 	movea	242,zero,r8
0000001c 014a             59 	mov	1,r9
                          60 	jarl	_Det_ReportError,lp
                          60 <EXPANSION BEGIN>
                          60 jarl22 _Det_ReportError , lp 
0000001e 80ff0000*        60 <EXPANSION END>
                          61 .L7:
                          62 --line116
                          63 ..lin.C.3A.5C_ECU2.5CECU_Rivian_A1.5CTarget.5Crepo_projects.5CpFOTA.5CcL_LATEST.5Cmake.5Cobj.5CSwcServicePduR.2::
                          64 .LDWlin2:
00000022 0052             65 	mov	0,r10
                          66 --	    .ef
                          67 .LDW11:
00000024 40063f00         68 	dispose	0,{r31},[lp]
                          69 	.type	_PduR_GetConfigurationId,@function
                          70 	.size	_PduR_GetConfigurationId,.-_PduR_GetConfigurationId
                          71 	.align	2
                          72 .LDW21:
                          73 
                          74 	.section ".bss","awb"
                          75 .L61:
                          76 	.type	.L61,@object
                          77 	.size	.L61,0
                          78 	.data
                          79 	.text
                          80 	.align	2
                          81 	.align	2
                          82 ..gh.f.f.1.e.1:
                          83 	.type	..gh.f.f.1.e.1,@object
                          84 	.size	..gh.f.f.1.e.1,0
                          85 	.global	_PduR_UpTransmit
                          86 _PduR_UpTransmit:
00000028 80076100         87 	prepare	{r29,r31},0
0000002c 8600             88 	zxb	r6
                          89 --	    .bf
                          90 .LDW31:
0000002e a40705900000*    91 	ld.bu	sdaoff23(_PduR_Initialized)[gp],r18
00000034 01ea             92 	mov	1,r29
00000036 1d48             93 	mov	r29,r9
00000038 e091             94 	cmp	zero,r18
0000003a 8215*            95 	be	.L106
                          96 --line129
                          97 ..lin.C.3A.5C_ECU2.5CECU_Rivian_A1.5CTarget.5Crepo_projects.5CpFOTA.5CcL_LATEST.5Cmake.5Cobj.5CSwcServicePduR.3::
                          98 .LDWlin3:
0000003c 6232             99 	cmp	2,r6
0000003e 024a            100 	mov	2,r9
00000040 d90d*           101 	bnl	.L106
                         102 --line145
                         103 ..lin.C.3A.5C_ECU2.5CECU_Rivian_A1.5CTarget.5Crepo_projects.5CpFOTA.5CcL_LATEST.5Cmake.5Cobj.5CSwcServicePduR.4::
                         104 .LDWlin4:
00000042 06f0            105 	mov	r6,ep
00000044 c2f2            106 	shl	2,ep
00000046 c5f1            107 	add	r5,ep
00000048 9e0709e80000*   108 	ld.w	rosdaoff23(_PduR_RmTransmitFctPtr)[ep],r29

                                                                      Page 3
                                                              C:\Users\nhuliyap\AppData\Local\Temp\gh_000097o1.s
0000004e 4232            109 	add	2,r6
00000050 8600            110 	zxb	r6
00000052 fdc760f9        111 	jarl	[r29],lp
00000056 0ae8            112 	mov	r10,r29
00000058 850d*           113 	br	.L105
                         114 .L106:
                         115 --line152
                         116 ..lin.C.3A.5C_ECU2.5CECU_Rivian_A1.5CTarget.5Crepo_projects.5CpFOTA.5CcL_LATEST.5Cmake.5Cobj.5CSwcServicePduR.5::
                         117 .LDWlin5:
0000005a 20363300        118 	movea	51,zero,r6
0000005e 003a            119 	mov	0,r7
00000060 2046c800        120 	movea	200,zero,r8
                         121 	jarl	_Det_ReportError,lp
                         121 <EXPANSION BEGIN>
                         121 jarl22 _Det_ReportError , lp 
00000064 80ff0000*       121 <EXPANSION END>
                         122 .L105:
                         123 --line161
                         124 ..lin.C.3A.5C_ECU2.5CECU_Rivian_A1.5CTarget.5Crepo_projects.5CpFOTA.5CcL_LATEST.5Cmake.5Cobj.5CSwcServicePduR.6::
                         125 .LDWlin6:
00000068 1d50            126 	mov	r29,r10
                         127 --	    .ef
                         128 .LDW41:
0000006a 40067f00        129 	dispose	0,{r29,r31},[lp]
                         130 	.type	_PduR_UpTransmit,@function
                         131 	.size	_PduR_UpTransmit,.-_PduR_UpTransmit
                         132 	.align	2
                         133 .LDW51:
                         134 --_errorId	r9	local
                         135 --_retVal	r29	local
                         136 
                         137 --_id	r6	param
                         138 --_info	r7	param
                         139 
                         140 	.section ".bss","awb"
                         141 .L179:
                         142 	.type	.L179,@object
                         143 	.size	.L179,0
                         144 	.data
                         145 	.text
                         146 	.align	2
                         147 	.align	2
                         148 ..gh.f.f.1.e.2:
                         149 	.type	..gh.f.f.1.e.2,@object
                         150 	.size	..gh.f.f.1.e.2,0
                         151 	.global	_PduR_LoIfTxConfirmation
                         152 _PduR_LoIfTxConfirmation:
0000006e 8600            153 	zxb	r6
                         154 --	    .bf
                         155 .LDW61:
00000070 a40705900000*   156 	ld.bu	sdaoff23(_PduR_Initialized)[gp],r18
00000076 014a            157 	mov	1,r9
00000078 e091            158 	cmp	zero,r18
0000007a b20d*           159 	be	.L254
                         160 --line215
                         161 ..lin.C.3A.5C_ECU2.5CECU_Rivian_A1.5CTarget.5Crepo_projects.5CpFOTA.5CcL_LATEST.5Cmake.5Cobj.5CSwcServicePduR.7::
                         162 .LDWlin7:
0000007c e031            163 	cmp	zero,r6
0000007e 024a            164 	mov	2,r9
00000080 8a0d*           165 	bne	.L254
                         166 --line230

                                                                      Page 4
                                                              C:\Users\nhuliyap\AppData\Local\Temp\gh_000097o1.s
                         167 ..lin.C.3A.5C_ECU2.5CECU_Rivian_A1.5CTarget.5Crepo_projects.5CpFOTA.5CcL_LATEST.5Cmake.5Cobj.5CSwcServicePduR.8::
                         168 .LDWlin8:
00000082 a50705880000*   169 	ld.bu	rosdaoff23(_PduR_TxIf2Up)[r5],r17
00000088 e089            170 	cmp	zero,r17
0000008a a20d*           171 	be	.L243
0000008c 80070000*       172 	jr	_PduR_RmIf_MultipleSourceHandler_TxConfirmation
                         173 .L254:
                         174 --line238
                         175 ..lin.C.3A.5C_ECU2.5CECU_Rivian_A1.5CTarget.5Crepo_projects.5CpFOTA.5CcL_LATEST.5Cmake.5Cobj.5CSwcServicePduR.9::
                         176 .LDWlin9:
00000090 20363300        177 	movea	51,zero,r6
00000094 003a            178 	mov	0,r7
00000096 2046ca00        179 	movea	202,zero,r8
0000009a 80070000*       180 	jr	_Det_ReportError
                         181 .L243:
                         182 --	    .ef
                         183 .LDW71:
                         184 --line245
                         185 ..lin.C.3A.5C_ECU2.5CECU_Rivian_A1.5CTarget.5Crepo_projects.5CpFOTA.5CcL_LATEST.5Cmake.5Cobj.5CSwcServicePduR.10::
                         186 .LDWlin10:
0000009e 7f00            187 	jmp	[lp]
                         188 	.type	_PduR_LoIfTxConfirmation,@function
                         189 	.size	_PduR_LoIfTxConfirmation,.-_PduR_LoIfTxConfirmation
                         190 	.align	2
                         191 .LDW81:
                         192 --_errorId	r9	local
                         193 
                         194 --_TxPduId	r6	param
                         195 
                         196 	.section ".bss","awb"
                         197 .L333:
                         198 	.type	.L333,@object
                         199 	.size	.L333,0
                         200 	.data
                         201 	.text
                         202 	.align	2
                         203 	.align	2
                         204 ..gh.f.f.1.e.3:
                         205 	.type	..gh.f.f.1.e.3,@object
                         206 	.size	..gh.f.f.1.e.3,0
                         207 	.global	_PduR_LoTpStartOfReception
                         208 _PduR_LoTpStartOfReception:
000000a0 80076100        209 	prepare	{r29,r31},0
000000a4 8600            210 	zxb	r6
000000a6 c800            211 	zxh	r8
                         212 --	    .bf
                         213 .LDW91:
000000a8 a40705900000*   214 	ld.bu	sdaoff23(_PduR_Initialized)[gp],r18
000000ae 01ea            215 	mov	1,r29
000000b0 e091            216 	cmp	zero,r18
000000b2 ea9f0000        217 	setfne	r19
000000b6 e099            218 	cmp	zero,r19
000000b8 aa0d*           219 	bne	.L410
000000ba 014a            220 	mov	1,r9
                         221 .L417:
                         222 --line382
                         223 ..lin.C.3A.5C_ECU2.5CECU_Rivian_A1.5CTarget.5Crepo_projects.5CpFOTA.5CcL_LATEST.5Cmake.5Cobj.5CSwcServicePduR.11::
                         224 .LDWlin11:
000000bc 20363300        225 	movea	51,zero,r6
000000c0 003a            226 	mov	0,r7
000000c2 2046cc00        227 	movea	204,zero,r8

                                                                      Page 5
                                                              C:\Users\nhuliyap\AppData\Local\Temp\gh_000097o1.s
                         228 	jarl	_Det_ReportError,lp
                         228 <EXPANSION BEGIN>
                         228 jarl22 _Det_ReportError , lp 
000000c6 80ff0000*       228 <EXPANSION END>
000000ca 9525*           229 	br	.L416
                         230 .L410:
                         231 --line296
                         232 ..lin.C.3A.5C_ECU2.5CECU_Rivian_A1.5CTarget.5Crepo_projects.5CpFOTA.5CcL_LATEST.5Cmake.5Cobj.5CSwcServicePduR.12::
                         233 .LDWlin12:
000000cc 6232            234 	cmp	2,r6
000000ce e24f124b        235 	cmovnl	2,r9,r9
000000d2 d9f5*           236 	bnl	.L417
                         237 --	    .bs
                         238 .LDW02:
                         239 --	    .bs
                         240 .LDW12:
                         241 --line320
                         242 ..lin.C.3A.5C_ECU2.5CECU_Rivian_A1.5CTarget.5Crepo_projects.5CpFOTA.5CcL_LATEST.5Cmake.5Cobj.5CSwcServicePduR.13::
                         243 .LDWlin13:
000000d4 c232            244 	shl	2,r6
000000d6 c531            245 	add	r5,r6
000000d8 a60705980000*   246 	ld.bu	rosdaoff23(_PduR_RmSrcRom+2)[r6],r19
                         247 --	    .bs
                         248 .LDW22:
000000de f3f60300        249 	mulhi	3,r19,ep
000000e2 300600000000*   250 	mov	rosdaoff23(_PduR_RmGDestRom),r16
000000e8 c5f1            251 	add	r5,ep
000000ea be0705880000*   252 	ld.bu	rosdaoff23(_PduR_RmDestRom)[ep],r17
000000f0 f1f60500        253 	mulhi	5,r17,ep
000000f4 d0f1            254 	add	r16,ep
000000f6 6278            255 	sld.bu	2[ep],r15
000000f8 6030            256 	sld.bu	0[ep],r6
000000fa ef962800        257 	mulhi	40,r15,r18
000000fe c591            258 	add	r5,r18
00000100 920709e80000*   259 	ld.w	rosdaoff23(_PduR_MmRom+20)[r18],r29
00000106 fdc760f9        260 	jarl	[r29],lp
0000010a 0ae8            261 	mov	r10,r29
                         262 --	    .es
                         263 .LDW32:
                         264 --	    .es
                         265 .LDW42:
                         266 --	    .es
                         267 .LDW52:
                         268 .L416:
                         269 --line393
                         270 ..lin.C.3A.5C_ECU2.5CECU_Rivian_A1.5CTarget.5Crepo_projects.5CpFOTA.5CcL_LATEST.5Cmake.5Cobj.5CSwcServicePduR.14::
                         271 .LDWlin14:
0000010c 1d50            272 	mov	r29,r10
                         273 --	    .ef
                         274 .LDW62:
0000010e 40067f00        275 	dispose	0,{r29,r31},[lp]
                         276 	.type	_PduR_LoTpStartOfReception,@function
                         277 	.size	_PduR_LoTpStartOfReception,.-_PduR_LoTpStartOfReception
                         278 	.align	2
                         279 .LDW72:
                         280 --_errorId	r9	local
                         281 --_retVal	r29	local
                         282 --_rmDestRomIdx	r19	local
                         283 
                         284 --_id	r6	param
                         285 --_info	r7	param

                                                                      Page 6
                                                              C:\Users\nhuliyap\AppData\Local\Temp\gh_000097o1.s
                         286 --_TpSduLength	r8	param
                         287 --_bufferSizePtr	r9	param
                         288 
                         289 	.section ".bss","awb"
                         290 .L490:
                         291 	.type	.L490,@object
                         292 	.size	.L490,0
                         293 	.data
                         294 	.text
                         295 	.align	2
                         296 	.align	2
                         297 ..gh.f.f.1.e.4:
                         298 	.type	..gh.f.f.1.e.4,@object
                         299 	.size	..gh.f.f.1.e.4,0
                         300 	.global	_PduR_LoTpCopyRxData
                         301 _PduR_LoTpCopyRxData:
00000112 80076100        302 	prepare	{r29,r31},0
00000116 8600            303 	zxb	r6
                         304 --	    .bf
                         305 .LDW82:
00000118 a40705900000*   306 	ld.bu	sdaoff23(_PduR_Initialized)[gp],r18
0000011e 01ea            307 	mov	1,r29
00000120 1d48            308 	mov	r29,r9
00000122 e091            309 	cmp	zero,r18
00000124 9225*           310 	be	.L563
                         311 --line406
                         312 ..lin.C.3A.5C_ECU2.5CECU_Rivian_A1.5CTarget.5Crepo_projects.5CpFOTA.5CcL_LATEST.5Cmake.5Cobj.5CSwcServicePduR.15::
                         313 .LDWlin15:
00000126 6232            314 	cmp	2,r6
00000128 024a            315 	mov	2,r9
0000012a e91d*           316 	bnl	.L563
                         317 --	    .bs
                         318 .LDW92:
                         319 --	    .bs
                         320 .LDW03:
                         321 --line422
                         322 ..lin.C.3A.5C_ECU2.5CECU_Rivian_A1.5CTarget.5Crepo_projects.5CpFOTA.5CcL_LATEST.5Cmake.5Cobj.5CSwcServicePduR.16::
                         323 .LDWlin16:
0000012c c232            324 	shl	2,r6
0000012e c531            325 	add	r5,r6
00000130 a60705980000*   326 	ld.bu	rosdaoff23(_PduR_RmSrcRom+2)[r6],r19
                         327 --	    .bs
                         328 .LDW13:
00000136 f3f60300        329 	mulhi	3,r19,ep
0000013a 300600000000*   330 	mov	rosdaoff23(_PduR_RmGDestRom),r16
00000140 c5f1            331 	add	r5,ep
00000142 be0705880000*   332 	ld.bu	rosdaoff23(_PduR_RmDestRom)[ep],r17
00000148 f1f60500        333 	mulhi	5,r17,ep
0000014c d0f1            334 	add	r16,ep
0000014e 6278            335 	sld.bu	2[ep],r15
00000150 6030            336 	sld.bu	0[ep],r6
00000152 ef962800        337 	mulhi	40,r15,r18
00000156 c591            338 	add	r5,r18
00000158 920709e80000*   339 	ld.w	rosdaoff23(_PduR_MmRom+4)[r18],r29
0000015e fdc760f9        340 	jarl	[r29],lp
00000162 0ae8            341 	mov	r10,r29
                         342 --	    .es
                         343 .LDW23:
                         344 --	    .es
                         345 .LDW33:
                         346 --	    .es

                                                                      Page 7
                                                              C:\Users\nhuliyap\AppData\Local\Temp\gh_000097o1.s
                         347 .LDW43:
                         348 --line422
                         349 ..lin.C.3A.5C_ECU2.5CECU_Rivian_A1.5CTarget.5Crepo_projects.5CpFOTA.5CcL_LATEST.5Cmake.5Cobj.5CSwcServicePduR.17::
                         350 .LDWlin17:
00000164 850d*           351 	br	.L562
                         352 .L563:
                         353 --line479
                         354 ..lin.C.3A.5C_ECU2.5CECU_Rivian_A1.5CTarget.5Crepo_projects.5CpFOTA.5CcL_LATEST.5Cmake.5Cobj.5CSwcServicePduR.18::
                         355 .LDWlin18:
00000166 20363300        356 	movea	51,zero,r6
0000016a 003a            357 	mov	0,r7
0000016c 2046cd00        358 	movea	205,zero,r8
                         359 	jarl	_Det_ReportError,lp
                         359 <EXPANSION BEGIN>
                         359 jarl22 _Det_ReportError , lp 
00000170 80ff0000*       359 <EXPANSION END>
                         360 .L562:
                         361 --line489
                         362 ..lin.C.3A.5C_ECU2.5CECU_Rivian_A1.5CTarget.5Crepo_projects.5CpFOTA.5CcL_LATEST.5Cmake.5Cobj.5CSwcServicePduR.19::
                         363 .LDWlin19:
00000174 1d50            364 	mov	r29,r10
                         365 --	    .ef
                         366 .LDW53:
00000176 40067f00        367 	dispose	0,{r29,r31},[lp]
                         368 	.type	_PduR_LoTpCopyRxData,@function
                         369 	.size	_PduR_LoTpCopyRxData,.-_PduR_LoTpCopyRxData
                         370 	.align	2
                         371 .LDW63:
                         372 --_errorId	r9	local
                         373 --_retVal	r29	local
                         374 --_rmDestRomIdx	r19	local
                         375 
                         376 --_id	r6	param
                         377 --_info	r7	param
                         378 --_bufferSizePtr	r8	param
                         379 
                         380 	.section ".bss","awb"
                         381 .L634:
                         382 	.type	.L634,@object
                         383 	.size	.L634,0
                         384 	.data
                         385 	.text
                         386 	.align	2
                         387 	.align	2
                         388 ..gh.f.f.1.e.5:
                         389 	.type	..gh.f.f.1.e.5,@object
                         390 	.size	..gh.f.f.1.e.5,0
                         391 	.global	_PduR_LoTpCopyTxData
                         392 _PduR_LoTpCopyTxData:
0000017a 80076100        393 	prepare	{r29,r31},0
0000017e 8600            394 	zxb	r6
                         395 --	    .bf
                         396 .LDW73:
00000180 a40705900000*   397 	ld.bu	sdaoff23(_PduR_Initialized)[gp],r18
00000186 01ea            398 	mov	1,r29
00000188 e091            399 	cmp	zero,r18
0000018a ea9f0000        400 	setfne	r19
0000018e e099            401 	cmp	zero,r19
00000190 aa0d*           402 	bne	.L700
00000192 014a            403 	mov	1,r9
                         404 .L707:

                                                                      Page 8
                                                              C:\Users\nhuliyap\AppData\Local\Temp\gh_000097o1.s
                         405 --line517
                         406 ..lin.C.3A.5C_ECU2.5CECU_Rivian_A1.5CTarget.5Crepo_projects.5CpFOTA.5CcL_LATEST.5Cmake.5Cobj.5CSwcServicePduR.20::
                         407 .LDWlin20:
00000194 20363300        408 	movea	51,zero,r6
00000198 003a            409 	mov	0,r7
0000019a 2046ce00        410 	movea	206,zero,r8
                         411 	jarl	_Det_ReportError,lp
                         411 <EXPANSION BEGIN>
                         411 jarl22 _Det_ReportError , lp 
0000019e 80ff0000*       411 <EXPANSION END>
000001a2 950d*           412 	br	.L706
                         413 .L700:
                         414 --line503
                         415 ..lin.C.3A.5C_ECU2.5CECU_Rivian_A1.5CTarget.5Crepo_projects.5CpFOTA.5CcL_LATEST.5Cmake.5Cobj.5CSwcServicePduR.21::
                         416 .LDWlin21:
000001a4 e031            417 	cmp	zero,r6
000001a6 e24f144b        418 	cmovne	2,r9,r9
000001aa daf5*           419 	bne	.L707
                         420 --line512
                         421 ..lin.C.3A.5C_ECU2.5CECU_Rivian_A1.5CTarget.5Crepo_projects.5CpFOTA.5CcL_LATEST.5Cmake.5Cobj.5CSwcServicePduR.22::
                         422 .LDWlin22:
000001ac 1d30            423 	mov	r29,r6
                         424 	jarl	_PduR_RmTp_MultipleSourceHandler_CopyTxData,lp
                         424 <EXPANSION BEGIN>
                         424 jarl22 _PduR_RmTp_MultipleSourceHandler_CopyTxData , lp 
000001ae 80ff0000*       424 <EXPANSION END>
000001b2 0ae8            425 	mov	r10,r29
                         426 .L706:
                         427 --line528
                         428 ..lin.C.3A.5C_ECU2.5CECU_Rivian_A1.5CTarget.5Crepo_projects.5CpFOTA.5CcL_LATEST.5Cmake.5Cobj.5CSwcServicePduR.23::
                         429 .LDWlin23:
000001b4 1d50            430 	mov	r29,r10
                         431 --	    .ef
                         432 .LDW83:
000001b6 40067f00        433 	dispose	0,{r29,r31},[lp]
                         434 	.type	_PduR_LoTpCopyTxData,@function
                         435 	.size	_PduR_LoTpCopyTxData,.-_PduR_LoTpCopyTxData
                         436 	.align	2
                         437 .LDW93:
                         438 --_errorId	r9	local
                         439 --_retVal	r29	local
                         440 
                         441 --_id	r6	param
                         442 --_info	r7	param
                         443 --_retry	r8	param
                         444 --_availableDataPtr	r9	param
                         445 
                         446 	.section ".bss","awb"
                         447 .L796:
                         448 	.type	.L796,@object
                         449 	.size	.L796,0
                         450 	.data
                         451 	.text
                         452 	.align	2
                         453 	.align	2
                         454 ..gh.f.f.1.e.6:
                         455 	.type	..gh.f.f.1.e.6,@object
                         456 	.size	..gh.f.f.1.e.6,0
                         457 	.global	_PduR_LoTpRxIndication
                         458 _PduR_LoTpRxIndication:
000001ba 80076100        459 	prepare	{r29,r31},0

                                                                      Page 9
                                                              C:\Users\nhuliyap\AppData\Local\Temp\gh_000097o1.s
000001be 8600            460 	zxb	r6
000001c0 8700            461 	zxb	r7
                         462 --	    .bf
                         463 .LDW04:
000001c2 a40705900000*   464 	ld.bu	sdaoff23(_PduR_Initialized)[gp],r18
000001c8 014a            465 	mov	1,r9
000001ca e091            466 	cmp	zero,r18
000001cc 9225*           467 	be	.L869
                         468 --line540
                         469 ..lin.C.3A.5C_ECU2.5CECU_Rivian_A1.5CTarget.5Crepo_projects.5CpFOTA.5CcL_LATEST.5Cmake.5Cobj.5CSwcServicePduR.24::
                         470 .LDWlin24:
000001ce 6232            471 	cmp	2,r6
000001d0 024a            472 	mov	2,r9
000001d2 e91d*           473 	bnl	.L869
                         474 --	    .bs
                         475 .LDW14:
                         476 --	    .bs
                         477 .LDW24:
                         478 --line560
                         479 ..lin.C.3A.5C_ECU2.5CECU_Rivian_A1.5CTarget.5Crepo_projects.5CpFOTA.5CcL_LATEST.5Cmake.5Cobj.5CSwcServicePduR.25::
                         480 .LDWlin25:
000001d4 c232            481 	shl	2,r6
000001d6 c531            482 	add	r5,r6
000001d8 a60705980000*   483 	ld.bu	rosdaoff23(_PduR_RmSrcRom+2)[r6],r19
                         484 --	    .bs
                         485 .LDW34:
000001de f3f60300        486 	mulhi	3,r19,ep
000001e2 300600000000*   487 	mov	rosdaoff23(_PduR_RmGDestRom),r16
000001e8 c5f1            488 	add	r5,ep
000001ea be0705880000*   489 	ld.bu	rosdaoff23(_PduR_RmDestRom)[ep],r17
000001f0 f1f60500        490 	mulhi	5,r17,ep
000001f4 d0f1            491 	add	r16,ep
000001f6 6278            492 	sld.bu	2[ep],r15
000001f8 6030            493 	sld.bu	0[ep],r6
000001fa ef962800        494 	mulhi	40,r15,r18
000001fe c591            495 	add	r5,r18
00000200 920709e80000*   496 	ld.w	rosdaoff23(_PduR_MmRom+24)[r18],r29
00000206 fdc760f9        497 	jarl	[r29],lp
                         498 --	    .es
                         499 .LDW44:
                         500 --	    .es
                         501 .LDW54:
                         502 --	    .es
                         503 .LDW64:
                         504 --line560
                         505 ..lin.C.3A.5C_ECU2.5CECU_Rivian_A1.5CTarget.5Crepo_projects.5CpFOTA.5CcL_LATEST.5Cmake.5Cobj.5CSwcServicePduR.26::
                         506 .LDWlin26:
0000020a 40067f00        507 	dispose	0,{r29,r31},[lp]
                         508 .L869:
                         509 --line591
                         510 ..lin.C.3A.5C_ECU2.5CECU_Rivian_A1.5CTarget.5Crepo_projects.5CpFOTA.5CcL_LATEST.5Cmake.5Cobj.5CSwcServicePduR.27::
                         511 .LDWlin27:
0000020e 20363300        512 	movea	51,zero,r6
00000212 003a            513 	mov	0,r7
00000214 2046cf00        514 	movea	207,zero,r8
                         515 	jarl	_Det_ReportError,lp
                         515 <EXPANSION BEGIN>
                         515 jarl22 _Det_ReportError , lp 
00000218 80ff0000*       515 <EXPANSION END>
                         516 --	    .ef
                         517 .LDW74:

                                                                      Page 10
                                                              C:\Users\nhuliyap\AppData\Local\Temp\gh_000097o1.s
                         518 --line599
                         519 ..lin.C.3A.5C_ECU2.5CECU_Rivian_A1.5CTarget.5Crepo_projects.5CpFOTA.5CcL_LATEST.5Cmake.5Cobj.5CSwcServicePduR.28::
                         520 .LDWlin28:
0000021c 40067f00        521 	dispose	0,{r29,r31},[lp]
                         522 	.type	_PduR_LoTpRxIndication,@function
                         523 	.size	_PduR_LoTpRxIndication,.-_PduR_LoTpRxIndication
                         524 	.align	2
                         525 .LDW84:
                         526 --_errorId	r9	local
                         527 --_rmDestRomIdx	r19	local
                         528 
                         529 --_id	r6	param
                         530 --_result	r7	param
                         531 
                         532 	.section ".bss","awb"
                         533 .L932:
                         534 	.type	.L932,@object
                         535 	.size	.L932,0
                         536 	.data
                         537 	.text
                         538 	.align	2
                         539 	.align	2
                         540 ..gh.f.f.1.e.7:
                         541 	.type	..gh.f.f.1.e.7,@object
                         542 	.size	..gh.f.f.1.e.7,0
                         543 	.global	_PduR_LoTpTxConfirmation
                         544 _PduR_LoTpTxConfirmation:
00000220 8600            545 	zxb	r6
00000222 8700            546 	zxb	r7
                         547 --	    .bf
                         548 .LDW94:
00000224 a40705900000*   549 	ld.bu	sdaoff23(_PduR_Initialized)[gp],r18
0000022a 014a            550 	mov	1,r9
0000022c e091            551 	cmp	zero,r18
0000022e f205*           552 	be	.L1002
                         553 --line610
                         554 ..lin.C.3A.5C_ECU2.5CECU_Rivian_A1.5CTarget.5Crepo_projects.5CpFOTA.5CcL_LATEST.5Cmake.5Cobj.5CSwcServicePduR.29::
                         555 .LDWlin29:
00000230 e031            556 	cmp	zero,r6
00000232 024a            557 	mov	2,r9
00000234 ca05*           558 	bne	.L1002
                         559 --line624
                         560 ..lin.C.3A.5C_ECU2.5CECU_Rivian_A1.5CTarget.5Crepo_projects.5CpFOTA.5CcL_LATEST.5Cmake.5Cobj.5CSwcServicePduR.30::
                         561 .LDWlin30:
00000236 0132            562 	mov	1,r6
00000238 80070000*       563 	jr	_PduR_RmTp_MultipleSourceHandler_TpTxConfirmation
                         564 .L1002:
                         565 --line629
                         566 ..lin.C.3A.5C_ECU2.5CECU_Rivian_A1.5CTarget.5Crepo_projects.5CpFOTA.5CcL_LATEST.5Cmake.5Cobj.5CSwcServicePduR.31::
                         567 .LDWlin31:
0000023c 20363300        568 	movea	51,zero,r6
00000240 003a            569 	mov	0,r7
00000242 2046d000        570 	movea	208,zero,r8
00000246 80070000*       571 	jr	_Det_ReportError
                         572 --	    .ef
                         573 .LDW05:
                         574 ..lin.C.3A.5C_ECU2.5CECU_Rivian_A1.5CTarget.5Crepo_projects.5CpFOTA.5CcL_LATEST.5Cmake.5Cobj.5CSwcServicePduR.32::
                         575 .LDWlin32:
                         576 	.type	_PduR_LoTpTxConfirmation,@function
                         577 	.size	_PduR_LoTpTxConfirmation,.-_PduR_LoTpTxConfirmation
                         578 	.align	2

                                                                      Page 11
                                                              C:\Users\nhuliyap\AppData\Local\Temp\gh_000097o1.s
                         579 .LDW15:
                         580 --_errorId	r9	local
                         581 
                         582 --_id	r6	param
                         583 --_result	r7	param
                         584 
                         585 	.section ".bss","awb"
                         586 .L1076:
                         587 	.type	.L1076,@object
                         588 	.size	.L1076,0
                         589 	.data
                         590 	.text
                         591 	.align	2
                         592 	.align	2
                         593 ..gh.f.f.1.e.8:
                         594 	.type	..gh.f.f.1.e.8,@object
                         595 	.size	..gh.f.f.1.e.8,0
                         596 	.global	_PduR_Init
                         597 _PduR_Init:
                         598 --	    .bf
                         599 .LDW25:
0000024a a40705980000*   600 	ld.bu	sdaoff23(_PduR_Initialized)[gp],r19
00000250 014a            601 	mov	1,r9
00000252 e099            602 	cmp	zero,r19
00000254 9a0d*           603 	bne	.L1149
                         604 --line844
                         605 ..lin.C.3A.5C_ECU2.5CECU_Rivian_A1.5CTarget.5Crepo_projects.5CpFOTA.5CcL_LATEST.5Cmake.5Cobj.5CSwcServicePduR.33::
                         606 .LDWlin33:
00000256 e031            607 	cmp	zero,r6
00000258 0b4a            608 	mov	11,r9
0000025a ea05*           609 	bne	.L1149
                         610 --line902
                         611 ..lin.C.3A.5C_ECU2.5CECU_Rivian_A1.5CTarget.5Crepo_projects.5CpFOTA.5CcL_LATEST.5Cmake.5Cobj.5CSwcServicePduR.34::
                         612 .LDWlin34:
0000025c 0192            613 	mov	1,r18
0000025e 84070d900000*   614 	st.b	r18,sdaoff23(_PduR_Initialized)[gp]
                         615 --	    .ef
                         616 .LDW35:
00000264 7f00            617 	jmp	[lp]
                         618 .L1149:
                         619 --line908
                         620 ..lin.C.3A.5C_ECU2.5CECU_Rivian_A1.5CTarget.5Crepo_projects.5CpFOTA.5CcL_LATEST.5Cmake.5Cobj.5CSwcServicePduR.35::
                         621 .LDWlin35:
00000266 003a            622 	mov	0,r7
00000268 20363300        623 	movea	51,zero,r6
0000026c 0740            624 	mov	r7,r8
0000026e 80070000*       625 	jr	_Det_ReportError
                         626 	.type	_PduR_Init,@function
                         627 	.size	_PduR_Init,.-_PduR_Init
                         628 	.align	2
                         629 .LDW45:
                         630 --_errorId	r9	local
                         631 
                         632 --_ConfigPtr	r6	param
                         633 
                         634 	.section ".bss","awb"
                         635 .L1206:
                         636 	.type	.L1206,@object
                         637 	.size	.L1206,0
                         638 	.data
                         639 	.text

                                                                      Page 12
                                                              C:\Users\nhuliyap\AppData\Local\Temp\gh_000097o1.s
                         640 	.align	2
                         641 	.align	2
                         642 ..gh.f.f.1.e.9:
                         643 	.type	..gh.f.f.1.e.9,@object
                         644 	.size	..gh.f.f.1.e.9,0
                         645 	.global	_PduR_Rm_GetSrcDestPdu
                         646 _PduR_Rm_GetSrcDestPdu:
00000272 07f0            647 	mov	r7,ep
                         648 --	    .bf
                         649 .LDW55:
00000274 e6960500        650 	mulhi	5,r6,r18
00000278 0052            651 	mov	0,r10
0000027a c591            652 	add	r5,r18
0000027c b20705900000*   653 	ld.bu	rosdaoff23(_PduR_RmGDestRom+4)[r18],r18
00000282 0195            654 	sst.w	r18,0[ep]
                         655 --	    .ef
                         656 .LDW65:
00000284 7f00            657 	jmp	[lp]
                         658 	.type	_PduR_Rm_GetSrcDestPdu,@function
                         659 	.size	_PduR_Rm_GetSrcDestPdu,.-_PduR_Rm_GetSrcDestPdu
                         660 	.align	2
                         661 .LDW75:
                         662 
                         663 --_rmGDestRomIdx	r6	param
                         664 --_rmDestRomIdx	ep	param
                         665 
                         666 	.section ".bss","awb"
                         667 .L1297:
                         668 	.type	.L1297,@object
                         669 	.size	.L1297,0
                         670 	.data
                         671 	.text
                         672 	.align	2
                         673 	.align	2
                         674 ..gh.f.f.1.e.10:
                         675 	.type	..gh.f.f.1.e.10,@object
                         676 	.size	..gh.f.f.1.e.10,0
                         677 	.global	_PduR_InitMemory
                         678 _PduR_InitMemory:
                         679 --	    .bf
                         680 .LDW85:
00000286 84070d000000*   681 	st.b	zero,sdaoff23(_PduR_Initialized)[gp]
                         682 --	    .ef
                         683 .LDW95:
0000028c 7f00            684 	jmp	[lp]
                         685 	.type	_PduR_InitMemory,@function
                         686 	.size	_PduR_InitMemory,.-_PduR_InitMemory
                         687 	.align	2
                         688 .LDW06:
                         689 
                         690 	.section ".bss","awb"
                         691 .L1345:
                         692 	.type	.L1345,@object
                         693 	.size	.L1345,0
                         694 	.data
                         695 	.text
                         696 	.align	2
                         697 --_PduR_MmRom	rosdaoff23(_PduR_MmRom)	import
                         698 --_PduR_RmDestRom	rosdaoff23(_PduR_RmDestRom)	import
                         699 --_PduR_RmGDestRom	rosdaoff23(_PduR_RmGDestRom)	import
                         700 --_PduR_RmSrcRom	rosdaoff23(_PduR_RmSrcRom)	import

                                                                      Page 13
                                                              C:\Users\nhuliyap\AppData\Local\Temp\gh_000097o1.s
                         701 --_PduR_RmTransmitFctPtr	rosdaoff23(_PduR_RmTransmitFctPtr)	import
                         702 --_PduR_TxIf2Up	rosdaoff23(_PduR_TxIf2Up)	import
                         703 --_PduR_Initialized	sdaoff23(_PduR_Initialized)	import
                         704 
                         705 	.data
                         706 	.ghsnote version,17
                         707 	.ghsnote tools,3
                         708 	.ghsnote options,144
                         709 	.text
                         710 	.align	2
                         711 ..eof.C.3A.5C_ECU2.5CECU_Rivian_A1.5CTarget.5Crepo_projects.5CpFOTA.5CcL_LATEST.5Cmake.5Cobj.5CSwcServicePduR...43.3A.5C_ECU2.5CECU_Rivian_A1.5CTarget.5Crepo_projects.5CpFOTA.5CcL_LATEST.5Cmake..64F86B81..0::
                         712 .rh850_flags REGMODE32,DATA_ALIGN8,GP_FIX,EP_NONFIX,TP_FIX,REG2_RESERVE,G3K,SDA_EXTRA_REGS_0
