                                                                      Page 1
                                                              C:\Users\nhuliyap\AppData\Local\Temp\gh_00005uo1.s
Command Line: C:\GHS\comp_201517\ease850.exe -w -stderr=err/vSecPrim_Hash.err -elf -b0 -I../source/_common -I../source/common -I../source/ecuabcanif -I../source/ecuabcantrcv -I../source/ecuabcryif -I../source/ecuabfee -I../source/ecuabmemif -I../source/libautosar -I../source/mcalcan -I../source/mcalcry -I../source/mcaldio -I../source/mcaleep -I../source/mcalfls -I../source/mcalmcu -I../source/projectara -I../source/projectcfg -I../source/projectcompiler -I../source/swcservicebswm -I../source/swcservicecantp -I../source/swcservicecomm -I../source/swcservicecsm -I../source/swcservicedcm -I../source/swcservicedem -I../source/swcservicedet -I../source/swcserviceecum -I../source/swcservicenvm -I../source/swcserviceos -I../source/swcservicepdur -I../source/swcserviceschm -I../source/swcservicestartup -I../source/wrappers/swcservicesecm -I../source/wrappers/vsecprim -I../source/wrappers/vstdlib -Ic:/ghs/comp_201517/ansi -Ic:/ghs/comp_201517/include/v800 -Igendata -IC:\GHS\comp_201517\lib\rh850 -cg_underscore -cpu=rh850g3k -nofpu -no_v850_simd -rh850_fpsimd=none -nomacro -patch_dbo=C:\_ECU2\ECU_Rivian_A1\Target\repo_projects\pFOTA\cL_LATEST\make\obj\vSecPrim_Hash.dbo -source=vSecPrim_Hash.c -o obj\gh_00005uo1.o -list=lst/vSecPrim_Hash.lst C:\Users\nhuliyap\AppData\Local\Temp\gh_00005uo1.s 
Original File: C:\Users\nhuliyap\AppData\Local\Temp\gh_00005uo1.s
Source File: vSecPrim_Hash.c
Directory: C:\_ECU2\ECU_Rivian_A1\Target\repo_projects\pFOTA\cL_LATEST\make
Host OS: Windows
EASE: Copyright (C) 1983-2015 Green Hills Software.  All Rights Reserved.
Release: Compiler v2015.1.7
Build Directory: [Directory] BTOWORKER6:c:/build_2015_1_bto/2015-10-21.2100-2015_1_bto/win32-comp-ecom
Revision: [VCInfo] http://toolsvc/branches/release-branch-70-bto/src@544153 (built by build)
Revision Date: Thu Oct 22 07:50:13 2015

Release Date: Thu Oct 22 09:32:32 2015

                           1 --Driver Command: ccrh850 -DBRS_DERIVATIVE_701018 -DBRS_OSC_CLK=16
                           2 --		-DBRS_TIMEBASE_CLOCK=80 -DBRS_EVA_BOARD_
                           3 --		-DBRS_DERIVATIVE_GROUP_F1L -DBRS_OS_USECASE_BRS
                           4 --		-DBRS_PLATFORM_RH850 -DBRS_COMP_GHS
                           5 --		-DBRS_CPU_LOCAL_RAM_SIZE_CORE0=32
                           6 --		-DBRS_CPU_RAM_START_CORE0=0xFEDF8000 -list=lst/vSecPrim_Hash.lst
                           7 --		-object_dir=obj -stderr=err/vSecPrim_Hash.err -c -cpu=rh850
                           8 --		-sda=all -large_sda -prepare_dispose -pragma_asm_inline -no_callt
                           9 --		-inline_prologue -notda -reserve_r2 -fsoft
                          10 --		--unknown_pragma_warnings -list -g -Ogeneral -shortenum
                          11 --		-registermode=32 -I../source/_common -I../source/common
                          12 --		-I../source/ecuabcanif -I../source/ecuabcantrcv
                          13 --		-I../source/ecuabcryif -I../source/ecuabfee
                          14 --		-I../source/ecuabmemif -I../source/libautosar -I../source/mcalcan
                          15 --		-I../source/mcalcry -I../source/mcaldio -I../source/mcaleep
                          16 --		-I../source/mcalfls -I../source/mcalmcu -I../source/projectara
                          17 --		-I../source/projectcfg -I../source/projectcompiler
                          18 --		-I../source/swcservicebswm -I../source/swcservicecantp
                          19 --		-I../source/swcservicecomm -I../source/swcservicecsm
                          20 --		-I../source/swcservicedcm -I../source/swcservicedem
                          21 --		-I../source/swcservicedet -I../source/swcserviceecum
                          22 --		-I../source/swcservicenvm -I../source/swcserviceos
                          23 --		-I../source/swcservicepdur -I../source/swcserviceschm
                          24 --		-I../source/swcservicestartup -I../source/wrappers/swcservicesecm
                          25 --		-I../source/wrappers/vsecprim -I../source/wrappers/vstdlib
                          26 --		-Ic:/ghs/comp_201517/ansi -Ic:/ghs/comp_201517/include/v800
                          27 --		-Igendata ../source/wrappers/vSecPrim/vSecPrim_Hash.c
                          28 --Source File:   ../source/wrappers/vSecPrim/vSecPrim_Hash.c
                          29 --Directory:     
                          30 --		C:\_ECU2\ECU_Rivian_A1\Target\repo_projects\pFOTA\cL_LATEST\make
                          31 --Compile Date:  Wed Sep 06 14:09:44 2023
                          32 --Host OS:       Win32
                          33 --Version:       C-RH850 2015.1.7 RELEASE VERSION
                          34 --Release:       Compiler v2015.1.7
                          35 --Revision Date: Thu Oct 22 08:06:12 2015
                          36 --Release Date:  Thu Oct 22 09:34:32 2015
                          37 -- ecom  -g -w -OM
                          38 	.section ".MSR_CODE","ax"
                          39 	.align	2
                          40 ..bof.C.3A.5C_ECU2.5CECU_Rivian_A1.5CTarget.5Crepo_projects.5CpFOTA.5CcL_LATEST.5Cmake.5Cobj.5CvSecPrim_Hash...43.3A.5C_ECU2.5CECU_Rivian_A1.5CTarget.5Crepo_projects.5CpFOTA.5CcL_LATEST.5Cmake..64F86C08..0::
                          41 	.align	2
                          42 ..gh.f.f.1.e.0:
                          43 	.type	..gh.f.f.1.e.0,@object
                          44 	.size	..gh.f.f.1.e.0,0
                          45 	.global	_vSecPrim_switchHashIDInit..C.3A.5C_ECU2.5CECU_Rivian_A1.5CTarget.5Crepo_projects.5CpFOTA.5CcL_LATEST.5Cmake.5Cobj.5CvSecPrim_Hash.
                          46 _vSecPrim_switchHashIDInit..C.3A.5C_ECU2.5CECU_Rivian_A1.5CTarget.5Crepo_projects.5CpFOTA.5CcL_LATEST.5Cmake.5Cobj.5CvSecPrim_Hash.:
                          47 _vSecPrim_switchHashIDInit:
00000000 8007e100         48 	prepare	{r28,r29,r31},0
00000004 06e8             49 	mov	r6,r29
00000006 8700             50 	zxb	r7

                                                                      Page 2
                                                              C:\Users\nhuliyap\AppData\Local\Temp\gh_00005uo1.s
                          51 --	    .bf
                          52 .LDW01:
00000008 00e2             53 	mov	0,r28
0000000a 633a             54 	cmp	3,r7
0000000c c115*            55 	bl	.L10
0000000e e215*            56 	be	.L6
00000010 653a             57 	cmp	5,r7
00000012 9125*            58 	bl	.L7
00000014 d22d*            59 	be	.L8
00000016 663a             60 	cmp	6,r7
00000018 ea0d*            61 	bne	.L10
                          62 --line121
                          63 ..lin.C.3A.5C_ECU2.5CECU_Rivian_A1.5CTarget.5Crepo_projects.5CpFOTA.5CcL_LATEST.5Cmake.5Cobj.5CvSecPrim_Hash.1::
                          64 .LDWlin1:
0000001a 3d470900         65 	ld.w	8[r29],r8
0000001e 06361000         66 	addi	16,r6,r6
00000022 203ed800         67 	movea	216,zero,r7
                          68 	jarl	_esl_initWorkSpaceHeader,lp
                          68 <EXPANSION BEGIN>
                          68 jarl22 _esl_initWorkSpaceHeader , lp 
00000026 80ff0000*        68 <EXPANSION END>
                          69 --line123
                          70 ..lin.C.3A.5C_ECU2.5CECU_Rivian_A1.5CTarget.5Crepo_projects.5CpFOTA.5CcL_LATEST.5Cmake.5Cobj.5CvSecPrim_Hash.2::
                          71 .LDWlin2:
0000002a 1d361000         72 	addi	16,r29,r6
                          73 	jarl	_esl_initSHA512_256,lp
                          73 <EXPANSION BEGIN>
                          73 jarl22 _esl_initSHA512_256 , lp 
0000002e 80ff0000*        73 <EXPANSION END>
                          74 --line124
                          75 ..lin.C.3A.5C_ECU2.5CECU_Rivian_A1.5CTarget.5Crepo_projects.5CpFOTA.5CcL_LATEST.5Cmake.5Cobj.5CvSecPrim_Hash.3::
                          76 .LDWlin3:
00000032 a52d*            77 	br	.L4
                          78 .L10:
                          79 --line166
                          80 ..lin.C.3A.5C_ECU2.5CECU_Rivian_A1.5CTarget.5Crepo_projects.5CpFOTA.5CcL_LATEST.5Cmake.5Cobj.5CvSecPrim_Hash.4::
                          81 .LDWlin4:
00000034 20e60820         82 	movea	8200,zero,r28
00000038 f525*            83 	br	.L4
                          84 .L6:
                          85 --line100
                          86 ..lin.C.3A.5C_ECU2.5CECU_Rivian_A1.5CTarget.5Crepo_projects.5CpFOTA.5CcL_LATEST.5Cmake.5Cobj.5CvSecPrim_Hash.5::
                          87 .LDWlin5:
0000003a 3d470900         88 	ld.w	8[r29],r8
0000003e 06361000         89 	addi	16,r6,r6
00000042 203ed800         90 	movea	216,zero,r7
                          91 	jarl	_esl_initWorkSpaceHeader,lp
                          91 <EXPANSION BEGIN>
                          91 jarl22 _esl_initWorkSpaceHeader , lp 
00000046 80ff0000*        91 <EXPANSION END>
                          92 --line102
                          93 ..lin.C.3A.5C_ECU2.5CECU_Rivian_A1.5CTarget.5Crepo_projects.5CpFOTA.5CcL_LATEST.5Cmake.5Cobj.5CvSecPrim_Hash.6::
                          94 .LDWlin6:
0000004a 1d361000         95 	addi	16,r29,r6
                          96 	jarl	_esl_initSHA384,lp
                          96 <EXPANSION BEGIN>
                          96 jarl22 _esl_initSHA384 , lp 
0000004e 80ff0000*        96 <EXPANSION END>
                          97 --line103
                          98 ..lin.C.3A.5C_ECU2.5CECU_Rivian_A1.5CTarget.5Crepo_projects.5CpFOTA.5CcL_LATEST.5Cmake.5Cobj.5CvSecPrim_Hash.7::
                          99 .LDWlin7:

                                                                      Page 3
                                                              C:\Users\nhuliyap\AppData\Local\Temp\gh_00005uo1.s
00000052 a51d*           100 	br	.L4
                         101 .L7:
                         102 --line107
                         103 ..lin.C.3A.5C_ECU2.5CECU_Rivian_A1.5CTarget.5Crepo_projects.5CpFOTA.5CcL_LATEST.5Cmake.5Cobj.5CvSecPrim_Hash.8::
                         104 .LDWlin8:
00000054 3d470900        105 	ld.w	8[r29],r8
00000058 06361000        106 	addi	16,r6,r6
0000005c 203ed800        107 	movea	216,zero,r7
                         108 	jarl	_esl_initWorkSpaceHeader,lp
                         108 <EXPANSION BEGIN>
                         108 jarl22 _esl_initWorkSpaceHeader , lp 
00000060 80ff0000*       108 <EXPANSION END>
                         109 --line109
                         110 ..lin.C.3A.5C_ECU2.5CECU_Rivian_A1.5CTarget.5Crepo_projects.5CpFOTA.5CcL_LATEST.5Cmake.5Cobj.5CvSecPrim_Hash.9::
                         111 .LDWlin9:
00000064 1d361000        112 	addi	16,r29,r6
                         113 	jarl	_esl_initSHA512,lp
                         113 <EXPANSION BEGIN>
                         113 jarl22 _esl_initSHA512 , lp 
00000068 80ff0000*       113 <EXPANSION END>
                         114 --line110
                         115 ..lin.C.3A.5C_ECU2.5CECU_Rivian_A1.5CTarget.5Crepo_projects.5CpFOTA.5CcL_LATEST.5Cmake.5Cobj.5CvSecPrim_Hash.10::
                         116 .LDWlin10:
0000006c d50d*           117 	br	.L4
                         118 .L8:
                         119 --line114
                         120 ..lin.C.3A.5C_ECU2.5CECU_Rivian_A1.5CTarget.5Crepo_projects.5CpFOTA.5CcL_LATEST.5Cmake.5Cobj.5CvSecPrim_Hash.11::
                         121 .LDWlin11:
0000006e 3d470900        122 	ld.w	8[r29],r8
00000072 06361000        123 	addi	16,r6,r6
00000076 203ed800        124 	movea	216,zero,r7
                         125 	jarl	_esl_initWorkSpaceHeader,lp
                         125 <EXPANSION BEGIN>
                         125 jarl22 _esl_initWorkSpaceHeader , lp 
0000007a 80ff0000*       125 <EXPANSION END>
                         126 --line116
                         127 ..lin.C.3A.5C_ECU2.5CECU_Rivian_A1.5CTarget.5Crepo_projects.5CpFOTA.5CcL_LATEST.5Cmake.5Cobj.5CvSecPrim_Hash.12::
                         128 .LDWlin12:
0000007e 1d361000        129 	addi	16,r29,r6
                         130 	jarl	_esl_initSHA512_224,lp
                         130 <EXPANSION BEGIN>
                         130 jarl22 _esl_initSHA512_224 , lp 
00000082 80ff0000*       130 <EXPANSION END>
                         131 .L4:
                         132 --line170
                         133 ..lin.C.3A.5C_ECU2.5CECU_Rivian_A1.5CTarget.5Crepo_projects.5CpFOTA.5CcL_LATEST.5Cmake.5Cobj.5CvSecPrim_Hash.13::
                         134 .LDWlin13:
00000086 1c50            135 	mov	r28,r10
                         136 --	    .ef
                         137 .LDW11:
00000088 4006ff00        138 	dispose	0,{r28,r29,r31},[lp]
                         139 	.type	_vSecPrim_switchHashIDInit,@function
                         140 	.size	_vSecPrim_switchHashIDInit,.-_vSecPrim_switchHashIDInit
                         141 	.type	_vSecPrim_switchHashIDInit..C.3A.5C_ECU2.5CECU_Rivian_A1.5CTarget.5Crepo_projects.5CpFOTA.5CcL_LATEST.5Cmake.5Cobj.5CvSecPrim_Hash.,@function
                         142 	.size	_vSecPrim_switchHashIDInit..C.3A.5C_ECU2.5CECU_Rivian_A1.5CTarget.5Crepo_projects.5CpFOTA.5CcL_LATEST.5Cmake.5Cobj.5CvSecPrim_Hash.,.-_vSecPrim_switchHashIDInit..C.3A.5C_ECU2.5CECU_Rivian_A1.5CTarget.5Crepo_projects.5CpFOTA.5CcL_LATEST.5Cmake.5Cobj.5CvSecPrim_Hash.
                         143 	.align	2
                         144 .LDW21:
                         145 --_retVal	r28	local
                         146 
                         147 --_workSpace	r29	param
                         148 --_hashID	r7	param

                                                                      Page 4
                                                              C:\Users\nhuliyap\AppData\Local\Temp\gh_00005uo1.s
                         149 
                         150 	.section ".bss","awb"
                         151 .L72:
                         152 	.type	.L72,@object
                         153 	.size	.L72,0
                         154 	.data
                         155 	.section ".MSR_CODE","ax"
                         156 	.align	2
                         157 	.align	2
                         158 ..gh.f.f.1.e.1:
                         159 	.type	..gh.f.f.1.e.1,@object
                         160 	.size	..gh.f.f.1.e.1,0
                         161 	.global	_vSecPrim_updateHashMapReturnValue..C.3A.5C_ECU2.5CECU_Rivian_A1.5CTarget.5Crepo_projects.5CpFOTA.5CcL_LATEST.5Cmake.5Cobj.5CvSecPrim_Hash.
                         162 _vSecPrim_updateHashMapReturnValue..C.3A.5C_ECU2.5CECU_Rivian_A1.5CTarget.5Crepo_projects.5CpFOTA.5CcL_LATEST.5Cmake.5Cobj.5CvSecPrim_Hash.:
                         163 _vSecPrim_updateHashMapReturnValue:
0000008c 06f0            164 	mov	r6,ep
0000008e c700            165 	zxh	r7
                         166 --	    .bf
                         167 .LDW31:
00000090 7030            168 	sld.hu	0[ep],r6
00000092 e731            169 	cmp	r7,r6
00000094 ca05*           170 	bne	.L173
                         171 --line397
                         172 ..lin.C.3A.5C_ECU2.5CECU_Rivian_A1.5CTarget.5Crepo_projects.5CpFOTA.5CcL_LATEST.5Cmake.5Cobj.5CvSecPrim_Hash.14::
                         173 .LDWlin14:
00000096 209e2c20        174 	movea	8236,zero,r19
0000009a 809c            175 	sst.h	r19,0[ep]
                         176 .L173:
                         177 --	    .ef
                         178 .LDW41:
0000009c 7f00            179 	jmp	[lp]
                         180 	.type	_vSecPrim_updateHashMapReturnValue,@function
                         181 	.size	_vSecPrim_updateHashMapReturnValue,.-_vSecPrim_updateHashMapReturnValue
                         182 	.type	_vSecPrim_updateHashMapReturnValue..C.3A.5C_ECU2.5CECU_Rivian_A1.5CTarget.5Crepo_projects.5CpFOTA.5CcL_LATEST.5Cmake.5Cobj.5CvSecPrim_Hash.,@function
                         183 	.size	_vSecPrim_updateHashMapReturnValue..C.3A.5C_ECU2.5CECU_Rivian_A1.5CTarget.5Crepo_projects.5CpFOTA.5CcL_LATEST.5Cmake.5Cobj.5CvSecPrim_Hash.,.-_vSecPrim_updateHashMapReturnValue..C.3A.5C_ECU2.5CECU_Rivian_A1.5CTarget.5Crepo_projects.5CpFOTA.5CcL_LATEST.5Cmake.5Cobj.5CvSecPrim_Hash.
                         184 	.align	2
                         185 .LDW51:
                         186 
                         187 --_retVal	ep	param
                         188 --_referenceRetVal	r7	param
                         189 
                         190 	.section ".bss","awb"
                         191 .L198:
                         192 	.type	.L198,@object
                         193 	.size	.L198,0
                         194 	.data
                         195 	.section ".MSR_CODE","ax"
                         196 	.align	2
                         197 	.align	2
                         198 ..gh.f.f.1.e.2:
                         199 	.type	..gh.f.f.1.e.2,@object
                         200 	.size	..gh.f.f.1.e.2,0
                         201 	.global	_vSecPrim_switchHashIDUpdate..C.3A.5C_ECU2.5CECU_Rivian_A1.5CTarget.5Crepo_projects.5CpFOTA.5CcL_LATEST.5Cmake.5Cobj.5CvSecPrim_Hash.
                         202 _vSecPrim_switchHashIDUpdate..C.3A.5C_ECU2.5CECU_Rivian_A1.5CTarget.5Crepo_projects.5CpFOTA.5CcL_LATEST.5Cmake.5Cobj.5CvSecPrim_Hash.:
                         203 _vSecPrim_switchHashIDUpdate:
0000009e 82072100        204 	prepare	{r31},1
000000a2 06f0            205 	mov	r6,ep
                         206 --	    .bf
                         207 .LDW61:
000000a4 86373b01        208 	ld.bu	314[r6],r6
000000a8 6332            209 	cmp	3,r6

                                                                      Page 5
                                                              C:\Users\nhuliyap\AppData\Local\Temp\gh_00005uo1.s
000000aa e10d*           210 	bl	.L239
000000ac a215*           211 	be	.L235
000000ae 6532            212 	cmp	5,r6
000000b0 d11d*           213 	bl	.L236
000000b2 b225*           214 	be	.L237
000000b4 6632            215 	cmp	6,r6
000000b6 8a0d*           216 	bne	.L239
                         217 --line214
                         218 ..lin.C.3A.5C_ECU2.5CECU_Rivian_A1.5CTarget.5Crepo_projects.5CpFOTA.5CcL_LATEST.5Cmake.5Cobj.5CvSecPrim_Hash.15::
                         219 .LDWlin15:
000000b8 1e361000        220 	addi	16,ep,r6
                         221 	jarl	_esl_updateSHA512_256,lp
                         221 <EXPANSION BEGIN>
                         221 jarl22 _esl_updateSHA512_256 , lp 
000000bc 80ff0000*       221 <EXPANSION END>
000000c0 63570200        222 	st.h	r10,2[sp]
                         223 --line215
                         224 ..lin.C.3A.5C_ECU2.5CECU_Rivian_A1.5CTarget.5Crepo_projects.5CpFOTA.5CcL_LATEST.5Cmake.5Cobj.5CvSecPrim_Hash.16::
                         225 .LDWlin16:
000000c4 8525*           226 	br	.L233
                         227 .L239:
                         228 --line247
                         229 ..lin.C.3A.5C_ECU2.5CECU_Rivian_A1.5CTarget.5Crepo_projects.5CpFOTA.5CcL_LATEST.5Cmake.5Cobj.5CvSecPrim_Hash.17::
                         230 .LDWlin17:
000000c6 209e0820        231 	movea	8200,zero,r19
000000ca 639f0200        232 	st.h	r19,2[sp]
000000ce b51d*           233 	br	.L233
                         234 .L235:
                         235 --line201
                         236 ..lin.C.3A.5C_ECU2.5CECU_Rivian_A1.5CTarget.5Crepo_projects.5CpFOTA.5CcL_LATEST.5Cmake.5Cobj.5CvSecPrim_Hash.18::
                         237 .LDWlin18:
000000d0 1e361000        238 	addi	16,ep,r6
                         239 	jarl	_esl_updateSHA384,lp
                         239 <EXPANSION BEGIN>
                         239 jarl22 _esl_updateSHA384 , lp 
000000d4 80ff0000*       239 <EXPANSION END>
000000d8 63570200        240 	st.h	r10,2[sp]
                         241 --line202
                         242 ..lin.C.3A.5C_ECU2.5CECU_Rivian_A1.5CTarget.5Crepo_projects.5CpFOTA.5CcL_LATEST.5Cmake.5Cobj.5CvSecPrim_Hash.19::
                         243 .LDWlin19:
000000dc 23360200        244 	movea	2,sp,r6
000000e0 203e2c20        245 	movea	8236,zero,r7
                         246 	jarl	_vSecPrim_updateHashMapReturnValue,lp
                         246 <EXPANSION BEGIN>
                         246 jarl22 _vSecPrim_updateHashMapReturnValue , lp 
000000e4 bfffa8ff*       246 <EXPANSION END>
                         247 --line203
                         248 ..lin.C.3A.5C_ECU2.5CECU_Rivian_A1.5CTarget.5Crepo_projects.5CpFOTA.5CcL_LATEST.5Cmake.5Cobj.5CvSecPrim_Hash.20::
                         249 .LDWlin20:
000000e8 e50d*           250 	br	.L233
                         251 .L236:
                         252 --line206
                         253 ..lin.C.3A.5C_ECU2.5CECU_Rivian_A1.5CTarget.5Crepo_projects.5CpFOTA.5CcL_LATEST.5Cmake.5Cobj.5CvSecPrim_Hash.21::
                         254 .LDWlin21:
000000ea 1e361000        255 	addi	16,ep,r6
                         256 	jarl	_esl_updateSHA512,lp
                         256 <EXPANSION BEGIN>
                         256 jarl22 _esl_updateSHA512 , lp 
000000ee 80ff0000*       256 <EXPANSION END>
000000f2 63570200        257 	st.h	r10,2[sp]
                         258 --line207

                                                                      Page 6
                                                              C:\Users\nhuliyap\AppData\Local\Temp\gh_00005uo1.s
                         259 ..lin.C.3A.5C_ECU2.5CECU_Rivian_A1.5CTarget.5Crepo_projects.5CpFOTA.5CcL_LATEST.5Cmake.5Cobj.5CvSecPrim_Hash.22::
                         260 .LDWlin22:
000000f6 f505*           261 	br	.L233
                         262 .L237:
                         263 --line210
                         264 ..lin.C.3A.5C_ECU2.5CECU_Rivian_A1.5CTarget.5Crepo_projects.5CpFOTA.5CcL_LATEST.5Cmake.5Cobj.5CvSecPrim_Hash.23::
                         265 .LDWlin23:
000000f8 1e361000        266 	addi	16,ep,r6
                         267 	jarl	_esl_updateSHA512_224,lp
                         267 <EXPANSION BEGIN>
                         267 jarl22 _esl_updateSHA512_224 , lp 
000000fc 80ff0000*       267 <EXPANSION END>
00000100 63570200        268 	st.h	r10,2[sp]
                         269 .L233:
                         270 --line252
                         271 ..lin.C.3A.5C_ECU2.5CECU_Rivian_A1.5CTarget.5Crepo_projects.5CpFOTA.5CcL_LATEST.5Cmake.5Cobj.5CvSecPrim_Hash.24::
                         272 .LDWlin24:
00000104 e3570300        273 	ld.hu	2[sp],r10
                         274 --	    .ef
                         275 .LDW71:
00000108 42063f00        276 	dispose	1,{r31},[lp]
                         277 	.type	_vSecPrim_switchHashIDUpdate,@function
                         278 	.size	_vSecPrim_switchHashIDUpdate,.-_vSecPrim_switchHashIDUpdate
                         279 	.type	_vSecPrim_switchHashIDUpdate..C.3A.5C_ECU2.5CECU_Rivian_A1.5CTarget.5Crepo_projects.5CpFOTA.5CcL_LATEST.5Cmake.5Cobj.5CvSecPrim_Hash.,@function
                         280 	.size	_vSecPrim_switchHashIDUpdate..C.3A.5C_ECU2.5CECU_Rivian_A1.5CTarget.5Crepo_projects.5CpFOTA.5CcL_LATEST.5Cmake.5Cobj.5CvSecPrim_Hash.,.-_vSecPrim_switchHashIDUpdate..C.3A.5C_ECU2.5CECU_Rivian_A1.5CTarget.5Crepo_projects.5CpFOTA.5CcL_LATEST.5Cmake.5Cobj.5CvSecPrim_Hash.
                         281 	.align	2
                         282 .LDW81:
                         283 --_retVal	2[sp]	local
                         284 
                         285 --_workSpace	ep	param
                         286 --_inputLength	r7	param
                         287 --_input	r8	param
                         288 
                         289 	.section ".bss","awb"
                         290 .L296:
                         291 	.type	.L296,@object
                         292 	.size	.L296,0
                         293 	.data
                         294 	.section ".MSR_CODE","ax"
                         295 	.align	2
                         296 	.align	2
                         297 ..gh.f.f.1.e.3:
                         298 	.type	..gh.f.f.1.e.3,@object
                         299 	.size	..gh.f.f.1.e.3,0
                         300 	.global	_vSecPrim_finalizeHashLengthCheck..C.3A.5C_ECU2.5CECU_Rivian_A1.5CTarget.5Crepo_projects.5CpFOTA.5CcL_LATEST.5Cmake.5Cobj.5CvSecPrim_Hash.
                         301 _vSecPrim_finalizeHashLengthCheck..C.3A.5C_ECU2.5CECU_Rivian_A1.5CTarget.5Crepo_projects.5CpFOTA.5CcL_LATEST.5Cmake.5Cobj.5CvSecPrim_Hash.:
                         302 _vSecPrim_finalizeHashLengthCheck:
0000010c 07f0            303 	mov	r7,ep
0000010e 0998            304 	mov	r9,r19
                         305 --	    .bf
                         306 .LDW91:
00000110 49070000        307 	st.b	zero,0[r9]
00000114 e64ff900        308 	ld.hu	248[r6],r9
00000118 614a            309 	cmp	1,r9
0000011a fa05*           310 	bne	.L399
0000011c 0095            311 	sld.w	0[ep],r18
0000011e e891            312 	cmp	r8,r18
00000120 c20d*           313 	be	.L403
                         314 --line411
                         315 ..lin.C.3A.5C_ECU2.5CECU_Rivian_A1.5CTarget.5Crepo_projects.5CpFOTA.5CcL_LATEST.5Cmake.5Cobj.5CvSecPrim_Hash.25::
                         316 .LDWlin25:

                                                                      Page 7
                                                              C:\Users\nhuliyap\AppData\Local\Temp\gh_00005uo1.s
00000122 20560820        317 	movea	8200,zero,r10
00000126 7f00            318 	jmp	[lp]
                         319 .L399:
                         320 --line414
                         321 ..lin.C.3A.5C_ECU2.5CECU_Rivian_A1.5CTarget.5Crepo_projects.5CpFOTA.5CcL_LATEST.5Cmake.5Cobj.5CvSecPrim_Hash.26::
                         322 .LDWlin26:
00000128 624a            323 	cmp	2,r9
0000012a fa05*           324 	bne	.L403
0000012c 008d            325 	sld.w	0[ep],r17
0000012e e889            326 	cmp	r8,r17
00000130 c905*           327 	bnl	.L403
                         328 --line416
                         329 ..lin.C.3A.5C_ECU2.5CECU_Rivian_A1.5CTarget.5Crepo_projects.5CpFOTA.5CcL_LATEST.5Cmake.5Cobj.5CvSecPrim_Hash.27::
                         330 .LDWlin27:
00000132 20560720        331 	movea	8199,zero,r10
00000136 7f00            332 	jmp	[lp]
                         333 .L403:
                         334 --line419
                         335 ..lin.C.3A.5C_ECU2.5CECU_Rivian_A1.5CTarget.5Crepo_projects.5CpFOTA.5CcL_LATEST.5Cmake.5Cobj.5CvSecPrim_Hash.28::
                         336 .LDWlin28:
00000138 0095            337 	sld.w	0[ep],r18
0000013a f241            338 	cmp	r18,r8
0000013c f247323b        339 	cmovnl	r18,r8,r7
00000140 013d            340 	sst.w	r7,0[ep]
00000142 e839            341 	cmp	r8,r7
00000144 c905*           342 	bnl	.L407
                         343 --line422
                         344 ..lin.C.3A.5C_ECU2.5CECU_Rivian_A1.5CTarget.5Crepo_projects.5CpFOTA.5CcL_LATEST.5Cmake.5Cobj.5CvSecPrim_Hash.29::
                         345 .LDWlin29:
00000146 0182            346 	mov	1,r16
00000148 53870000        347 	st.b	r16,0[r19]
                         348 .L407:
0000014c 0052            349 	mov	0,r10
                         350 --	    .ef
                         351 .LDW02:
0000014e 7f00            352 	jmp	[lp]
                         353 	.type	_vSecPrim_finalizeHashLengthCheck,@function
                         354 	.size	_vSecPrim_finalizeHashLengthCheck,.-_vSecPrim_finalizeHashLengthCheck
                         355 	.type	_vSecPrim_finalizeHashLengthCheck..C.3A.5C_ECU2.5CECU_Rivian_A1.5CTarget.5Crepo_projects.5CpFOTA.5CcL_LATEST.5Cmake.5Cobj.5CvSecPrim_Hash.,@function
                         356 	.size	_vSecPrim_finalizeHashLengthCheck..C.3A.5C_ECU2.5CECU_Rivian_A1.5CTarget.5Crepo_projects.5CpFOTA.5CcL_LATEST.5Cmake.5Cobj.5CvSecPrim_Hash.,.-_vSecPrim_finalizeHashLengthCheck..C.3A.5C_ECU2.5CECU_Rivian_A1.5CTarget.5Crepo_projects.5CpFOTA.5CcL_LATEST.5Cmake.5Cobj.5CvSecPrim_Hash.
                         357 	.align	2
                         358 .LDW12:
                         359 --_retVal	r10	local
                         360 
                         361 --_workSpace	r6	param
                         362 --_messageDigestLength	ep	param
                         363 --_maxDigestLength	r8	param
                         364 --_truncateDigest	r19	param
                         365 
                         366 	.section ".bss","awb"
                         367 .L502:
                         368 	.type	.L502,@object
                         369 	.size	.L502,0
                         370 	.data
                         371 	.section ".MSR_CODE","ax"
                         372 	.align	2
                         373 	.align	2
                         374 ..gh.f.f.1.e.4:
                         375 	.type	..gh.f.f.1.e.4,@object
                         376 	.size	..gh.f.f.1.e.4,0
                         377 	.global	_vSecPrim_finalizeHashWithLengthHandling..C.3A.5C_ECU2.5CECU_Rivian_A1.5CTarget.5Crepo_projects.5CpFOTA.5CcL_LATEST.5Cmake.5Cobj.5CvSecPrim_Hash.

                                                                      Page 8
                                                              C:\Users\nhuliyap\AppData\Local\Temp\gh_00005uo1.s
                         378 _vSecPrim_finalizeHashWithLengthHandling..C.3A.5C_ECU2.5CECU_Rivian_A1.5CTarget.5Crepo_projects.5CpFOTA.5CcL_LATEST.5Cmake.5Cobj.5CvSecPrim_Hash.:
                         379 _vSecPrim_finalizeHashWithLengthHandling:
00000150 8407a170        380 	prepare	{r25,r26,r27,r28,r31},2
00000154 07d0            381 	mov	r7,r26
00000156 08c8            382 	mov	r8,r25
                         383 --	    .bf
                         384 .LDW22:
00000158 0940            385 	mov	r9,r8
0000015a 234e0300        386 	movea	3,sp,r9
                         387 	jarl	_vSecPrim_finalizeHashLengthCheck,lp
                         387 <EXPANSION BEGIN>
                         387 jarl22 _vSecPrim_finalizeHashLengthCheck , lp 
0000015e bfffaeff*       387 <EXPANSION END>
                         388 --line324
                         389 ..lin.C.3A.5C_ECU2.5CECU_Rivian_A1.5CTarget.5Crepo_projects.5CpFOTA.5CcL_LATEST.5Cmake.5Cobj.5CvSecPrim_Hash.30::
                         390 .LDWlin30:
00000162 a3470300        391 	ld.bu	3[sp],r8
00000166 0ad8            392 	mov	r10,r27
00000168 6142            393 	cmp	1,r8
0000016a ca05*           394 	bne	.L603
                         395 --line325
                         396 ..lin.C.3A.5C_ECU2.5CECU_Rivian_A1.5CTarget.5Crepo_projects.5CpFOTA.5CcL_LATEST.5Cmake.5Cobj.5CvSecPrim_Hash.31::
                         397 .LDWlin31:
0000016c 06e6fa00        398 	addi	250,r6,r28
00000170 a505*           399 	br	.L605
                         400 .L603:
                         401 --line328
                         402 ..lin.C.3A.5C_ECU2.5CECU_Rivian_A1.5CTarget.5Crepo_projects.5CpFOTA.5CcL_LATEST.5Cmake.5Cobj.5CvSecPrim_Hash.32::
                         403 .LDWlin32:
00000172 19e0            404 	mov	r25,r28
                         405 .L605:
00000174 e051            406 	cmp	zero,r10
00000176 aa35*           407 	bne	.L606
                         408 --line332
                         409 ..lin.C.3A.5C_ECU2.5CECU_Rivian_A1.5CTarget.5Crepo_projects.5CpFOTA.5CcL_LATEST.5Cmake.5Cobj.5CvSecPrim_Hash.33::
                         410 .LDWlin33:
00000178 86973b01        411 	ld.bu	314[r6],r18
0000017c 6392            412 	cmp	3,r18
0000017e f105*           413 	bl	.L614
00000180 920d*           414 	be	.L610
00000182 6592            415 	cmp	5,r18
00000184 d10d*           416 	bl	.L611
00000186 a215*           417 	be	.L612
00000188 6692            418 	cmp	6,r18
0000018a e215*           419 	be	.L613
                         420 .L614:
                         421 --line381
                         422 ..lin.C.3A.5C_ECU2.5CECU_Rivian_A1.5CTarget.5Crepo_projects.5CpFOTA.5CcL_LATEST.5Cmake.5Cobj.5CvSecPrim_Hash.34::
                         423 .LDWlin34:
0000018c 20de0820        424 	movea	8200,zero,r27
00000190 d525*           425 	br	.L606
                         426 .L610:
                         427 --line352
                         428 ..lin.C.3A.5C_ECU2.5CECU_Rivian_A1.5CTarget.5Crepo_projects.5CpFOTA.5CcL_LATEST.5Cmake.5Cobj.5CvSecPrim_Hash.35::
                         429 .LDWlin35:
00000192 06361000        430 	addi	16,r6,r6
00000196 1c38            431 	mov	r28,r7
                         432 	jarl	_esl_finalizeSHA384,lp
                         432 <EXPANSION BEGIN>
                         432 jarl22 _esl_finalizeSHA384 , lp 
00000198 80ff0000*       432 <EXPANSION END>

                                                                      Page 9
                                                              C:\Users\nhuliyap\AppData\Local\Temp\gh_00005uo1.s
                         433 --line353
                         434 ..lin.C.3A.5C_ECU2.5CECU_Rivian_A1.5CTarget.5Crepo_projects.5CpFOTA.5CcL_LATEST.5Cmake.5Cobj.5CvSecPrim_Hash.36::
                         435 .LDWlin36:
0000019c a515*           436 	br	.L608
                         437 .L611:
                         438 --line356
                         439 ..lin.C.3A.5C_ECU2.5CECU_Rivian_A1.5CTarget.5Crepo_projects.5CpFOTA.5CcL_LATEST.5Cmake.5Cobj.5CvSecPrim_Hash.37::
                         440 .LDWlin37:
0000019e 06361000        441 	addi	16,r6,r6
000001a2 1c38            442 	mov	r28,r7
                         443 	jarl	_esl_finalizeSHA512,lp
                         443 <EXPANSION BEGIN>
                         443 jarl22 _esl_finalizeSHA512 , lp 
000001a4 80ff0000*       443 <EXPANSION END>
                         444 --line357
                         445 ..lin.C.3A.5C_ECU2.5CECU_Rivian_A1.5CTarget.5Crepo_projects.5CpFOTA.5CcL_LATEST.5Cmake.5Cobj.5CvSecPrim_Hash.38::
                         446 .LDWlin38:
000001a8 c50d*           447 	br	.L608
                         448 .L612:
                         449 --line360
                         450 ..lin.C.3A.5C_ECU2.5CECU_Rivian_A1.5CTarget.5Crepo_projects.5CpFOTA.5CcL_LATEST.5Cmake.5Cobj.5CvSecPrim_Hash.39::
                         451 .LDWlin39:
000001aa 06361000        452 	addi	16,r6,r6
000001ae 1c38            453 	mov	r28,r7
                         454 	jarl	_esl_finalizeSHA512_224,lp
                         454 <EXPANSION BEGIN>
                         454 jarl22 _esl_finalizeSHA512_224 , lp 
000001b0 80ff0000*       454 <EXPANSION END>
                         455 --line361
                         456 ..lin.C.3A.5C_ECU2.5CECU_Rivian_A1.5CTarget.5Crepo_projects.5CpFOTA.5CcL_LATEST.5Cmake.5Cobj.5CvSecPrim_Hash.40::
                         457 .LDWlin40:
000001b4 e505*           458 	br	.L608
                         459 .L613:
                         460 --line364
                         461 ..lin.C.3A.5C_ECU2.5CECU_Rivian_A1.5CTarget.5Crepo_projects.5CpFOTA.5CcL_LATEST.5Cmake.5Cobj.5CvSecPrim_Hash.41::
                         462 .LDWlin41:
000001b6 06361000        463 	addi	16,r6,r6
000001ba 1c38            464 	mov	r28,r7
                         465 	jarl	_esl_finalizeSHA512_256,lp
                         465 <EXPANSION BEGIN>
                         465 jarl22 _esl_finalizeSHA512_256 , lp 
000001bc 80ff0000*       465 <EXPANSION END>
                         466 .L608:
                         467 --line365
                         468 ..lin.C.3A.5C_ECU2.5CECU_Rivian_A1.5CTarget.5Crepo_projects.5CpFOTA.5CcL_LATEST.5Cmake.5Cobj.5CvSecPrim_Hash.42::
                         469 .LDWlin42:
000001c0 0ad8            470 	mov	r10,r27
000001c2 e051            471 	cmp	zero,r10
000001c4 ba0d*           472 	bne	.L606
000001c6 a33f0300        473 	ld.bu	3[sp],r7
000001ca 613a            474 	cmp	1,r7
000001cc fa05*           475 	bne	.L606
                         476 --line386
                         477 ..lin.C.3A.5C_ECU2.5CECU_Rivian_A1.5CTarget.5Crepo_projects.5CpFOTA.5CcL_LATEST.5Cmake.5Cobj.5CvSecPrim_Hash.43::
                         478 .LDWlin43:
000001ce 3a470100        479 	ld.w	0[r26],r8
000001d2 1930            480 	mov	r25,r6
000001d4 1c38            481 	mov	r28,r7
                         482 	jarl	_VStdLib_MemCpy,lp
                         482 <EXPANSION BEGIN>
                         482 jarl22 _VStdLib_MemCpy , lp 

                                                                      Page 10
                                                              C:\Users\nhuliyap\AppData\Local\Temp\gh_00005uo1.s
000001d6 80ff0000*       482 <EXPANSION END>
                         483 .L606:
                         484 --line390
                         485 ..lin.C.3A.5C_ECU2.5CECU_Rivian_A1.5CTarget.5Crepo_projects.5CpFOTA.5CcL_LATEST.5Cmake.5Cobj.5CvSecPrim_Hash.44::
                         486 .LDWlin44:
000001da 1b50            487 	mov	r27,r10
                         488 --	    .ef
                         489 .LDW32:
000001dc 4406bf70        490 	dispose	2,{r25,r26,r27,r28,r31},[lp]
                         491 	.type	_vSecPrim_finalizeHashWithLengthHandling,@function
                         492 	.size	_vSecPrim_finalizeHashWithLengthHandling,.-_vSecPrim_finalizeHashWithLengthHandling
                         493 	.type	_vSecPrim_finalizeHashWithLengthHandling..C.3A.5C_ECU2.5CECU_Rivian_A1.5CTarget.5Crepo_projects.5CpFOTA.5CcL_LATEST.5Cmake.5Cobj.5CvSecPrim_Hash.,@function
                         494 	.size	_vSecPrim_finalizeHashWithLengthHandling..C.3A.5C_ECU2.5CECU_Rivian_A1.5CTarget.5Crepo_projects.5CpFOTA.5CcL_LATEST.5Cmake.5Cobj.5CvSecPrim_Hash.,.-_vSecPrim_finalizeHashWithLengthHandling..C.3A.5C_ECU2.5CECU_Rivian_A1.5CTarget.5Crepo_projects.5CpFOTA.5CcL_LATEST.5Cmake.5Cobj.5CvSecPrim_Hash.
                         495 	.align	2
                         496 .LDW42:
                         497 --_retVal	r27	local
                         498 --_truncateDigest	3[sp]	local
                         499 --_outputBuffer	r28	local
                         500 
                         501 --_workSpace	r29	param
                         502 --_messageDigestLength	r26	param
                         503 --_messageDigest	r25	param
                         504 --_maxDigestLength	r9	param
                         505 
                         506 	.section ".bss","awb"
                         507 .L738:
                         508 	.type	.L738,@object
                         509 	.size	.L738,0
                         510 	.data
                         511 	.section ".MSR_CODE","ax"
                         512 	.align	2
                         513 	.align	2
                         514 	.align	2
                         515 ..gh.f.f.1.e.5:
                         516 	.type	..gh.f.f.1.e.5,@object
                         517 	.size	..gh.f.f.1.e.5,0
                         518 	.global	_vSecPrim_switchHashIDFinalize..C.3A.5C_ECU2.5CECU_Rivian_A1.5CTarget.5Crepo_projects.5CpFOTA.5CcL_LATEST.5Cmake.5Cobj.5CvSecPrim_Hash.
                         519 _vSecPrim_switchHashIDFinalize..C.3A.5C_ECU2.5CECU_Rivian_A1.5CTarget.5Crepo_projects.5CpFOTA.5CcL_LATEST.5Cmake.5Cobj.5CvSecPrim_Hash.:
                         520 _vSecPrim_switchHashIDFinalize:
000001e0 80072100        521 	prepare	{r31},0
                         522 --	    .bf
                         523 .LDW52:
000001e4 e041            524 	cmp	zero,r8
000001e6 ca0d*           525 	bne	.L909
                         526 --line263
                         527 ..lin.C.3A.5C_ECU2.5CECU_Rivian_A1.5CTarget.5Crepo_projects.5CpFOTA.5CcL_LATEST.5Cmake.5Cobj.5CvSecPrim_Hash.45::
                         528 .LDWlin45:
000001e8 869f3b01        529 	ld.bu	314[r6],r19
000001ec 07f0            530 	mov	r7,ep
000001ee 0850            531 	mov	r8,r10
000001f0 c599            532 	add	r5,r19
000001f2 b30705880000*   533 	ld.bu	rosdaoff23(_vSecPrim_digestSizes)[r19],r17
000001f8 018d            534 	sst.w	r17,0[ep]
000001fa 40063f00        535 	dispose	0,{r31},[lp]
                         536 .L909:
000001fe 0898            537 	mov	r8,r19
                         538 --line304
                         539 ..lin.C.3A.5C_ECU2.5CECU_Rivian_A1.5CTarget.5Crepo_projects.5CpFOTA.5CcL_LATEST.5Cmake.5Cobj.5CvSecPrim_Hash.46::
                         540 .LDWlin46:
00000200 86473b01        541 	ld.bu	314[r6],r8
00000204 6e42            542 	cmp	14,r8

                                                                      Page 11
                                                              C:\Users\nhuliyap\AppData\Local\Temp\gh_00005uo1.s
00000206 ee4712f3        543 	cmovnl	14,r8,ep
0000020a c5f1            544 	add	r5,ep
0000020c be0705480000*   545 	ld.bu	rosdaoff23(_vSecPrim_digestSizes)[ep],r9
00000212 1340            546 	mov	r19,r8
                         547 	jarl	_vSecPrim_finalizeHashWithLengthHandling,lp
                         547 <EXPANSION BEGIN>
                         547 jarl22 _vSecPrim_finalizeHashWithLengthHandling , lp 
00000214 bfff3cff*       547 <EXPANSION END>
                         548 --	    .ef
                         549 .LDW62:
                         550 --line310
                         551 ..lin.C.3A.5C_ECU2.5CECU_Rivian_A1.5CTarget.5Crepo_projects.5CpFOTA.5CcL_LATEST.5Cmake.5Cobj.5CvSecPrim_Hash.47::
                         552 .LDWlin47:
00000218 40063f00        553 	dispose	0,{r31},[lp]
                         554 	.type	_vSecPrim_switchHashIDFinalize,@function
                         555 	.size	_vSecPrim_switchHashIDFinalize,.-_vSecPrim_switchHashIDFinalize
                         556 	.type	_vSecPrim_switchHashIDFinalize..C.3A.5C_ECU2.5CECU_Rivian_A1.5CTarget.5Crepo_projects.5CpFOTA.5CcL_LATEST.5Cmake.5Cobj.5CvSecPrim_Hash.,@function
                         557 	.size	_vSecPrim_switchHashIDFinalize..C.3A.5C_ECU2.5CECU_Rivian_A1.5CTarget.5Crepo_projects.5CpFOTA.5CcL_LATEST.5Cmake.5Cobj.5CvSecPrim_Hash.,.-_vSecPrim_switchHashIDFinalize..C.3A.5C_ECU2.5CECU_Rivian_A1.5CTarget.5Crepo_projects.5CpFOTA.5CcL_LATEST.5Cmake.5Cobj.5CvSecPrim_Hash.
                         558 	.align	2
                         559 .LDW72:
                         560 --_retVal	r10	local
                         561 
                         562 --_workSpace	r6	param
                         563 --_messageDigestLength	ep	param
                         564 --_messageDigest	r19	param
                         565 
                         566 	.section ".bss","awb"
                         567 .L976:
                         568 	.type	.L976,@object
                         569 	.size	.L976,0
                         570 	.section ".rosdata","a"
                         571 	.align	4
                         572 	.global	_vSecPrim_digestSizes..C.3A.5C_ECU2.5CECU_Rivian_A1.5CTarget.5Crepo_projects.5CpFOTA.5CcL_LATEST.5Cmake.5Cobj.5CvSecPrim_Hash.
                         573 _vSecPrim_digestSizes..C.3A.5C_ECU2.5CECU_Rivian_A1.5CTarget.5Crepo_projects.5CpFOTA.5CcL_LATEST.5Cmake.5Cobj.5CvSecPrim_Hash.:
00000000 141c2030        574 _vSecPrim_digestSizes:	.byte	20,28,32,48
00000004 401c201c        575 	.byte	64,28,32,28
00000008 20304020        576 	.byte	32,48,64,32
0000000c 4014            577 	.byte	64,20
0000000e 10              578 	.byte	16
0000000f 00              579 	.space	1
                         580 	.type	_vSecPrim_digestSizes..C.3A.5C_ECU2.5CECU_Rivian_A1.5CTarget.5Crepo_projects.5CpFOTA.5CcL_LATEST.5Cmake.5Cobj.5CvSecPrim_Hash.,@object
                         581 	.size	_vSecPrim_digestSizes..C.3A.5C_ECU2.5CECU_Rivian_A1.5CTarget.5Crepo_projects.5CpFOTA.5CcL_LATEST.5Cmake.5Cobj.5CvSecPrim_Hash.,16
                         582 	.type	_vSecPrim_digestSizes,@object
                         583 	.size	_vSecPrim_digestSizes,16
                         584 	.data
                         585 	.section ".MSR_CODE","ax"
                         586 	.align	2
                         587 	.align	2
                         588 ..gh.f.f.1.e.6:
                         589 	.type	..gh.f.f.1.e.6,@object
                         590 	.size	..gh.f.f.1.e.6,0
                         591 	.global	_vSecPrim_initHash
                         592 _vSecPrim_initHash:
0000021c 8007e130        593 	prepare	{r26,r27,r28,r29,r31},0
                         594 --	    .bf
                         595 .LDW82:
00000220 e031            596 	cmp	zero,r6
00000222 ca05*           597 	bne	.L1034
                         598 --line438
                         599 ..lin.C.3A.5C_ECU2.5CECU_Rivian_A1.5CTarget.5Crepo_projects.5CpFOTA.5CcL_LATEST.5Cmake.5Cobj.5CvSecPrim_Hash.48::
                         600 .LDWlin48:

                                                                      Page 12
                                                              C:\Users\nhuliyap\AppData\Local\Temp\gh_00005uo1.s
00000224 20e60320        601 	movea	8195,zero,r28
00000228 d525*           602 	br	.L1036
                         603 .L1034:
0000022a 08d8            604 	mov	r8,r27
0000022c 07d0            605 	mov	r7,r26
0000022e db00            606 	zxh	r27
00000230 06e8            607 	mov	r6,r29
00000232 9a00            608 	zxb	r26
                         609 --line440
                         610 ..lin.C.3A.5C_ECU2.5CECU_Rivian_A1.5CTarget.5Crepo_projects.5CpFOTA.5CcL_LATEST.5Cmake.5Cobj.5CvSecPrim_Hash.49::
                         611 .LDWlin49:
00000234 61da            612 	cmp	1,r27
00000236 820d*           613 	be	.L1037
00000238 62da            614 	cmp	2,r27
0000023a e205*           615 	be	.L1037
0000023c 64da            616 	cmp	4,r27
0000023e c205*           617 	be	.L1037
                         618 --line443
                         619 ..lin.C.3A.5C_ECU2.5CECU_Rivian_A1.5CTarget.5Crepo_projects.5CpFOTA.5CcL_LATEST.5Cmake.5Cobj.5CvSecPrim_Hash.50::
                         620 .LDWlin50:
00000240 20e60820        621 	movea	8200,zero,r28
00000244 f515*           622 	br	.L1036
                         623 .L1037:
                         624 --line446
                         625 ..lin.C.3A.5C_ECU2.5CECU_Rivian_A1.5CTarget.5Crepo_projects.5CpFOTA.5CcL_LATEST.5Cmake.5Cobj.5CvSecPrim_Hash.51::
                         626 .LDWlin51:
00000246 1a38            627 	mov	r26,r7
                         628 	jarl	_vSecPrim_switchHashIDInit,lp
                         628 <EXPANSION BEGIN>
                         628 jarl22 _vSecPrim_switchHashIDInit , lp 
00000248 bfffb8fd*       628 <EXPANSION END>
0000024c 0ae0            629 	mov	r10,r28
                         630 --line448
                         631 ..lin.C.3A.5C_ECU2.5CECU_Rivian_A1.5CTarget.5Crepo_projects.5CpFOTA.5CcL_LATEST.5Cmake.5Cobj.5CvSecPrim_Hash.52::
                         632 .LDWlin52:
0000024e e051            633 	cmp	zero,r10
00000250 9a15*           634 	bne	.L1036
                         635 --line449
                         636 ..lin.C.3A.5C_ECU2.5CECU_Rivian_A1.5CTarget.5Crepo_projects.5CpFOTA.5CcL_LATEST.5Cmake.5Cobj.5CvSecPrim_Hash.53::
                         637 .LDWlin53:
00000252 3df6f800        638 	movea	248,r29,ep
00000256 c2d3            639 	sst.b	r26,66[ep]
00000258 80dc            640 	sst.h	r27,0[ep]
0000025a 1d30            641 	mov	r29,r6
0000025c 203e800a        642 	movea	2688,zero,r7
                         643 	jarl	_esl_SetWorkspaceStatus,lp
                         643 <EXPANSION BEGIN>
                         643 jarl22 _esl_SetWorkspaceStatus , lp 
00000260 80ff0000*       643 <EXPANSION END>
                         644 --line453
                         645 ..lin.C.3A.5C_ECU2.5CECU_Rivian_A1.5CTarget.5Crepo_projects.5CpFOTA.5CcL_LATEST.5Cmake.5Cobj.5CvSecPrim_Hash.54::
                         646 .LDWlin54:
00000264 1d30            647 	mov	r29,r6
00000266 203e3001        648 	movea	304,zero,r7
                         649 	jarl	_esl_SetWorkspaceSize,lp
                         649 <EXPANSION BEGIN>
                         649 jarl22 _esl_SetWorkspaceSize , lp 
0000026a 80ff0000*       649 <EXPANSION END>
                         650 --line454
                         651 ..lin.C.3A.5C_ECU2.5CECU_Rivian_A1.5CTarget.5Crepo_projects.5CpFOTA.5CcL_LATEST.5Cmake.5Cobj.5CvSecPrim_Hash.55::
                         652 .LDWlin55:

                                                                      Page 13
                                                              C:\Users\nhuliyap\AppData\Local\Temp\gh_00005uo1.s
0000026e 5d073b01        653 	st.b	zero,315[r29]
                         654 .L1036:
00000272 1c50            655 	mov	r28,r10
                         656 --	    .ef
                         657 .LDW92:
00000274 4006ff30        658 	dispose	0,{r26,r27,r28,r29,r31},[lp]
                         659 	.type	_vSecPrim_initHash,@function
                         660 	.size	_vSecPrim_initHash,.-_vSecPrim_initHash
                         661 	.align	2
                         662 .LDW03:
                         663 --_retVal	r28	local
                         664 
                         665 --_workSpace	r29	param
                         666 --_hashID	r26	param
                         667 --_outputLengthFlag	r27	param
                         668 
                         669 	.section ".bss","awb"
                         670 .L1124:
                         671 	.type	.L1124,@object
                         672 	.size	.L1124,0
                         673 	.data
                         674 	.section ".MSR_CODE","ax"
                         675 	.align	2
                         676 	.align	2
                         677 ..gh.f.f.1.e.7:
                         678 	.type	..gh.f.f.1.e.7,@object
                         679 	.size	..gh.f.f.1.e.7,0
                         680 	.global	_vSecPrim_updateHash
                         681 _vSecPrim_updateHash:
00000278 8007e110        682 	prepare	{r27,r28,r29,r31},0
0000027c 06e8            683 	mov	r6,r29
0000027e 07d8            684 	mov	r7,r27
00000280 08e0            685 	mov	r8,r28
                         686 --	    .bf
                         687 .LDW13:
00000282 e031            688 	cmp	zero,r6
00000284 b205*           689 	be	.L1217
00000286 e041            690 	cmp	zero,r8
00000288 da05*           691 	bne	.L1216
                         692 .L1217:
                         693 --line468
                         694 ..lin.C.3A.5C_ECU2.5CECU_Rivian_A1.5CTarget.5Crepo_projects.5CpFOTA.5CcL_LATEST.5Cmake.5Cobj.5CvSecPrim_Hash.56::
                         695 .LDWlin56:
0000028a 20560320        696 	movea	8195,zero,r10
0000028e 4006ff10        697 	dispose	0,{r27,r28,r29,r31},[lp]
                         698 .L1216:
                         699 --line470
                         700 ..lin.C.3A.5C_ECU2.5CECU_Rivian_A1.5CTarget.5Crepo_projects.5CpFOTA.5CcL_LATEST.5Cmake.5Cobj.5CvSecPrim_Hash.57::
                         701 .LDWlin57:
00000292 203e800a        702 	movea	2688,zero,r7
                         703 	jarl	_esl_CheckWorkSpaceState,lp
                         703 <EXPANSION BEGIN>
                         703 jarl22 _esl_CheckWorkSpaceState , lp 
00000296 80ff0000*       703 <EXPANSION END>
0000029a e051            704 	cmp	zero,r10
0000029c ba0d*           705 	bne	.L1214
                         706 --line473
                         707 ..lin.C.3A.5C_ECU2.5CECU_Rivian_A1.5CTarget.5Crepo_projects.5CpFOTA.5CcL_LATEST.5Cmake.5Cobj.5CvSecPrim_Hash.58::
                         708 .LDWlin58:
0000029e 1d30            709 	mov	r29,r6
000002a0 1b38            710 	mov	r27,r7

                                                                      Page 14
                                                              C:\Users\nhuliyap\AppData\Local\Temp\gh_00005uo1.s
000002a2 1c40            711 	mov	r28,r8
                         712 	jarl	_vSecPrim_switchHashIDUpdate,lp
                         712 <EXPANSION BEGIN>
                         712 jarl22 _vSecPrim_switchHashIDUpdate , lp 
000002a4 bffffafd*       712 <EXPANSION END>
                         713 --line475
                         714 ..lin.C.3A.5C_ECU2.5CECU_Rivian_A1.5CTarget.5Crepo_projects.5CpFOTA.5CcL_LATEST.5Cmake.5Cobj.5CvSecPrim_Hash.59::
                         715 .LDWlin59:
000002a8 014a            716 	mov	1,r9
000002aa 5d4f3b01        717 	st.b	r9,315[r29]
000002ae 4006ff10        718 	dispose	0,{r27,r28,r29,r31},[lp]
                         719 .L1214:
                         720 --	    .ef
                         721 .LDW23:
                         722 --line478
                         723 ..lin.C.3A.5C_ECU2.5CECU_Rivian_A1.5CTarget.5Crepo_projects.5CpFOTA.5CcL_LATEST.5Cmake.5Cobj.5CvSecPrim_Hash.60::
                         724 .LDWlin60:
000002b2 4006ff10        725 	dispose	0,{r27,r28,r29,r31},[lp]
                         726 	.type	_vSecPrim_updateHash,@function
                         727 	.size	_vSecPrim_updateHash,.-_vSecPrim_updateHash
                         728 	.align	2
                         729 .LDW33:
                         730 --_retVal	r10	local
                         731 
                         732 --_workSpace	r29	param
                         733 --_inputLength	r27	param
                         734 --_input	r28	param
                         735 
                         736 	.section ".bss","awb"
                         737 .L1282:
                         738 	.type	.L1282,@object
                         739 	.size	.L1282,0
                         740 	.data
                         741 	.section ".MSR_CODE","ax"
                         742 	.align	2
                         743 	.align	2
                         744 ..gh.f.f.1.e.8:
                         745 	.type	..gh.f.f.1.e.8,@object
                         746 	.size	..gh.f.f.1.e.8,0
                         747 	.global	_vSecPrim_finalizeHash
                         748 _vSecPrim_finalizeHash:
000002b6 8007e130        749 	prepare	{r26,r27,r28,r29,r31},0
000002ba 06e8            750 	mov	r6,r29
000002bc 07d8            751 	mov	r7,r27
000002be 08d0            752 	mov	r8,r26
                         753 --	    .bf
                         754 .LDW43:
000002c0 e031            755 	cmp	zero,r6
000002c2 b205*           756 	be	.L1353
000002c4 e039            757 	cmp	zero,r7
000002c6 ca05*           758 	bne	.L1352
                         759 .L1353:
                         760 --line488
                         761 ..lin.C.3A.5C_ECU2.5CECU_Rivian_A1.5CTarget.5Crepo_projects.5CpFOTA.5CcL_LATEST.5Cmake.5Cobj.5CvSecPrim_Hash.61::
                         762 .LDWlin61:
000002c8 20e60320        763 	movea	8195,zero,r28
000002cc d515*           764 	br	.L1355
                         765 .L1352:
                         766 --line490
                         767 ..lin.C.3A.5C_ECU2.5CECU_Rivian_A1.5CTarget.5Crepo_projects.5CpFOTA.5CcL_LATEST.5Cmake.5Cobj.5CvSecPrim_Hash.62::
                         768 .LDWlin62:

                                                                      Page 15
                                                              C:\Users\nhuliyap\AppData\Local\Temp\gh_00005uo1.s
000002ce 203e800a        769 	movea	2688,zero,r7
                         770 	jarl	_esl_CheckWorkSpaceState,lp
                         770 <EXPANSION BEGIN>
                         770 jarl22 _esl_CheckWorkSpaceState , lp 
000002d2 80ff0000*       770 <EXPANSION END>
000002d6 0ae0            771 	mov	r10,r28
000002d8 e051            772 	cmp	zero,r10
000002da ea0d*           773 	bne	.L1355
                         774 --line493
                         775 ..lin.C.3A.5C_ECU2.5CECU_Rivian_A1.5CTarget.5Crepo_projects.5CpFOTA.5CcL_LATEST.5Cmake.5Cobj.5CvSecPrim_Hash.63::
                         776 .LDWlin63:
000002dc 1d30            777 	mov	r29,r6
000002de 1b38            778 	mov	r27,r7
000002e0 1a40            779 	mov	r26,r8
                         780 	jarl	_vSecPrim_switchHashIDFinalize,lp
                         780 <EXPANSION BEGIN>
                         780 jarl22 _vSecPrim_switchHashIDFinalize , lp 
000002e2 bffffefe*       780 <EXPANSION END>
000002e6 0ae0            781 	mov	r10,r28
                         782 --line495
                         783 ..lin.C.3A.5C_ECU2.5CECU_Rivian_A1.5CTarget.5Crepo_projects.5CpFOTA.5CcL_LATEST.5Cmake.5Cobj.5CvSecPrim_Hash.64::
                         784 .LDWlin64:
000002e8 e0d1            785 	cmp	zero,r26
000002ea e205*           786 	be	.L1355
                         787 --line496
                         788 ..lin.C.3A.5C_ECU2.5CECU_Rivian_A1.5CTarget.5Crepo_projects.5CpFOTA.5CcL_LATEST.5Cmake.5Cobj.5CvSecPrim_Hash.65::
                         789 .LDWlin65:
000002ec 1d30            790 	mov	r29,r6
000002ee 1d3e1000        791 	addi	16,r29,r7
                         792 	jarl	_esl_ResetAndClearWorkspace,lp
                         792 <EXPANSION BEGIN>
                         792 jarl22 _esl_ResetAndClearWorkspace , lp 
000002f2 80ff0000*       792 <EXPANSION END>
                         793 .L1355:
                         794 --line500
                         795 ..lin.C.3A.5C_ECU2.5CECU_Rivian_A1.5CTarget.5Crepo_projects.5CpFOTA.5CcL_LATEST.5Cmake.5Cobj.5CvSecPrim_Hash.66::
                         796 .LDWlin66:
000002f6 1c50            797 	mov	r28,r10
                         798 --	    .ef
                         799 .LDW53:
000002f8 4006ff30        800 	dispose	0,{r26,r27,r28,r29,r31},[lp]
                         801 	.type	_vSecPrim_finalizeHash,@function
                         802 	.size	_vSecPrim_finalizeHash,.-_vSecPrim_finalizeHash
                         803 	.align	2
                         804 .LDW63:
                         805 --_retVal	r28	local
                         806 
                         807 --_workSpace	r29	param
                         808 --_messageDigestLength	r27	param
                         809 --_messageDigest	r26	param
                         810 
                         811 	.section ".bss","awb"
                         812 .L1416:
                         813 	.type	.L1416,@object
                         814 	.size	.L1416,0
                         815 	.data
                         816 	.section ".MSR_CODE","ax"
                         817 	.align	2
                         818 	.align	2
                         819 ..gh.f.f.1.e.9:
                         820 	.type	..gh.f.f.1.e.9,@object

                                                                      Page 16
                                                              C:\Users\nhuliyap\AppData\Local\Temp\gh_00005uo1.s
                         821 	.size	..gh.f.f.1.e.9,0
                         822 	.global	_vSecPrim_digestHash
                         823 _vSecPrim_digestHash:
000002fc 8007e1f0        824 	prepare	{r24,r25,r26,r27,r28,r29,r31},0
00000300 06e0            825 	mov	r6,r28
00000302 07c0            826 	mov	r7,r24
00000304 08d0            827 	mov	r8,r26
00000306 09d8            828 	mov	r9,r27
00000308 23cf1d00        829 	ld.w	28[sp],r25
                         830 --	    .bf
                         831 .LDW73:
0000030c e031            832 	cmp	zero,r6
0000030e d205*           833 	be	.L1491
00000310 e041            834 	cmp	zero,r8
00000312 b205*           835 	be	.L1491
00000314 e049            836 	cmp	zero,r9
00000316 ca05*           837 	bne	.L1490
                         838 .L1491:
                         839 --line512
                         840 ..lin.C.3A.5C_ECU2.5CECU_Rivian_A1.5CTarget.5Crepo_projects.5CpFOTA.5CcL_LATEST.5Cmake.5Cobj.5CvSecPrim_Hash.67::
                         841 .LDWlin67:
00000318 20ee0320        842 	movea	8195,zero,r29
0000031c a52d*           843 	br	.L1494
                         844 .L1490:
                         845 --line515
                         846 ..lin.C.3A.5C_ECU2.5CECU_Rivian_A1.5CTarget.5Crepo_projects.5CpFOTA.5CcL_LATEST.5Cmake.5Cobj.5CvSecPrim_Hash.68::
                         847 .LDWlin68:
0000031e 203e800a        848 	movea	2688,zero,r7
                         849 	jarl	_esl_CheckWorkSpaceState,lp
                         849 <EXPANSION BEGIN>
                         849 jarl22 _esl_CheckWorkSpaceState , lp 
00000322 80ff0000*       849 <EXPANSION END>
00000326 0ae8            850 	mov	r10,r29
00000328 e051            851 	cmp	zero,r10
0000032a ba25*           852 	bne	.L1494
                         853 --line518
                         854 ..lin.C.3A.5C_ECU2.5CECU_Rivian_A1.5CTarget.5Crepo_projects.5CpFOTA.5CcL_LATEST.5Cmake.5Cobj.5CvSecPrim_Hash.69::
                         855 .LDWlin69:
0000032c bc973b01        856 	ld.bu	315[r28],r18
00000330 e091            857 	cmp	zero,r18
00000332 c205*           858 	be	.L1498
                         859 --line519
                         860 ..lin.C.3A.5C_ECU2.5CECU_Rivian_A1.5CTarget.5Crepo_projects.5CpFOTA.5CcL_LATEST.5Cmake.5Cobj.5CvSecPrim_Hash.70::
                         861 .LDWlin70:
00000334 20ee0120        862 	movea	8193,zero,r29
00000338 c51d*           863 	br	.L1494
                         864 .L1498:
                         865 --line521
                         866 ..lin.C.3A.5C_ECU2.5CECU_Rivian_A1.5CTarget.5Crepo_projects.5CpFOTA.5CcL_LATEST.5Cmake.5Cobj.5CvSecPrim_Hash.71::
                         867 .LDWlin71:
0000033a 1c30            868 	mov	r28,r6
0000033c e0c9            869 	cmp	zero,r25
0000033e fa05*           870 	bne	.L1501
                         871 --line522
                         872 ..lin.C.3A.5C_ECU2.5CECU_Rivian_A1.5CTarget.5Crepo_projects.5CpFOTA.5CcL_LATEST.5Cmake.5Cobj.5CvSecPrim_Hash.72::
                         873 .LDWlin72:
00000340 1b38            874 	mov	r27,r7
00000342 0a40            875 	mov	r10,r8
                         876 	jarl	_vSecPrim_switchHashIDFinalize,lp
                         876 <EXPANSION BEGIN>
                         876 jarl22 _vSecPrim_switchHashIDFinalize , lp 

                                                                      Page 17
                                                              C:\Users\nhuliyap\AppData\Local\Temp\gh_00005uo1.s
00000344 bfff9cfe*       876 <EXPANSION END>
00000348 0ae8            877 	mov	r10,r29
0000034a b515*           878 	br	.L1494
                         879 .L1501:
                         880 --line525
                         881 ..lin.C.3A.5C_ECU2.5CECU_Rivian_A1.5CTarget.5Crepo_projects.5CpFOTA.5CcL_LATEST.5Cmake.5Cobj.5CvSecPrim_Hash.73::
                         882 .LDWlin73:
0000034c 1838            883 	mov	r24,r7
0000034e 1a40            884 	mov	r26,r8
                         885 	jarl	_vSecPrim_switchHashIDUpdate,lp
                         885 <EXPANSION BEGIN>
                         885 jarl22 _vSecPrim_switchHashIDUpdate , lp 
00000350 bfff4efd*       885 <EXPANSION END>
00000354 0ae8            886 	mov	r10,r29
                         887 --line527
                         888 ..lin.C.3A.5C_ECU2.5CECU_Rivian_A1.5CTarget.5Crepo_projects.5CpFOTA.5CcL_LATEST.5Cmake.5Cobj.5CvSecPrim_Hash.74::
                         889 .LDWlin74:
00000356 e051            890 	cmp	zero,r10
00000358 ca0d*           891 	bne	.L1494
                         892 --line528
                         893 ..lin.C.3A.5C_ECU2.5CECU_Rivian_A1.5CTarget.5Crepo_projects.5CpFOTA.5CcL_LATEST.5Cmake.5Cobj.5CvSecPrim_Hash.75::
                         894 .LDWlin75:
0000035a 1c30            895 	mov	r28,r6
0000035c 1b38            896 	mov	r27,r7
0000035e 1940            897 	mov	r25,r8
                         898 	jarl	_vSecPrim_switchHashIDFinalize,lp
                         898 <EXPANSION BEGIN>
                         898 jarl22 _vSecPrim_switchHashIDFinalize , lp 
00000360 bfff80fe*       898 <EXPANSION END>
00000364 0ae8            899 	mov	r10,r29
                         900 --line529
                         901 ..lin.C.3A.5C_ECU2.5CECU_Rivian_A1.5CTarget.5Crepo_projects.5CpFOTA.5CcL_LATEST.5Cmake.5Cobj.5CvSecPrim_Hash.76::
                         902 .LDWlin76:
00000366 1c30            903 	mov	r28,r6
00000368 1c3e1000        904 	addi	16,r28,r7
                         905 	jarl	_esl_ResetAndClearWorkspace,lp
                         905 <EXPANSION BEGIN>
                         905 jarl22 _esl_ResetAndClearWorkspace , lp 
0000036c 80ff0000*       905 <EXPANSION END>
                         906 .L1494:
                         907 --line533
                         908 ..lin.C.3A.5C_ECU2.5CECU_Rivian_A1.5CTarget.5Crepo_projects.5CpFOTA.5CcL_LATEST.5Cmake.5Cobj.5CvSecPrim_Hash.77::
                         909 .LDWlin77:
00000370 1d50            910 	mov	r29,r10
                         911 --	    .ef
                         912 .LDW83:
00000372 4006fff0        913 	dispose	0,{r24,r25,r26,r27,r28,r29,r31},[lp]
                         914 	.type	_vSecPrim_digestHash,@function
                         915 	.size	_vSecPrim_digestHash,.-_vSecPrim_digestHash
                         916 	.align	2
                         917 .LDW93:
                         918 --_retVal	r29	local
                         919 
                         920 --_workSpace	r28	param
                         921 --_inputLength	r24	param
                         922 --_input	r26	param
                         923 --_messageDigestLength	r27	param
                         924 --_messageDigest	r25	param
                         925 
                         926 	.section ".bss","awb"
                         927 .L1620:

                                                                      Page 18
                                                              C:\Users\nhuliyap\AppData\Local\Temp\gh_00005uo1.s
                         928 	.type	.L1620,@object
                         929 	.size	.L1620,0
                         930 	.data
                         931 	.section ".MSR_CODE","ax"
                         932 	.align	2
                         933 --_vSecPrim_digestSizes	rosdaoff23(_vSecPrim_digestSizes)	static
                         934 
                         935 	.data
                         936 	.ghsnote version,17
                         937 	.ghsnote tools,3
                         938 	.ghsnote options,144
                         939 	.section ".MSR_CODE","ax"
                         940 	.align	2
                         941 ..eof.C.3A.5C_ECU2.5CECU_Rivian_A1.5CTarget.5Crepo_projects.5CpFOTA.5CcL_LATEST.5Cmake.5Cobj.5CvSecPrim_Hash...43.3A.5C_ECU2.5CECU_Rivian_A1.5CTarget.5Crepo_projects.5CpFOTA.5CcL_LATEST.5Cmake..64F86C08..0::
                         942 .rh850_flags REGMODE32,DATA_ALIGN8,GP_FIX,EP_NONFIX,TP_FIX,REG2_RESERVE,G3K,SDA_EXTRA_REGS_0
